; Listing generated by Microsoft (R) Optimizing Compiler Version 13.10.3077 

	TITLE	\boxgit\PlayBox\CommonLib\common\YL_DirInfo.cpp
	.386P
include listing.inc
if @Version gt 510
.model FLAT
else
_TEXT	SEGMENT PARA USE32 PUBLIC 'CODE'
_TEXT	ENDS
_DATA	SEGMENT DWORD USE32 PUBLIC 'DATA'
_DATA	ENDS
CONST	SEGMENT DWORD USE32 PUBLIC 'CONST'
CONST	ENDS
_BSS	SEGMENT DWORD USE32 PUBLIC 'BSS'
_BSS	ENDS
$$SYMBOLS	SEGMENT BYTE USE32 'DEBSYM'
$$SYMBOLS	ENDS
$$TYPES	SEGMENT BYTE USE32 'DEBTYP'
$$TYPES	ENDS
_TLS	SEGMENT DWORD USE32 PUBLIC 'TLS'
_TLS	ENDS
;	COMDAT ??_C@_0FG@EOHGAEB@?3Sun?3Sunday?3Mon?3Monday?3Tue?3Tuesd@
CONST	SEGMENT DWORD USE32 PUBLIC 'CONST'
CONST	ENDS
;	COMDAT ??_C@_0IH@HPGJLCCK@?3Jan?3January?3Feb?3February?3Mar?3Ma@
CONST	SEGMENT DWORD USE32 PUBLIC 'CONST'
CONST	ENDS
;	COMDAT ??_C@_05LAPONLG@false?$AA@
CONST	SEGMENT DWORD USE32 PUBLIC 'CONST'
CONST	ENDS
;	COMDAT ??_C@_04LOAJBDKD@true?$AA@
CONST	SEGMENT DWORD USE32 PUBLIC 'CONST'
CONST	ENDS
;	COMDAT ??_C@_01GFHCPBMG@C?$AA@
CONST	SEGMENT DWORD USE32 PUBLIC 'CONST'
CONST	ENDS
;	COMDAT ??_C@_02EAOCLKAK@ld?$AA@
CONST	SEGMENT DWORD USE32 PUBLIC 'CONST'
CONST	ENDS
;	COMDAT ??_C@_02BDDLJJBK@lu?$AA@
CONST	SEGMENT DWORD USE32 PUBLIC 'CONST'
CONST	ENDS
;	COMDAT ??_C@_02HIKPPMOK@Ld?$AA@
CONST	SEGMENT DWORD USE32 PUBLIC 'CONST'
CONST	ENDS
;	COMDAT ??_C@_02CLHGNPPK@Lu?$AA@
CONST	SEGMENT DWORD USE32 PUBLIC 'CONST'
CONST	ENDS
;	COMDAT ??_C@_02BBAHNLBA@?$CFp?$AA@
CONST	SEGMENT DWORD USE32 PUBLIC 'CONST'
CONST	ENDS
;	COMDAT ??_C@_0BH@HHDGIIFB@0123456789abcdefABCDEF?$AA@
CONST	SEGMENT DWORD USE32 PUBLIC 'CONST'
CONST	ENDS
;	COMDAT ??_C@_01DDCIFGEA@E?$AA@
CONST	SEGMENT DWORD USE32 PUBLIC 'CONST'
CONST	ENDS
;	COMDAT ??_C@_01KGKMHCOC@e?$AA@
CONST	SEGMENT DWORD USE32 PUBLIC 'CONST'
CONST	ENDS
;	COMDAT ??_C@_0BD@OLBABOEK@vector?$DMT?$DO?5too?5long?$AA@
CONST	SEGMENT DWORD USE32 PUBLIC 'CONST'
CONST	ENDS
;	COMDAT ??_C@_08EPJLHIJG@bad?5cast?$AA@
CONST	SEGMENT DWORD USE32 PUBLIC 'CONST'
CONST	ENDS
rdata$r	SEGMENT DWORD USE32 PUBLIC 'CONST'
rdata$r	ENDS
xdata$x	SEGMENT DWORD USE32 PUBLIC 'CONST'
xdata$x	ENDS
;	COMDAT _IsEqualGUID
_TEXT	SEGMENT PARA USE32 PUBLIC 'CODE'
_TEXT	ENDS
;	COMDAT _==
_TEXT	SEGMENT PARA USE32 PUBLIC 'CODE'
_TEXT	ENDS
;	COMDAT ??1bad_exception@std@@UAE@XZ
_TEXT	SEGMENT PARA USE32 PUBLIC 'CODE'
_TEXT	ENDS
;	COMDAT ??_Gbad_exception@std@@UAEPAXI@Z
_TEXT	SEGMENT PARA USE32 PUBLIC 'CODE'
_TEXT	ENDS
;	COMDAT ??1bad_alloc@std@@UAE@XZ
_TEXT	SEGMENT PARA USE32 PUBLIC 'CODE'
_TEXT	ENDS
;	COMDAT ??_Gbad_alloc@std@@UAEPAXI@Z
_TEXT	SEGMENT PARA USE32 PUBLIC 'CODE'
_TEXT	ENDS
;	COMDAT ??2@YAPAXIPAX@Z
_TEXT	SEGMENT PARA USE32 PUBLIC 'CODE'
_TEXT	ENDS
;	COMDAT ??3@YAXPAX0@Z
_TEXT	SEGMENT PARA USE32 PUBLIC 'CODE'
_TEXT	ENDS
;	COMDAT _wmemchr
_TEXT	SEGMENT PARA USE32 PUBLIC 'CODE'
_TEXT	ENDS
;	COMDAT _wmemcmp
_TEXT	SEGMENT PARA USE32 PUBLIC 'CODE'
_TEXT	ENDS
;	COMDAT _wmemcpy
_TEXT	SEGMENT PARA USE32 PUBLIC 'CODE'
_TEXT	ENDS
;	COMDAT _wmemmove
_TEXT	SEGMENT PARA USE32 PUBLIC 'CODE'
_TEXT	ENDS
;	COMDAT _wmemset
_TEXT	SEGMENT PARA USE32 PUBLIC 'CODE'
_TEXT	ENDS
;	COMDAT ??0logic_error@std@@QAE@ABV?$basic_string@DU?$char_traits@D@std@@V?$allocator@D@2@@1@@Z
_TEXT	SEGMENT PARA USE32 PUBLIC 'CODE'
_TEXT	ENDS
;	COMDAT ??1logic_error@std@@UAE@XZ
_TEXT	SEGMENT PARA USE32 PUBLIC 'CODE'
_TEXT	ENDS
;	COMDAT ?what@logic_error@std@@UBEPBDXZ
_TEXT	SEGMENT PARA USE32 PUBLIC 'CODE'
_TEXT	ENDS
;	COMDAT ??_Glogic_error@std@@UAEPAXI@Z
_TEXT	SEGMENT PARA USE32 PUBLIC 'CODE'
_TEXT	ENDS
;	COMDAT ??1domain_error@std@@UAE@XZ
_TEXT	SEGMENT PARA USE32 PUBLIC 'CODE'
_TEXT	ENDS
;	COMDAT ??_Gdomain_error@std@@UAEPAXI@Z
_TEXT	SEGMENT PARA USE32 PUBLIC 'CODE'
_TEXT	ENDS
;	COMDAT ??1invalid_argument@std@@UAE@XZ
_TEXT	SEGMENT PARA USE32 PUBLIC 'CODE'
_TEXT	ENDS
;	COMDAT ??_Ginvalid_argument@std@@UAEPAXI@Z
_TEXT	SEGMENT PARA USE32 PUBLIC 'CODE'
_TEXT	ENDS
;	COMDAT ??0length_error@std@@QAE@ABV?$basic_string@DU?$char_traits@D@std@@V?$allocator@D@2@@1@@Z
_TEXT	SEGMENT PARA USE32 PUBLIC 'CODE'
_TEXT	ENDS
;	COMDAT ??1length_error@std@@UAE@XZ
_TEXT	SEGMENT PARA USE32 PUBLIC 'CODE'
_TEXT	ENDS
;	COMDAT ??_Glength_error@std@@UAEPAXI@Z
_TEXT	SEGMENT PARA USE32 PUBLIC 'CODE'
_TEXT	ENDS
;	COMDAT ??1out_of_range@std@@UAE@XZ
_TEXT	SEGMENT PARA USE32 PUBLIC 'CODE'
_TEXT	ENDS
;	COMDAT ??_Gout_of_range@std@@UAEPAXI@Z
_TEXT	SEGMENT PARA USE32 PUBLIC 'CODE'
_TEXT	ENDS
;	COMDAT ??0runtime_error@std@@QAE@ABV?$basic_string@DU?$char_traits@D@std@@V?$allocator@D@2@@1@@Z
_TEXT	SEGMENT PARA USE32 PUBLIC 'CODE'
_TEXT	ENDS
;	COMDAT ??1runtime_error@std@@UAE@XZ
_TEXT	SEGMENT PARA USE32 PUBLIC 'CODE'
_TEXT	ENDS
;	COMDAT ?what@runtime_error@std@@UBEPBDXZ
_TEXT	SEGMENT PARA USE32 PUBLIC 'CODE'
_TEXT	ENDS
;	COMDAT ??_Gruntime_error@std@@UAEPAXI@Z
_TEXT	SEGMENT PARA USE32 PUBLIC 'CODE'
_TEXT	ENDS
;	COMDAT ??1overflow_error@std@@UAE@XZ
_TEXT	SEGMENT PARA USE32 PUBLIC 'CODE'
_TEXT	ENDS
;	COMDAT ??_Goverflow_error@std@@UAEPAXI@Z
_TEXT	SEGMENT PARA USE32 PUBLIC 'CODE'
_TEXT	ENDS
;	COMDAT ??1underflow_error@std@@UAE@XZ
_TEXT	SEGMENT PARA USE32 PUBLIC 'CODE'
_TEXT	ENDS
;	COMDAT ??_Gunderflow_error@std@@UAEPAXI@Z
_TEXT	SEGMENT PARA USE32 PUBLIC 'CODE'
_TEXT	ENDS
;	COMDAT ??1range_error@std@@UAE@XZ
_TEXT	SEGMENT PARA USE32 PUBLIC 'CODE'
_TEXT	ENDS
;	COMDAT ??_Grange_error@std@@UAEPAXI@Z
_TEXT	SEGMENT PARA USE32 PUBLIC 'CODE'
_TEXT	ENDS
;	COMDAT ??$_Maklocbyte@_W@std@@YAD_WABU_Cvtvec@@@Z
_TEXT	SEGMENT PARA USE32 PUBLIC 'CODE'
_TEXT	ENDS
;	COMDAT ??$_Maklocchr@_W@std@@YA_WDPA_WABU_Cvtvec@@@Z
_TEXT	SEGMENT PARA USE32 PUBLIC 'CODE'
_TEXT	ENDS
;	COMDAT ??$_Maklocstr@_W@std@@YAPA_WPBDPA_WABU_Cvtvec@@@Z
_TEXT	SEGMENT PARA USE32 PUBLIC 'CODE'
_TEXT	ENDS
;	COMDAT ??_G?$codecvt@_WDH@std@@MAEPAXI@Z
_TEXT	SEGMENT PARA USE32 PUBLIC 'CODE'
_TEXT	ENDS
;	COMDAT ??_G?$ctype@D@std@@MAEPAXI@Z
_TEXT	SEGMENT PARA USE32 PUBLIC 'CODE'
_TEXT	ENDS
;	COMDAT ??_G?$ctype@_W@std@@MAEPAXI@Z
_TEXT	SEGMENT PARA USE32 PUBLIC 'CODE'
_TEXT	ENDS
;	COMDAT ??1failure@ios_base@std@@UAE@XZ
_TEXT	SEGMENT PARA USE32 PUBLIC 'CODE'
_TEXT	ENDS
;	COMDAT ??_Gfailure@ios_base@std@@UAEPAXI@Z
_TEXT	SEGMENT PARA USE32 PUBLIC 'CODE'
_TEXT	ENDS
;	COMDAT ??1sentry@?$basic_istream@DU?$char_traits@D@std@@@std@@QAE@XZ
_TEXT	SEGMENT PARA USE32 PUBLIC 'CODE'
_TEXT	ENDS
;	COMDAT ??1sentry@?$basic_istream@_WU?$char_traits@_W@std@@@std@@QAE@XZ
_TEXT	SEGMENT PARA USE32 PUBLIC 'CODE'
_TEXT	ENDS
;	COMDAT ??0?$allocator@D@std@@QAE@XZ
_TEXT	SEGMENT PARA USE32 PUBLIC 'CODE'
_TEXT	ENDS
;	COMDAT ??0?$allocator@D@std@@QAE@ABV01@@Z
_TEXT	SEGMENT PARA USE32 PUBLIC 'CODE'
_TEXT	ENDS
;	COMDAT ??0?$allocator@_W@std@@QAE@XZ
_TEXT	SEGMENT PARA USE32 PUBLIC 'CODE'
_TEXT	ENDS
;	COMDAT ??0?$allocator@_W@std@@QAE@ABV01@@Z
_TEXT	SEGMENT PARA USE32 PUBLIC 'CODE'
_TEXT	ENDS
;	COMDAT ??0sentry@?$basic_istream@DU?$char_traits@D@std@@@std@@QAE@AAV12@_N@Z
_TEXT	SEGMENT PARA USE32 PUBLIC 'CODE'
_TEXT	ENDS
;	COMDAT ??Bsentry@?$basic_istream@DU?$char_traits@D@std@@@std@@QBE_NXZ
_TEXT	SEGMENT PARA USE32 PUBLIC 'CODE'
_TEXT	ENDS
;	COMDAT ??1_Sentry_base@?$basic_istream@DU?$char_traits@D@std@@@std@@QAE@XZ
_TEXT	SEGMENT PARA USE32 PUBLIC 'CODE'
_TEXT	ENDS
;	COMDAT ??0sentry@?$basic_istream@_WU?$char_traits@_W@std@@@std@@QAE@AAV12@_N@Z
_TEXT	SEGMENT PARA USE32 PUBLIC 'CODE'
_TEXT	ENDS
;	COMDAT ??Bsentry@?$basic_istream@_WU?$char_traits@_W@std@@@std@@QBE_NXZ
_TEXT	SEGMENT PARA USE32 PUBLIC 'CODE'
_TEXT	ENDS
;	COMDAT ??1_Sentry_base@?$basic_istream@_WU?$char_traits@_W@std@@@std@@QAE@XZ
_TEXT	SEGMENT PARA USE32 PUBLIC 'CODE'
_TEXT	ENDS
;	COMDAT ??0?$vector@V?$basic_string@DU?$char_traits@D@std@@V?$allocator@D@2@@std@@V?$allocator@V?$basic_string@DU?$char_traits@D@std@@V?$allocator@D@2@@std@@@2@@std@@QAE@XZ
_TEXT	SEGMENT PARA USE32 PUBLIC 'CODE'
_TEXT	ENDS
;	COMDAT ??1?$vector@V?$basic_string@DU?$char_traits@D@std@@V?$allocator@D@2@@std@@V?$allocator@V?$basic_string@DU?$char_traits@D@std@@V?$allocator@D@2@@std@@@2@@std@@QAE@XZ
_TEXT	SEGMENT PARA USE32 PUBLIC 'CODE'
_TEXT	ENDS
;	COMDAT ?begin@?$vector@V?$basic_string@DU?$char_traits@D@std@@V?$allocator@D@2@@std@@V?$allocator@V?$basic_string@DU?$char_traits@D@std@@V?$allocator@D@2@@std@@@2@@std@@QAE?AViterator@12@XZ
_TEXT	SEGMENT PARA USE32 PUBLIC 'CODE'
_TEXT	ENDS
;	COMDAT ?end@?$vector@V?$basic_string@DU?$char_traits@D@std@@V?$allocator@D@2@@std@@V?$allocator@V?$basic_string@DU?$char_traits@D@std@@V?$allocator@D@2@@std@@@2@@std@@QAE?AViterator@12@XZ
_TEXT	SEGMENT PARA USE32 PUBLIC 'CODE'
_TEXT	ENDS
;	COMDAT ?size@?$vector@V?$basic_string@DU?$char_traits@D@std@@V?$allocator@D@2@@std@@V?$allocator@V?$basic_string@DU?$char_traits@D@std@@V?$allocator@D@2@@std@@@2@@std@@QBEIXZ
_TEXT	SEGMENT PARA USE32 PUBLIC 'CODE'
_TEXT	ENDS
;	COMDAT ??A?$vector@V?$basic_string@DU?$char_traits@D@std@@V?$allocator@D@2@@std@@V?$allocator@V?$basic_string@DU?$char_traits@D@std@@V?$allocator@D@2@@std@@@2@@std@@QBEABV?$basic_string@DU?$char_traits@D@std@@V?$allocator@D@2@@1@I@Z
_TEXT	SEGMENT PARA USE32 PUBLIC 'CODE'
_TEXT	ENDS
;	COMDAT ??A?$vector@V?$basic_string@DU?$char_traits@D@std@@V?$allocator@D@2@@std@@V?$allocator@V?$basic_string@DU?$char_traits@D@std@@V?$allocator@D@2@@std@@@2@@std@@QAEAAV?$basic_string@DU?$char_traits@D@std@@V?$allocator@D@2@@1@I@Z
_TEXT	SEGMENT PARA USE32 PUBLIC 'CODE'
_TEXT	ENDS
;	COMDAT ?push_back@?$vector@V?$basic_string@DU?$char_traits@D@std@@V?$allocator@D@2@@std@@V?$allocator@V?$basic_string@DU?$char_traits@D@std@@V?$allocator@D@2@@std@@@2@@std@@QAEXABV?$basic_string@DU?$char_traits@D@std@@V?$allocator@D@2@@2@@Z
_TEXT	SEGMENT PARA USE32 PUBLIC 'CODE'
_TEXT	ENDS
;	COMDAT ??Diterator@?$vector@V?$basic_string@DU?$char_traits@D@std@@V?$allocator@D@2@@std@@V?$allocator@V?$basic_string@DU?$char_traits@D@std@@V?$allocator@D@2@@std@@@2@@std@@QBEAAV?$basic_string@DU?$char_traits@D@std@@V?$allocator@D@2@@2@XZ
_TEXT	SEGMENT PARA USE32 PUBLIC 'CODE'
_TEXT	ENDS
;	COMDAT ??Citerator@?$vector@V?$basic_string@DU?$char_traits@D@std@@V?$allocator@D@2@@std@@V?$allocator@V?$basic_string@DU?$char_traits@D@std@@V?$allocator@D@2@@std@@@2@@std@@QBEPAV?$basic_string@DU?$char_traits@D@std@@V?$allocator@D@2@@2@XZ
_TEXT	SEGMENT PARA USE32 PUBLIC 'CODE'
_TEXT	ENDS
;	COMDAT ??Eiterator@?$vector@V?$basic_string@DU?$char_traits@D@std@@V?$allocator@D@2@@std@@V?$allocator@V?$basic_string@DU?$char_traits@D@std@@V?$allocator@D@2@@std@@@2@@std@@QAE?AV012@H@Z
_TEXT	SEGMENT PARA USE32 PUBLIC 'CODE'
_TEXT	ENDS
;	COMDAT ??9const_iterator@?$vector@V?$basic_string@DU?$char_traits@D@std@@V?$allocator@D@2@@std@@V?$allocator@V?$basic_string@DU?$char_traits@D@std@@V?$allocator@D@2@@std@@@2@@std@@QBE_NABV012@@Z
_TEXT	SEGMENT PARA USE32 PUBLIC 'CODE'
_TEXT	ENDS
;	COMDAT ??_Glocale@std@@QAEPAXI@Z
_TEXT	SEGMENT PARA USE32 PUBLIC 'CODE'
_TEXT	ENDS
;	COMDAT ??_G?$numpunct@D@std@@MAEPAXI@Z
_TEXT	SEGMENT PARA USE32 PUBLIC 'CODE'
_TEXT	ENDS
;	COMDAT ??_G?$numpunct@_W@std@@MAEPAXI@Z
_TEXT	SEGMENT PARA USE32 PUBLIC 'CODE'
_TEXT	ENDS
;	COMDAT ??0_Sentry_base@?$basic_istream@DU?$char_traits@D@std@@@std@@QAE@AAV12@@Z
_TEXT	SEGMENT PARA USE32 PUBLIC 'CODE'
_TEXT	ENDS
;	COMDAT ??0_Sentry_base@?$basic_istream@_WU?$char_traits@_W@std@@@std@@QAE@AAV12@@Z
_TEXT	SEGMENT PARA USE32 PUBLIC 'CODE'
_TEXT	ENDS
;	COMDAT ?capacity@?$vector@V?$basic_string@DU?$char_traits@D@std@@V?$allocator@D@2@@std@@V?$allocator@V?$basic_string@DU?$char_traits@D@std@@V?$allocator@D@2@@std@@@2@@std@@QBEIXZ
_TEXT	SEGMENT PARA USE32 PUBLIC 'CODE'
_TEXT	ENDS
;	COMDAT ?begin@?$vector@V?$basic_string@DU?$char_traits@D@std@@V?$allocator@D@2@@std@@V?$allocator@V?$basic_string@DU?$char_traits@D@std@@V?$allocator@D@2@@std@@@2@@std@@QBE?AVconst_iterator@12@XZ
_TEXT	SEGMENT PARA USE32 PUBLIC 'CODE'
_TEXT	ENDS
;	COMDAT ?insert@?$vector@V?$basic_string@DU?$char_traits@D@std@@V?$allocator@D@2@@std@@V?$allocator@V?$basic_string@DU?$char_traits@D@std@@V?$allocator@D@2@@std@@@2@@std@@QAE?AViterator@12@V312@ABV?$basic_string@DU?$char_traits@D@std@@V?$allocator@D@2@@2@@Z
_TEXT	SEGMENT PARA USE32 PUBLIC 'CODE'
_TEXT	ENDS
;	COMDAT ?_Buy@?$vector@V?$basic_string@DU?$char_traits@D@std@@V?$allocator@D@2@@std@@V?$allocator@V?$basic_string@DU?$char_traits@D@std@@V?$allocator@D@2@@std@@@2@@std@@IAE_NI@Z
_TEXT	SEGMENT PARA USE32 PUBLIC 'CODE'
_TEXT	ENDS
;	COMDAT ?_Tidy@?$vector@V?$basic_string@DU?$char_traits@D@std@@V?$allocator@D@2@@std@@V?$allocator@V?$basic_string@DU?$char_traits@D@std@@V?$allocator@D@2@@std@@@2@@std@@IAEXXZ
_TEXT	SEGMENT PARA USE32 PUBLIC 'CODE'
_TEXT	ENDS
;	COMDAT ?_Ufill@?$vector@V?$basic_string@DU?$char_traits@D@std@@V?$allocator@D@2@@std@@V?$allocator@V?$basic_string@DU?$char_traits@D@std@@V?$allocator@D@2@@std@@@2@@std@@IAEPAV?$basic_string@DU?$char_traits@D@std@@V?$allocator@D@2@@2@PAV32@IABV32@@Z
_TEXT	SEGMENT PARA USE32 PUBLIC 'CODE'
_TEXT	ENDS
;	COMDAT ??0?$_Vector_val@V?$basic_string@DU?$char_traits@D@std@@V?$allocator@D@2@@std@@V?$allocator@V?$basic_string@DU?$char_traits@D@std@@V?$allocator@D@2@@std@@@2@@std@@IAE@V?$allocator@V?$basic_string@DU?$char_traits@D@std@@V?$allocator@D@2@@std@@@1@@Z
_TEXT	SEGMENT PARA USE32 PUBLIC 'CODE'
_TEXT	ENDS
;	COMDAT ??0?$allocator@V?$basic_string@DU?$char_traits@D@std@@V?$allocator@D@2@@std@@@std@@QAE@XZ
_TEXT	SEGMENT PARA USE32 PUBLIC 'CODE'
_TEXT	ENDS
;	COMDAT ??0iterator@?$vector@V?$basic_string@DU?$char_traits@D@std@@V?$allocator@D@2@@std@@V?$allocator@V?$basic_string@DU?$char_traits@D@std@@V?$allocator@D@2@@std@@@2@@std@@QAE@PAV?$basic_string@DU?$char_traits@D@std@@V?$allocator@D@2@@2@@Z
_TEXT	SEGMENT PARA USE32 PUBLIC 'CODE'
_TEXT	ENDS
;	COMDAT ??Eiterator@?$vector@V?$basic_string@DU?$char_traits@D@std@@V?$allocator@D@2@@std@@V?$allocator@V?$basic_string@DU?$char_traits@D@std@@V?$allocator@D@2@@std@@@2@@std@@QAEAAV012@XZ
_TEXT	SEGMENT PARA USE32 PUBLIC 'CODE'
_TEXT	ENDS
;	COMDAT ??Hiterator@?$vector@V?$basic_string@DU?$char_traits@D@std@@V?$allocator@D@2@@std@@V?$allocator@V?$basic_string@DU?$char_traits@D@std@@V?$allocator@D@2@@std@@@2@@std@@QBE?AV012@H@Z
_TEXT	SEGMENT PARA USE32 PUBLIC 'CODE'
_TEXT	ENDS
;	COMDAT ??Dconst_iterator@?$vector@V?$basic_string@DU?$char_traits@D@std@@V?$allocator@D@2@@std@@V?$allocator@V?$basic_string@DU?$char_traits@D@std@@V?$allocator@D@2@@std@@@2@@std@@QBEABV?$basic_string@DU?$char_traits@D@std@@V?$allocator@D@2@@2@XZ
_TEXT	SEGMENT PARA USE32 PUBLIC 'CODE'
_TEXT	ENDS
;	COMDAT ??Hconst_iterator@?$vector@V?$basic_string@DU?$char_traits@D@std@@V?$allocator@D@2@@std@@V?$allocator@V?$basic_string@DU?$char_traits@D@std@@V?$allocator@D@2@@std@@@2@@std@@QBE?AV012@H@Z
_TEXT	SEGMENT PARA USE32 PUBLIC 'CODE'
_TEXT	ENDS
;	COMDAT ??8const_iterator@?$vector@V?$basic_string@DU?$char_traits@D@std@@V?$allocator@D@2@@std@@V?$allocator@V?$basic_string@DU?$char_traits@D@std@@V?$allocator@D@2@@std@@@2@@std@@QBE_NABV012@@Z
_TEXT	SEGMENT PARA USE32 PUBLIC 'CODE'
_TEXT	ENDS
;	COMDAT ??0?$fpos@H@std@@QAE@J@Z
_TEXT	SEGMENT PARA USE32 PUBLIC 'CODE'
_TEXT	ENDS
;	COMDAT ??0sentry@?$basic_ostream@DU?$char_traits@D@std@@@std@@QAE@AAV12@@Z
_TEXT	SEGMENT PARA USE32 PUBLIC 'CODE'
_TEXT	ENDS
;	COMDAT ??1sentry@?$basic_ostream@DU?$char_traits@D@std@@@std@@QAE@XZ
_TEXT	SEGMENT PARA USE32 PUBLIC 'CODE'
_TEXT	ENDS
;	COMDAT ??Bsentry@?$basic_ostream@DU?$char_traits@D@std@@@std@@QBE_NXZ
_TEXT	SEGMENT PARA USE32 PUBLIC 'CODE'
_TEXT	ENDS
;	COMDAT ??0sentry@?$basic_ostream@_WU?$char_traits@_W@std@@@std@@QAE@AAV12@@Z
_TEXT	SEGMENT PARA USE32 PUBLIC 'CODE'
_TEXT	ENDS
;	COMDAT ??1sentry@?$basic_ostream@_WU?$char_traits@_W@std@@@std@@QAE@XZ
_TEXT	SEGMENT PARA USE32 PUBLIC 'CODE'
_TEXT	ENDS
;	COMDAT ??Bsentry@?$basic_ostream@_WU?$char_traits@_W@std@@@std@@QBE_NXZ
_TEXT	SEGMENT PARA USE32 PUBLIC 'CODE'
_TEXT	ENDS
;	COMDAT ?deallocate@?$allocator@D@std@@QAEXPADI@Z
_TEXT	SEGMENT PARA USE32 PUBLIC 'CODE'
_TEXT	ENDS
;	COMDAT ?max_size@?$vector@V?$basic_string@DU?$char_traits@D@std@@V?$allocator@D@2@@std@@V?$allocator@V?$basic_string@DU?$char_traits@D@std@@V?$allocator@D@2@@std@@@2@@std@@QBEIXZ
_TEXT	SEGMENT PARA USE32 PUBLIC 'CODE'
_TEXT	ENDS
;	COMDAT ?_Destroy@?$vector@V?$basic_string@DU?$char_traits@D@std@@V?$allocator@D@2@@std@@V?$allocator@V?$basic_string@DU?$char_traits@D@std@@V?$allocator@D@2@@std@@@2@@std@@IAEXPAV?$basic_string@DU?$char_traits@D@std@@V?$allocator@D@2@@2@0@Z
_TEXT	SEGMENT PARA USE32 PUBLIC 'CODE'
_TEXT	ENDS
;	COMDAT ?_Insert_n@?$vector@V?$basic_string@DU?$char_traits@D@std@@V?$allocator@D@2@@std@@V?$allocator@V?$basic_string@DU?$char_traits@D@std@@V?$allocator@D@2@@std@@@2@@std@@IAEXViterator@12@IABV?$basic_string@DU?$char_traits@D@std@@V?$allocator@D@2@@2@@Z
_TEXT	SEGMENT PARA USE32 PUBLIC 'CODE'
_TEXT	ENDS
;	COMDAT ?_Xlen@?$vector@V?$basic_string@DU?$char_traits@D@std@@V?$allocator@D@2@@std@@V?$allocator@V?$basic_string@DU?$char_traits@D@std@@V?$allocator@D@2@@std@@@2@@std@@IBEXXZ
_TEXT	SEGMENT PARA USE32 PUBLIC 'CODE'
_TEXT	ENDS
;	COMDAT ??0?$allocator@V?$basic_string@DU?$char_traits@D@std@@V?$allocator@D@2@@std@@@std@@QAE@ABV01@@Z
_TEXT	SEGMENT PARA USE32 PUBLIC 'CODE'
_TEXT	ENDS
;	COMDAT ?deallocate@?$allocator@V?$basic_string@DU?$char_traits@D@std@@V?$allocator@D@2@@std@@@std@@QAEXPAV?$basic_string@DU?$char_traits@D@std@@V?$allocator@D@2@@2@I@Z
_TEXT	SEGMENT PARA USE32 PUBLIC 'CODE'
_TEXT	ENDS
;	COMDAT ?allocate@?$allocator@V?$basic_string@DU?$char_traits@D@std@@V?$allocator@D@2@@std@@@std@@QAEPAV?$basic_string@DU?$char_traits@D@std@@V?$allocator@D@2@@2@I@Z
_TEXT	SEGMENT PARA USE32 PUBLIC 'CODE'
_TEXT	ENDS
;	COMDAT ??Yiterator@?$vector@V?$basic_string@DU?$char_traits@D@std@@V?$allocator@D@2@@std@@V?$allocator@V?$basic_string@DU?$char_traits@D@std@@V?$allocator@D@2@@std@@@2@@std@@QAEAAV012@H@Z
_TEXT	SEGMENT PARA USE32 PUBLIC 'CODE'
_TEXT	ENDS
;	COMDAT ??Giterator@?$vector@V?$basic_string@DU?$char_traits@D@std@@V?$allocator@D@2@@std@@V?$allocator@V?$basic_string@DU?$char_traits@D@std@@V?$allocator@D@2@@std@@@2@@std@@QBEHABVconst_iterator@12@@Z
_TEXT	SEGMENT PARA USE32 PUBLIC 'CODE'
_TEXT	ENDS
;	COMDAT ??0const_iterator@?$vector@V?$basic_string@DU?$char_traits@D@std@@V?$allocator@D@2@@std@@V?$allocator@V?$basic_string@DU?$char_traits@D@std@@V?$allocator@D@2@@std@@@2@@std@@QAE@PAV?$basic_string@DU?$char_traits@D@std@@V?$allocator@D@2@@2@@Z
_TEXT	SEGMENT PARA USE32 PUBLIC 'CODE'
_TEXT	ENDS
;	COMDAT ??Yconst_iterator@?$vector@V?$basic_string@DU?$char_traits@D@std@@V?$allocator@D@2@@std@@V?$allocator@V?$basic_string@DU?$char_traits@D@std@@V?$allocator@D@2@@std@@@2@@std@@QAEAAV012@H@Z
_TEXT	SEGMENT PARA USE32 PUBLIC 'CODE'
_TEXT	ENDS
;	COMDAT ??D?$istreambuf_iterator@DU?$char_traits@D@std@@@std@@QBEDXZ
_TEXT	SEGMENT PARA USE32 PUBLIC 'CODE'
_TEXT	ENDS
;	COMDAT ??E?$istreambuf_iterator@DU?$char_traits@D@std@@@std@@QAEAAV01@XZ
_TEXT	SEGMENT PARA USE32 PUBLIC 'CODE'
_TEXT	ENDS
;	COMDAT ??4?$ostreambuf_iterator@DU?$char_traits@D@std@@@std@@QAEAAV01@D@Z
_TEXT	SEGMENT PARA USE32 PUBLIC 'CODE'
_TEXT	ENDS
;	COMDAT ??D?$ostreambuf_iterator@DU?$char_traits@D@std@@@std@@QAEAAV01@XZ
_TEXT	SEGMENT PARA USE32 PUBLIC 'CODE'
_TEXT	ENDS
;	COMDAT ??E?$ostreambuf_iterator@DU?$char_traits@D@std@@@std@@QAEAAV01@XZ
_TEXT	SEGMENT PARA USE32 PUBLIC 'CODE'
_TEXT	ENDS
;	COMDAT ??D?$istreambuf_iterator@_WU?$char_traits@_W@std@@@std@@QBE_WXZ
_TEXT	SEGMENT PARA USE32 PUBLIC 'CODE'
_TEXT	ENDS
;	COMDAT ??E?$istreambuf_iterator@_WU?$char_traits@_W@std@@@std@@QAEAAV01@XZ
_TEXT	SEGMENT PARA USE32 PUBLIC 'CODE'
_TEXT	ENDS
;	COMDAT ??4?$ostreambuf_iterator@_WU?$char_traits@_W@std@@@std@@QAEAAV01@_W@Z
_TEXT	SEGMENT PARA USE32 PUBLIC 'CODE'
_TEXT	ENDS
;	COMDAT ??D?$ostreambuf_iterator@_WU?$char_traits@_W@std@@@std@@QAEAAV01@XZ
_TEXT	SEGMENT PARA USE32 PUBLIC 'CODE'
_TEXT	ENDS
;	COMDAT ??E?$ostreambuf_iterator@_WU?$char_traits@_W@std@@@std@@QAEAAV01@XZ
_TEXT	SEGMENT PARA USE32 PUBLIC 'CODE'
_TEXT	ENDS
;	COMDAT ??0_Sentry_base@?$basic_ostream@DU?$char_traits@D@std@@@std@@QAE@AAV12@@Z
_TEXT	SEGMENT PARA USE32 PUBLIC 'CODE'
_TEXT	ENDS
;	COMDAT ??1_Sentry_base@?$basic_ostream@DU?$char_traits@D@std@@@std@@QAE@XZ
_TEXT	SEGMENT PARA USE32 PUBLIC 'CODE'
_TEXT	ENDS
;	COMDAT ??0_Sentry_base@?$basic_ostream@_WU?$char_traits@_W@std@@@std@@QAE@AAV12@@Z
_TEXT	SEGMENT PARA USE32 PUBLIC 'CODE'
_TEXT	ENDS
;	COMDAT ??1_Sentry_base@?$basic_ostream@_WU?$char_traits@_W@std@@@std@@QAE@XZ
_TEXT	SEGMENT PARA USE32 PUBLIC 'CODE'
_TEXT	ENDS
;	COMDAT ??0length_error@std@@QAE@ABV01@@Z
_TEXT	SEGMENT PARA USE32 PUBLIC 'CODE'
_TEXT	ENDS
;	COMDAT ??0logic_error@std@@QAE@ABV01@@Z
_TEXT	SEGMENT PARA USE32 PUBLIC 'CODE'
_TEXT	ENDS
;	COMDAT ?deallocate@?$allocator@_W@std@@QAEXPA_WI@Z
_TEXT	SEGMENT PARA USE32 PUBLIC 'CODE'
_TEXT	ENDS
;	COMDAT ?max_size@?$allocator@V?$basic_string@DU?$char_traits@D@std@@V?$allocator@D@2@@std@@@std@@QBEIXZ
_TEXT	SEGMENT PARA USE32 PUBLIC 'CODE'
_TEXT	ENDS
;	COMDAT ??Gconst_iterator@?$vector@V?$basic_string@DU?$char_traits@D@std@@V?$allocator@D@2@@std@@V?$allocator@V?$basic_string@DU?$char_traits@D@std@@V?$allocator@D@2@@std@@@2@@std@@QBEHABV012@@Z
_TEXT	SEGMENT PARA USE32 PUBLIC 'CODE'
_TEXT	ENDS
;	COMDAT ?_Inc@?$istreambuf_iterator@DU?$char_traits@D@std@@@std@@AAEXXZ
_TEXT	SEGMENT PARA USE32 PUBLIC 'CODE'
_TEXT	ENDS
;	COMDAT ?_Peek@?$istreambuf_iterator@DU?$char_traits@D@std@@@std@@AAEDXZ
_TEXT	SEGMENT PARA USE32 PUBLIC 'CODE'
_TEXT	ENDS
;	COMDAT ?_Inc@?$istreambuf_iterator@_WU?$char_traits@_W@std@@@std@@AAEXXZ
_TEXT	SEGMENT PARA USE32 PUBLIC 'CODE'
_TEXT	ENDS
;	COMDAT ?_Peek@?$istreambuf_iterator@_WU?$char_traits@_W@std@@@std@@AAE_WXZ
_TEXT	SEGMENT PARA USE32 PUBLIC 'CODE'
_TEXT	ENDS
;	COMDAT ?allocate@?$allocator@D@std@@QAEPADI@Z
_TEXT	SEGMENT PARA USE32 PUBLIC 'CODE'
_TEXT	ENDS
;	COMDAT ?max_size@?$allocator@D@std@@QBEIXZ
_TEXT	SEGMENT PARA USE32 PUBLIC 'CODE'
_TEXT	ENDS
;	COMDAT ?allocate@?$allocator@_W@std@@QAEPA_WI@Z
_TEXT	SEGMENT PARA USE32 PUBLIC 'CODE'
_TEXT	ENDS
;	COMDAT ?max_size@?$allocator@_W@std@@QBEIXZ
_TEXT	SEGMENT PARA USE32 PUBLIC 'CODE'
_TEXT	ENDS
;	COMDAT ??$use_facet@V?$ctype@D@std@@@std@@YAABV?$ctype@D@0@ABVlocale@0@@Z
_TEXT	SEGMENT PARA USE32 PUBLIC 'CODE'
_TEXT	ENDS
;	COMDAT ??$use_facet@V?$ctype@_W@std@@@std@@YAABV?$ctype@_W@0@ABVlocale@0@@Z
_TEXT	SEGMENT PARA USE32 PUBLIC 'CODE'
_TEXT	ENDS
;	COMDAT ??$?HDU?$char_traits@D@std@@V?$allocator@D@1@@std@@YA?AV?$basic_string@DU?$char_traits@D@std@@V?$allocator@D@2@@0@ABV10@0@Z
_TEXT	SEGMENT PARA USE32 PUBLIC 'CODE'
_TEXT	ENDS
;	COMDAT ??$?HDU?$char_traits@D@std@@V?$allocator@D@1@@std@@YA?AV?$basic_string@DU?$char_traits@D@std@@V?$allocator@D@2@@0@PBDABV10@@Z
_TEXT	SEGMENT PARA USE32 PUBLIC 'CODE'
_TEXT	ENDS
;	COMDAT ??$?HDU?$char_traits@D@std@@V?$allocator@D@1@@std@@YA?AV?$basic_string@DU?$char_traits@D@std@@V?$allocator@D@2@@0@DABV10@@Z
_TEXT	SEGMENT PARA USE32 PUBLIC 'CODE'
_TEXT	ENDS
;	COMDAT ??$?HDU?$char_traits@D@std@@V?$allocator@D@1@@std@@YA?AV?$basic_string@DU?$char_traits@D@std@@V?$allocator@D@2@@0@ABV10@PBD@Z
_TEXT	SEGMENT PARA USE32 PUBLIC 'CODE'
_TEXT	ENDS
;	COMDAT ??$?HDU?$char_traits@D@std@@V?$allocator@D@1@@std@@YA?AV?$basic_string@DU?$char_traits@D@std@@V?$allocator@D@2@@0@ABV10@D@Z
_TEXT	SEGMENT PARA USE32 PUBLIC 'CODE'
_TEXT	ENDS
;	COMDAT ??$?H_WU?$char_traits@_W@std@@V?$allocator@_W@1@@std@@YA?AV?$basic_string@_WU?$char_traits@_W@std@@V?$allocator@_W@2@@0@ABV10@0@Z
_TEXT	SEGMENT PARA USE32 PUBLIC 'CODE'
_TEXT	ENDS
;	COMDAT ??$?H_WU?$char_traits@_W@std@@V?$allocator@_W@1@@std@@YA?AV?$basic_string@_WU?$char_traits@_W@std@@V?$allocator@_W@2@@0@PB_WABV10@@Z
_TEXT	SEGMENT PARA USE32 PUBLIC 'CODE'
_TEXT	ENDS
;	COMDAT ??$?H_WU?$char_traits@_W@std@@V?$allocator@_W@1@@std@@YA?AV?$basic_string@_WU?$char_traits@_W@std@@V?$allocator@_W@2@@0@_WABV10@@Z
_TEXT	SEGMENT PARA USE32 PUBLIC 'CODE'
_TEXT	ENDS
;	COMDAT ??$?H_WU?$char_traits@_W@std@@V?$allocator@_W@1@@std@@YA?AV?$basic_string@_WU?$char_traits@_W@std@@V?$allocator@_W@2@@0@ABV10@PB_W@Z
_TEXT	SEGMENT PARA USE32 PUBLIC 'CODE'
_TEXT	ENDS
;	COMDAT ??$?H_WU?$char_traits@_W@std@@V?$allocator@_W@1@@std@@YA?AV?$basic_string@_WU?$char_traits@_W@std@@V?$allocator@_W@2@@0@ABV10@_W@Z
_TEXT	SEGMENT PARA USE32 PUBLIC 'CODE'
_TEXT	ENDS
;	COMDAT ??$?5DU?$char_traits@D@std@@V?$allocator@D@1@@std@@YAAAV?$basic_istream@DU?$char_traits@D@std@@@0@AAV10@AAV?$basic_string@DU?$char_traits@D@std@@V?$allocator@D@2@@0@@Z
_TEXT	SEGMENT PARA USE32 PUBLIC 'CODE'
_TEXT	ENDS
;	COMDAT ??$getline@DU?$char_traits@D@std@@V?$allocator@D@2@@std@@YAAAV?$basic_istream@DU?$char_traits@D@std@@@0@AAV10@AAV?$basic_string@DU?$char_traits@D@std@@V?$allocator@D@2@@0@@Z
_TEXT	SEGMENT PARA USE32 PUBLIC 'CODE'
_TEXT	ENDS
;	COMDAT ??$getline@DU?$char_traits@D@std@@V?$allocator@D@2@@std@@YAAAV?$basic_istream@DU?$char_traits@D@std@@@0@AAV10@AAV?$basic_string@DU?$char_traits@D@std@@V?$allocator@D@2@@0@D@Z
_TEXT	SEGMENT PARA USE32 PUBLIC 'CODE'
_TEXT	ENDS
;	COMDAT ??$?6DU?$char_traits@D@std@@V?$allocator@D@1@@std@@YAAAV?$basic_ostream@DU?$char_traits@D@std@@@0@AAV10@ABV?$basic_string@DU?$char_traits@D@std@@V?$allocator@D@2@@0@@Z
_TEXT	SEGMENT PARA USE32 PUBLIC 'CODE'
_TEXT	ENDS
;	COMDAT ??$?5_WU?$char_traits@_W@std@@V?$allocator@_W@1@@std@@YAAAV?$basic_istream@_WU?$char_traits@_W@std@@@0@AAV10@AAV?$basic_string@_WU?$char_traits@_W@std@@V?$allocator@_W@2@@0@@Z
_TEXT	SEGMENT PARA USE32 PUBLIC 'CODE'
_TEXT	ENDS
;	COMDAT ??$getline@_WU?$char_traits@_W@std@@V?$allocator@_W@2@@std@@YAAAV?$basic_istream@_WU?$char_traits@_W@std@@@0@AAV10@AAV?$basic_string@_WU?$char_traits@_W@std@@V?$allocator@_W@2@@0@@Z
_TEXT	SEGMENT PARA USE32 PUBLIC 'CODE'
_TEXT	ENDS
;	COMDAT ??$getline@_WU?$char_traits@_W@std@@V?$allocator@_W@2@@std@@YAAAV?$basic_istream@_WU?$char_traits@_W@std@@@0@AAV10@AAV?$basic_string@_WU?$char_traits@_W@std@@V?$allocator@_W@2@@0@_W@Z
_TEXT	SEGMENT PARA USE32 PUBLIC 'CODE'
_TEXT	ENDS
;	COMDAT ??$?6_WU?$char_traits@_W@std@@V?$allocator@_W@1@@std@@YAAAV?$basic_ostream@_WU?$char_traits@_W@std@@@0@AAV10@ABV?$basic_string@_WU?$char_traits@_W@std@@V?$allocator@_W@2@@0@@Z
_TEXT	SEGMENT PARA USE32 PUBLIC 'CODE'
_TEXT	ENDS
;	COMDAT ??$use_facet@V?$numpunct@D@std@@@std@@YAABV?$numpunct@D@0@ABVlocale@0@@Z
_TEXT	SEGMENT PARA USE32 PUBLIC 'CODE'
_TEXT	ENDS
;	COMDAT ??$_Getloctxt@DV?$istreambuf_iterator@DU?$char_traits@D@std@@@std@@@std@@YAHAAV?$istreambuf_iterator@DU?$char_traits@D@std@@@0@0IPBD@Z
_TEXT	SEGMENT PARA USE32 PUBLIC 'CODE'
_TEXT	ENDS
;	COMDAT ??$?8DU?$char_traits@D@std@@@std@@YA_NABV?$istreambuf_iterator@DU?$char_traits@D@std@@@0@0@Z
_TEXT	SEGMENT PARA USE32 PUBLIC 'CODE'
_TEXT	ENDS
;	COMDAT ??$use_facet@V?$numpunct@_W@std@@@std@@YAABV?$numpunct@_W@0@ABVlocale@0@@Z
_TEXT	SEGMENT PARA USE32 PUBLIC 'CODE'
_TEXT	ENDS
;	COMDAT ??$_Getloctxt@_WV?$istreambuf_iterator@_WU?$char_traits@_W@std@@@std@@@std@@YAHAAV?$istreambuf_iterator@_WU?$char_traits@_W@std@@@0@0IPB_W@Z
_TEXT	SEGMENT PARA USE32 PUBLIC 'CODE'
_TEXT	ENDS
;	COMDAT ??$?8_WU?$char_traits@_W@std@@@std@@YA_NABV?$istreambuf_iterator@_WU?$char_traits@_W@std@@@0@0@Z
_TEXT	SEGMENT PARA USE32 PUBLIC 'CODE'
_TEXT	ENDS
;	COMDAT ??$_Maklocchr@D@std@@YADDPADABU_Cvtvec@@@Z
_TEXT	SEGMENT PARA USE32 PUBLIC 'CODE'
_TEXT	ENDS
;	COMDAT ??$?9DU?$char_traits@D@std@@@std@@YA_NABV?$istreambuf_iterator@DU?$char_traits@D@std@@@0@0@Z
_TEXT	SEGMENT PARA USE32 PUBLIC 'CODE'
_TEXT	ENDS
;	COMDAT ??$_Maklocbyte@D@std@@YADDABU_Cvtvec@@@Z
_TEXT	SEGMENT PARA USE32 PUBLIC 'CODE'
_TEXT	ENDS
;	COMDAT ??$?9_WU?$char_traits@_W@std@@@std@@YA_NABV?$istreambuf_iterator@_WU?$char_traits@_W@std@@@0@0@Z
_TEXT	SEGMENT PARA USE32 PUBLIC 'CODE'
_TEXT	ENDS
;	COMDAT ??$_Uninitialized_fill_n@PAV?$basic_string@DU?$char_traits@D@std@@V?$allocator@D@2@@std@@IV12@V?$allocator@V?$basic_string@DU?$char_traits@D@std@@V?$allocator@D@2@@std@@@2@@std@@YAXPAV?$basic_string@DU?$char_traits@D@std@@V?$allocator@D@2@@0@IABV10@AAV?$allocator@V?$basic_string@DU?$char_traits@D@std@@V?$allocator@D@2@@std@@@0@@Z
_TEXT	SEGMENT PARA USE32 PUBLIC 'CODE'
_TEXT	ENDS
;	COMDAT ??$_Destroy_range@V?$basic_string@DU?$char_traits@D@std@@V?$allocator@D@2@@std@@V?$allocator@V?$basic_string@DU?$char_traits@D@std@@V?$allocator@D@2@@std@@@2@@std@@YAXPAV?$basic_string@DU?$char_traits@D@std@@V?$allocator@D@2@@0@0AAV?$allocator@V?$basic_string@DU?$char_traits@D@std@@V?$allocator@D@2@@std@@@0@@Z
_TEXT	SEGMENT PARA USE32 PUBLIC 'CODE'
_TEXT	ENDS
;	COMDAT ??$_Ucopy@PAV?$basic_string@DU?$char_traits@D@std@@V?$allocator@D@2@@std@@@?$vector@V?$basic_string@DU?$char_traits@D@std@@V?$allocator@D@2@@std@@V?$allocator@V?$basic_string@DU?$char_traits@D@std@@V?$allocator@D@2@@std@@@2@@std@@IAEPAV?$basic_string@DU?$char_traits@D@std@@V?$allocator@D@2@@1@PAV21@00@Z
_TEXT	SEGMENT PARA USE32 PUBLIC 'CODE'
_TEXT	ENDS
;	COMDAT ??$fill@PAV?$basic_string@DU?$char_traits@D@std@@V?$allocator@D@2@@std@@V12@@std@@YAXPAV?$basic_string@DU?$char_traits@D@std@@V?$allocator@D@2@@0@0ABV10@@Z
_TEXT	SEGMENT PARA USE32 PUBLIC 'CODE'
_TEXT	ENDS
;	COMDAT ??$copy_backward@PAV?$basic_string@DU?$char_traits@D@std@@V?$allocator@D@2@@std@@PAV12@@std@@YAPAV?$basic_string@DU?$char_traits@D@std@@V?$allocator@D@2@@0@PAV10@00@Z
_TEXT	SEGMENT PARA USE32 PUBLIC 'CODE'
_TEXT	ENDS
;	COMDAT ??$_Allocate@V?$basic_string@DU?$char_traits@D@std@@V?$allocator@D@2@@std@@@std@@YAPAV?$basic_string@DU?$char_traits@D@std@@V?$allocator@D@2@@0@IPAV10@@Z
_TEXT	SEGMENT PARA USE32 PUBLIC 'CODE'
_TEXT	ENDS
;	COMDAT ??$_Allocate@D@std@@YAPADIPAD@Z
_TEXT	SEGMENT PARA USE32 PUBLIC 'CODE'
_TEXT	ENDS
;	COMDAT ??$_Allocate@_W@std@@YAPA_WIPA_W@Z
_TEXT	SEGMENT PARA USE32 PUBLIC 'CODE'
_TEXT	ENDS
;	COMDAT ?equal@?$istreambuf_iterator@DU?$char_traits@D@std@@@std@@QBE_NABV12@@Z
_TEXT	SEGMENT PARA USE32 PUBLIC 'CODE'
_TEXT	ENDS
;	COMDAT ?equal@?$istreambuf_iterator@_WU?$char_traits@_W@std@@@std@@QBE_NABV12@@Z
_TEXT	SEGMENT PARA USE32 PUBLIC 'CODE'
_TEXT	ENDS
;	COMDAT ??$_Ptr_cat@PAV?$basic_string@DU?$char_traits@D@std@@V?$allocator@D@2@@std@@PAV12@@std@@YA?AU_Nonscalar_ptr_iterator_tag@0@AAPAV?$basic_string@DU?$char_traits@D@std@@V?$allocator@D@2@@0@0@Z
_TEXT	SEGMENT PARA USE32 PUBLIC 'CODE'
_TEXT	ENDS
;	COMDAT ??$_Uninit_fill_n@PAV?$basic_string@DU?$char_traits@D@std@@V?$allocator@D@2@@std@@IV12@V?$allocator@V?$basic_string@DU?$char_traits@D@std@@V?$allocator@D@2@@std@@@2@@std@@YAXPAV?$basic_string@DU?$char_traits@D@std@@V?$allocator@D@2@@0@IABV10@AAV?$allocator@V?$basic_string@DU?$char_traits@D@std@@V?$allocator@D@2@@std@@@0@U_Nonscalar_ptr_iterator_tag@0@@Z
_TEXT	SEGMENT PARA USE32 PUBLIC 'CODE'
_TEXT	ENDS
;	COMDAT ??$_Destroy_range@V?$basic_string@DU?$char_traits@D@std@@V?$allocator@D@2@@std@@V?$allocator@V?$basic_string@DU?$char_traits@D@std@@V?$allocator@D@2@@std@@@2@@std@@YAXPAV?$basic_string@DU?$char_traits@D@std@@V?$allocator@D@2@@0@0AAV?$allocator@V?$basic_string@DU?$char_traits@D@std@@V?$allocator@D@2@@std@@@0@U_Nonscalar_ptr_iterator_tag@0@@Z
_TEXT	SEGMENT PARA USE32 PUBLIC 'CODE'
_TEXT	ENDS
;	COMDAT ??$_Uninitialized_copy@PAV?$basic_string@DU?$char_traits@D@std@@V?$allocator@D@2@@std@@PAV12@V?$allocator@V?$basic_string@DU?$char_traits@D@std@@V?$allocator@D@2@@std@@@2@@std@@YAPAV?$basic_string@DU?$char_traits@D@std@@V?$allocator@D@2@@0@PAV10@00AAV?$allocator@V?$basic_string@DU?$char_traits@D@std@@V?$allocator@D@2@@std@@@0@@Z
_TEXT	SEGMENT PARA USE32 PUBLIC 'CODE'
_TEXT	ENDS
;	COMDAT ??$_Copy_backward_opt@PAV?$basic_string@DU?$char_traits@D@std@@V?$allocator@D@2@@std@@PAV12@@std@@YAPAV?$basic_string@DU?$char_traits@D@std@@V?$allocator@D@2@@0@PAV10@00U_Nonscalar_ptr_iterator_tag@0@@Z
_TEXT	SEGMENT PARA USE32 PUBLIC 'CODE'
_TEXT	ENDS
;	COMDAT ??$_Maklocstr@D@std@@YAPADPBDPADABU_Cvtvec@@@Z
_TEXT	SEGMENT PARA USE32 PUBLIC 'CODE'
_TEXT	ENDS
;	COMDAT ?construct@?$allocator@V?$basic_string@DU?$char_traits@D@std@@V?$allocator@D@2@@std@@@std@@QAEXPAV?$basic_string@DU?$char_traits@D@std@@V?$allocator@D@2@@2@ABV32@@Z
_TEXT	SEGMENT PARA USE32 PUBLIC 'CODE'
_TEXT	ENDS
;	COMDAT ?destroy@?$allocator@V?$basic_string@DU?$char_traits@D@std@@V?$allocator@D@2@@std@@@std@@QAEXPAV?$basic_string@DU?$char_traits@D@std@@V?$allocator@D@2@@2@@Z
_TEXT	SEGMENT PARA USE32 PUBLIC 'CODE'
_TEXT	ENDS
;	COMDAT ??$_Uninit_copy@PAV?$basic_string@DU?$char_traits@D@std@@V?$allocator@D@2@@std@@PAV12@V?$allocator@V?$basic_string@DU?$char_traits@D@std@@V?$allocator@D@2@@std@@@2@@std@@YAPAV?$basic_string@DU?$char_traits@D@std@@V?$allocator@D@2@@0@PAV10@00AAV?$allocator@V?$basic_string@DU?$char_traits@D@std@@V?$allocator@D@2@@std@@@0@U_Nonscalar_ptr_iterator_tag@0@@Z
_TEXT	SEGMENT PARA USE32 PUBLIC 'CODE'
_TEXT	ENDS
;	COMDAT ??$_Construct@V?$basic_string@DU?$char_traits@D@std@@V?$allocator@D@2@@std@@V12@@std@@YAXPAV?$basic_string@DU?$char_traits@D@std@@V?$allocator@D@2@@0@ABV10@@Z
_TEXT	SEGMENT PARA USE32 PUBLIC 'CODE'
_TEXT	ENDS
;	COMDAT ??$_Destroy@V?$basic_string@DU?$char_traits@D@std@@V?$allocator@D@2@@std@@@std@@YAXPAV?$basic_string@DU?$char_traits@D@std@@V?$allocator@D@2@@0@@Z
_TEXT	SEGMENT PARA USE32 PUBLIC 'CODE'
_TEXT	ENDS
;	COMDAT ??_G?$basic_string@DU?$char_traits@D@std@@V?$allocator@D@2@@std@@QAEPAXI@Z
_TEXT	SEGMENT PARA USE32 PUBLIC 'CODE'
_TEXT	ENDS
;	COMDAT ??_R4out_of_range@std@@6B@
rdata$r	SEGMENT DWORD USE32 PUBLIC 'CONST'
rdata$r	ENDS
;	COMDAT ??_R0?AVout_of_range@std@@@8
_DATA	SEGMENT DWORD USE32 PUBLIC 'DATA'
_DATA	ENDS
;	COMDAT ??_R3?$ctype@D@std@@8
rdata$r	SEGMENT DWORD USE32 PUBLIC 'CONST'
rdata$r	ENDS
;	COMDAT __TI3?AVlength_error@std@@
xdata$x	SEGMENT DWORD USE32 PUBLIC 'CONST'
xdata$x	ENDS
;	COMDAT ??_R1A@?0A@A@overflow_error@std@@8
rdata$r	SEGMENT DWORD USE32 PUBLIC 'CONST'
rdata$r	ENDS
;	COMDAT ??_R1A@?0A@A@out_of_range@std@@8
rdata$r	SEGMENT DWORD USE32 PUBLIC 'CONST'
rdata$r	ENDS
;	COMDAT ??_R1A@?0A@A@?$numpunct@D@std@@8
rdata$r	SEGMENT DWORD USE32 PUBLIC 'CONST'
rdata$r	ENDS
;	COMDAT ??_R2domain_error@std@@8
rdata$r	SEGMENT DWORD USE32 PUBLIC 'CONST'
rdata$r	ENDS
;	COMDAT ??_R1A@?0A@A@facet@locale@std@@8
rdata$r	SEGMENT DWORD USE32 PUBLIC 'CONST'
rdata$r	ENDS
;	COMDAT ??_R0?AVdomain_error@std@@@8
_DATA	SEGMENT DWORD USE32 PUBLIC 'DATA'
_DATA	ENDS
;	COMDAT ??_R3underflow_error@std@@8
rdata$r	SEGMENT DWORD USE32 PUBLIC 'CONST'
rdata$r	ENDS
;	COMDAT ??_R0?AV?$numpunct@_W@std@@@8
_DATA	SEGMENT DWORD USE32 PUBLIC 'DATA'
_DATA	ENDS
;	COMDAT ??_R0?AVrange_error@std@@@8
_DATA	SEGMENT DWORD USE32 PUBLIC 'DATA'
_DATA	ENDS
;	COMDAT ??_R2?$numpunct@D@std@@8
rdata$r	SEGMENT DWORD USE32 PUBLIC 'CONST'
rdata$r	ENDS
;	COMDAT __CT??_R0?AVlogic_error@std@@@8??0logic_error@std@@QAE@ABV01@@Z40
xdata$x	SEGMENT DWORD USE32 PUBLIC 'CONST'
xdata$x	ENDS
;	COMDAT ??_R1A@?0A@A@codecvt_base@std@@8
rdata$r	SEGMENT DWORD USE32 PUBLIC 'CONST'
rdata$r	ENDS
;	COMDAT ??_R2length_error@std@@8
rdata$r	SEGMENT DWORD USE32 PUBLIC 'CONST'
rdata$r	ENDS
;	COMDAT ??_R2runtime_error@std@@8
rdata$r	SEGMENT DWORD USE32 PUBLIC 'CONST'
rdata$r	ENDS
;	COMDAT ??_R2failure@ios_base@std@@8
rdata$r	SEGMENT DWORD USE32 PUBLIC 'CONST'
rdata$r	ENDS
;	COMDAT ??_R1A@?0A@A@bad_alloc@std@@8
rdata$r	SEGMENT DWORD USE32 PUBLIC 'CONST'
rdata$r	ENDS
;	COMDAT ??_R4?$numpunct@D@std@@6B@
rdata$r	SEGMENT DWORD USE32 PUBLIC 'CONST'
rdata$r	ENDS
;	COMDAT ??_R0?AVcodecvt_base@std@@@8
_DATA	SEGMENT DWORD USE32 PUBLIC 'DATA'
_DATA	ENDS
;	COMDAT ??_R2?$ctype@_W@std@@8
rdata$r	SEGMENT DWORD USE32 PUBLIC 'CONST'
rdata$r	ENDS
;	COMDAT ??_R2bad_alloc@std@@8
rdata$r	SEGMENT DWORD USE32 PUBLIC 'CONST'
rdata$r	ENDS
;	COMDAT ??_R0?AV?$codecvt@_WDH@std@@@8
_DATA	SEGMENT DWORD USE32 PUBLIC 'DATA'
_DATA	ENDS
;	COMDAT ??_R1A@?0A@A@exception@@8
rdata$r	SEGMENT DWORD USE32 PUBLIC 'CONST'
rdata$r	ENDS
;	COMDAT __CT??_R0?AVexception@@@8??0exception@@QAE@ABV0@@Z12
xdata$x	SEGMENT DWORD USE32 PUBLIC 'CONST'
xdata$x	ENDS
;	COMDAT ??_R1A@?0A@A@?$codecvt@_WDH@std@@8
rdata$r	SEGMENT DWORD USE32 PUBLIC 'CONST'
rdata$r	ENDS
;	COMDAT ??_R4underflow_error@std@@6B@
rdata$r	SEGMENT DWORD USE32 PUBLIC 'CONST'
rdata$r	ENDS
;	COMDAT ??_R2overflow_error@std@@8
rdata$r	SEGMENT DWORD USE32 PUBLIC 'CONST'
rdata$r	ENDS
;	COMDAT ??_R4length_error@std@@6B@
rdata$r	SEGMENT DWORD USE32 PUBLIC 'CONST'
rdata$r	ENDS
;	COMDAT ??_R1A@?0A@A@range_error@std@@8
rdata$r	SEGMENT DWORD USE32 PUBLIC 'CONST'
rdata$r	ENDS
;	COMDAT ??_R4?$ctype@D@std@@6B@
rdata$r	SEGMENT DWORD USE32 PUBLIC 'CONST'
rdata$r	ENDS
;	COMDAT ??_R0?AV?$ctype@_W@std@@@8
_DATA	SEGMENT DWORD USE32 PUBLIC 'DATA'
_DATA	ENDS
;	COMDAT ??_R3invalid_argument@std@@8
rdata$r	SEGMENT DWORD USE32 PUBLIC 'CONST'
rdata$r	ENDS
;	COMDAT ??_R0?AVfailure@ios_base@std@@@8
_DATA	SEGMENT DWORD USE32 PUBLIC 'DATA'
_DATA	ENDS
;	COMDAT ??_R3overflow_error@std@@8
rdata$r	SEGMENT DWORD USE32 PUBLIC 'CONST'
rdata$r	ENDS
;	COMDAT ??_R2out_of_range@std@@8
rdata$r	SEGMENT DWORD USE32 PUBLIC 'CONST'
rdata$r	ENDS
;	COMDAT ??_R0?AVruntime_error@std@@@8
_DATA	SEGMENT DWORD USE32 PUBLIC 'DATA'
_DATA	ENDS
;	COMDAT ??_R4overflow_error@std@@6B@
rdata$r	SEGMENT DWORD USE32 PUBLIC 'CONST'
rdata$r	ENDS
;	COMDAT __TI2?AVbad_cast@@
xdata$x	SEGMENT DWORD USE32 PUBLIC 'CONST'
xdata$x	ENDS
;	COMDAT ??_R0?AVunderflow_error@std@@@8
_DATA	SEGMENT DWORD USE32 PUBLIC 'DATA'
_DATA	ENDS
;	COMDAT ??_R3runtime_error@std@@8
rdata$r	SEGMENT DWORD USE32 PUBLIC 'CONST'
rdata$r	ENDS
;	COMDAT ??_R0?AV?$ctype@D@std@@@8
_DATA	SEGMENT DWORD USE32 PUBLIC 'DATA'
_DATA	ENDS
;	COMDAT ??_R4domain_error@std@@6B@
rdata$r	SEGMENT DWORD USE32 PUBLIC 'CONST'
rdata$r	ENDS
;	COMDAT ??_R3bad_exception@std@@8
rdata$r	SEGMENT DWORD USE32 PUBLIC 'CONST'
rdata$r	ENDS
;	COMDAT ??_R1A@?0A@A@?$numpunct@_W@std@@8
rdata$r	SEGMENT DWORD USE32 PUBLIC 'CONST'
rdata$r	ENDS
;	COMDAT ??_R2range_error@std@@8
rdata$r	SEGMENT DWORD USE32 PUBLIC 'CONST'
rdata$r	ENDS
;	COMDAT ??_R0?AVexception@@@8
_DATA	SEGMENT DWORD USE32 PUBLIC 'DATA'
_DATA	ENDS
;	COMDAT __CT??_R0?AVlength_error@std@@@8??0length_error@std@@QAE@ABV01@@Z40
xdata$x	SEGMENT DWORD USE32 PUBLIC 'CONST'
xdata$x	ENDS
;	COMDAT ??_R1A@?0A@A@?$ctype@D@std@@8
rdata$r	SEGMENT DWORD USE32 PUBLIC 'CONST'
rdata$r	ENDS
;	COMDAT __CT??_R0?AVbad_cast@@@8??0bad_cast@@QAE@ABV0@@Z12
xdata$x	SEGMENT DWORD USE32 PUBLIC 'CONST'
xdata$x	ENDS
;	COMDAT ??_R3?$ctype@_W@std@@8
rdata$r	SEGMENT DWORD USE32 PUBLIC 'CONST'
rdata$r	ENDS
;	COMDAT ??_R3bad_alloc@std@@8
rdata$r	SEGMENT DWORD USE32 PUBLIC 'CONST'
rdata$r	ENDS
;	COMDAT ??_R3domain_error@std@@8
rdata$r	SEGMENT DWORD USE32 PUBLIC 'CONST'
rdata$r	ENDS
;	COMDAT ??_R0?AVbad_exception@std@@@8
_DATA	SEGMENT DWORD USE32 PUBLIC 'DATA'
_DATA	ENDS
;	COMDAT ??_R2bad_exception@std@@8
rdata$r	SEGMENT DWORD USE32 PUBLIC 'CONST'
rdata$r	ENDS
;	COMDAT ??_R0?AV?$numpunct@D@std@@@8
_DATA	SEGMENT DWORD USE32 PUBLIC 'DATA'
_DATA	ENDS
;	COMDAT ??_R0?AVbad_alloc@std@@@8
_DATA	SEGMENT DWORD USE32 PUBLIC 'DATA'
_DATA	ENDS
;	COMDAT ??_R4invalid_argument@std@@6B@
rdata$r	SEGMENT DWORD USE32 PUBLIC 'CONST'
rdata$r	ENDS
;	COMDAT ??_R4?$codecvt@_WDH@std@@6B@
rdata$r	SEGMENT DWORD USE32 PUBLIC 'CONST'
rdata$r	ENDS
;	COMDAT ??_R4range_error@std@@6B@
rdata$r	SEGMENT DWORD USE32 PUBLIC 'CONST'
rdata$r	ENDS
;	COMDAT ??_R3?$codecvt@_WDH@std@@8
rdata$r	SEGMENT DWORD USE32 PUBLIC 'CONST'
rdata$r	ENDS
;	COMDAT ??_R1A@?0A@A@logic_error@std@@8
rdata$r	SEGMENT DWORD USE32 PUBLIC 'CONST'
rdata$r	ENDS
;	COMDAT __CTA2?AVbad_cast@@
xdata$x	SEGMENT DWORD USE32 PUBLIC 'CONST'
xdata$x	ENDS
;	COMDAT ??_R4logic_error@std@@6B@
rdata$r	SEGMENT DWORD USE32 PUBLIC 'CONST'
rdata$r	ENDS
;	COMDAT ??_R0?AVlength_error@std@@@8
_DATA	SEGMENT DWORD USE32 PUBLIC 'DATA'
_DATA	ENDS
;	COMDAT ??_R3out_of_range@std@@8
rdata$r	SEGMENT DWORD USE32 PUBLIC 'CONST'
rdata$r	ENDS
;	COMDAT ??_R2?$numpunct@_W@std@@8
rdata$r	SEGMENT DWORD USE32 PUBLIC 'CONST'
rdata$r	ENDS
;	COMDAT ??_R0?AVbad_cast@@@8
_DATA	SEGMENT DWORD USE32 PUBLIC 'DATA'
_DATA	ENDS
;	COMDAT ??_R1A@?0A@A@runtime_error@std@@8
rdata$r	SEGMENT DWORD USE32 PUBLIC 'CONST'
rdata$r	ENDS
;	COMDAT ??_R1A@?0A@A@invalid_argument@std@@8
rdata$r	SEGMENT DWORD USE32 PUBLIC 'CONST'
rdata$r	ENDS
;	COMDAT ??_R1A@?0A@A@ctype_base@std@@8
rdata$r	SEGMENT DWORD USE32 PUBLIC 'CONST'
rdata$r	ENDS
;	COMDAT ??_R2logic_error@std@@8
rdata$r	SEGMENT DWORD USE32 PUBLIC 'CONST'
rdata$r	ENDS
;	COMDAT ??_R1A@?0A@A@failure@ios_base@std@@8
rdata$r	SEGMENT DWORD USE32 PUBLIC 'CONST'
rdata$r	ENDS
;	COMDAT ??_R3logic_error@std@@8
rdata$r	SEGMENT DWORD USE32 PUBLIC 'CONST'
rdata$r	ENDS
;	COMDAT __CTA3?AVlength_error@std@@
xdata$x	SEGMENT DWORD USE32 PUBLIC 'CONST'
xdata$x	ENDS
;	COMDAT ??_R0?AVlogic_error@std@@@8
_DATA	SEGMENT DWORD USE32 PUBLIC 'DATA'
_DATA	ENDS
;	COMDAT ??_R4?$ctype@_W@std@@6B@
rdata$r	SEGMENT DWORD USE32 PUBLIC 'CONST'
rdata$r	ENDS
;	COMDAT ??_R3length_error@std@@8
rdata$r	SEGMENT DWORD USE32 PUBLIC 'CONST'
rdata$r	ENDS
;	COMDAT ??_R4bad_exception@std@@6B@
rdata$r	SEGMENT DWORD USE32 PUBLIC 'CONST'
rdata$r	ENDS
;	COMDAT ??_R1A@?0A@A@underflow_error@std@@8
rdata$r	SEGMENT DWORD USE32 PUBLIC 'CONST'
rdata$r	ENDS
;	COMDAT ??_R3failure@ios_base@std@@8
rdata$r	SEGMENT DWORD USE32 PUBLIC 'CONST'
rdata$r	ENDS
;	COMDAT ??_R1A@?0A@A@?$ctype@_W@std@@8
rdata$r	SEGMENT DWORD USE32 PUBLIC 'CONST'
rdata$r	ENDS
;	COMDAT ??_R4bad_alloc@std@@6B@
rdata$r	SEGMENT DWORD USE32 PUBLIC 'CONST'
rdata$r	ENDS
;	COMDAT ??_R1A@?0A@A@bad_exception@std@@8
rdata$r	SEGMENT DWORD USE32 PUBLIC 'CONST'
rdata$r	ENDS
;	COMDAT ??_R2underflow_error@std@@8
rdata$r	SEGMENT DWORD USE32 PUBLIC 'CONST'
rdata$r	ENDS
;	COMDAT ??_R0?AUctype_base@std@@@8
_DATA	SEGMENT DWORD USE32 PUBLIC 'DATA'
_DATA	ENDS
;	COMDAT ??_R4failure@ios_base@std@@6B@
rdata$r	SEGMENT DWORD USE32 PUBLIC 'CONST'
rdata$r	ENDS
;	COMDAT ??_R2?$ctype@D@std@@8
rdata$r	SEGMENT DWORD USE32 PUBLIC 'CONST'
rdata$r	ENDS
;	COMDAT ??_R4?$numpunct@_W@std@@6B@
rdata$r	SEGMENT DWORD USE32 PUBLIC 'CONST'
rdata$r	ENDS
;	COMDAT ??_R3range_error@std@@8
rdata$r	SEGMENT DWORD USE32 PUBLIC 'CONST'
rdata$r	ENDS
;	COMDAT ??_R3?$numpunct@D@std@@8
rdata$r	SEGMENT DWORD USE32 PUBLIC 'CONST'
rdata$r	ENDS
;	COMDAT ??_R0?AVfacet@locale@std@@@8
_DATA	SEGMENT DWORD USE32 PUBLIC 'DATA'
_DATA	ENDS
;	COMDAT ?binary@?$_Iosb@H@std@@2W4_Openmode@12@B
CONST	SEGMENT DWORD USE32 PUBLIC 'CONST'
CONST	ENDS
;	COMDAT ?_Hardfail@?$_Iosb@H@std@@2W4_Iostate@12@B
CONST	SEGMENT DWORD USE32 PUBLIC 'CONST'
CONST	ENDS
;	COMDAT ?eofbit@?$_Iosb@H@std@@2W4_Iostate@12@B
CONST	SEGMENT DWORD USE32 PUBLIC 'CONST'
CONST	ENDS
;	COMDAT ??_7invalid_argument@std@@6B@
CONST	SEGMENT DWORD USE32 PUBLIC 'CONST'
CONST	ENDS
;	COMDAT ?app@?$_Iosb@H@std@@2W4_Openmode@12@B
CONST	SEGMENT DWORD USE32 PUBLIC 'CONST'
CONST	ENDS
;	COMDAT ?uppercase@?$_Iosb@H@std@@2W4_Fmtflags@12@B
CONST	SEGMENT DWORD USE32 PUBLIC 'CONST'
CONST	ENDS
;	COMDAT ??_S?$numpunct@_W@std@@6B@
CONST	SEGMENT DWORD USE32 PUBLIC 'CONST'
CONST	ENDS
;	COMDAT ??_7out_of_range@std@@6B@
CONST	SEGMENT DWORD USE32 PUBLIC 'CONST'
CONST	ENDS
;	COMDAT ?trunc@?$_Iosb@H@std@@2W4_Openmode@12@B
CONST	SEGMENT DWORD USE32 PUBLIC 'CONST'
CONST	ENDS
;	COMDAT ??_S?$ctype@_W@std@@6B@
CONST	SEGMENT DWORD USE32 PUBLIC 'CONST'
CONST	ENDS
;	COMDAT ??_S?$numpunct@D@std@@6B@
CONST	SEGMENT DWORD USE32 PUBLIC 'CONST'
CONST	ENDS
;	COMDAT ?skipws@?$_Iosb@H@std@@2W4_Fmtflags@12@B
CONST	SEGMENT DWORD USE32 PUBLIC 'CONST'
CONST	ENDS
;	COMDAT ?basefield@?$_Iosb@H@std@@2W4_Fmtflags@12@B
CONST	SEGMENT DWORD USE32 PUBLIC 'CONST'
CONST	ENDS
;	COMDAT ??_7bad_alloc@std@@6B@
CONST	SEGMENT DWORD USE32 PUBLIC 'CONST'
CONST	ENDS
;	COMDAT ?_Stdio@?$_Iosb@H@std@@2W4_Fmtflags@12@B
CONST	SEGMENT DWORD USE32 PUBLIC 'CONST'
CONST	ENDS
;	COMDAT ?left@?$_Iosb@H@std@@2W4_Fmtflags@12@B
CONST	SEGMENT DWORD USE32 PUBLIC 'CONST'
CONST	ENDS
;	COMDAT ??_7runtime_error@std@@6B@
CONST	SEGMENT DWORD USE32 PUBLIC 'CONST'
CONST	ENDS
;	COMDAT ?showpos@?$_Iosb@H@std@@2W4_Fmtflags@12@B
CONST	SEGMENT DWORD USE32 PUBLIC 'CONST'
CONST	ENDS
;	COMDAT ?_Psave@?$_Facetptr@V?$ctype@D@std@@@std@@2PBVfacet@locale@2@B
_DATA	SEGMENT DWORD USE32 PUBLIC 'DATA'
_DATA	ENDS
;	COMDAT ?adjustfield@?$_Iosb@H@std@@2W4_Fmtflags@12@B
CONST	SEGMENT DWORD USE32 PUBLIC 'CONST'
CONST	ENDS
;	COMDAT ??_S?$ctype@D@std@@6B@
CONST	SEGMENT DWORD USE32 PUBLIC 'CONST'
CONST	ENDS
;	COMDAT ?badbit@?$_Iosb@H@std@@2W4_Iostate@12@B
CONST	SEGMENT DWORD USE32 PUBLIC 'CONST'
CONST	ENDS
;	COMDAT ?in@?$_Iosb@H@std@@2W4_Openmode@12@B
CONST	SEGMENT DWORD USE32 PUBLIC 'CONST'
CONST	ENDS
;	COMDAT ??_7underflow_error@std@@6B@
CONST	SEGMENT DWORD USE32 PUBLIC 'CONST'
CONST	ENDS
;	COMDAT ??_7overflow_error@std@@6B@
CONST	SEGMENT DWORD USE32 PUBLIC 'CONST'
CONST	ENDS
;	COMDAT ?_Psave@?$_Facetptr@V?$ctype@_W@std@@@std@@2PBVfacet@locale@2@B
_DATA	SEGMENT DWORD USE32 PUBLIC 'DATA'
_DATA	ENDS
;	COMDAT ?oct@?$_Iosb@H@std@@2W4_Fmtflags@12@B
CONST	SEGMENT DWORD USE32 PUBLIC 'CONST'
CONST	ENDS
;	COMDAT ?hex@?$_Iosb@H@std@@2W4_Fmtflags@12@B
CONST	SEGMENT DWORD USE32 PUBLIC 'CONST'
CONST	ENDS
;	COMDAT ?showbase@?$_Iosb@H@std@@2W4_Fmtflags@12@B
CONST	SEGMENT DWORD USE32 PUBLIC 'CONST'
CONST	ENDS
;	COMDAT ?showpoint@?$_Iosb@H@std@@2W4_Fmtflags@12@B
CONST	SEGMENT DWORD USE32 PUBLIC 'CONST'
CONST	ENDS
;	COMDAT ?collate@?$_Locbase@H@std@@2HB
CONST	SEGMENT DWORD USE32 PUBLIC 'CONST'
CONST	ENDS
;	COMDAT ??_7length_error@std@@6B@
CONST	SEGMENT DWORD USE32 PUBLIC 'CONST'
CONST	ENDS
;	COMDAT ?beg@?$_Iosb@H@std@@2W4_Seekdir@12@B
CONST	SEGMENT DWORD USE32 PUBLIC 'CONST'
CONST	ENDS
;	COMDAT ?failbit@?$_Iosb@H@std@@2W4_Iostate@12@B
CONST	SEGMENT DWORD USE32 PUBLIC 'CONST'
CONST	ENDS
;	COMDAT ?unitbuf@?$_Iosb@H@std@@2W4_Fmtflags@12@B
CONST	SEGMENT DWORD USE32 PUBLIC 'CONST'
CONST	ENDS
;	COMDAT ?right@?$_Iosb@H@std@@2W4_Fmtflags@12@B
CONST	SEGMENT DWORD USE32 PUBLIC 'CONST'
CONST	ENDS
;	COMDAT ?_Stz@?$fpos@H@std@@0HA
_BSS	SEGMENT DWORD USE32 PUBLIC 'BSS'
_BSS	ENDS
;	COMDAT ?ctype@?$_Locbase@H@std@@2HB
CONST	SEGMENT DWORD USE32 PUBLIC 'CONST'
CONST	ENDS
;	COMDAT ?out@?$_Iosb@H@std@@2W4_Openmode@12@B
CONST	SEGMENT DWORD USE32 PUBLIC 'CONST'
CONST	ENDS
;	COMDAT ?_Psave@?$_Facetptr@V?$numpunct@D@std@@@std@@2PBVfacet@locale@2@B
_DATA	SEGMENT DWORD USE32 PUBLIC 'DATA'
_DATA	ENDS
;	COMDAT ?internal@?$_Iosb@H@std@@2W4_Fmtflags@12@B
CONST	SEGMENT DWORD USE32 PUBLIC 'CONST'
CONST	ENDS
;	COMDAT ??_S?$codecvt@_WDH@std@@6B@
CONST	SEGMENT DWORD USE32 PUBLIC 'CONST'
CONST	ENDS
;	COMDAT ?goodbit@?$_Iosb@H@std@@2W4_Iostate@12@B
CONST	SEGMENT DWORD USE32 PUBLIC 'CONST'
CONST	ENDS
;	COMDAT ??_7bad_exception@std@@6B@
CONST	SEGMENT DWORD USE32 PUBLIC 'CONST'
CONST	ENDS
;	COMDAT ?boolalpha@?$_Iosb@H@std@@2W4_Fmtflags@12@B
CONST	SEGMENT DWORD USE32 PUBLIC 'CONST'
CONST	ENDS
;	COMDAT ?ate@?$_Iosb@H@std@@2W4_Openmode@12@B
CONST	SEGMENT DWORD USE32 PUBLIC 'CONST'
CONST	ENDS
;	COMDAT ?all@?$_Locbase@H@std@@2HB
CONST	SEGMENT DWORD USE32 PUBLIC 'CONST'
CONST	ENDS
;	COMDAT ?numeric@?$_Locbase@H@std@@2HB
CONST	SEGMENT DWORD USE32 PUBLIC 'CONST'
CONST	ENDS
;	COMDAT ?end@?$_Iosb@H@std@@2W4_Seekdir@12@B
CONST	SEGMENT DWORD USE32 PUBLIC 'CONST'
CONST	ENDS
;	COMDAT ?_Noreplace@?$_Iosb@H@std@@2W4_Openmode@12@B
CONST	SEGMENT DWORD USE32 PUBLIC 'CONST'
CONST	ENDS
;	COMDAT ??_7failure@ios_base@std@@6B@
CONST	SEGMENT DWORD USE32 PUBLIC 'CONST'
CONST	ENDS
;	COMDAT ?cur@?$_Iosb@H@std@@2W4_Seekdir@12@B
CONST	SEGMENT DWORD USE32 PUBLIC 'CONST'
CONST	ENDS
;	COMDAT ??_7range_error@std@@6B@
CONST	SEGMENT DWORD USE32 PUBLIC 'CONST'
CONST	ENDS
;	COMDAT ??_7logic_error@std@@6B@
CONST	SEGMENT DWORD USE32 PUBLIC 'CONST'
CONST	ENDS
;	COMDAT ?time@?$_Locbase@H@std@@2HB
CONST	SEGMENT DWORD USE32 PUBLIC 'CONST'
CONST	ENDS
;	COMDAT ?messages@?$_Locbase@H@std@@2HB
CONST	SEGMENT DWORD USE32 PUBLIC 'CONST'
CONST	ENDS
;	COMDAT ??_7domain_error@std@@6B@
CONST	SEGMENT DWORD USE32 PUBLIC 'CONST'
CONST	ENDS
;	COMDAT ?fixed@?$_Iosb@H@std@@2W4_Fmtflags@12@B
CONST	SEGMENT DWORD USE32 PUBLIC 'CONST'
CONST	ENDS
;	COMDAT ?none@?$_Locbase@H@std@@2HB
CONST	SEGMENT DWORD USE32 PUBLIC 'CONST'
CONST	ENDS
;	COMDAT ?floatfield@?$_Iosb@H@std@@2W4_Fmtflags@12@B
CONST	SEGMENT DWORD USE32 PUBLIC 'CONST'
CONST	ENDS
;	COMDAT ?_Nocreate@?$_Iosb@H@std@@2W4_Openmode@12@B
CONST	SEGMENT DWORD USE32 PUBLIC 'CONST'
CONST	ENDS
;	COMDAT ?scientific@?$_Iosb@H@std@@2W4_Fmtflags@12@B
CONST	SEGMENT DWORD USE32 PUBLIC 'CONST'
CONST	ENDS
;	COMDAT ?monetary@?$_Locbase@H@std@@2HB
CONST	SEGMENT DWORD USE32 PUBLIC 'CONST'
CONST	ENDS
;	COMDAT ?_Psave@?$_Facetptr@V?$numpunct@_W@std@@@std@@2PBVfacet@locale@2@B
_DATA	SEGMENT DWORD USE32 PUBLIC 'DATA'
_DATA	ENDS
;	COMDAT ?dec@?$_Iosb@H@std@@2W4_Fmtflags@12@B
CONST	SEGMENT DWORD USE32 PUBLIC 'CONST'
CONST	ENDS
;	COMDAT ??_R2invalid_argument@std@@8
rdata$r	SEGMENT DWORD USE32 PUBLIC 'CONST'
rdata$r	ENDS
;	COMDAT ??_R2?$codecvt@_WDH@std@@8
rdata$r	SEGMENT DWORD USE32 PUBLIC 'CONST'
rdata$r	ENDS
;	COMDAT ??_R1A@?0A@A@length_error@std@@8
rdata$r	SEGMENT DWORD USE32 PUBLIC 'CONST'
rdata$r	ENDS
;	COMDAT ??_R3?$numpunct@_W@std@@8
rdata$r	SEGMENT DWORD USE32 PUBLIC 'CONST'
rdata$r	ENDS
;	COMDAT ??_R4runtime_error@std@@6B@
rdata$r	SEGMENT DWORD USE32 PUBLIC 'CONST'
rdata$r	ENDS
;	COMDAT ??_R0?AVinvalid_argument@std@@@8
_DATA	SEGMENT DWORD USE32 PUBLIC 'DATA'
_DATA	ENDS
;	COMDAT ??_R1A@?0A@A@domain_error@std@@8
rdata$r	SEGMENT DWORD USE32 PUBLIC 'CONST'
rdata$r	ENDS
;	COMDAT ??_R0?AVoverflow_error@std@@@8
_DATA	SEGMENT DWORD USE32 PUBLIC 'DATA'
_DATA	ENDS
sxdata	SEGMENT DWORD USE32 'SXDATA'
sxdata	ENDS
FLAT	GROUP _DATA, CONST, _BSS
	ASSUME	CS: FLAT, DS: FLAT, SS: FLAT
endif

INCLUDELIB MSVCRT
INCLUDELIB OLDNAMES

PUBLIC	?collate@?$_Locbase@H@std@@2HB			; std::_Locbase<int>::collate
PUBLIC	?ctype@?$_Locbase@H@std@@2HB			; std::_Locbase<int>::ctype
PUBLIC	?monetary@?$_Locbase@H@std@@2HB			; std::_Locbase<int>::monetary
PUBLIC	?numeric@?$_Locbase@H@std@@2HB			; std::_Locbase<int>::numeric
PUBLIC	?time@?$_Locbase@H@std@@2HB			; std::_Locbase<int>::time
PUBLIC	?messages@?$_Locbase@H@std@@2HB			; std::_Locbase<int>::messages
PUBLIC	?all@?$_Locbase@H@std@@2HB			; std::_Locbase<int>::all
PUBLIC	?none@?$_Locbase@H@std@@2HB			; std::_Locbase<int>::none
PUBLIC	?skipws@?$_Iosb@H@std@@2W4_Fmtflags@12@B	; std::_Iosb<int>::skipws
PUBLIC	?unitbuf@?$_Iosb@H@std@@2W4_Fmtflags@12@B	; std::_Iosb<int>::unitbuf
PUBLIC	?uppercase@?$_Iosb@H@std@@2W4_Fmtflags@12@B	; std::_Iosb<int>::uppercase
PUBLIC	?showbase@?$_Iosb@H@std@@2W4_Fmtflags@12@B	; std::_Iosb<int>::showbase
PUBLIC	?showpoint@?$_Iosb@H@std@@2W4_Fmtflags@12@B	; std::_Iosb<int>::showpoint
PUBLIC	?showpos@?$_Iosb@H@std@@2W4_Fmtflags@12@B	; std::_Iosb<int>::showpos
PUBLIC	?left@?$_Iosb@H@std@@2W4_Fmtflags@12@B		; std::_Iosb<int>::left
PUBLIC	?right@?$_Iosb@H@std@@2W4_Fmtflags@12@B		; std::_Iosb<int>::right
PUBLIC	?internal@?$_Iosb@H@std@@2W4_Fmtflags@12@B	; std::_Iosb<int>::internal
PUBLIC	?dec@?$_Iosb@H@std@@2W4_Fmtflags@12@B		; std::_Iosb<int>::dec
PUBLIC	?oct@?$_Iosb@H@std@@2W4_Fmtflags@12@B		; std::_Iosb<int>::oct
PUBLIC	?hex@?$_Iosb@H@std@@2W4_Fmtflags@12@B		; std::_Iosb<int>::hex
PUBLIC	?scientific@?$_Iosb@H@std@@2W4_Fmtflags@12@B	; std::_Iosb<int>::scientific
PUBLIC	?fixed@?$_Iosb@H@std@@2W4_Fmtflags@12@B		; std::_Iosb<int>::fixed
PUBLIC	?boolalpha@?$_Iosb@H@std@@2W4_Fmtflags@12@B	; std::_Iosb<int>::boolalpha
PUBLIC	?_Stdio@?$_Iosb@H@std@@2W4_Fmtflags@12@B	; std::_Iosb<int>::_Stdio
PUBLIC	?adjustfield@?$_Iosb@H@std@@2W4_Fmtflags@12@B	; std::_Iosb<int>::adjustfield
PUBLIC	?basefield@?$_Iosb@H@std@@2W4_Fmtflags@12@B	; std::_Iosb<int>::basefield
PUBLIC	?floatfield@?$_Iosb@H@std@@2W4_Fmtflags@12@B	; std::_Iosb<int>::floatfield
PUBLIC	?goodbit@?$_Iosb@H@std@@2W4_Iostate@12@B	; std::_Iosb<int>::goodbit
PUBLIC	?eofbit@?$_Iosb@H@std@@2W4_Iostate@12@B		; std::_Iosb<int>::eofbit
PUBLIC	?failbit@?$_Iosb@H@std@@2W4_Iostate@12@B	; std::_Iosb<int>::failbit
PUBLIC	?badbit@?$_Iosb@H@std@@2W4_Iostate@12@B		; std::_Iosb<int>::badbit
PUBLIC	?_Hardfail@?$_Iosb@H@std@@2W4_Iostate@12@B	; std::_Iosb<int>::_Hardfail
PUBLIC	?in@?$_Iosb@H@std@@2W4_Openmode@12@B		; std::_Iosb<int>::in
PUBLIC	?out@?$_Iosb@H@std@@2W4_Openmode@12@B		; std::_Iosb<int>::out
PUBLIC	?ate@?$_Iosb@H@std@@2W4_Openmode@12@B		; std::_Iosb<int>::ate
PUBLIC	?app@?$_Iosb@H@std@@2W4_Openmode@12@B		; std::_Iosb<int>::app
PUBLIC	?trunc@?$_Iosb@H@std@@2W4_Openmode@12@B		; std::_Iosb<int>::trunc
PUBLIC	?_Nocreate@?$_Iosb@H@std@@2W4_Openmode@12@B	; std::_Iosb<int>::_Nocreate
PUBLIC	?_Noreplace@?$_Iosb@H@std@@2W4_Openmode@12@B	; std::_Iosb<int>::_Noreplace
PUBLIC	?binary@?$_Iosb@H@std@@2W4_Openmode@12@B	; std::_Iosb<int>::binary
PUBLIC	?beg@?$_Iosb@H@std@@2W4_Seekdir@12@B		; std::_Iosb<int>::beg
PUBLIC	?cur@?$_Iosb@H@std@@2W4_Seekdir@12@B		; std::_Iosb<int>::cur
PUBLIC	?end@?$_Iosb@H@std@@2W4_Seekdir@12@B		; std::_Iosb<int>::end
;	COMDAT ?collate@?$_Locbase@H@std@@2HB
CONST	SEGMENT
?collate@?$_Locbase@H@std@@2HB DD 01H			; std::_Locbase<int>::collate
CONST	ENDS
;	COMDAT ?ctype@?$_Locbase@H@std@@2HB
CONST	SEGMENT
?ctype@?$_Locbase@H@std@@2HB DD 02H			; std::_Locbase<int>::ctype
CONST	ENDS
;	COMDAT ?monetary@?$_Locbase@H@std@@2HB
CONST	SEGMENT
?monetary@?$_Locbase@H@std@@2HB DD 04H			; std::_Locbase<int>::monetary
CONST	ENDS
;	COMDAT ?numeric@?$_Locbase@H@std@@2HB
CONST	SEGMENT
?numeric@?$_Locbase@H@std@@2HB DD 08H			; std::_Locbase<int>::numeric
CONST	ENDS
;	COMDAT ?time@?$_Locbase@H@std@@2HB
CONST	SEGMENT
?time@?$_Locbase@H@std@@2HB DD 010H			; std::_Locbase<int>::time
CONST	ENDS
;	COMDAT ?messages@?$_Locbase@H@std@@2HB
CONST	SEGMENT
?messages@?$_Locbase@H@std@@2HB DD 020H			; std::_Locbase<int>::messages
CONST	ENDS
;	COMDAT ?all@?$_Locbase@H@std@@2HB
CONST	SEGMENT
?all@?$_Locbase@H@std@@2HB DD 03fH			; std::_Locbase<int>::all
CONST	ENDS
;	COMDAT ?none@?$_Locbase@H@std@@2HB
CONST	SEGMENT
?none@?$_Locbase@H@std@@2HB DD 00H			; std::_Locbase<int>::none
CONST	ENDS
;	COMDAT ?skipws@?$_Iosb@H@std@@2W4_Fmtflags@12@B
CONST	SEGMENT
?skipws@?$_Iosb@H@std@@2W4_Fmtflags@12@B DD 01H		; std::_Iosb<int>::skipws
CONST	ENDS
;	COMDAT ?unitbuf@?$_Iosb@H@std@@2W4_Fmtflags@12@B
CONST	SEGMENT
?unitbuf@?$_Iosb@H@std@@2W4_Fmtflags@12@B DD 02H	; std::_Iosb<int>::unitbuf
CONST	ENDS
;	COMDAT ?uppercase@?$_Iosb@H@std@@2W4_Fmtflags@12@B
CONST	SEGMENT
?uppercase@?$_Iosb@H@std@@2W4_Fmtflags@12@B DD 04H	; std::_Iosb<int>::uppercase
CONST	ENDS
;	COMDAT ?showbase@?$_Iosb@H@std@@2W4_Fmtflags@12@B
CONST	SEGMENT
?showbase@?$_Iosb@H@std@@2W4_Fmtflags@12@B DD 08H	; std::_Iosb<int>::showbase
CONST	ENDS
;	COMDAT ?showpoint@?$_Iosb@H@std@@2W4_Fmtflags@12@B
CONST	SEGMENT
?showpoint@?$_Iosb@H@std@@2W4_Fmtflags@12@B DD 010H	; std::_Iosb<int>::showpoint
CONST	ENDS
;	COMDAT ?showpos@?$_Iosb@H@std@@2W4_Fmtflags@12@B
CONST	SEGMENT
?showpos@?$_Iosb@H@std@@2W4_Fmtflags@12@B DD 020H	; std::_Iosb<int>::showpos
CONST	ENDS
;	COMDAT ?left@?$_Iosb@H@std@@2W4_Fmtflags@12@B
CONST	SEGMENT
?left@?$_Iosb@H@std@@2W4_Fmtflags@12@B DD 040H		; std::_Iosb<int>::left
CONST	ENDS
;	COMDAT ?right@?$_Iosb@H@std@@2W4_Fmtflags@12@B
CONST	SEGMENT
?right@?$_Iosb@H@std@@2W4_Fmtflags@12@B DD 080H		; std::_Iosb<int>::right
CONST	ENDS
;	COMDAT ?internal@?$_Iosb@H@std@@2W4_Fmtflags@12@B
CONST	SEGMENT
?internal@?$_Iosb@H@std@@2W4_Fmtflags@12@B DD 0100H	; std::_Iosb<int>::internal
CONST	ENDS
;	COMDAT ?dec@?$_Iosb@H@std@@2W4_Fmtflags@12@B
CONST	SEGMENT
?dec@?$_Iosb@H@std@@2W4_Fmtflags@12@B DD 0200H		; std::_Iosb<int>::dec
CONST	ENDS
;	COMDAT ?oct@?$_Iosb@H@std@@2W4_Fmtflags@12@B
CONST	SEGMENT
?oct@?$_Iosb@H@std@@2W4_Fmtflags@12@B DD 0400H		; std::_Iosb<int>::oct
CONST	ENDS
;	COMDAT ?hex@?$_Iosb@H@std@@2W4_Fmtflags@12@B
CONST	SEGMENT
?hex@?$_Iosb@H@std@@2W4_Fmtflags@12@B DD 0800H		; std::_Iosb<int>::hex
CONST	ENDS
;	COMDAT ?scientific@?$_Iosb@H@std@@2W4_Fmtflags@12@B
CONST	SEGMENT
?scientific@?$_Iosb@H@std@@2W4_Fmtflags@12@B DD 01000H	; std::_Iosb<int>::scientific
CONST	ENDS
;	COMDAT ?fixed@?$_Iosb@H@std@@2W4_Fmtflags@12@B
CONST	SEGMENT
?fixed@?$_Iosb@H@std@@2W4_Fmtflags@12@B DD 02000H	; std::_Iosb<int>::fixed
CONST	ENDS
;	COMDAT ?boolalpha@?$_Iosb@H@std@@2W4_Fmtflags@12@B
CONST	SEGMENT
?boolalpha@?$_Iosb@H@std@@2W4_Fmtflags@12@B DD 04000H	; std::_Iosb<int>::boolalpha
CONST	ENDS
;	COMDAT ?_Stdio@?$_Iosb@H@std@@2W4_Fmtflags@12@B
CONST	SEGMENT
?_Stdio@?$_Iosb@H@std@@2W4_Fmtflags@12@B DD 08000H	; std::_Iosb<int>::_Stdio
CONST	ENDS
;	COMDAT ?adjustfield@?$_Iosb@H@std@@2W4_Fmtflags@12@B
CONST	SEGMENT
?adjustfield@?$_Iosb@H@std@@2W4_Fmtflags@12@B DD 01c0H	; std::_Iosb<int>::adjustfield
CONST	ENDS
;	COMDAT ?basefield@?$_Iosb@H@std@@2W4_Fmtflags@12@B
CONST	SEGMENT
?basefield@?$_Iosb@H@std@@2W4_Fmtflags@12@B DD 0e00H	; std::_Iosb<int>::basefield
CONST	ENDS
;	COMDAT ?floatfield@?$_Iosb@H@std@@2W4_Fmtflags@12@B
CONST	SEGMENT
?floatfield@?$_Iosb@H@std@@2W4_Fmtflags@12@B DD 03000H	; std::_Iosb<int>::floatfield
CONST	ENDS
;	COMDAT ?goodbit@?$_Iosb@H@std@@2W4_Iostate@12@B
CONST	SEGMENT
?goodbit@?$_Iosb@H@std@@2W4_Iostate@12@B DD 00H		; std::_Iosb<int>::goodbit
CONST	ENDS
;	COMDAT ?eofbit@?$_Iosb@H@std@@2W4_Iostate@12@B
CONST	SEGMENT
?eofbit@?$_Iosb@H@std@@2W4_Iostate@12@B DD 01H		; std::_Iosb<int>::eofbit
CONST	ENDS
;	COMDAT ?failbit@?$_Iosb@H@std@@2W4_Iostate@12@B
CONST	SEGMENT
?failbit@?$_Iosb@H@std@@2W4_Iostate@12@B DD 02H		; std::_Iosb<int>::failbit
CONST	ENDS
;	COMDAT ?badbit@?$_Iosb@H@std@@2W4_Iostate@12@B
CONST	SEGMENT
?badbit@?$_Iosb@H@std@@2W4_Iostate@12@B DD 04H		; std::_Iosb<int>::badbit
CONST	ENDS
;	COMDAT ?_Hardfail@?$_Iosb@H@std@@2W4_Iostate@12@B
CONST	SEGMENT
?_Hardfail@?$_Iosb@H@std@@2W4_Iostate@12@B DD 010H	; std::_Iosb<int>::_Hardfail
CONST	ENDS
;	COMDAT ?in@?$_Iosb@H@std@@2W4_Openmode@12@B
CONST	SEGMENT
?in@?$_Iosb@H@std@@2W4_Openmode@12@B DD 01H		; std::_Iosb<int>::in
CONST	ENDS
;	COMDAT ?out@?$_Iosb@H@std@@2W4_Openmode@12@B
CONST	SEGMENT
?out@?$_Iosb@H@std@@2W4_Openmode@12@B DD 02H		; std::_Iosb<int>::out
CONST	ENDS
;	COMDAT ?ate@?$_Iosb@H@std@@2W4_Openmode@12@B
CONST	SEGMENT
?ate@?$_Iosb@H@std@@2W4_Openmode@12@B DD 04H		; std::_Iosb<int>::ate
CONST	ENDS
;	COMDAT ?app@?$_Iosb@H@std@@2W4_Openmode@12@B
CONST	SEGMENT
?app@?$_Iosb@H@std@@2W4_Openmode@12@B DD 08H		; std::_Iosb<int>::app
CONST	ENDS
;	COMDAT ?trunc@?$_Iosb@H@std@@2W4_Openmode@12@B
CONST	SEGMENT
?trunc@?$_Iosb@H@std@@2W4_Openmode@12@B DD 010H		; std::_Iosb<int>::trunc
CONST	ENDS
;	COMDAT ?_Nocreate@?$_Iosb@H@std@@2W4_Openmode@12@B
CONST	SEGMENT
?_Nocreate@?$_Iosb@H@std@@2W4_Openmode@12@B DD 040H	; std::_Iosb<int>::_Nocreate
CONST	ENDS
;	COMDAT ?_Noreplace@?$_Iosb@H@std@@2W4_Openmode@12@B
CONST	SEGMENT
?_Noreplace@?$_Iosb@H@std@@2W4_Openmode@12@B DD 080H	; std::_Iosb<int>::_Noreplace
CONST	ENDS
;	COMDAT ?binary@?$_Iosb@H@std@@2W4_Openmode@12@B
CONST	SEGMENT
?binary@?$_Iosb@H@std@@2W4_Openmode@12@B DD 020H	; std::_Iosb<int>::binary
CONST	ENDS
;	COMDAT ?beg@?$_Iosb@H@std@@2W4_Seekdir@12@B
CONST	SEGMENT
?beg@?$_Iosb@H@std@@2W4_Seekdir@12@B DD 00H		; std::_Iosb<int>::beg
CONST	ENDS
;	COMDAT ?cur@?$_Iosb@H@std@@2W4_Seekdir@12@B
CONST	SEGMENT
?cur@?$_Iosb@H@std@@2W4_Seekdir@12@B DD 01H		; std::_Iosb<int>::cur
CONST	ENDS
;	COMDAT ?end@?$_Iosb@H@std@@2W4_Seekdir@12@B
CONST	SEGMENT
?end@?$_Iosb@H@std@@2W4_Seekdir@12@B DD 02H		; std::_Iosb<int>::end
CONST	ENDS
CONST	SEGMENT
$SG83038 DB	'\', 00H
	ORG $+2
$SG83046 DB	'\temp', 00H
$SG83317 DB	00H
	ORG $+1
$SG83332 DB	'\', 00H
$SG83368 DB	00H
$SG83380 DB	00H
$SG83395 DB	'\*', 00H
	ORG $+1
$SG83404 DB	'.', 00H
	ORG $+2
$SG83405 DB	'..', 00H
	ORG $+1
$SG83410 DB	'\', 00H
$SG83413 DB	00H
	ORG $+1
$SG83440 DB	'\', 00H
	ORG $+2
$SG83443 DB	'\*', 00H
	ORG $+1
$SG83455 DB	'\', 00H
	ORG $+2
$SG83468 DB	'\', 00H
	ORG $+2
$SG83471 DB	'.', 00H
	ORG $+2
$SG83472 DB	'..', 00H
	ORG $+1
$SG83476 DB	'\', 00H
	ORG $+2
$SG83482 DB	'\', 00H
	ORG $+2
$SG83494 DB	'\*', 00H
	ORG $+1
$SG83503 DB	'.', 00H
	ORG $+2
$SG83504 DB	'..', 00H
CONST	ENDS
PUBLIC	?GetWindowsDir@YL_DirInfo@@SA_NQADI@Z		; YL_DirInfo::GetWindowsDir
PUBLIC	?GetWindowsDir@YL_DirInfo@@SA_NAAV?$basic_string@DU?$char_traits@D@std@@V?$allocator@D@2@@std@@@Z ; YL_DirInfo::GetWindowsDir
EXTRN	__except_list:DWORD
EXTRN	__imp_??1?$basic_string@DU?$char_traits@D@std@@V?$allocator@D@2@@std@@QAE@XZ:NEAR
EXTRN	___security_cookie:DWORD
EXTRN	@__security_check_cookie@4:NEAR
EXTRN	___CxxFrameHandler:NEAR
EXTRN	__imp_?c_str@?$basic_string@DU?$char_traits@D@std@@V?$allocator@D@2@@std@@QBEPBDXZ:NEAR
EXTRN	__imp_?length@?$basic_string@DU?$char_traits@D@std@@V?$allocator@D@2@@std@@QBEIXZ:NEAR
EXTRN	_strcpy:NEAR
EXTRN	__imp_??0?$basic_string@DU?$char_traits@D@std@@V?$allocator@D@2@@std@@QAE@XZ:NEAR
xdata$x	SEGMENT
$T88111	DD	0ffffffffH
	DD	FLAT:$L88101
$T88105	DD	019930520H
	DD	01H
	DD	FLAT:$T88111
	DD	2 DUP(00H)
	DD	2 DUP(00H)
; Function compile flags: /Odt
; File d:\boxgit\playbox\commonlib\common\yl_dirinfo.cpp
xdata$x	ENDS
_TEXT	SEGMENT
$T88100 = -46						; size = 1
$T88099 = -45						; size = 1
_strDir$ = -44						; size = 28
__$ArrayPad$ = -16					; size = 4
__$EHRec$ = -12						; size = 12
__$ReturnAddr$ = 4					; size = 4
_szDirBuffer$ = 8					; size = 4
_unBuffLen$ = 12					; size = 4
?GetWindowsDir@YL_DirInfo@@SA_NQADI@Z PROC NEAR		; YL_DirInfo::GetWindowsDir

; 9    : {

  00000	55		 push	 ebp
  00001	8b ec		 mov	 ebp, esp
  00003	6a ff		 push	 -1
  00005	68 00 00 00 00	 push	 __ehhandler$?GetWindowsDir@YL_DirInfo@@SA_NQADI@Z
  0000a	64 a1 00 00 00
	00		 mov	 eax, DWORD PTR fs:__except_list
  00010	50		 push	 eax
  00011	64 89 25 00 00
	00 00		 mov	 DWORD PTR fs:__except_list, esp
  00018	83 ec 24	 sub	 esp, 36			; 00000024H
  0001b	a1 00 00 00 00	 mov	 eax, DWORD PTR ___security_cookie
  00020	89 45 f0	 mov	 DWORD PTR __$ArrayPad$[ebp], eax

; 10   : 	string strDir;

  00023	8d 4d d4	 lea	 ecx, DWORD PTR _strDir$[ebp]
  00026	ff 15 00 00 00
	00		 call	 DWORD PTR __imp_??0?$basic_string@DU?$char_traits@D@std@@V?$allocator@D@2@@std@@QAE@XZ
  0002c	c7 45 fc 00 00
	00 00		 mov	 DWORD PTR __$EHRec$[ebp+8], 0

; 11   : 	if( GetWindowsDir(strDir) && strDir.length() <= unBuffLen-1)

  00033	8d 45 d4	 lea	 eax, DWORD PTR _strDir$[ebp]
  00036	50		 push	 eax
  00037	e8 00 00 00 00	 call	 ?GetWindowsDir@YL_DirInfo@@SA_NAAV?$basic_string@DU?$char_traits@D@std@@V?$allocator@D@2@@std@@@Z ; YL_DirInfo::GetWindowsDir
  0003c	83 c4 04	 add	 esp, 4
  0003f	0f b6 c8	 movzx	 ecx, al
  00042	85 c9		 test	 ecx, ecx
  00044	74 42		 je	 SHORT $L83001
  00046	8d 4d d4	 lea	 ecx, DWORD PTR _strDir$[ebp]
  00049	ff 15 00 00 00
	00		 call	 DWORD PTR __imp_?length@?$basic_string@DU?$char_traits@D@std@@V?$allocator@D@2@@std@@QBEIXZ
  0004f	8b 55 0c	 mov	 edx, DWORD PTR _unBuffLen$[ebp]
  00052	83 ea 01	 sub	 edx, 1
  00055	3b c2		 cmp	 eax, edx
  00057	77 2f		 ja	 SHORT $L83001

; 12   : 	{
; 13   : 		strcpy(szDirBuffer,strDir.c_str());

  00059	8d 4d d4	 lea	 ecx, DWORD PTR _strDir$[ebp]
  0005c	ff 15 00 00 00
	00		 call	 DWORD PTR __imp_?c_str@?$basic_string@DU?$char_traits@D@std@@V?$allocator@D@2@@std@@QBEPBDXZ
  00062	50		 push	 eax
  00063	8b 45 08	 mov	 eax, DWORD PTR _szDirBuffer$[ebp]
  00066	50		 push	 eax
  00067	e8 00 00 00 00	 call	 _strcpy
  0006c	83 c4 08	 add	 esp, 8

; 14   : 		return true;

  0006f	c6 45 d3 01	 mov	 BYTE PTR $T88099[ebp], 1
  00073	c7 45 fc ff ff
	ff ff		 mov	 DWORD PTR __$EHRec$[ebp+8], -1
  0007a	8d 4d d4	 lea	 ecx, DWORD PTR _strDir$[ebp]
  0007d	ff 15 00 00 00
	00		 call	 DWORD PTR __imp_??1?$basic_string@DU?$char_traits@D@std@@V?$allocator@D@2@@std@@QAE@XZ
  00083	8a 45 d3	 mov	 al, BYTE PTR $T88099[ebp]
  00086	eb 17		 jmp	 SHORT $L82999
$L83001:

; 15   : 	}
; 16   : 	return false;

  00088	c6 45 d2 00	 mov	 BYTE PTR $T88100[ebp], 0
  0008c	c7 45 fc ff ff
	ff ff		 mov	 DWORD PTR __$EHRec$[ebp+8], -1
  00093	8d 4d d4	 lea	 ecx, DWORD PTR _strDir$[ebp]
  00096	ff 15 00 00 00
	00		 call	 DWORD PTR __imp_??1?$basic_string@DU?$char_traits@D@std@@V?$allocator@D@2@@std@@QAE@XZ
  0009c	8a 45 d2	 mov	 al, BYTE PTR $T88100[ebp]
$L82999:

; 17   : }

  0009f	8b 4d f4	 mov	 ecx, DWORD PTR __$EHRec$[ebp]
  000a2	64 89 0d 00 00
	00 00		 mov	 DWORD PTR fs:__except_list, ecx
  000a9	8b 4d f0	 mov	 ecx, DWORD PTR __$ArrayPad$[ebp]
  000ac	e8 00 00 00 00	 call	 @__security_check_cookie@4
  000b1	8b e5		 mov	 esp, ebp
  000b3	5d		 pop	 ebp
  000b4	c3		 ret	 0
_TEXT	ENDS
text$x	SEGMENT
$L88101:
  00000	8d 4d d4	 lea	 ecx, DWORD PTR _strDir$[ebp]
  00003	ff 25 00 00 00
	00		 jmp	 DWORD PTR __imp_??1?$basic_string@DU?$char_traits@D@std@@V?$allocator@D@2@@std@@QAE@XZ
__ehhandler$?GetWindowsDir@YL_DirInfo@@SA_NQADI@Z:
  00009	b8 00 00 00 00	 mov	 eax, OFFSET FLAT:$T88105
  0000e	e9 00 00 00 00	 jmp	 ___CxxFrameHandler
text$x	ENDS
?GetWindowsDir@YL_DirInfo@@SA_NQADI@Z ENDP		; YL_DirInfo::GetWindowsDir
EXTRN	__imp_??4?$basic_string@DU?$char_traits@D@std@@V?$allocator@D@2@@std@@QAEAAV01@PBD@Z:NEAR
EXTRN	__imp__SHGetFolderPathA@20:NEAR
; Function compile flags: /Odt
_TEXT	SEGMENT
_szPath$ = -520						; size = 512
__$ArrayPad$ = -4					; size = 4
__$ReturnAddr$ = 4					; size = 4
_strDir$ = 8						; size = 4
?GetWindowsDir@YL_DirInfo@@SA_NAAV?$basic_string@DU?$char_traits@D@std@@V?$allocator@D@2@@std@@@Z PROC NEAR ; YL_DirInfo::GetWindowsDir

; 20   : {

  000c0	55		 push	 ebp
  000c1	8b ec		 mov	 ebp, esp
  000c3	81 ec 08 02 00
	00		 sub	 esp, 520		; 00000208H
  000c9	a1 00 00 00 00	 mov	 eax, DWORD PTR ___security_cookie
  000ce	89 45 fc	 mov	 DWORD PTR __$ArrayPad$[ebp], eax

; 21   : 	char szPath[512];	
; 22   : 	if( SUCCEEDED(SHGetFolderPath(NULL, CSIDL_WINDOWS, NULL, 0, szPath)) ) 

  000d1	8d 85 f8 fd ff
	ff		 lea	 eax, DWORD PTR _szPath$[ebp]
  000d7	50		 push	 eax
  000d8	6a 00		 push	 0
  000da	6a 00		 push	 0
  000dc	6a 24		 push	 36			; 00000024H
  000de	6a 00		 push	 0
  000e0	ff 15 00 00 00
	00		 call	 DWORD PTR __imp__SHGetFolderPathA@20
  000e6	85 c0		 test	 eax, eax
  000e8	7c 14		 jl	 SHORT $L83009

; 23   : 	{
; 24   : 		strDir = szPath;

  000ea	8d 8d f8 fd ff
	ff		 lea	 ecx, DWORD PTR _szPath$[ebp]
  000f0	51		 push	 ecx
  000f1	8b 4d 08	 mov	 ecx, DWORD PTR _strDir$[ebp]
  000f4	ff 15 00 00 00
	00		 call	 DWORD PTR __imp_??4?$basic_string@DU?$char_traits@D@std@@V?$allocator@D@2@@std@@QAEAAV01@PBD@Z

; 25   : 		return true;

  000fa	b0 01		 mov	 al, 1
  000fc	eb 02		 jmp	 SHORT $L83006
$L83009:

; 26   : 	}
; 27   : 	return false;

  000fe	32 c0		 xor	 al, al
$L83006:

; 28   : }

  00100	8b 4d fc	 mov	 ecx, DWORD PTR __$ArrayPad$[ebp]
  00103	e8 00 00 00 00	 call	 @__security_check_cookie@4
  00108	8b e5		 mov	 esp, ebp
  0010a	5d		 pop	 ebp
  0010b	c3		 ret	 0
?GetWindowsDir@YL_DirInfo@@SA_NAAV?$basic_string@DU?$char_traits@D@std@@V?$allocator@D@2@@std@@@Z ENDP ; YL_DirInfo::GetWindowsDir
_TEXT	ENDS
PUBLIC	?GetSystemDir@YL_DirInfo@@SA_NQADI@Z		; YL_DirInfo::GetSystemDir
PUBLIC	?GetSystemDir@YL_DirInfo@@SA_NAAV?$basic_string@DU?$char_traits@D@std@@V?$allocator@D@2@@std@@@Z ; YL_DirInfo::GetSystemDir
xdata$x	SEGMENT
$T88125	DD	0ffffffffH
	DD	FLAT:$L88120
$T88122	DD	019930520H
	DD	01H
	DD	FLAT:$T88125
	DD	2 DUP(00H)
	DD	2 DUP(00H)
; Function compile flags: /Odt
xdata$x	ENDS
_TEXT	SEGMENT
$T88119 = -46						; size = 1
$T88118 = -45						; size = 1
_strDir$ = -44						; size = 28
__$ArrayPad$ = -16					; size = 4
__$EHRec$ = -12						; size = 12
__$ReturnAddr$ = 4					; size = 4
_szDirBuffer$ = 8					; size = 4
_unBuffLen$ = 12					; size = 4
?GetSystemDir@YL_DirInfo@@SA_NQADI@Z PROC NEAR		; YL_DirInfo::GetSystemDir

; 32   : {

  00110	55		 push	 ebp
  00111	8b ec		 mov	 ebp, esp
  00113	6a ff		 push	 -1
  00115	68 00 00 00 00	 push	 __ehhandler$?GetSystemDir@YL_DirInfo@@SA_NQADI@Z
  0011a	64 a1 00 00 00
	00		 mov	 eax, DWORD PTR fs:__except_list
  00120	50		 push	 eax
  00121	64 89 25 00 00
	00 00		 mov	 DWORD PTR fs:__except_list, esp
  00128	83 ec 24	 sub	 esp, 36			; 00000024H
  0012b	a1 00 00 00 00	 mov	 eax, DWORD PTR ___security_cookie
  00130	89 45 f0	 mov	 DWORD PTR __$ArrayPad$[ebp], eax

; 33   : 	string strDir;

  00133	8d 4d d4	 lea	 ecx, DWORD PTR _strDir$[ebp]
  00136	ff 15 00 00 00
	00		 call	 DWORD PTR __imp_??0?$basic_string@DU?$char_traits@D@std@@V?$allocator@D@2@@std@@QAE@XZ
  0013c	c7 45 fc 00 00
	00 00		 mov	 DWORD PTR __$EHRec$[ebp+8], 0

; 34   : 	if( GetSystemDir(strDir) && strDir.length() <= unBuffLen-1)

  00143	8d 45 d4	 lea	 eax, DWORD PTR _strDir$[ebp]
  00146	50		 push	 eax
  00147	e8 00 00 00 00	 call	 ?GetSystemDir@YL_DirInfo@@SA_NAAV?$basic_string@DU?$char_traits@D@std@@V?$allocator@D@2@@std@@@Z ; YL_DirInfo::GetSystemDir
  0014c	83 c4 04	 add	 esp, 4
  0014f	0f b6 c8	 movzx	 ecx, al
  00152	85 c9		 test	 ecx, ecx
  00154	74 42		 je	 SHORT $L83015
  00156	8d 4d d4	 lea	 ecx, DWORD PTR _strDir$[ebp]
  00159	ff 15 00 00 00
	00		 call	 DWORD PTR __imp_?length@?$basic_string@DU?$char_traits@D@std@@V?$allocator@D@2@@std@@QBEIXZ
  0015f	8b 55 0c	 mov	 edx, DWORD PTR _unBuffLen$[ebp]
  00162	83 ea 01	 sub	 edx, 1
  00165	3b c2		 cmp	 eax, edx
  00167	77 2f		 ja	 SHORT $L83015

; 35   : 	{
; 36   : 		strcpy(szDirBuffer,strDir.c_str());

  00169	8d 4d d4	 lea	 ecx, DWORD PTR _strDir$[ebp]
  0016c	ff 15 00 00 00
	00		 call	 DWORD PTR __imp_?c_str@?$basic_string@DU?$char_traits@D@std@@V?$allocator@D@2@@std@@QBEPBDXZ
  00172	50		 push	 eax
  00173	8b 45 08	 mov	 eax, DWORD PTR _szDirBuffer$[ebp]
  00176	50		 push	 eax
  00177	e8 00 00 00 00	 call	 _strcpy
  0017c	83 c4 08	 add	 esp, 8

; 37   : 		return true;

  0017f	c6 45 d3 01	 mov	 BYTE PTR $T88118[ebp], 1
  00183	c7 45 fc ff ff
	ff ff		 mov	 DWORD PTR __$EHRec$[ebp+8], -1
  0018a	8d 4d d4	 lea	 ecx, DWORD PTR _strDir$[ebp]
  0018d	ff 15 00 00 00
	00		 call	 DWORD PTR __imp_??1?$basic_string@DU?$char_traits@D@std@@V?$allocator@D@2@@std@@QAE@XZ
  00193	8a 45 d3	 mov	 al, BYTE PTR $T88118[ebp]
  00196	eb 17		 jmp	 SHORT $L83013
$L83015:

; 38   : 	}
; 39   : 	return false;

  00198	c6 45 d2 00	 mov	 BYTE PTR $T88119[ebp], 0
  0019c	c7 45 fc ff ff
	ff ff		 mov	 DWORD PTR __$EHRec$[ebp+8], -1
  001a3	8d 4d d4	 lea	 ecx, DWORD PTR _strDir$[ebp]
  001a6	ff 15 00 00 00
	00		 call	 DWORD PTR __imp_??1?$basic_string@DU?$char_traits@D@std@@V?$allocator@D@2@@std@@QAE@XZ
  001ac	8a 45 d2	 mov	 al, BYTE PTR $T88119[ebp]
$L83013:

; 40   : }

  001af	8b 4d f4	 mov	 ecx, DWORD PTR __$EHRec$[ebp]
  001b2	64 89 0d 00 00
	00 00		 mov	 DWORD PTR fs:__except_list, ecx
  001b9	8b 4d f0	 mov	 ecx, DWORD PTR __$ArrayPad$[ebp]
  001bc	e8 00 00 00 00	 call	 @__security_check_cookie@4
  001c1	8b e5		 mov	 esp, ebp
  001c3	5d		 pop	 ebp
  001c4	c3		 ret	 0
_TEXT	ENDS
text$x	SEGMENT
$L88120:
  00013	8d 4d d4	 lea	 ecx, DWORD PTR _strDir$[ebp]
  00016	ff 25 00 00 00
	00		 jmp	 DWORD PTR __imp_??1?$basic_string@DU?$char_traits@D@std@@V?$allocator@D@2@@std@@QAE@XZ
__ehhandler$?GetSystemDir@YL_DirInfo@@SA_NQADI@Z:
  0001c	b8 00 00 00 00	 mov	 eax, OFFSET FLAT:$T88122
  00021	e9 00 00 00 00	 jmp	 ___CxxFrameHandler
text$x	ENDS
?GetSystemDir@YL_DirInfo@@SA_NQADI@Z ENDP		; YL_DirInfo::GetSystemDir
; Function compile flags: /Odt
_TEXT	SEGMENT
_szPath$ = -520						; size = 512
__$ArrayPad$ = -4					; size = 4
__$ReturnAddr$ = 4					; size = 4
_strDir$ = 8						; size = 4
?GetSystemDir@YL_DirInfo@@SA_NAAV?$basic_string@DU?$char_traits@D@std@@V?$allocator@D@2@@std@@@Z PROC NEAR ; YL_DirInfo::GetSystemDir

; 43   : {

  001d0	55		 push	 ebp
  001d1	8b ec		 mov	 ebp, esp
  001d3	81 ec 08 02 00
	00		 sub	 esp, 520		; 00000208H
  001d9	a1 00 00 00 00	 mov	 eax, DWORD PTR ___security_cookie
  001de	89 45 fc	 mov	 DWORD PTR __$ArrayPad$[ebp], eax

; 44   : 	char szPath[512];	
; 45   : 	if(SUCCEEDED(SHGetFolderPath(NULL, CSIDL_SYSTEM, NULL, 0, szPath))) 

  001e1	8d 85 f8 fd ff
	ff		 lea	 eax, DWORD PTR _szPath$[ebp]
  001e7	50		 push	 eax
  001e8	6a 00		 push	 0
  001ea	6a 00		 push	 0
  001ec	6a 25		 push	 37			; 00000025H
  001ee	6a 00		 push	 0
  001f0	ff 15 00 00 00
	00		 call	 DWORD PTR __imp__SHGetFolderPathA@20
  001f6	85 c0		 test	 eax, eax
  001f8	7c 14		 jl	 SHORT $L83023

; 46   : 	{
; 47   : 		strDir = szPath;

  001fa	8d 8d f8 fd ff
	ff		 lea	 ecx, DWORD PTR _szPath$[ebp]
  00200	51		 push	 ecx
  00201	8b 4d 08	 mov	 ecx, DWORD PTR _strDir$[ebp]
  00204	ff 15 00 00 00
	00		 call	 DWORD PTR __imp_??4?$basic_string@DU?$char_traits@D@std@@V?$allocator@D@2@@std@@QAEAAV01@PBD@Z

; 48   : 		return true;

  0020a	b0 01		 mov	 al, 1
  0020c	eb 02		 jmp	 SHORT $L83020
$L83023:

; 49   : 	}
; 50   : 	return false;

  0020e	32 c0		 xor	 al, al
$L83020:

; 51   : }

  00210	8b 4d fc	 mov	 ecx, DWORD PTR __$ArrayPad$[ebp]
  00213	e8 00 00 00 00	 call	 @__security_check_cookie@4
  00218	8b e5		 mov	 esp, ebp
  0021a	5d		 pop	 ebp
  0021b	c3		 ret	 0
?GetSystemDir@YL_DirInfo@@SA_NAAV?$basic_string@DU?$char_traits@D@std@@V?$allocator@D@2@@std@@@Z ENDP ; YL_DirInfo::GetSystemDir
_TEXT	ENDS
PUBLIC	?GetTempDir@YL_DirInfo@@SA_NQADI@Z		; YL_DirInfo::GetTempDir
PUBLIC	?GetTempDir@YL_DirInfo@@SA_NAAV?$basic_string@DU?$char_traits@D@std@@V?$allocator@D@2@@std@@@Z ; YL_DirInfo::GetTempDir
xdata$x	SEGMENT
$T88138	DD	0ffffffffH
	DD	FLAT:$L88133
$T88135	DD	019930520H
	DD	01H
	DD	FLAT:$T88138
	DD	2 DUP(00H)
	DD	2 DUP(00H)
; Function compile flags: /Odt
xdata$x	ENDS
_TEXT	SEGMENT
$T88132 = -46						; size = 1
$T88131 = -45						; size = 1
_strDir$ = -44						; size = 28
__$ArrayPad$ = -16					; size = 4
__$EHRec$ = -12						; size = 12
__$ReturnAddr$ = 4					; size = 4
_szDirBuffer$ = 8					; size = 4
_unBuffLen$ = 12					; size = 4
?GetTempDir@YL_DirInfo@@SA_NQADI@Z PROC NEAR		; YL_DirInfo::GetTempDir

; 54   : {

  00220	55		 push	 ebp
  00221	8b ec		 mov	 ebp, esp
  00223	6a ff		 push	 -1
  00225	68 00 00 00 00	 push	 __ehhandler$?GetTempDir@YL_DirInfo@@SA_NQADI@Z
  0022a	64 a1 00 00 00
	00		 mov	 eax, DWORD PTR fs:__except_list
  00230	50		 push	 eax
  00231	64 89 25 00 00
	00 00		 mov	 DWORD PTR fs:__except_list, esp
  00238	83 ec 24	 sub	 esp, 36			; 00000024H
  0023b	a1 00 00 00 00	 mov	 eax, DWORD PTR ___security_cookie
  00240	89 45 f0	 mov	 DWORD PTR __$ArrayPad$[ebp], eax

; 55   : 	string strDir;

  00243	8d 4d d4	 lea	 ecx, DWORD PTR _strDir$[ebp]
  00246	ff 15 00 00 00
	00		 call	 DWORD PTR __imp_??0?$basic_string@DU?$char_traits@D@std@@V?$allocator@D@2@@std@@QAE@XZ
  0024c	c7 45 fc 00 00
	00 00		 mov	 DWORD PTR __$EHRec$[ebp+8], 0

; 56   : 	if( GetTempDir(strDir) && strDir.length() <= unBuffLen-1)

  00253	8d 45 d4	 lea	 eax, DWORD PTR _strDir$[ebp]
  00256	50		 push	 eax
  00257	e8 00 00 00 00	 call	 ?GetTempDir@YL_DirInfo@@SA_NAAV?$basic_string@DU?$char_traits@D@std@@V?$allocator@D@2@@std@@@Z ; YL_DirInfo::GetTempDir
  0025c	83 c4 04	 add	 esp, 4
  0025f	0f b6 c8	 movzx	 ecx, al
  00262	85 c9		 test	 ecx, ecx
  00264	74 42		 je	 SHORT $L83029
  00266	8d 4d d4	 lea	 ecx, DWORD PTR _strDir$[ebp]
  00269	ff 15 00 00 00
	00		 call	 DWORD PTR __imp_?length@?$basic_string@DU?$char_traits@D@std@@V?$allocator@D@2@@std@@QBEIXZ
  0026f	8b 55 0c	 mov	 edx, DWORD PTR _unBuffLen$[ebp]
  00272	83 ea 01	 sub	 edx, 1
  00275	3b c2		 cmp	 eax, edx
  00277	77 2f		 ja	 SHORT $L83029

; 57   : 	{
; 58   : 		strcpy(szDirBuffer,strDir.c_str());

  00279	8d 4d d4	 lea	 ecx, DWORD PTR _strDir$[ebp]
  0027c	ff 15 00 00 00
	00		 call	 DWORD PTR __imp_?c_str@?$basic_string@DU?$char_traits@D@std@@V?$allocator@D@2@@std@@QBEPBDXZ
  00282	50		 push	 eax
  00283	8b 45 08	 mov	 eax, DWORD PTR _szDirBuffer$[ebp]
  00286	50		 push	 eax
  00287	e8 00 00 00 00	 call	 _strcpy
  0028c	83 c4 08	 add	 esp, 8

; 59   : 		return true;

  0028f	c6 45 d3 01	 mov	 BYTE PTR $T88131[ebp], 1
  00293	c7 45 fc ff ff
	ff ff		 mov	 DWORD PTR __$EHRec$[ebp+8], -1
  0029a	8d 4d d4	 lea	 ecx, DWORD PTR _strDir$[ebp]
  0029d	ff 15 00 00 00
	00		 call	 DWORD PTR __imp_??1?$basic_string@DU?$char_traits@D@std@@V?$allocator@D@2@@std@@QAE@XZ
  002a3	8a 45 d3	 mov	 al, BYTE PTR $T88131[ebp]
  002a6	eb 17		 jmp	 SHORT $L83027
$L83029:

; 60   : 	}
; 61   : 	return false;

  002a8	c6 45 d2 00	 mov	 BYTE PTR $T88132[ebp], 0
  002ac	c7 45 fc ff ff
	ff ff		 mov	 DWORD PTR __$EHRec$[ebp+8], -1
  002b3	8d 4d d4	 lea	 ecx, DWORD PTR _strDir$[ebp]
  002b6	ff 15 00 00 00
	00		 call	 DWORD PTR __imp_??1?$basic_string@DU?$char_traits@D@std@@V?$allocator@D@2@@std@@QAE@XZ
  002bc	8a 45 d2	 mov	 al, BYTE PTR $T88132[ebp]
$L83027:

; 62   : }

  002bf	8b 4d f4	 mov	 ecx, DWORD PTR __$EHRec$[ebp]
  002c2	64 89 0d 00 00
	00 00		 mov	 DWORD PTR fs:__except_list, ecx
  002c9	8b 4d f0	 mov	 ecx, DWORD PTR __$ArrayPad$[ebp]
  002cc	e8 00 00 00 00	 call	 @__security_check_cookie@4
  002d1	8b e5		 mov	 esp, ebp
  002d3	5d		 pop	 ebp
  002d4	c3		 ret	 0
_TEXT	ENDS
text$x	SEGMENT
$L88133:
  00026	8d 4d d4	 lea	 ecx, DWORD PTR _strDir$[ebp]
  00029	ff 25 00 00 00
	00		 jmp	 DWORD PTR __imp_??1?$basic_string@DU?$char_traits@D@std@@V?$allocator@D@2@@std@@QAE@XZ
__ehhandler$?GetTempDir@YL_DirInfo@@SA_NQADI@Z:
  0002f	b8 00 00 00 00	 mov	 eax, OFFSET FLAT:$T88135
  00034	e9 00 00 00 00	 jmp	 ___CxxFrameHandler
text$x	ENDS
?GetTempDir@YL_DirInfo@@SA_NQADI@Z ENDP			; YL_DirInfo::GetTempDir
EXTRN	__imp_??0?$basic_string@DU?$char_traits@D@std@@V?$allocator@D@2@@std@@QAE@PBD@Z:NEAR
EXTRN	__imp_?npos@?$basic_string@DU?$char_traits@D@std@@V?$allocator@D@2@@std@@2IB:DWORD
EXTRN	__imp_??4?$basic_string@DU?$char_traits@D@std@@V?$allocator@D@2@@std@@QAEAAV01@ABV01@@Z:NEAR
EXTRN	__imp_??Y?$basic_string@DU?$char_traits@D@std@@V?$allocator@D@2@@std@@QAEAAV01@PBD@Z:NEAR
EXTRN	__imp_??A?$basic_string@DU?$char_traits@D@std@@V?$allocator@D@2@@std@@QAEAADI@Z:NEAR
EXTRN	__imp_?find_last_of@?$basic_string@DU?$char_traits@D@std@@V?$allocator@D@2@@std@@QBEIPBDI@Z:NEAR
EXTRN	__imp_?substr@?$basic_string@DU?$char_traits@D@std@@V?$allocator@D@2@@std@@QBE?AV12@II@Z:NEAR
EXTRN	__imp__GetModuleFileNameA@12:NEAR
xdata$x	SEGMENT
$T88152	DD	0ffffffffH
	DD	FLAT:$L88145
	DD	00H
	DD	FLAT:$L88146
	DD	01H
	DD	FLAT:$L88147
$T88149	DD	019930520H
	DD	03H
	DD	FLAT:$T88152
	DD	2 DUP(00H)
	DD	2 DUP(00H)
; Function compile flags: /Odt
xdata$x	ENDS
_TEXT	SEGMENT
tv148 = -388						; size = 4
tv80 = -384						; size = 4
$T88144 = -378						; size = 1
$T88143 = -377						; size = 1
$T88142 = -376						; size = 28
$T88141 = -345						; size = 1
_str$ = -344						; size = 28
_sz$ = -316						; size = 260
_strExePath$ = -48					; size = 28
__$ArrayPad$ = -20					; size = 4
_n$ = -16						; size = 4
__$EHRec$ = -12						; size = 12
__$ReturnAddr$ = 4					; size = 4
_strDir$ = 8						; size = 4
?GetTempDir@YL_DirInfo@@SA_NAAV?$basic_string@DU?$char_traits@D@std@@V?$allocator@D@2@@std@@@Z PROC NEAR ; YL_DirInfo::GetTempDir

; 65   : {

  002e0	55		 push	 ebp
  002e1	8b ec		 mov	 ebp, esp
  002e3	6a ff		 push	 -1
  002e5	68 00 00 00 00	 push	 __ehhandler$?GetTempDir@YL_DirInfo@@SA_NAAV?$basic_string@DU?$char_traits@D@std@@V?$allocator@D@2@@std@@@Z
  002ea	64 a1 00 00 00
	00		 mov	 eax, DWORD PTR fs:__except_list
  002f0	50		 push	 eax
  002f1	64 89 25 00 00
	00 00		 mov	 DWORD PTR fs:__except_list, esp
  002f8	81 ec 78 01 00
	00		 sub	 esp, 376		; 00000178H
  002fe	a1 00 00 00 00	 mov	 eax, DWORD PTR ___security_cookie
  00303	89 45 ec	 mov	 DWORD PTR __$ArrayPad$[ebp], eax
  00306	57		 push	 edi

; 66   : 	char sz[MAX_PATH]={0};

  00307	c6 85 c4 fe ff
	ff 00		 mov	 BYTE PTR _sz$[ebp], 0
  0030e	b9 40 00 00 00	 mov	 ecx, 64			; 00000040H
  00313	33 c0		 xor	 eax, eax
  00315	8d bd c5 fe ff
	ff		 lea	 edi, DWORD PTR _sz$[ebp+1]
  0031b	f3 ab		 rep stosd
  0031d	66 ab		 stosw
  0031f	aa		 stosb

; 67   : 	::GetModuleFileName(NULL, sz, MAX_PATH);

  00320	68 04 01 00 00	 push	 260			; 00000104H
  00325	8d 85 c4 fe ff
	ff		 lea	 eax, DWORD PTR _sz$[ebp]
  0032b	50		 push	 eax
  0032c	6a 00		 push	 0
  0032e	ff 15 00 00 00
	00		 call	 DWORD PTR __imp__GetModuleFileNameA@12

; 68   : 	string strExePath = sz;

  00334	8d 8d c4 fe ff
	ff		 lea	 ecx, DWORD PTR _sz$[ebp]
  0033a	51		 push	 ecx
  0033b	8d 4d d0	 lea	 ecx, DWORD PTR _strExePath$[ebp]
  0033e	ff 15 00 00 00
	00		 call	 DWORD PTR __imp_??0?$basic_string@DU?$char_traits@D@std@@V?$allocator@D@2@@std@@QAE@PBD@Z
  00344	c7 45 fc 00 00
	00 00		 mov	 DWORD PTR __$EHRec$[ebp+8], 0

; 69   : 
; 70   : 	size_t n = strExePath.find_last_of("\\");

  0034b	8b 15 00 00 00
	00		 mov	 edx, DWORD PTR __imp_?npos@?$basic_string@DU?$char_traits@D@std@@V?$allocator@D@2@@std@@2IB
  00351	8b 02		 mov	 eax, DWORD PTR [edx]
  00353	50		 push	 eax
  00354	68 00 00 00 00	 push	 OFFSET FLAT:$SG83038
  00359	8d 4d d0	 lea	 ecx, DWORD PTR _strExePath$[ebp]
  0035c	ff 15 00 00 00
	00		 call	 DWORD PTR __imp_?find_last_of@?$basic_string@DU?$char_traits@D@std@@V?$allocator@D@2@@std@@QBEIPBDI@Z
  00362	89 45 f0	 mov	 DWORD PTR _n$[ebp], eax

; 71   : 	if( n == string::npos )

  00365	8b 0d 00 00 00
	00		 mov	 ecx, DWORD PTR __imp_?npos@?$basic_string@DU?$char_traits@D@std@@V?$allocator@D@2@@std@@2IB
  0036b	8b 55 f0	 mov	 edx, DWORD PTR _n$[ebp]
  0036e	3b 11		 cmp	 edx, DWORD PTR [ecx]
  00370	75 22		 jne	 SHORT $L83039

; 72   : 	{
; 73   : 		return false;

  00372	c6 85 a7 fe ff
	ff 00		 mov	 BYTE PTR $T88141[ebp], 0
  00379	c7 45 fc ff ff
	ff ff		 mov	 DWORD PTR __$EHRec$[ebp+8], -1
  00380	8d 4d d0	 lea	 ecx, DWORD PTR _strExePath$[ebp]
  00383	ff 15 00 00 00
	00		 call	 DWORD PTR __imp_??1?$basic_string@DU?$char_traits@D@std@@V?$allocator@D@2@@std@@QAE@XZ
  00389	8a 85 a7 fe ff
	ff		 mov	 al, BYTE PTR $T88141[ebp]
  0038f	e9 2d 01 00 00	 jmp	 $L83034
$L83039:

; 74   : 	}
; 75   : 	string str = strExePath.substr(0,n);

  00394	8b 45 f0	 mov	 eax, DWORD PTR _n$[ebp]
  00397	50		 push	 eax
  00398	6a 00		 push	 0
  0039a	8d 8d a8 fe ff
	ff		 lea	 ecx, DWORD PTR _str$[ebp]
  003a0	51		 push	 ecx
  003a1	8d 4d d0	 lea	 ecx, DWORD PTR _strExePath$[ebp]
  003a4	ff 15 00 00 00
	00		 call	 DWORD PTR __imp_?substr@?$basic_string@DU?$char_traits@D@std@@V?$allocator@D@2@@std@@QBE?AV12@II@Z
  003aa	c6 45 fc 01	 mov	 BYTE PTR __$EHRec$[ebp+8], 1

; 76   : 
; 77   : 	if(str.length() > 0 )		

  003ae	8d 8d a8 fe ff
	ff		 lea	 ecx, DWORD PTR _str$[ebp]
  003b4	ff 15 00 00 00
	00		 call	 DWORD PTR __imp_?length@?$basic_string@DU?$char_traits@D@std@@V?$allocator@D@2@@std@@QBEIXZ
  003ba	85 c0		 test	 eax, eax
  003bc	0f 86 d2 00 00
	00		 jbe	 $L83043

; 78   : 	{
; 79   : 		if(str[str.length()-1] == '\\')

  003c2	8d 8d a8 fe ff
	ff		 lea	 ecx, DWORD PTR _str$[ebp]
  003c8	ff 15 00 00 00
	00		 call	 DWORD PTR __imp_?length@?$basic_string@DU?$char_traits@D@std@@V?$allocator@D@2@@std@@QBEIXZ
  003ce	83 e8 01	 sub	 eax, 1
  003d1	50		 push	 eax
  003d2	8d 8d a8 fe ff
	ff		 lea	 ecx, DWORD PTR _str$[ebp]
  003d8	ff 15 00 00 00
	00		 call	 DWORD PTR __imp_??A?$basic_string@DU?$char_traits@D@std@@V?$allocator@D@2@@std@@QAEAADI@Z
  003de	0f be 10	 movsx	 edx, BYTE PTR [eax]
  003e1	83 fa 5c	 cmp	 edx, 92			; 0000005cH
  003e4	75 5e		 jne	 SHORT $L83044

; 80   : 		{
; 81   : 			str = str.substr(0, str.length()-1);

  003e6	8d 8d a8 fe ff
	ff		 lea	 ecx, DWORD PTR _str$[ebp]
  003ec	ff 15 00 00 00
	00		 call	 DWORD PTR __imp_?length@?$basic_string@DU?$char_traits@D@std@@V?$allocator@D@2@@std@@QBEIXZ
  003f2	83 e8 01	 sub	 eax, 1
  003f5	50		 push	 eax
  003f6	6a 00		 push	 0
  003f8	8d 85 88 fe ff
	ff		 lea	 eax, DWORD PTR $T88142[ebp]
  003fe	50		 push	 eax
  003ff	8d 8d a8 fe ff
	ff		 lea	 ecx, DWORD PTR _str$[ebp]
  00405	ff 15 00 00 00
	00		 call	 DWORD PTR __imp_?substr@?$basic_string@DU?$char_traits@D@std@@V?$allocator@D@2@@std@@QBE?AV12@II@Z
  0040b	89 85 80 fe ff
	ff		 mov	 DWORD PTR tv80[ebp], eax
  00411	8b 8d 80 fe ff
	ff		 mov	 ecx, DWORD PTR tv80[ebp]
  00417	89 8d 7c fe ff
	ff		 mov	 DWORD PTR tv148[ebp], ecx
  0041d	c6 45 fc 02	 mov	 BYTE PTR __$EHRec$[ebp+8], 2
  00421	8b 95 7c fe ff
	ff		 mov	 edx, DWORD PTR tv148[ebp]
  00427	52		 push	 edx
  00428	8d 8d a8 fe ff
	ff		 lea	 ecx, DWORD PTR _str$[ebp]
  0042e	ff 15 00 00 00
	00		 call	 DWORD PTR __imp_??4?$basic_string@DU?$char_traits@D@std@@V?$allocator@D@2@@std@@QAEAAV01@ABV01@@Z
  00434	c6 45 fc 01	 mov	 BYTE PTR __$EHRec$[ebp+8], 1
  00438	8d 8d 88 fe ff
	ff		 lea	 ecx, DWORD PTR $T88142[ebp]
  0043e	ff 15 00 00 00
	00		 call	 DWORD PTR __imp_??1?$basic_string@DU?$char_traits@D@std@@V?$allocator@D@2@@std@@QAE@XZ
$L83044:

; 82   : 		}
; 83   : 		str += "\\temp";

  00444	68 00 00 00 00	 push	 OFFSET FLAT:$SG83046
  00449	8d 8d a8 fe ff
	ff		 lea	 ecx, DWORD PTR _str$[ebp]
  0044f	ff 15 00 00 00
	00		 call	 DWORD PTR __imp_??Y?$basic_string@DU?$char_traits@D@std@@V?$allocator@D@2@@std@@QAEAAV01@PBD@Z

; 84   : 		
; 85   : 		strDir = str;

  00455	8d 85 a8 fe ff
	ff		 lea	 eax, DWORD PTR _str$[ebp]
  0045b	50		 push	 eax
  0045c	8b 4d 08	 mov	 ecx, DWORD PTR _strDir$[ebp]
  0045f	ff 15 00 00 00
	00		 call	 DWORD PTR __imp_??4?$basic_string@DU?$char_traits@D@std@@V?$allocator@D@2@@std@@QAEAAV01@ABV01@@Z

; 86   : 		return true;

  00465	c6 85 87 fe ff
	ff 01		 mov	 BYTE PTR $T88143[ebp], 1
  0046c	c6 45 fc 00	 mov	 BYTE PTR __$EHRec$[ebp+8], 0
  00470	8d 8d a8 fe ff
	ff		 lea	 ecx, DWORD PTR _str$[ebp]
  00476	ff 15 00 00 00
	00		 call	 DWORD PTR __imp_??1?$basic_string@DU?$char_traits@D@std@@V?$allocator@D@2@@std@@QAE@XZ
  0047c	c7 45 fc ff ff
	ff ff		 mov	 DWORD PTR __$EHRec$[ebp+8], -1
  00483	8d 4d d0	 lea	 ecx, DWORD PTR _strExePath$[ebp]
  00486	ff 15 00 00 00
	00		 call	 DWORD PTR __imp_??1?$basic_string@DU?$char_traits@D@std@@V?$allocator@D@2@@std@@QAE@XZ
  0048c	8a 85 87 fe ff
	ff		 mov	 al, BYTE PTR $T88143[ebp]
  00492	eb 2d		 jmp	 SHORT $L83034
$L83043:

; 87   : 	}
; 88   : 
; 89   : 	return false;

  00494	c6 85 86 fe ff
	ff 00		 mov	 BYTE PTR $T88144[ebp], 0
  0049b	c6 45 fc 00	 mov	 BYTE PTR __$EHRec$[ebp+8], 0
  0049f	8d 8d a8 fe ff
	ff		 lea	 ecx, DWORD PTR _str$[ebp]
  004a5	ff 15 00 00 00
	00		 call	 DWORD PTR __imp_??1?$basic_string@DU?$char_traits@D@std@@V?$allocator@D@2@@std@@QAE@XZ
  004ab	c7 45 fc ff ff
	ff ff		 mov	 DWORD PTR __$EHRec$[ebp+8], -1
  004b2	8d 4d d0	 lea	 ecx, DWORD PTR _strExePath$[ebp]
  004b5	ff 15 00 00 00
	00		 call	 DWORD PTR __imp_??1?$basic_string@DU?$char_traits@D@std@@V?$allocator@D@2@@std@@QAE@XZ
  004bb	8a 85 86 fe ff
	ff		 mov	 al, BYTE PTR $T88144[ebp]
$L83034:

; 90   : }

  004c1	8b 4d f4	 mov	 ecx, DWORD PTR __$EHRec$[ebp]
  004c4	64 89 0d 00 00
	00 00		 mov	 DWORD PTR fs:__except_list, ecx
  004cb	8b 4d ec	 mov	 ecx, DWORD PTR __$ArrayPad$[ebp]
  004ce	e8 00 00 00 00	 call	 @__security_check_cookie@4
  004d3	5f		 pop	 edi
  004d4	8b e5		 mov	 esp, ebp
  004d6	5d		 pop	 ebp
  004d7	c3		 ret	 0
_TEXT	ENDS
text$x	SEGMENT
$L88145:
  00039	8d 4d d0	 lea	 ecx, DWORD PTR _strExePath$[ebp]
  0003c	ff 25 00 00 00
	00		 jmp	 DWORD PTR __imp_??1?$basic_string@DU?$char_traits@D@std@@V?$allocator@D@2@@std@@QAE@XZ
$L88146:
  00042	8d 8d a8 fe ff
	ff		 lea	 ecx, DWORD PTR _str$[ebp]
  00048	ff 25 00 00 00
	00		 jmp	 DWORD PTR __imp_??1?$basic_string@DU?$char_traits@D@std@@V?$allocator@D@2@@std@@QAE@XZ
$L88147:
  0004e	8d 8d 88 fe ff
	ff		 lea	 ecx, DWORD PTR $T88142[ebp]
  00054	ff 25 00 00 00
	00		 jmp	 DWORD PTR __imp_??1?$basic_string@DU?$char_traits@D@std@@V?$allocator@D@2@@std@@QAE@XZ
__ehhandler$?GetTempDir@YL_DirInfo@@SA_NAAV?$basic_string@DU?$char_traits@D@std@@V?$allocator@D@2@@std@@@Z:
  0005a	b8 00 00 00 00	 mov	 eax, OFFSET FLAT:$T88149
  0005f	e9 00 00 00 00	 jmp	 ___CxxFrameHandler
text$x	ENDS
?GetTempDir@YL_DirInfo@@SA_NAAV?$basic_string@DU?$char_traits@D@std@@V?$allocator@D@2@@std@@@Z ENDP ; YL_DirInfo::GetTempDir
PUBLIC	?GetProgramFilesDir@YL_DirInfo@@SA_NQADI@Z	; YL_DirInfo::GetProgramFilesDir
PUBLIC	?GetProgramFilesDir@YL_DirInfo@@SA_NAAV?$basic_string@DU?$char_traits@D@std@@V?$allocator@D@2@@std@@@Z ; YL_DirInfo::GetProgramFilesDir
xdata$x	SEGMENT
$T88162	DD	0ffffffffH
	DD	FLAT:$L88157
$T88159	DD	019930520H
	DD	01H
	DD	FLAT:$T88162
	DD	2 DUP(00H)
	DD	2 DUP(00H)
; Function compile flags: /Odt
xdata$x	ENDS
_TEXT	SEGMENT
$T88156 = -46						; size = 1
$T88155 = -45						; size = 1
_strDir$ = -44						; size = 28
__$ArrayPad$ = -16					; size = 4
__$EHRec$ = -12						; size = 12
__$ReturnAddr$ = 4					; size = 4
_szDirBuffer$ = 8					; size = 4
_unBuffLen$ = 12					; size = 4
?GetProgramFilesDir@YL_DirInfo@@SA_NQADI@Z PROC NEAR	; YL_DirInfo::GetProgramFilesDir

; 93   : {

  004e0	55		 push	 ebp
  004e1	8b ec		 mov	 ebp, esp
  004e3	6a ff		 push	 -1
  004e5	68 00 00 00 00	 push	 __ehhandler$?GetProgramFilesDir@YL_DirInfo@@SA_NQADI@Z
  004ea	64 a1 00 00 00
	00		 mov	 eax, DWORD PTR fs:__except_list
  004f0	50		 push	 eax
  004f1	64 89 25 00 00
	00 00		 mov	 DWORD PTR fs:__except_list, esp
  004f8	83 ec 24	 sub	 esp, 36			; 00000024H
  004fb	a1 00 00 00 00	 mov	 eax, DWORD PTR ___security_cookie
  00500	89 45 f0	 mov	 DWORD PTR __$ArrayPad$[ebp], eax

; 94   : 	string strDir;

  00503	8d 4d d4	 lea	 ecx, DWORD PTR _strDir$[ebp]
  00506	ff 15 00 00 00
	00		 call	 DWORD PTR __imp_??0?$basic_string@DU?$char_traits@D@std@@V?$allocator@D@2@@std@@QAE@XZ
  0050c	c7 45 fc 00 00
	00 00		 mov	 DWORD PTR __$EHRec$[ebp+8], 0

; 95   : 	if( GetProgramFilesDir(strDir) && strDir.length() <= unBuffLen-1)

  00513	8d 45 d4	 lea	 eax, DWORD PTR _strDir$[ebp]
  00516	50		 push	 eax
  00517	e8 00 00 00 00	 call	 ?GetProgramFilesDir@YL_DirInfo@@SA_NAAV?$basic_string@DU?$char_traits@D@std@@V?$allocator@D@2@@std@@@Z ; YL_DirInfo::GetProgramFilesDir
  0051c	83 c4 04	 add	 esp, 4
  0051f	0f b6 c8	 movzx	 ecx, al
  00522	85 c9		 test	 ecx, ecx
  00524	74 42		 je	 SHORT $L83054
  00526	8d 4d d4	 lea	 ecx, DWORD PTR _strDir$[ebp]
  00529	ff 15 00 00 00
	00		 call	 DWORD PTR __imp_?length@?$basic_string@DU?$char_traits@D@std@@V?$allocator@D@2@@std@@QBEIXZ
  0052f	8b 55 0c	 mov	 edx, DWORD PTR _unBuffLen$[ebp]
  00532	83 ea 01	 sub	 edx, 1
  00535	3b c2		 cmp	 eax, edx
  00537	77 2f		 ja	 SHORT $L83054

; 96   : 	{
; 97   : 		strcpy(szDirBuffer,strDir.c_str());

  00539	8d 4d d4	 lea	 ecx, DWORD PTR _strDir$[ebp]
  0053c	ff 15 00 00 00
	00		 call	 DWORD PTR __imp_?c_str@?$basic_string@DU?$char_traits@D@std@@V?$allocator@D@2@@std@@QBEPBDXZ
  00542	50		 push	 eax
  00543	8b 45 08	 mov	 eax, DWORD PTR _szDirBuffer$[ebp]
  00546	50		 push	 eax
  00547	e8 00 00 00 00	 call	 _strcpy
  0054c	83 c4 08	 add	 esp, 8

; 98   : 		return true;

  0054f	c6 45 d3 01	 mov	 BYTE PTR $T88155[ebp], 1
  00553	c7 45 fc ff ff
	ff ff		 mov	 DWORD PTR __$EHRec$[ebp+8], -1
  0055a	8d 4d d4	 lea	 ecx, DWORD PTR _strDir$[ebp]
  0055d	ff 15 00 00 00
	00		 call	 DWORD PTR __imp_??1?$basic_string@DU?$char_traits@D@std@@V?$allocator@D@2@@std@@QAE@XZ
  00563	8a 45 d3	 mov	 al, BYTE PTR $T88155[ebp]
  00566	eb 17		 jmp	 SHORT $L83052
$L83054:

; 99   : 	}
; 100  : 	return false;

  00568	c6 45 d2 00	 mov	 BYTE PTR $T88156[ebp], 0
  0056c	c7 45 fc ff ff
	ff ff		 mov	 DWORD PTR __$EHRec$[ebp+8], -1
  00573	8d 4d d4	 lea	 ecx, DWORD PTR _strDir$[ebp]
  00576	ff 15 00 00 00
	00		 call	 DWORD PTR __imp_??1?$basic_string@DU?$char_traits@D@std@@V?$allocator@D@2@@std@@QAE@XZ
  0057c	8a 45 d2	 mov	 al, BYTE PTR $T88156[ebp]
$L83052:

; 101  : }

  0057f	8b 4d f4	 mov	 ecx, DWORD PTR __$EHRec$[ebp]
  00582	64 89 0d 00 00
	00 00		 mov	 DWORD PTR fs:__except_list, ecx
  00589	8b 4d f0	 mov	 ecx, DWORD PTR __$ArrayPad$[ebp]
  0058c	e8 00 00 00 00	 call	 @__security_check_cookie@4
  00591	8b e5		 mov	 esp, ebp
  00593	5d		 pop	 ebp
  00594	c3		 ret	 0
_TEXT	ENDS
text$x	SEGMENT
$L88157:
  00064	8d 4d d4	 lea	 ecx, DWORD PTR _strDir$[ebp]
  00067	ff 25 00 00 00
	00		 jmp	 DWORD PTR __imp_??1?$basic_string@DU?$char_traits@D@std@@V?$allocator@D@2@@std@@QAE@XZ
__ehhandler$?GetProgramFilesDir@YL_DirInfo@@SA_NQADI@Z:
  0006d	b8 00 00 00 00	 mov	 eax, OFFSET FLAT:$T88159
  00072	e9 00 00 00 00	 jmp	 ___CxxFrameHandler
text$x	ENDS
?GetProgramFilesDir@YL_DirInfo@@SA_NQADI@Z ENDP		; YL_DirInfo::GetProgramFilesDir
; Function compile flags: /Odt
_TEXT	SEGMENT
_szPath$ = -520						; size = 512
__$ArrayPad$ = -4					; size = 4
__$ReturnAddr$ = 4					; size = 4
_strDir$ = 8						; size = 4
?GetProgramFilesDir@YL_DirInfo@@SA_NAAV?$basic_string@DU?$char_traits@D@std@@V?$allocator@D@2@@std@@@Z PROC NEAR ; YL_DirInfo::GetProgramFilesDir

; 104  : {

  005a0	55		 push	 ebp
  005a1	8b ec		 mov	 ebp, esp
  005a3	81 ec 08 02 00
	00		 sub	 esp, 520		; 00000208H
  005a9	a1 00 00 00 00	 mov	 eax, DWORD PTR ___security_cookie
  005ae	89 45 fc	 mov	 DWORD PTR __$ArrayPad$[ebp], eax

; 105  : 	char szPath[512];	
; 106  : 	if(SUCCEEDED(SHGetFolderPath(NULL, CSIDL_PROGRAM_FILES, NULL, 0, szPath))) 

  005b1	8d 85 f8 fd ff
	ff		 lea	 eax, DWORD PTR _szPath$[ebp]
  005b7	50		 push	 eax
  005b8	6a 00		 push	 0
  005ba	6a 00		 push	 0
  005bc	6a 26		 push	 38			; 00000026H
  005be	6a 00		 push	 0
  005c0	ff 15 00 00 00
	00		 call	 DWORD PTR __imp__SHGetFolderPathA@20
  005c6	85 c0		 test	 eax, eax
  005c8	7c 14		 jl	 SHORT $L83062

; 107  : 	{
; 108  : 		strDir = szPath;

  005ca	8d 8d f8 fd ff
	ff		 lea	 ecx, DWORD PTR _szPath$[ebp]
  005d0	51		 push	 ecx
  005d1	8b 4d 08	 mov	 ecx, DWORD PTR _strDir$[ebp]
  005d4	ff 15 00 00 00
	00		 call	 DWORD PTR __imp_??4?$basic_string@DU?$char_traits@D@std@@V?$allocator@D@2@@std@@QAEAAV01@PBD@Z

; 109  : 		return true;

  005da	b0 01		 mov	 al, 1
  005dc	eb 02		 jmp	 SHORT $L83059
$L83062:

; 110  : 	}
; 111  : 	return false;

  005de	32 c0		 xor	 al, al
$L83059:

; 112  : }

  005e0	8b 4d fc	 mov	 ecx, DWORD PTR __$ArrayPad$[ebp]
  005e3	e8 00 00 00 00	 call	 @__security_check_cookie@4
  005e8	8b e5		 mov	 esp, ebp
  005ea	5d		 pop	 ebp
  005eb	c3		 ret	 0
?GetProgramFilesDir@YL_DirInfo@@SA_NAAV?$basic_string@DU?$char_traits@D@std@@V?$allocator@D@2@@std@@@Z ENDP ; YL_DirInfo::GetProgramFilesDir
_TEXT	ENDS
PUBLIC	?MakeDir@YL_DirInfo@@SA_NPBD@Z			; YL_DirInfo::MakeDir
PUBLIC	?MakeDir@YL_DirInfo@@SA_NABV?$basic_string@DU?$char_traits@D@std@@V?$allocator@D@2@@std@@@Z ; YL_DirInfo::MakeDir
xdata$x	SEGMENT
$T88173	DD	0ffffffffH
	DD	FLAT:$L88169
$T88171	DD	019930520H
	DD	01H
	DD	FLAT:$T88173
	DD	2 DUP(00H)
	DD	2 DUP(00H)
; Function compile flags: /Odt
xdata$x	ENDS
_TEXT	SEGMENT
tv73 = -52						; size = 4
tv74 = -48						; size = 4
$T88168 = -44						; size = 28
$T88167 = -13						; size = 1
__$EHRec$ = -12						; size = 12
_pszDirName$ = 8					; size = 4
?MakeDir@YL_DirInfo@@SA_NPBD@Z PROC NEAR		; YL_DirInfo::MakeDir

; 116  : {

  005f0	55		 push	 ebp
  005f1	8b ec		 mov	 ebp, esp
  005f3	6a ff		 push	 -1
  005f5	68 00 00 00 00	 push	 __ehhandler$?MakeDir@YL_DirInfo@@SA_NPBD@Z
  005fa	64 a1 00 00 00
	00		 mov	 eax, DWORD PTR fs:__except_list
  00600	50		 push	 eax
  00601	64 89 25 00 00
	00 00		 mov	 DWORD PTR fs:__except_list, esp
  00608	83 ec 28	 sub	 esp, 40			; 00000028H

; 117  : 	if( pszDirName == NULL )

  0060b	83 7d 08 00	 cmp	 DWORD PTR _pszDirName$[ebp], 0
  0060f	75 04		 jne	 SHORT $L83066

; 118  : 	{
; 119  : 		return false;

  00611	32 c0		 xor	 al, al
  00613	eb 3f		 jmp	 SHORT $L83065
$L83066:

; 120  : 	}
; 121  : 	return MakeDir(string(pszDirName));

  00615	8b 45 08	 mov	 eax, DWORD PTR _pszDirName$[ebp]
  00618	50		 push	 eax
  00619	8d 4d d4	 lea	 ecx, DWORD PTR $T88168[ebp]
  0061c	ff 15 00 00 00
	00		 call	 DWORD PTR __imp_??0?$basic_string@DU?$char_traits@D@std@@V?$allocator@D@2@@std@@QAE@PBD@Z
  00622	89 45 d0	 mov	 DWORD PTR tv74[ebp], eax
  00625	8b 4d d0	 mov	 ecx, DWORD PTR tv74[ebp]
  00628	89 4d cc	 mov	 DWORD PTR tv73[ebp], ecx
  0062b	c7 45 fc 00 00
	00 00		 mov	 DWORD PTR __$EHRec$[ebp+8], 0
  00632	8b 55 cc	 mov	 edx, DWORD PTR tv73[ebp]
  00635	52		 push	 edx
  00636	e8 00 00 00 00	 call	 ?MakeDir@YL_DirInfo@@SA_NABV?$basic_string@DU?$char_traits@D@std@@V?$allocator@D@2@@std@@@Z ; YL_DirInfo::MakeDir
  0063b	83 c4 04	 add	 esp, 4
  0063e	88 45 f3	 mov	 BYTE PTR $T88167[ebp], al
  00641	c7 45 fc ff ff
	ff ff		 mov	 DWORD PTR __$EHRec$[ebp+8], -1
  00648	8d 4d d4	 lea	 ecx, DWORD PTR $T88168[ebp]
  0064b	ff 15 00 00 00
	00		 call	 DWORD PTR __imp_??1?$basic_string@DU?$char_traits@D@std@@V?$allocator@D@2@@std@@QAE@XZ
  00651	8a 45 f3	 mov	 al, BYTE PTR $T88167[ebp]
$L83065:

; 122  : }

  00654	8b 4d f4	 mov	 ecx, DWORD PTR __$EHRec$[ebp]
  00657	64 89 0d 00 00
	00 00		 mov	 DWORD PTR fs:__except_list, ecx
  0065e	8b e5		 mov	 esp, ebp
  00660	5d		 pop	 ebp
  00661	c3		 ret	 0
_TEXT	ENDS
text$x	SEGMENT
$L88169:
  00077	8d 4d d4	 lea	 ecx, DWORD PTR $T88168[ebp]
  0007a	ff 25 00 00 00
	00		 jmp	 DWORD PTR __imp_??1?$basic_string@DU?$char_traits@D@std@@V?$allocator@D@2@@std@@QAE@XZ
__ehhandler$?MakeDir@YL_DirInfo@@SA_NPBD@Z:
  00080	b8 00 00 00 00	 mov	 eax, OFFSET FLAT:$T88171
  00085	e9 00 00 00 00	 jmp	 ___CxxFrameHandler
text$x	ENDS
?MakeDir@YL_DirInfo@@SA_NPBD@Z ENDP			; YL_DirInfo::MakeDir
PUBLIC	??0?$vector@V?$basic_string@DU?$char_traits@D@std@@V?$allocator@D@2@@std@@V?$allocator@V?$basic_string@DU?$char_traits@D@std@@V?$allocator@D@2@@std@@@2@@std@@QAE@XZ ; std::vector<std::basic_string<char,std::char_traits<char>,std::allocator<char> >,std::allocator<std::basic_string<char,std::char_traits<char>,std::allocator<char> > > >::vector<std::basic_string<char,std::char_traits<char>,std::allocator<char> >,std::allocator<std::basic_string<char,std::char_traits<char>,std::allocator<char> > > >
PUBLIC	??1?$vector@V?$basic_string@DU?$char_traits@D@std@@V?$allocator@D@2@@std@@V?$allocator@V?$basic_string@DU?$char_traits@D@std@@V?$allocator@D@2@@std@@@2@@std@@QAE@XZ ; std::vector<std::basic_string<char,std::char_traits<char>,std::allocator<char> >,std::allocator<std::basic_string<char,std::char_traits<char>,std::allocator<char> > > >::~vector<std::basic_string<char,std::char_traits<char>,std::allocator<char> >,std::allocator<std::basic_string<char,std::char_traits<char>,std::allocator<char> > > >
PUBLIC	?size@?$vector@V?$basic_string@DU?$char_traits@D@std@@V?$allocator@D@2@@std@@V?$allocator@V?$basic_string@DU?$char_traits@D@std@@V?$allocator@D@2@@std@@@2@@std@@QBEIXZ ; std::vector<std::basic_string<char,std::char_traits<char>,std::allocator<char> >,std::allocator<std::basic_string<char,std::char_traits<char>,std::allocator<char> > > >::size
PUBLIC	??A?$vector@V?$basic_string@DU?$char_traits@D@std@@V?$allocator@D@2@@std@@V?$allocator@V?$basic_string@DU?$char_traits@D@std@@V?$allocator@D@2@@std@@@2@@std@@QAEAAV?$basic_string@DU?$char_traits@D@std@@V?$allocator@D@2@@1@I@Z ; std::vector<std::basic_string<char,std::char_traits<char>,std::allocator<char> >,std::allocator<std::basic_string<char,std::char_traits<char>,std::allocator<char> > > >::operator[]
PUBLIC	?push_back@?$vector@V?$basic_string@DU?$char_traits@D@std@@V?$allocator@D@2@@std@@V?$allocator@V?$basic_string@DU?$char_traits@D@std@@V?$allocator@D@2@@std@@@2@@std@@QAEXABV?$basic_string@DU?$char_traits@D@std@@V?$allocator@D@2@@2@@Z ; std::vector<std::basic_string<char,std::char_traits<char>,std::allocator<char> >,std::allocator<std::basic_string<char,std::char_traits<char>,std::allocator<char> > > >::push_back
EXTRN	__imp_??Y?$basic_string@DU?$char_traits@D@std@@V?$allocator@D@2@@std@@QAEAAV01@D@Z:NEAR
EXTRN	__imp_??A?$basic_string@DU?$char_traits@D@std@@V?$allocator@D@2@@std@@QBEABDI@Z:NEAR
EXTRN	__imp__GetLastError@0:NEAR
EXTRN	__imp__FindClose@4:NEAR
EXTRN	__imp__CreateDirectoryA@8:NEAR
EXTRN	__imp__SetFileAttributesA@8:NEAR
EXTRN	__imp__DeleteFileA@4:NEAR
EXTRN	__imp__FindFirstFileA@8:NEAR
EXTRN	__imp_??$?8DU?$char_traits@D@std@@V?$allocator@D@1@@std@@YA_NABV?$basic_string@DU?$char_traits@D@std@@V?$allocator@D@2@@0@PBD@Z:NEAR
xdata$x	SEGMENT
$T88185	DD	0ffffffffH
	DD	FLAT:$L88179
	DD	00H
	DD	FLAT:$L88180
$T88182	DD	019930520H
	DD	02H
	DD	FLAT:$T88185
	DD	2 DUP(00H)
	DD	2 DUP(00H)
; Function compile flags: /Odt
xdata$x	ENDS
_TEXT	SEGMENT
$T88178 = -407						; size = 1
$T88177 = -406						; size = 1
$T88176 = -405						; size = 1
_dwError$83342 = -404					; size = 4
_i$83335 = -400						; size = 4
_i$83326 = -396						; size = 4
_hHandle$ = -392					; size = 4
_ret$ = -385						; size = 1
_strTemp$ = -384					; size = 28
_fileInfo$ = -356					; size = 320
__$ArrayPad$ = -32					; size = 4
_vecDirs$ = -28						; size = 16
__$EHRec$ = -12						; size = 12
__$ReturnAddr$ = 4					; size = 4
_strDirName$ = 8					; size = 4
?MakeDir@YL_DirInfo@@SA_NABV?$basic_string@DU?$char_traits@D@std@@V?$allocator@D@2@@std@@@Z PROC NEAR ; YL_DirInfo::MakeDir

; 125  : {

  00670	55		 push	 ebp
  00671	8b ec		 mov	 ebp, esp
  00673	6a ff		 push	 -1
  00675	68 00 00 00 00	 push	 __ehhandler$?MakeDir@YL_DirInfo@@SA_NABV?$basic_string@DU?$char_traits@D@std@@V?$allocator@D@2@@std@@@Z
  0067a	64 a1 00 00 00
	00		 mov	 eax, DWORD PTR fs:__except_list
  00680	50		 push	 eax
  00681	64 89 25 00 00
	00 00		 mov	 DWORD PTR fs:__except_list, esp
  00688	81 ec 8c 01 00
	00		 sub	 esp, 396		; 0000018cH
  0068e	a1 00 00 00 00	 mov	 eax, DWORD PTR ___security_cookie
  00693	89 45 e0	 mov	 DWORD PTR __$ArrayPad$[ebp], eax

; 126  : 	WIN32_FIND_DATA fileInfo;
; 127  : 	vector<string> vecDirs;

  00696	8d 4d e4	 lea	 ecx, DWORD PTR _vecDirs$[ebp]
  00699	e8 00 00 00 00	 call	 ??0?$vector@V?$basic_string@DU?$char_traits@D@std@@V?$allocator@D@2@@std@@V?$allocator@V?$basic_string@DU?$char_traits@D@std@@V?$allocator@D@2@@std@@@2@@std@@QAE@XZ ; std::vector<std::basic_string<char,std::char_traits<char>,std::allocator<char> >,std::allocator<std::basic_string<char,std::char_traits<char>,std::allocator<char> > > >::vector<std::basic_string<char,std::char_traits<char>,std::allocator<char> >,std::allocator<std::basic_string<char,std::char_traits<char>,std::allocator<char> > > >
  0069e	c7 45 fc 00 00
	00 00		 mov	 DWORD PTR __$EHRec$[ebp+8], 0

; 128  : 
; 129  : 	if( strDirName == "" )

  006a5	68 00 00 00 00	 push	 OFFSET FLAT:$SG83317
  006aa	8b 45 08	 mov	 eax, DWORD PTR _strDirName$[ebp]
  006ad	50		 push	 eax
  006ae	ff 15 00 00 00
	00		 call	 DWORD PTR __imp_??$?8DU?$char_traits@D@std@@V?$allocator@D@1@@std@@YA_NABV?$basic_string@DU?$char_traits@D@std@@V?$allocator@D@2@@0@PBD@Z
  006b4	83 c4 08	 add	 esp, 8
  006b7	0f b6 c8	 movzx	 ecx, al
  006ba	85 c9		 test	 ecx, ecx
  006bc	74 21		 je	 SHORT $L83316

; 130  : 	{
; 131  : 		return false;

  006be	c6 85 6b fe ff
	ff 00		 mov	 BYTE PTR $T88176[ebp], 0
  006c5	c7 45 fc ff ff
	ff ff		 mov	 DWORD PTR __$EHRec$[ebp+8], -1
  006cc	8d 4d e4	 lea	 ecx, DWORD PTR _vecDirs$[ebp]
  006cf	e8 00 00 00 00	 call	 ??1?$vector@V?$basic_string@DU?$char_traits@D@std@@V?$allocator@D@2@@std@@V?$allocator@V?$basic_string@DU?$char_traits@D@std@@V?$allocator@D@2@@std@@@2@@std@@QAE@XZ ; std::vector<std::basic_string<char,std::char_traits<char>,std::allocator<char> >,std::allocator<std::basic_string<char,std::char_traits<char>,std::allocator<char> > > >::~vector<std::basic_string<char,std::char_traits<char>,std::allocator<char> >,std::allocator<std::basic_string<char,std::char_traits<char>,std::allocator<char> > > >
  006d4	8a 85 6b fe ff
	ff		 mov	 al, BYTE PTR $T88176[ebp]
  006da	e9 58 02 00 00	 jmp	 $L83071
$L83316:

; 132  : 	}
; 133  : 
; 134  : 	HANDLE hHandle = FindFirstFile(strDirName.c_str(), &fileInfo);

  006df	8d 95 9c fe ff
	ff		 lea	 edx, DWORD PTR _fileInfo$[ebp]
  006e5	52		 push	 edx
  006e6	8b 4d 08	 mov	 ecx, DWORD PTR _strDirName$[ebp]
  006e9	ff 15 00 00 00
	00		 call	 DWORD PTR __imp_?c_str@?$basic_string@DU?$char_traits@D@std@@V?$allocator@D@2@@std@@QBEPBDXZ
  006ef	50		 push	 eax
  006f0	ff 15 00 00 00
	00		 call	 DWORD PTR __imp__FindFirstFileA@8
  006f6	89 85 78 fe ff
	ff		 mov	 DWORD PTR _hHandle$[ebp], eax

; 135  : 	if( hHandle != INVALID_HANDLE_VALUE) 

  006fc	83 bd 78 fe ff
	ff ff		 cmp	 DWORD PTR _hHandle$[ebp], -1
  00703	74 56		 je	 SHORT $L83322

; 136  : 	{
; 137  : 		if( fileInfo.dwFileAttributes & FILE_ATTRIBUTE_DIRECTORY )

  00705	8b 85 9c fe ff
	ff		 mov	 eax, DWORD PTR _fileInfo$[ebp]
  0070b	83 e0 10	 and	 eax, 16			; 00000010H
  0070e	74 2e		 je	 SHORT $L83323

; 138  : 		{
; 139  : 			FindClose(hHandle);

  00710	8b 8d 78 fe ff
	ff		 mov	 ecx, DWORD PTR _hHandle$[ebp]
  00716	51		 push	 ecx
  00717	ff 15 00 00 00
	00		 call	 DWORD PTR __imp__FindClose@4

; 140  : 			return true;

  0071d	c6 85 6a fe ff
	ff 01		 mov	 BYTE PTR $T88177[ebp], 1
  00724	c7 45 fc ff ff
	ff ff		 mov	 DWORD PTR __$EHRec$[ebp+8], -1
  0072b	8d 4d e4	 lea	 ecx, DWORD PTR _vecDirs$[ebp]
  0072e	e8 00 00 00 00	 call	 ??1?$vector@V?$basic_string@DU?$char_traits@D@std@@V?$allocator@D@2@@std@@V?$allocator@V?$basic_string@DU?$char_traits@D@std@@V?$allocator@D@2@@std@@@2@@std@@QAE@XZ ; std::vector<std::basic_string<char,std::char_traits<char>,std::allocator<char> >,std::allocator<std::basic_string<char,std::char_traits<char>,std::allocator<char> > > >::~vector<std::basic_string<char,std::char_traits<char>,std::allocator<char> >,std::allocator<std::basic_string<char,std::char_traits<char>,std::allocator<char> > > >
  00733	8a 85 6a fe ff
	ff		 mov	 al, BYTE PTR $T88177[ebp]
  00739	e9 f9 01 00 00	 jmp	 $L83071
$L83323:

; 141  : 		}
; 142  : 		FindClose( hHandle );

  0073e	8b 95 78 fe ff
	ff		 mov	 edx, DWORD PTR _hHandle$[ebp]
  00744	52		 push	 edx
  00745	ff 15 00 00 00
	00		 call	 DWORD PTR __imp__FindClose@4

; 143  : 
; 144  : 		DeleteFile( strDirName.c_str() );

  0074b	8b 4d 08	 mov	 ecx, DWORD PTR _strDirName$[ebp]
  0074e	ff 15 00 00 00
	00		 call	 DWORD PTR __imp_?c_str@?$basic_string@DU?$char_traits@D@std@@V?$allocator@D@2@@std@@QBEPBDXZ
  00754	50		 push	 eax
  00755	ff 15 00 00 00
	00		 call	 DWORD PTR __imp__DeleteFileA@4
$L83322:

; 145  : 	}	
; 146  : 
; 147  : 	string strTemp;

  0075b	8d 8d 80 fe ff
	ff		 lea	 ecx, DWORD PTR _strTemp$[ebp]
  00761	ff 15 00 00 00
	00		 call	 DWORD PTR __imp_??0?$basic_string@DU?$char_traits@D@std@@V?$allocator@D@2@@std@@QAE@XZ
  00767	c6 45 fc 01	 mov	 BYTE PTR __$EHRec$[ebp+8], 1

; 148  : 	//scan the path string, get all sub dir path string in the path
; 149  : 	for(unsigned int i= 0; i < strDirName.length(); i++)

  0076b	c7 85 74 fe ff
	ff 00 00 00 00	 mov	 DWORD PTR _i$83326[ebp], 0
  00775	eb 0f		 jmp	 SHORT $L83327
$L83328:
  00777	8b 85 74 fe ff
	ff		 mov	 eax, DWORD PTR _i$83326[ebp]
  0077d	83 c0 01	 add	 eax, 1
  00780	89 85 74 fe ff
	ff		 mov	 DWORD PTR _i$83326[ebp], eax
$L83327:
  00786	8b 4d 08	 mov	 ecx, DWORD PTR _strDirName$[ebp]
  00789	ff 15 00 00 00
	00		 call	 DWORD PTR __imp_?length@?$basic_string@DU?$char_traits@D@std@@V?$allocator@D@2@@std@@QBEIXZ
  0078f	39 85 74 fe ff
	ff		 cmp	 DWORD PTR _i$83326[ebp], eax
  00795	0f 83 c9 00 00
	00		 jae	 $L83329

; 150  : 	{
; 151  : 		if(strDirName[i] != '\\' && strDirName[i] != '/')

  0079b	8b 8d 74 fe ff
	ff		 mov	 ecx, DWORD PTR _i$83326[ebp]
  007a1	51		 push	 ecx
  007a2	8b 4d 08	 mov	 ecx, DWORD PTR _strDirName$[ebp]
  007a5	ff 15 00 00 00
	00		 call	 DWORD PTR __imp_??A?$basic_string@DU?$char_traits@D@std@@V?$allocator@D@2@@std@@QBEABDI@Z
  007ab	0f be 10	 movsx	 edx, BYTE PTR [eax]
  007ae	83 fa 5c	 cmp	 edx, 92			; 0000005cH
  007b1	74 39		 je	 SHORT $L83330
  007b3	8b 85 74 fe ff
	ff		 mov	 eax, DWORD PTR _i$83326[ebp]
  007b9	50		 push	 eax
  007ba	8b 4d 08	 mov	 ecx, DWORD PTR _strDirName$[ebp]
  007bd	ff 15 00 00 00
	00		 call	 DWORD PTR __imp_??A?$basic_string@DU?$char_traits@D@std@@V?$allocator@D@2@@std@@QBEABDI@Z
  007c3	0f be 08	 movsx	 ecx, BYTE PTR [eax]
  007c6	83 f9 2f	 cmp	 ecx, 47			; 0000002fH
  007c9	74 21		 je	 SHORT $L83330

; 152  : 		{
; 153  : 			strTemp += strDirName[i];

  007cb	8b 95 74 fe ff
	ff		 mov	 edx, DWORD PTR _i$83326[ebp]
  007d1	52		 push	 edx
  007d2	8b 4d 08	 mov	 ecx, DWORD PTR _strDirName$[ebp]
  007d5	ff 15 00 00 00
	00		 call	 DWORD PTR __imp_??A?$basic_string@DU?$char_traits@D@std@@V?$allocator@D@2@@std@@QBEABDI@Z
  007db	8a 00		 mov	 al, BYTE PTR [eax]
  007dd	50		 push	 eax
  007de	8d 8d 80 fe ff
	ff		 lea	 ecx, DWORD PTR _strTemp$[ebp]
  007e4	ff 15 00 00 00
	00		 call	 DWORD PTR __imp_??Y?$basic_string@DU?$char_traits@D@std@@V?$allocator@D@2@@std@@QAEAAV01@D@Z

; 154  : 		}
; 155  : 		else

  007ea	eb 20		 jmp	 SHORT $L83331
$L83330:

; 156  : 		{
; 157  : 			vecDirs.push_back(strTemp);

  007ec	8d 8d 80 fe ff
	ff		 lea	 ecx, DWORD PTR _strTemp$[ebp]
  007f2	51		 push	 ecx
  007f3	8d 4d e4	 lea	 ecx, DWORD PTR _vecDirs$[ebp]
  007f6	e8 00 00 00 00	 call	 ?push_back@?$vector@V?$basic_string@DU?$char_traits@D@std@@V?$allocator@D@2@@std@@V?$allocator@V?$basic_string@DU?$char_traits@D@std@@V?$allocator@D@2@@std@@@2@@std@@QAEXABV?$basic_string@DU?$char_traits@D@std@@V?$allocator@D@2@@2@@Z ; std::vector<std::basic_string<char,std::char_traits<char>,std::allocator<char> >,std::allocator<std::basic_string<char,std::char_traits<char>,std::allocator<char> > > >::push_back

; 158  : 			strTemp += "\\";

  007fb	68 00 00 00 00	 push	 OFFSET FLAT:$SG83332
  00800	8d 8d 80 fe ff
	ff		 lea	 ecx, DWORD PTR _strTemp$[ebp]
  00806	ff 15 00 00 00
	00		 call	 DWORD PTR __imp_??Y?$basic_string@DU?$char_traits@D@std@@V?$allocator@D@2@@std@@QAEAAV01@PBD@Z
$L83331:

; 159  : 		}
; 160  : 
; 161  : 		//end of strPath
; 162  : 		if( strDirName[i] != '\\' && strDirName[i] != '/' && i == strDirName.length() - 1)

  0080c	8b 95 74 fe ff
	ff		 mov	 edx, DWORD PTR _i$83326[ebp]
  00812	52		 push	 edx
  00813	8b 4d 08	 mov	 ecx, DWORD PTR _strDirName$[ebp]
  00816	ff 15 00 00 00
	00		 call	 DWORD PTR __imp_??A?$basic_string@DU?$char_traits@D@std@@V?$allocator@D@2@@std@@QBEABDI@Z
  0081c	0f be 00	 movsx	 eax, BYTE PTR [eax]
  0081f	83 f8 5c	 cmp	 eax, 92			; 0000005cH
  00822	74 3b		 je	 SHORT $L83333
  00824	8b 8d 74 fe ff
	ff		 mov	 ecx, DWORD PTR _i$83326[ebp]
  0082a	51		 push	 ecx
  0082b	8b 4d 08	 mov	 ecx, DWORD PTR _strDirName$[ebp]
  0082e	ff 15 00 00 00
	00		 call	 DWORD PTR __imp_??A?$basic_string@DU?$char_traits@D@std@@V?$allocator@D@2@@std@@QBEABDI@Z
  00834	0f be 10	 movsx	 edx, BYTE PTR [eax]
  00837	83 fa 2f	 cmp	 edx, 47			; 0000002fH
  0083a	74 23		 je	 SHORT $L83333
  0083c	8b 4d 08	 mov	 ecx, DWORD PTR _strDirName$[ebp]
  0083f	ff 15 00 00 00
	00		 call	 DWORD PTR __imp_?length@?$basic_string@DU?$char_traits@D@std@@V?$allocator@D@2@@std@@QBEIXZ
  00845	83 e8 01	 sub	 eax, 1
  00848	39 85 74 fe ff
	ff		 cmp	 DWORD PTR _i$83326[ebp], eax
  0084e	75 0f		 jne	 SHORT $L83333

; 163  : 		{
; 164  : 			vecDirs.push_back(strTemp);

  00850	8d 85 80 fe ff
	ff		 lea	 eax, DWORD PTR _strTemp$[ebp]
  00856	50		 push	 eax
  00857	8d 4d e4	 lea	 ecx, DWORD PTR _vecDirs$[ebp]
  0085a	e8 00 00 00 00	 call	 ?push_back@?$vector@V?$basic_string@DU?$char_traits@D@std@@V?$allocator@D@2@@std@@V?$allocator@V?$basic_string@DU?$char_traits@D@std@@V?$allocator@D@2@@std@@@2@@std@@QAEXABV?$basic_string@DU?$char_traits@D@std@@V?$allocator@D@2@@2@@Z ; std::vector<std::basic_string<char,std::char_traits<char>,std::allocator<char> >,std::allocator<std::basic_string<char,std::char_traits<char>,std::allocator<char> > > >::push_back
$L83333:

; 165  : 		}
; 166  : 	}

  0085f	e9 13 ff ff ff	 jmp	 $L83328
$L83329:

; 167  : 
; 168  : 	bool ret = true;

  00864	c6 85 7f fe ff
	ff 01		 mov	 BYTE PTR _ret$[ebp], 1

; 169  : 	//create dirs in the vecDirs 
; 170  : 	for(int i = 1; i < (int)vecDirs.size(); i++)

  0086b	c7 85 70 fe ff
	ff 01 00 00 00	 mov	 DWORD PTR _i$83335[ebp], 1
  00875	eb 0f		 jmp	 SHORT $L83337
$L83338:
  00877	8b 8d 70 fe ff
	ff		 mov	 ecx, DWORD PTR _i$83335[ebp]
  0087d	83 c1 01	 add	 ecx, 1
  00880	89 8d 70 fe ff
	ff		 mov	 DWORD PTR _i$83335[ebp], ecx
$L83337:
  00886	8d 4d e4	 lea	 ecx, DWORD PTR _vecDirs$[ebp]
  00889	e8 00 00 00 00	 call	 ?size@?$vector@V?$basic_string@DU?$char_traits@D@std@@V?$allocator@D@2@@std@@V?$allocator@V?$basic_string@DU?$char_traits@D@std@@V?$allocator@D@2@@std@@@2@@std@@QBEIXZ ; std::vector<std::basic_string<char,std::char_traits<char>,std::allocator<char> >,std::allocator<std::basic_string<char,std::char_traits<char>,std::allocator<char> > > >::size
  0088e	39 85 70 fe ff
	ff		 cmp	 DWORD PTR _i$83335[ebp], eax
  00894	7d 70		 jge	 SHORT $L83339

; 171  : 	{
; 172  : 		if(::CreateDirectory(vecDirs[i].c_str(), NULL) == TRUE )

  00896	6a 00		 push	 0
  00898	8b 95 70 fe ff
	ff		 mov	 edx, DWORD PTR _i$83335[ebp]
  0089e	52		 push	 edx
  0089f	8d 4d e4	 lea	 ecx, DWORD PTR _vecDirs$[ebp]
  008a2	e8 00 00 00 00	 call	 ??A?$vector@V?$basic_string@DU?$char_traits@D@std@@V?$allocator@D@2@@std@@V?$allocator@V?$basic_string@DU?$char_traits@D@std@@V?$allocator@D@2@@std@@@2@@std@@QAEAAV?$basic_string@DU?$char_traits@D@std@@V?$allocator@D@2@@1@I@Z ; std::vector<std::basic_string<char,std::char_traits<char>,std::allocator<char> >,std::allocator<std::basic_string<char,std::char_traits<char>,std::allocator<char> > > >::operator[]
  008a7	8b c8		 mov	 ecx, eax
  008a9	ff 15 00 00 00
	00		 call	 DWORD PTR __imp_?c_str@?$basic_string@DU?$char_traits@D@std@@V?$allocator@D@2@@std@@QBEPBDXZ
  008af	50		 push	 eax
  008b0	ff 15 00 00 00
	00		 call	 DWORD PTR __imp__CreateDirectoryA@8
  008b6	83 f8 01	 cmp	 eax, 1
  008b9	75 25		 jne	 SHORT $L83340

; 173  : 		{
; 174  : 			SetFileAttributes(vecDirs[i].c_str(), FILE_ATTRIBUTE_NORMAL);

  008bb	68 80 00 00 00	 push	 128			; 00000080H
  008c0	8b 85 70 fe ff
	ff		 mov	 eax, DWORD PTR _i$83335[ebp]
  008c6	50		 push	 eax
  008c7	8d 4d e4	 lea	 ecx, DWORD PTR _vecDirs$[ebp]
  008ca	e8 00 00 00 00	 call	 ??A?$vector@V?$basic_string@DU?$char_traits@D@std@@V?$allocator@D@2@@std@@V?$allocator@V?$basic_string@DU?$char_traits@D@std@@V?$allocator@D@2@@std@@@2@@std@@QAEAAV?$basic_string@DU?$char_traits@D@std@@V?$allocator@D@2@@1@I@Z ; std::vector<std::basic_string<char,std::char_traits<char>,std::allocator<char> >,std::allocator<std::basic_string<char,std::char_traits<char>,std::allocator<char> > > >::operator[]
  008cf	8b c8		 mov	 ecx, eax
  008d1	ff 15 00 00 00
	00		 call	 DWORD PTR __imp_?c_str@?$basic_string@DU?$char_traits@D@std@@V?$allocator@D@2@@std@@QBEPBDXZ
  008d7	50		 push	 eax
  008d8	ff 15 00 00 00
	00		 call	 DWORD PTR __imp__SetFileAttributesA@8

; 175  : 		}
; 176  : 		else

  008de	eb 21		 jmp	 SHORT $L83341
$L83340:

; 177  : 		{
; 178  : 			DWORD dwError = ::GetLastError();

  008e0	ff 15 00 00 00
	00		 call	 DWORD PTR __imp__GetLastError@0
  008e6	89 85 6c fe ff
	ff		 mov	 DWORD PTR _dwError$83342[ebp], eax

; 179  : 			if(dwError != ERROR_ALREADY_EXISTS)

  008ec	81 bd 6c fe ff
	ff b7 00 00 00	 cmp	 DWORD PTR _dwError$83342[ebp], 183 ; 000000b7H
  008f6	74 09		 je	 SHORT $L83341

; 180  : 			{
; 181  : 				ret = false;

  008f8	c6 85 7f fe ff
	ff 00		 mov	 BYTE PTR _ret$[ebp], 0

; 182  : 				break;

  008ff	eb 05		 jmp	 SHORT $L83339
$L83341:

; 183  : 			}
; 184  : 		}
; 185  : 	}

  00901	e9 71 ff ff ff	 jmp	 $L83338
$L83339:

; 186  : 
; 187  : 	return ret;

  00906	8a 8d 7f fe ff
	ff		 mov	 cl, BYTE PTR _ret$[ebp]
  0090c	88 8d 69 fe ff
	ff		 mov	 BYTE PTR $T88178[ebp], cl
  00912	c6 45 fc 00	 mov	 BYTE PTR __$EHRec$[ebp+8], 0
  00916	8d 8d 80 fe ff
	ff		 lea	 ecx, DWORD PTR _strTemp$[ebp]
  0091c	ff 15 00 00 00
	00		 call	 DWORD PTR __imp_??1?$basic_string@DU?$char_traits@D@std@@V?$allocator@D@2@@std@@QAE@XZ
  00922	c7 45 fc ff ff
	ff ff		 mov	 DWORD PTR __$EHRec$[ebp+8], -1
  00929	8d 4d e4	 lea	 ecx, DWORD PTR _vecDirs$[ebp]
  0092c	e8 00 00 00 00	 call	 ??1?$vector@V?$basic_string@DU?$char_traits@D@std@@V?$allocator@D@2@@std@@V?$allocator@V?$basic_string@DU?$char_traits@D@std@@V?$allocator@D@2@@std@@@2@@std@@QAE@XZ ; std::vector<std::basic_string<char,std::char_traits<char>,std::allocator<char> >,std::allocator<std::basic_string<char,std::char_traits<char>,std::allocator<char> > > >::~vector<std::basic_string<char,std::char_traits<char>,std::allocator<char> >,std::allocator<std::basic_string<char,std::char_traits<char>,std::allocator<char> > > >
  00931	8a 85 69 fe ff
	ff		 mov	 al, BYTE PTR $T88178[ebp]
$L83071:

; 188  : }

  00937	8b 4d f4	 mov	 ecx, DWORD PTR __$EHRec$[ebp]
  0093a	64 89 0d 00 00
	00 00		 mov	 DWORD PTR fs:__except_list, ecx
  00941	8b 4d e0	 mov	 ecx, DWORD PTR __$ArrayPad$[ebp]
  00944	e8 00 00 00 00	 call	 @__security_check_cookie@4
  00949	8b e5		 mov	 esp, ebp
  0094b	5d		 pop	 ebp
  0094c	c3		 ret	 0
_TEXT	ENDS
text$x	SEGMENT
$L88179:
  0008a	8d 4d e4	 lea	 ecx, DWORD PTR _vecDirs$[ebp]
  0008d	e9 00 00 00 00	 jmp	 ??1?$vector@V?$basic_string@DU?$char_traits@D@std@@V?$allocator@D@2@@std@@V?$allocator@V?$basic_string@DU?$char_traits@D@std@@V?$allocator@D@2@@std@@@2@@std@@QAE@XZ ; std::vector<std::basic_string<char,std::char_traits<char>,std::allocator<char> >,std::allocator<std::basic_string<char,std::char_traits<char>,std::allocator<char> > > >::~vector<std::basic_string<char,std::char_traits<char>,std::allocator<char> >,std::allocator<std::basic_string<char,std::char_traits<char>,std::allocator<char> > > >
$L88180:
  00092	8d 8d 80 fe ff
	ff		 lea	 ecx, DWORD PTR _strTemp$[ebp]
  00098	ff 25 00 00 00
	00		 jmp	 DWORD PTR __imp_??1?$basic_string@DU?$char_traits@D@std@@V?$allocator@D@2@@std@@QAE@XZ
__ehhandler$?MakeDir@YL_DirInfo@@SA_NABV?$basic_string@DU?$char_traits@D@std@@V?$allocator@D@2@@std@@@Z:
  0009e	b8 00 00 00 00	 mov	 eax, OFFSET FLAT:$T88182
  000a3	e9 00 00 00 00	 jmp	 ___CxxFrameHandler
text$x	ENDS
?MakeDir@YL_DirInfo@@SA_NABV?$basic_string@DU?$char_traits@D@std@@V?$allocator@D@2@@std@@@Z ENDP ; YL_DirInfo::MakeDir
PUBLIC	?DeleteDir@YL_DirInfo@@SA_NPBD@Z		; YL_DirInfo::DeleteDir
PUBLIC	?DeleteDir@YL_DirInfo@@SA_NABV?$basic_string@DU?$char_traits@D@std@@V?$allocator@D@2@@std@@@Z ; YL_DirInfo::DeleteDir
xdata$x	SEGMENT
$T88193	DD	0ffffffffH
	DD	FLAT:$L88189
$T88191	DD	019930520H
	DD	01H
	DD	FLAT:$T88193
	DD	2 DUP(00H)
	DD	2 DUP(00H)
; Function compile flags: /Odt
xdata$x	ENDS
_TEXT	SEGMENT
tv73 = -52						; size = 4
tv74 = -48						; size = 4
$T88188 = -44						; size = 28
$T88187 = -13						; size = 1
__$EHRec$ = -12						; size = 12
_pszDirName$ = 8					; size = 4
?DeleteDir@YL_DirInfo@@SA_NPBD@Z PROC NEAR		; YL_DirInfo::DeleteDir

; 192  : {

  00950	55		 push	 ebp
  00951	8b ec		 mov	 ebp, esp
  00953	6a ff		 push	 -1
  00955	68 00 00 00 00	 push	 __ehhandler$?DeleteDir@YL_DirInfo@@SA_NPBD@Z
  0095a	64 a1 00 00 00
	00		 mov	 eax, DWORD PTR fs:__except_list
  00960	50		 push	 eax
  00961	64 89 25 00 00
	00 00		 mov	 DWORD PTR fs:__except_list, esp
  00968	83 ec 28	 sub	 esp, 40			; 00000028H

; 193  : 	if( pszDirName == NULL )

  0096b	83 7d 08 00	 cmp	 DWORD PTR _pszDirName$[ebp], 0
  0096f	75 04		 jne	 SHORT $L83348

; 194  : 	{
; 195  : 		return false;

  00971	32 c0		 xor	 al, al
  00973	eb 3f		 jmp	 SHORT $L83347
$L83348:

; 196  : 	}
; 197  : 	return DeleteDir(string(pszDirName));

  00975	8b 45 08	 mov	 eax, DWORD PTR _pszDirName$[ebp]
  00978	50		 push	 eax
  00979	8d 4d d4	 lea	 ecx, DWORD PTR $T88188[ebp]
  0097c	ff 15 00 00 00
	00		 call	 DWORD PTR __imp_??0?$basic_string@DU?$char_traits@D@std@@V?$allocator@D@2@@std@@QAE@PBD@Z
  00982	89 45 d0	 mov	 DWORD PTR tv74[ebp], eax
  00985	8b 4d d0	 mov	 ecx, DWORD PTR tv74[ebp]
  00988	89 4d cc	 mov	 DWORD PTR tv73[ebp], ecx
  0098b	c7 45 fc 00 00
	00 00		 mov	 DWORD PTR __$EHRec$[ebp+8], 0
  00992	8b 55 cc	 mov	 edx, DWORD PTR tv73[ebp]
  00995	52		 push	 edx
  00996	e8 00 00 00 00	 call	 ?DeleteDir@YL_DirInfo@@SA_NABV?$basic_string@DU?$char_traits@D@std@@V?$allocator@D@2@@std@@@Z ; YL_DirInfo::DeleteDir
  0099b	83 c4 04	 add	 esp, 4
  0099e	88 45 f3	 mov	 BYTE PTR $T88187[ebp], al
  009a1	c7 45 fc ff ff
	ff ff		 mov	 DWORD PTR __$EHRec$[ebp+8], -1
  009a8	8d 4d d4	 lea	 ecx, DWORD PTR $T88188[ebp]
  009ab	ff 15 00 00 00
	00		 call	 DWORD PTR __imp_??1?$basic_string@DU?$char_traits@D@std@@V?$allocator@D@2@@std@@QAE@XZ
  009b1	8a 45 f3	 mov	 al, BYTE PTR $T88187[ebp]
$L83347:

; 198  : }

  009b4	8b 4d f4	 mov	 ecx, DWORD PTR __$EHRec$[ebp]
  009b7	64 89 0d 00 00
	00 00		 mov	 DWORD PTR fs:__except_list, ecx
  009be	8b e5		 mov	 esp, ebp
  009c0	5d		 pop	 ebp
  009c1	c3		 ret	 0
_TEXT	ENDS
text$x	SEGMENT
$L88189:
  000a8	8d 4d d4	 lea	 ecx, DWORD PTR $T88188[ebp]
  000ab	ff 25 00 00 00
	00		 jmp	 DWORD PTR __imp_??1?$basic_string@DU?$char_traits@D@std@@V?$allocator@D@2@@std@@QAE@XZ
__ehhandler$?DeleteDir@YL_DirInfo@@SA_NPBD@Z:
  000b1	b8 00 00 00 00	 mov	 eax, OFFSET FLAT:$T88191
  000b6	e9 00 00 00 00	 jmp	 ___CxxFrameHandler
text$x	ENDS
?DeleteDir@YL_DirInfo@@SA_NPBD@Z ENDP			; YL_DirInfo::DeleteDir
PUBLIC	?FindFileAndDir@YL_DirInfo@@SA_NABV?$basic_string@DU?$char_traits@D@std@@V?$allocator@D@2@@std@@PAV?$vector@V?$basic_string@DU?$char_traits@D@std@@V?$allocator@D@2@@std@@V?$allocator@V?$basic_string@DU?$char_traits@D@std@@V?$allocator@D@2@@std@@@2@@3@1_NPBV43@@Z ; YL_DirInfo::FindFileAndDir
PUBLIC	?ClearDir@YL_DirInfo@@SA_NABV?$basic_string@DU?$char_traits@D@std@@V?$allocator@D@2@@std@@0@Z ; YL_DirInfo::ClearDir
xdata$x	SEGMENT
$T88206	DD	0ffffffffH
	DD	FLAT:$L88200
	DD	00H
	DD	FLAT:$L88201
	DD	01H
	DD	FLAT:$L88202
$T88204	DD	019930520H
	DD	03H
	DD	FLAT:$T88206
	DD	2 DUP(00H)
	DD	2 DUP(00H)
; Function compile flags: /Odt
xdata$x	ENDS
_TEXT	SEGMENT
$T88199 = -82						; size = 1
$T88198 = -81						; size = 1
$T88197 = -80						; size = 28
$T88196 = -50						; size = 1
$T88195 = -49						; size = 1
_idx$83359 = -48					; size = 4
_vecFile$ = -44						; size = 16
_vecDir$ = -28						; size = 16
__$EHRec$ = -12						; size = 12
_strDirName$ = 8					; size = 4
?DeleteDir@YL_DirInfo@@SA_NABV?$basic_string@DU?$char_traits@D@std@@V?$allocator@D@2@@std@@@Z PROC NEAR ; YL_DirInfo::DeleteDir

; 201  : {	

  009d0	55		 push	 ebp
  009d1	8b ec		 mov	 ebp, esp
  009d3	6a ff		 push	 -1
  009d5	68 00 00 00 00	 push	 __ehhandler$?DeleteDir@YL_DirInfo@@SA_NABV?$basic_string@DU?$char_traits@D@std@@V?$allocator@D@2@@std@@@Z
  009da	64 a1 00 00 00
	00		 mov	 eax, DWORD PTR fs:__except_list
  009e0	50		 push	 eax
  009e1	64 89 25 00 00
	00 00		 mov	 DWORD PTR fs:__except_list, esp
  009e8	83 ec 48	 sub	 esp, 72			; 00000048H

; 202  : 	vector<string> vecDir;

  009eb	8d 4d e4	 lea	 ecx, DWORD PTR _vecDir$[ebp]
  009ee	e8 00 00 00 00	 call	 ??0?$vector@V?$basic_string@DU?$char_traits@D@std@@V?$allocator@D@2@@std@@V?$allocator@V?$basic_string@DU?$char_traits@D@std@@V?$allocator@D@2@@std@@@2@@std@@QAE@XZ ; std::vector<std::basic_string<char,std::char_traits<char>,std::allocator<char> >,std::allocator<std::basic_string<char,std::char_traits<char>,std::allocator<char> > > >::vector<std::basic_string<char,std::char_traits<char>,std::allocator<char> >,std::allocator<std::basic_string<char,std::char_traits<char>,std::allocator<char> > > >
  009f3	c7 45 fc 00 00
	00 00		 mov	 DWORD PTR __$EHRec$[ebp+8], 0

; 203  : 	vector<string> vecFile;

  009fa	8d 4d d4	 lea	 ecx, DWORD PTR _vecFile$[ebp]
  009fd	e8 00 00 00 00	 call	 ??0?$vector@V?$basic_string@DU?$char_traits@D@std@@V?$allocator@D@2@@std@@V?$allocator@V?$basic_string@DU?$char_traits@D@std@@V?$allocator@D@2@@std@@@2@@std@@QAE@XZ ; std::vector<std::basic_string<char,std::char_traits<char>,std::allocator<char> >,std::allocator<std::basic_string<char,std::char_traits<char>,std::allocator<char> > > >::vector<std::basic_string<char,std::char_traits<char>,std::allocator<char> >,std::allocator<std::basic_string<char,std::char_traits<char>,std::allocator<char> > > >
  00a02	c6 45 fc 01	 mov	 BYTE PTR __$EHRec$[ebp+8], 1

; 204  : 
; 205  : 	if( YL_DirInfo::FindFileAndDir(strDirName,&vecDir,&vecFile,false) )

  00a06	6a 00		 push	 0
  00a08	6a 00		 push	 0
  00a0a	8d 45 d4	 lea	 eax, DWORD PTR _vecFile$[ebp]
  00a0d	50		 push	 eax
  00a0e	8d 4d e4	 lea	 ecx, DWORD PTR _vecDir$[ebp]
  00a11	51		 push	 ecx
  00a12	8b 55 08	 mov	 edx, DWORD PTR _strDirName$[ebp]
  00a15	52		 push	 edx
  00a16	e8 00 00 00 00	 call	 ?FindFileAndDir@YL_DirInfo@@SA_NABV?$basic_string@DU?$char_traits@D@std@@V?$allocator@D@2@@std@@PAV?$vector@V?$basic_string@DU?$char_traits@D@std@@V?$allocator@D@2@@std@@V?$allocator@V?$basic_string@DU?$char_traits@D@std@@V?$allocator@D@2@@std@@@2@@3@1_NPBV43@@Z ; YL_DirInfo::FindFileAndDir
  00a1b	83 c4 14	 add	 esp, 20			; 00000014H
  00a1e	0f b6 c0	 movzx	 eax, al
  00a21	85 c0		 test	 eax, eax
  00a23	0f 84 c2 00 00
	00		 je	 $L83358

; 206  : 	{
; 207  : 		for(size_t idx = 0;idx <vecDir.size();idx++ )

  00a29	c7 45 d0 00 00
	00 00		 mov	 DWORD PTR _idx$83359[ebp], 0
  00a30	eb 09		 jmp	 SHORT $L83360
$L83361:
  00a32	8b 4d d0	 mov	 ecx, DWORD PTR _idx$83359[ebp]
  00a35	83 c1 01	 add	 ecx, 1
  00a38	89 4d d0	 mov	 DWORD PTR _idx$83359[ebp], ecx
$L83360:
  00a3b	8d 4d e4	 lea	 ecx, DWORD PTR _vecDir$[ebp]
  00a3e	e8 00 00 00 00	 call	 ?size@?$vector@V?$basic_string@DU?$char_traits@D@std@@V?$allocator@D@2@@std@@V?$allocator@V?$basic_string@DU?$char_traits@D@std@@V?$allocator@D@2@@std@@@2@@std@@QBEIXZ ; std::vector<std::basic_string<char,std::char_traits<char>,std::allocator<char> >,std::allocator<std::basic_string<char,std::char_traits<char>,std::allocator<char> > > >::size
  00a43	39 45 d0	 cmp	 DWORD PTR _idx$83359[ebp], eax
  00a46	73 45		 jae	 SHORT $L83362

; 208  : 		{
; 209  : 			if( !DeleteDir(vecDir[idx]) )

  00a48	8b 55 d0	 mov	 edx, DWORD PTR _idx$83359[ebp]
  00a4b	52		 push	 edx
  00a4c	8d 4d e4	 lea	 ecx, DWORD PTR _vecDir$[ebp]
  00a4f	e8 00 00 00 00	 call	 ??A?$vector@V?$basic_string@DU?$char_traits@D@std@@V?$allocator@D@2@@std@@V?$allocator@V?$basic_string@DU?$char_traits@D@std@@V?$allocator@D@2@@std@@@2@@std@@QAEAAV?$basic_string@DU?$char_traits@D@std@@V?$allocator@D@2@@1@I@Z ; std::vector<std::basic_string<char,std::char_traits<char>,std::allocator<char> >,std::allocator<std::basic_string<char,std::char_traits<char>,std::allocator<char> > > >::operator[]
  00a54	50		 push	 eax
  00a55	e8 00 00 00 00	 call	 ?DeleteDir@YL_DirInfo@@SA_NABV?$basic_string@DU?$char_traits@D@std@@V?$allocator@D@2@@std@@@Z ; YL_DirInfo::DeleteDir
  00a5a	83 c4 04	 add	 esp, 4
  00a5d	0f b6 c0	 movzx	 eax, al
  00a60	85 c0		 test	 eax, eax
  00a62	75 27		 jne	 SHORT $L83363

; 210  : 			{
; 211  : 				return false;

  00a64	c6 45 cf 00	 mov	 BYTE PTR $T88195[ebp], 0
  00a68	c6 45 fc 00	 mov	 BYTE PTR __$EHRec$[ebp+8], 0
  00a6c	8d 4d d4	 lea	 ecx, DWORD PTR _vecFile$[ebp]
  00a6f	e8 00 00 00 00	 call	 ??1?$vector@V?$basic_string@DU?$char_traits@D@std@@V?$allocator@D@2@@std@@V?$allocator@V?$basic_string@DU?$char_traits@D@std@@V?$allocator@D@2@@std@@@2@@std@@QAE@XZ ; std::vector<std::basic_string<char,std::char_traits<char>,std::allocator<char> >,std::allocator<std::basic_string<char,std::char_traits<char>,std::allocator<char> > > >::~vector<std::basic_string<char,std::char_traits<char>,std::allocator<char> >,std::allocator<std::basic_string<char,std::char_traits<char>,std::allocator<char> > > >
  00a74	c7 45 fc ff ff
	ff ff		 mov	 DWORD PTR __$EHRec$[ebp+8], -1
  00a7b	8d 4d e4	 lea	 ecx, DWORD PTR _vecDir$[ebp]
  00a7e	e8 00 00 00 00	 call	 ??1?$vector@V?$basic_string@DU?$char_traits@D@std@@V?$allocator@D@2@@std@@V?$allocator@V?$basic_string@DU?$char_traits@D@std@@V?$allocator@D@2@@std@@@2@@std@@QAE@XZ ; std::vector<std::basic_string<char,std::char_traits<char>,std::allocator<char> >,std::allocator<std::basic_string<char,std::char_traits<char>,std::allocator<char> > > >::~vector<std::basic_string<char,std::char_traits<char>,std::allocator<char> >,std::allocator<std::basic_string<char,std::char_traits<char>,std::allocator<char> > > >
  00a83	8a 45 cf	 mov	 al, BYTE PTR $T88195[ebp]
  00a86	e9 82 00 00 00	 jmp	 $L83353
$L83363:

; 212  : 			}
; 213  : 		}

  00a8b	eb a5		 jmp	 SHORT $L83361
$L83362:

; 214  : 
; 215  : 		if( ClearDir(strDirName) )

  00a8d	68 00 00 00 00	 push	 OFFSET FLAT:$SG83368
  00a92	8d 4d b0	 lea	 ecx, DWORD PTR $T88197[ebp]
  00a95	ff 15 00 00 00
	00		 call	 DWORD PTR __imp_??0?$basic_string@DU?$char_traits@D@std@@V?$allocator@D@2@@std@@QAE@PBD@Z
  00a9b	c6 45 fc 02	 mov	 BYTE PTR __$EHRec$[ebp+8], 2
  00a9f	8d 4d b0	 lea	 ecx, DWORD PTR $T88197[ebp]
  00aa2	51		 push	 ecx
  00aa3	8b 55 08	 mov	 edx, DWORD PTR _strDirName$[ebp]
  00aa6	52		 push	 edx
  00aa7	e8 00 00 00 00	 call	 ?ClearDir@YL_DirInfo@@SA_NABV?$basic_string@DU?$char_traits@D@std@@V?$allocator@D@2@@std@@0@Z ; YL_DirInfo::ClearDir
  00aac	83 c4 08	 add	 esp, 8
  00aaf	88 45 ce	 mov	 BYTE PTR $T88196[ebp], al
  00ab2	c6 45 fc 01	 mov	 BYTE PTR __$EHRec$[ebp+8], 1
  00ab6	8d 4d b0	 lea	 ecx, DWORD PTR $T88197[ebp]
  00ab9	ff 15 00 00 00
	00		 call	 DWORD PTR __imp_??1?$basic_string@DU?$char_traits@D@std@@V?$allocator@D@2@@std@@QAE@XZ
  00abf	0f b6 45 ce	 movzx	 eax, BYTE PTR $T88196[ebp]
  00ac3	85 c0		 test	 eax, eax
  00ac5	74 24		 je	 SHORT $L83358

; 216  : 		{
; 217  : 			return true;

  00ac7	c6 45 af 01	 mov	 BYTE PTR $T88198[ebp], 1
  00acb	c6 45 fc 00	 mov	 BYTE PTR __$EHRec$[ebp+8], 0
  00acf	8d 4d d4	 lea	 ecx, DWORD PTR _vecFile$[ebp]
  00ad2	e8 00 00 00 00	 call	 ??1?$vector@V?$basic_string@DU?$char_traits@D@std@@V?$allocator@D@2@@std@@V?$allocator@V?$basic_string@DU?$char_traits@D@std@@V?$allocator@D@2@@std@@@2@@std@@QAE@XZ ; std::vector<std::basic_string<char,std::char_traits<char>,std::allocator<char> >,std::allocator<std::basic_string<char,std::char_traits<char>,std::allocator<char> > > >::~vector<std::basic_string<char,std::char_traits<char>,std::allocator<char> >,std::allocator<std::basic_string<char,std::char_traits<char>,std::allocator<char> > > >
  00ad7	c7 45 fc ff ff
	ff ff		 mov	 DWORD PTR __$EHRec$[ebp+8], -1
  00ade	8d 4d e4	 lea	 ecx, DWORD PTR _vecDir$[ebp]
  00ae1	e8 00 00 00 00	 call	 ??1?$vector@V?$basic_string@DU?$char_traits@D@std@@V?$allocator@D@2@@std@@V?$allocator@V?$basic_string@DU?$char_traits@D@std@@V?$allocator@D@2@@std@@@2@@std@@QAE@XZ ; std::vector<std::basic_string<char,std::char_traits<char>,std::allocator<char> >,std::allocator<std::basic_string<char,std::char_traits<char>,std::allocator<char> > > >::~vector<std::basic_string<char,std::char_traits<char>,std::allocator<char> >,std::allocator<std::basic_string<char,std::char_traits<char>,std::allocator<char> > > >
  00ae6	8a 45 af	 mov	 al, BYTE PTR $T88198[ebp]
  00ae9	eb 22		 jmp	 SHORT $L83353
$L83358:

; 218  : 		}		
; 219  : 	}
; 220  : 
; 221  : 	return false;

  00aeb	c6 45 ae 00	 mov	 BYTE PTR $T88199[ebp], 0
  00aef	c6 45 fc 00	 mov	 BYTE PTR __$EHRec$[ebp+8], 0
  00af3	8d 4d d4	 lea	 ecx, DWORD PTR _vecFile$[ebp]
  00af6	e8 00 00 00 00	 call	 ??1?$vector@V?$basic_string@DU?$char_traits@D@std@@V?$allocator@D@2@@std@@V?$allocator@V?$basic_string@DU?$char_traits@D@std@@V?$allocator@D@2@@std@@@2@@std@@QAE@XZ ; std::vector<std::basic_string<char,std::char_traits<char>,std::allocator<char> >,std::allocator<std::basic_string<char,std::char_traits<char>,std::allocator<char> > > >::~vector<std::basic_string<char,std::char_traits<char>,std::allocator<char> >,std::allocator<std::basic_string<char,std::char_traits<char>,std::allocator<char> > > >
  00afb	c7 45 fc ff ff
	ff ff		 mov	 DWORD PTR __$EHRec$[ebp+8], -1
  00b02	8d 4d e4	 lea	 ecx, DWORD PTR _vecDir$[ebp]
  00b05	e8 00 00 00 00	 call	 ??1?$vector@V?$basic_string@DU?$char_traits@D@std@@V?$allocator@D@2@@std@@V?$allocator@V?$basic_string@DU?$char_traits@D@std@@V?$allocator@D@2@@std@@@2@@std@@QAE@XZ ; std::vector<std::basic_string<char,std::char_traits<char>,std::allocator<char> >,std::allocator<std::basic_string<char,std::char_traits<char>,std::allocator<char> > > >::~vector<std::basic_string<char,std::char_traits<char>,std::allocator<char> >,std::allocator<std::basic_string<char,std::char_traits<char>,std::allocator<char> > > >
  00b0a	8a 45 ae	 mov	 al, BYTE PTR $T88199[ebp]
$L83353:

; 222  : }

  00b0d	8b 4d f4	 mov	 ecx, DWORD PTR __$EHRec$[ebp]
  00b10	64 89 0d 00 00
	00 00		 mov	 DWORD PTR fs:__except_list, ecx
  00b17	8b e5		 mov	 esp, ebp
  00b19	5d		 pop	 ebp
  00b1a	c3		 ret	 0
_TEXT	ENDS
text$x	SEGMENT
$L88200:
  000bb	8d 4d e4	 lea	 ecx, DWORD PTR _vecDir$[ebp]
  000be	e9 00 00 00 00	 jmp	 ??1?$vector@V?$basic_string@DU?$char_traits@D@std@@V?$allocator@D@2@@std@@V?$allocator@V?$basic_string@DU?$char_traits@D@std@@V?$allocator@D@2@@std@@@2@@std@@QAE@XZ ; std::vector<std::basic_string<char,std::char_traits<char>,std::allocator<char> >,std::allocator<std::basic_string<char,std::char_traits<char>,std::allocator<char> > > >::~vector<std::basic_string<char,std::char_traits<char>,std::allocator<char> >,std::allocator<std::basic_string<char,std::char_traits<char>,std::allocator<char> > > >
$L88201:
  000c3	8d 4d d4	 lea	 ecx, DWORD PTR _vecFile$[ebp]
  000c6	e9 00 00 00 00	 jmp	 ??1?$vector@V?$basic_string@DU?$char_traits@D@std@@V?$allocator@D@2@@std@@V?$allocator@V?$basic_string@DU?$char_traits@D@std@@V?$allocator@D@2@@std@@@2@@std@@QAE@XZ ; std::vector<std::basic_string<char,std::char_traits<char>,std::allocator<char> >,std::allocator<std::basic_string<char,std::char_traits<char>,std::allocator<char> > > >::~vector<std::basic_string<char,std::char_traits<char>,std::allocator<char> >,std::allocator<std::basic_string<char,std::char_traits<char>,std::allocator<char> > > >
$L88202:
  000cb	8d 4d b0	 lea	 ecx, DWORD PTR $T88197[ebp]
  000ce	ff 25 00 00 00
	00		 jmp	 DWORD PTR __imp_??1?$basic_string@DU?$char_traits@D@std@@V?$allocator@D@2@@std@@QAE@XZ
__ehhandler$?DeleteDir@YL_DirInfo@@SA_NABV?$basic_string@DU?$char_traits@D@std@@V?$allocator@D@2@@std@@@Z:
  000d4	b8 00 00 00 00	 mov	 eax, OFFSET FLAT:$T88204
  000d9	e9 00 00 00 00	 jmp	 ___CxxFrameHandler
text$x	ENDS
?DeleteDir@YL_DirInfo@@SA_NABV?$basic_string@DU?$char_traits@D@std@@V?$allocator@D@2@@std@@@Z ENDP ; YL_DirInfo::DeleteDir
PUBLIC	?ClearDir@YL_DirInfo@@SA_NPBD0@Z		; YL_DirInfo::ClearDir
xdata$x	SEGMENT
$T88221	DD	0ffffffffH
	DD	FLAT:$L88214
	DD	00H
	DD	FLAT:$L88215
	DD	0ffffffffH
	DD	FLAT:$L88216
	DD	02H
	DD	FLAT:$L88217
$T88219	DD	019930520H
	DD	04H
	DD	FLAT:$T88221
	DD	2 DUP(00H)
	DD	2 DUP(00H)
; Function compile flags: /Odt
xdata$x	ENDS
_TEXT	SEGMENT
tv129 = -156						; size = 4
tv131 = -152						; size = 4
tv95 = -148						; size = 4
tv130 = -144						; size = 4
tv93 = -140						; size = 4
tv68 = -136						; size = 4
$T88213 = -132						; size = 28
$T88212 = -104						; size = 28
$T88211 = -73						; size = 1
$T88210 = -72						; size = 28
$T88209 = -44						; size = 28
$T88208 = -13						; size = 1
__$EHRec$ = -12						; size = 12
_pszDirName$ = 8					; size = 4
_pszFileExe$ = 12					; size = 4
?ClearDir@YL_DirInfo@@SA_NPBD0@Z PROC NEAR		; YL_DirInfo::ClearDir

; 225  : {

  00b20	55		 push	 ebp
  00b21	8b ec		 mov	 ebp, esp
  00b23	6a ff		 push	 -1
  00b25	68 00 00 00 00	 push	 __ehhandler$?ClearDir@YL_DirInfo@@SA_NPBD0@Z
  00b2a	64 a1 00 00 00
	00		 mov	 eax, DWORD PTR fs:__except_list
  00b30	50		 push	 eax
  00b31	64 89 25 00 00
	00 00		 mov	 DWORD PTR fs:__except_list, esp
  00b38	81 ec 90 00 00
	00		 sub	 esp, 144		; 00000090H

; 226  : 	if( pszDirName == NULL )

  00b3e	83 7d 08 00	 cmp	 DWORD PTR _pszDirName$[ebp], 0
  00b42	75 07		 jne	 SHORT $L83375

; 227  : 	{
; 228  : 		return false;

  00b44	32 c0		 xor	 al, al
  00b46	e9 01 01 00 00	 jmp	 $L83374
$L83375:

; 229  : 	}
; 230  : 	if( pszFileExe == NULL )

  00b4b	83 7d 0c 00	 cmp	 DWORD PTR _pszFileExe$[ebp], 0
  00b4f	75 73		 jne	 SHORT $L83376

; 231  : 	{
; 232  : 		return ClearDir(string(pszDirName));

  00b51	68 00 00 00 00	 push	 OFFSET FLAT:$SG83380
  00b56	8d 4d d4	 lea	 ecx, DWORD PTR $T88209[ebp]
  00b59	ff 15 00 00 00
	00		 call	 DWORD PTR __imp_??0?$basic_string@DU?$char_traits@D@std@@V?$allocator@D@2@@std@@QAE@PBD@Z
  00b5f	c7 45 fc 00 00
	00 00		 mov	 DWORD PTR __$EHRec$[ebp+8], 0
  00b66	8b 45 08	 mov	 eax, DWORD PTR _pszDirName$[ebp]
  00b69	50		 push	 eax
  00b6a	8d 4d b8	 lea	 ecx, DWORD PTR $T88210[ebp]
  00b6d	ff 15 00 00 00
	00		 call	 DWORD PTR __imp_??0?$basic_string@DU?$char_traits@D@std@@V?$allocator@D@2@@std@@QAE@PBD@Z
  00b73	89 85 78 ff ff
	ff		 mov	 DWORD PTR tv68[ebp], eax
  00b79	8b 8d 78 ff ff
	ff		 mov	 ecx, DWORD PTR tv68[ebp]
  00b7f	89 8d 74 ff ff
	ff		 mov	 DWORD PTR tv93[ebp], ecx
  00b85	c6 45 fc 01	 mov	 BYTE PTR __$EHRec$[ebp+8], 1
  00b89	8d 55 d4	 lea	 edx, DWORD PTR $T88209[ebp]
  00b8c	52		 push	 edx
  00b8d	8b 85 74 ff ff
	ff		 mov	 eax, DWORD PTR tv93[ebp]
  00b93	50		 push	 eax
  00b94	e8 00 00 00 00	 call	 ?ClearDir@YL_DirInfo@@SA_NABV?$basic_string@DU?$char_traits@D@std@@V?$allocator@D@2@@std@@0@Z ; YL_DirInfo::ClearDir
  00b99	83 c4 08	 add	 esp, 8
  00b9c	88 45 f3	 mov	 BYTE PTR $T88208[ebp], al
  00b9f	c6 45 fc 00	 mov	 BYTE PTR __$EHRec$[ebp+8], 0
  00ba3	8d 4d b8	 lea	 ecx, DWORD PTR $T88210[ebp]
  00ba6	ff 15 00 00 00
	00		 call	 DWORD PTR __imp_??1?$basic_string@DU?$char_traits@D@std@@V?$allocator@D@2@@std@@QAE@XZ
  00bac	c7 45 fc ff ff
	ff ff		 mov	 DWORD PTR __$EHRec$[ebp+8], -1
  00bb3	8d 4d d4	 lea	 ecx, DWORD PTR $T88209[ebp]
  00bb6	ff 15 00 00 00
	00		 call	 DWORD PTR __imp_??1?$basic_string@DU?$char_traits@D@std@@V?$allocator@D@2@@std@@QAE@XZ
  00bbc	8a 45 f3	 mov	 al, BYTE PTR $T88208[ebp]
  00bbf	e9 88 00 00 00	 jmp	 $L83374
$L83376:

; 233  : 	}
; 234  : 	else
; 235  : 	{
; 236  : 		return ClearDir(string(pszDirName),string(pszFileExe));

  00bc4	8b 4d 0c	 mov	 ecx, DWORD PTR _pszFileExe$[ebp]
  00bc7	51		 push	 ecx
  00bc8	8d 4d 98	 lea	 ecx, DWORD PTR $T88212[ebp]
  00bcb	ff 15 00 00 00
	00		 call	 DWORD PTR __imp_??0?$basic_string@DU?$char_traits@D@std@@V?$allocator@D@2@@std@@QAE@PBD@Z
  00bd1	89 85 70 ff ff
	ff		 mov	 DWORD PTR tv130[ebp], eax
  00bd7	8b 95 70 ff ff
	ff		 mov	 edx, DWORD PTR tv130[ebp]
  00bdd	89 95 6c ff ff
	ff		 mov	 DWORD PTR tv95[ebp], edx
  00be3	c7 45 fc 02 00
	00 00		 mov	 DWORD PTR __$EHRec$[ebp+8], 2
  00bea	8b 45 08	 mov	 eax, DWORD PTR _pszDirName$[ebp]
  00bed	50		 push	 eax
  00bee	8d 8d 7c ff ff
	ff		 lea	 ecx, DWORD PTR $T88213[ebp]
  00bf4	ff 15 00 00 00
	00		 call	 DWORD PTR __imp_??0?$basic_string@DU?$char_traits@D@std@@V?$allocator@D@2@@std@@QAE@PBD@Z
  00bfa	89 85 68 ff ff
	ff		 mov	 DWORD PTR tv131[ebp], eax
  00c00	8b 8d 68 ff ff
	ff		 mov	 ecx, DWORD PTR tv131[ebp]
  00c06	89 8d 64 ff ff
	ff		 mov	 DWORD PTR tv129[ebp], ecx
  00c0c	c6 45 fc 03	 mov	 BYTE PTR __$EHRec$[ebp+8], 3
  00c10	8b 95 6c ff ff
	ff		 mov	 edx, DWORD PTR tv95[ebp]
  00c16	52		 push	 edx
  00c17	8b 85 64 ff ff
	ff		 mov	 eax, DWORD PTR tv129[ebp]
  00c1d	50		 push	 eax
  00c1e	e8 00 00 00 00	 call	 ?ClearDir@YL_DirInfo@@SA_NABV?$basic_string@DU?$char_traits@D@std@@V?$allocator@D@2@@std@@0@Z ; YL_DirInfo::ClearDir
  00c23	83 c4 08	 add	 esp, 8
  00c26	88 45 b7	 mov	 BYTE PTR $T88211[ebp], al
  00c29	c6 45 fc 02	 mov	 BYTE PTR __$EHRec$[ebp+8], 2
  00c2d	8d 8d 7c ff ff
	ff		 lea	 ecx, DWORD PTR $T88213[ebp]
  00c33	ff 15 00 00 00
	00		 call	 DWORD PTR __imp_??1?$basic_string@DU?$char_traits@D@std@@V?$allocator@D@2@@std@@QAE@XZ
  00c39	c7 45 fc ff ff
	ff ff		 mov	 DWORD PTR __$EHRec$[ebp+8], -1
  00c40	8d 4d 98	 lea	 ecx, DWORD PTR $T88212[ebp]
  00c43	ff 15 00 00 00
	00		 call	 DWORD PTR __imp_??1?$basic_string@DU?$char_traits@D@std@@V?$allocator@D@2@@std@@QAE@XZ
  00c49	8a 45 b7	 mov	 al, BYTE PTR $T88211[ebp]
$L83374:

; 237  : 	}
; 238  : }

  00c4c	8b 4d f4	 mov	 ecx, DWORD PTR __$EHRec$[ebp]
  00c4f	64 89 0d 00 00
	00 00		 mov	 DWORD PTR fs:__except_list, ecx
  00c56	8b e5		 mov	 esp, ebp
  00c58	5d		 pop	 ebp
  00c59	c3		 ret	 0
_TEXT	ENDS
text$x	SEGMENT
$L88214:
  000de	8d 4d d4	 lea	 ecx, DWORD PTR $T88209[ebp]
  000e1	ff 25 00 00 00
	00		 jmp	 DWORD PTR __imp_??1?$basic_string@DU?$char_traits@D@std@@V?$allocator@D@2@@std@@QAE@XZ
$L88215:
  000e7	8d 4d b8	 lea	 ecx, DWORD PTR $T88210[ebp]
  000ea	ff 25 00 00 00
	00		 jmp	 DWORD PTR __imp_??1?$basic_string@DU?$char_traits@D@std@@V?$allocator@D@2@@std@@QAE@XZ
$L88216:
  000f0	8d 4d 98	 lea	 ecx, DWORD PTR $T88212[ebp]
  000f3	ff 25 00 00 00
	00		 jmp	 DWORD PTR __imp_??1?$basic_string@DU?$char_traits@D@std@@V?$allocator@D@2@@std@@QAE@XZ
$L88217:
  000f9	8d 8d 7c ff ff
	ff		 lea	 ecx, DWORD PTR $T88213[ebp]
  000ff	ff 25 00 00 00
	00		 jmp	 DWORD PTR __imp_??1?$basic_string@DU?$char_traits@D@std@@V?$allocator@D@2@@std@@QAE@XZ
__ehhandler$?ClearDir@YL_DirInfo@@SA_NPBD0@Z:
  00105	b8 00 00 00 00	 mov	 eax, OFFSET FLAT:$T88219
  0010a	e9 00 00 00 00	 jmp	 ___CxxFrameHandler
text$x	ENDS
?ClearDir@YL_DirInfo@@SA_NPBD0@Z ENDP			; YL_DirInfo::ClearDir
PUBLIC	??$?HDU?$char_traits@D@std@@V?$allocator@D@1@@std@@YA?AV?$basic_string@DU?$char_traits@D@std@@V?$allocator@D@2@@0@ABV10@PBD@Z ; std::operator+<char,std::char_traits<char>,std::allocator<char> >
EXTRN	_strcmp:NEAR
EXTRN	_strlen:NEAR
EXTRN	__imp__strstr:NEAR
EXTRN	__imp__RemoveDirectoryA@4:NEAR
EXTRN	__imp__GetFileAttributesA@4:NEAR
EXTRN	__imp__FindNextFileA@8:NEAR
xdata$x	SEGMENT
$T88239	DD	0ffffffffH
	DD	FLAT:$L88231
	DD	00H
	DD	FLAT:$L88232
	DD	00H
	DD	FLAT:$L88233
	DD	02H
	DD	FLAT:$L88234
	DD	00H
	DD	FLAT:$L88234
$T88236	DD	019930520H
	DD	05H
	DD	FLAT:$T88239
	DD	2 DUP(00H)
	DD	2 DUP(00H)
; Function compile flags: /Odt
xdata$x	ENDS
_TEXT	SEGMENT
tv188 = -488						; size = 4
tv196 = -484						; size = 4
tv185 = -480						; size = 4
tv65 = -476						; size = 4
$T88230 = -472						; size = 1
$T88229 = -471						; size = 1
$T88228 = -470						; size = 1
$T88227 = -469						; size = 1
$T88226 = -468						; size = 28
$T88225 = -437						; size = 1
$T88224 = -436						; size = 28
_pTmp$83417 = -408					; size = 4
_strFileName$83407 = -404				; size = 28
_dwFlags$83411 = -376					; size = 4
_hFind$ = -372						; size = 4
_dir$ = -368						; size = 28
_FindFileData$ = -340					; size = 320
__$ArrayPad$ = -16					; size = 4
__$EHRec$ = -12						; size = 12
__$ReturnAddr$ = 4					; size = 4
_strDirName$ = 8					; size = 4
_strExe$ = 12						; size = 4
?ClearDir@YL_DirInfo@@SA_NABV?$basic_string@DU?$char_traits@D@std@@V?$allocator@D@2@@std@@0@Z PROC NEAR ; YL_DirInfo::ClearDir

; 241  : {

  00c60	55		 push	 ebp
  00c61	8b ec		 mov	 ebp, esp
  00c63	6a ff		 push	 -1
  00c65	68 00 00 00 00	 push	 __ehhandler$?ClearDir@YL_DirInfo@@SA_NABV?$basic_string@DU?$char_traits@D@std@@V?$allocator@D@2@@std@@0@Z
  00c6a	64 a1 00 00 00
	00		 mov	 eax, DWORD PTR fs:__except_list
  00c70	50		 push	 eax
  00c71	64 89 25 00 00
	00 00		 mov	 DWORD PTR fs:__except_list, esp
  00c78	81 ec dc 01 00
	00		 sub	 esp, 476		; 000001dcH
  00c7e	a1 00 00 00 00	 mov	 eax, DWORD PTR ___security_cookie
  00c83	89 45 f0	 mov	 DWORD PTR __$ArrayPad$[ebp], eax
  00c86	56		 push	 esi

; 242  : 	WIN32_FIND_DATA FindFileData;
; 243  : 	HANDLE hFind = INVALID_HANDLE_VALUE;

  00c87	c7 85 8c fe ff
	ff ff ff ff ff	 mov	 DWORD PTR _hFind$[ebp], -1

; 244  : 	string dir;

  00c91	8d 8d 90 fe ff
	ff		 lea	 ecx, DWORD PTR _dir$[ebp]
  00c97	ff 15 00 00 00
	00		 call	 DWORD PTR __imp_??0?$basic_string@DU?$char_traits@D@std@@V?$allocator@D@2@@std@@QAE@XZ
  00c9d	c7 45 fc 00 00
	00 00		 mov	 DWORD PTR __$EHRec$[ebp+8], 0

; 245  : 	
; 246  : 	dir = strDirName + "\\*";	

  00ca4	68 00 00 00 00	 push	 OFFSET FLAT:$SG83395
  00ca9	8b 45 08	 mov	 eax, DWORD PTR _strDirName$[ebp]
  00cac	50		 push	 eax
  00cad	8d 8d 4c fe ff
	ff		 lea	 ecx, DWORD PTR $T88224[ebp]
  00cb3	51		 push	 ecx
  00cb4	e8 00 00 00 00	 call	 ??$?HDU?$char_traits@D@std@@V?$allocator@D@1@@std@@YA?AV?$basic_string@DU?$char_traits@D@std@@V?$allocator@D@2@@0@ABV10@PBD@Z ; std::operator+<char,std::char_traits<char>,std::allocator<char> >
  00cb9	83 c4 0c	 add	 esp, 12			; 0000000cH
  00cbc	89 85 24 fe ff
	ff		 mov	 DWORD PTR tv65[ebp], eax
  00cc2	8b 95 24 fe ff
	ff		 mov	 edx, DWORD PTR tv65[ebp]
  00cc8	89 95 20 fe ff
	ff		 mov	 DWORD PTR tv185[ebp], edx
  00cce	c6 45 fc 01	 mov	 BYTE PTR __$EHRec$[ebp+8], 1
  00cd2	8b 85 20 fe ff
	ff		 mov	 eax, DWORD PTR tv185[ebp]
  00cd8	50		 push	 eax
  00cd9	8d 8d 90 fe ff
	ff		 lea	 ecx, DWORD PTR _dir$[ebp]
  00cdf	ff 15 00 00 00
	00		 call	 DWORD PTR __imp_??4?$basic_string@DU?$char_traits@D@std@@V?$allocator@D@2@@std@@QAEAAV01@ABV01@@Z
  00ce5	c6 45 fc 00	 mov	 BYTE PTR __$EHRec$[ebp+8], 0
  00ce9	8d 8d 4c fe ff
	ff		 lea	 ecx, DWORD PTR $T88224[ebp]
  00cef	ff 15 00 00 00
	00		 call	 DWORD PTR __imp_??1?$basic_string@DU?$char_traits@D@std@@V?$allocator@D@2@@std@@QAE@XZ

; 247  : 
; 248  : 	hFind = FindFirstFile(dir.c_str(), &FindFileData);

  00cf5	8d 8d ac fe ff
	ff		 lea	 ecx, DWORD PTR _FindFileData$[ebp]
  00cfb	51		 push	 ecx
  00cfc	8d 8d 90 fe ff
	ff		 lea	 ecx, DWORD PTR _dir$[ebp]
  00d02	ff 15 00 00 00
	00		 call	 DWORD PTR __imp_?c_str@?$basic_string@DU?$char_traits@D@std@@V?$allocator@D@2@@std@@QBEPBDXZ
  00d08	50		 push	 eax
  00d09	ff 15 00 00 00
	00		 call	 DWORD PTR __imp__FindFirstFileA@8
  00d0f	89 85 8c fe ff
	ff		 mov	 DWORD PTR _hFind$[ebp], eax

; 249  : 
; 250  : 	if(hFind == INVALID_HANDLE_VALUE)

  00d15	83 bd 8c fe ff
	ff ff		 cmp	 DWORD PTR _hFind$[ebp], -1
  00d1c	75 25		 jne	 SHORT $L83400

; 251  : 	{
; 252  : 		return false;

  00d1e	c6 85 4b fe ff
	ff 00		 mov	 BYTE PTR $T88225[ebp], 0
  00d25	c7 45 fc ff ff
	ff ff		 mov	 DWORD PTR __$EHRec$[ebp+8], -1
  00d2c	8d 8d 90 fe ff
	ff		 lea	 ecx, DWORD PTR _dir$[ebp]
  00d32	ff 15 00 00 00
	00		 call	 DWORD PTR __imp_??1?$basic_string@DU?$char_traits@D@std@@V?$allocator@D@2@@std@@QAE@XZ
  00d38	8a 85 4b fe ff
	ff		 mov	 al, BYTE PTR $T88225[ebp]
  00d3e	e9 9f 02 00 00	 jmp	 $L83388
$L83400:

; 253  : 	}
; 254  : 
; 255  : 	do{
; 256  : 		if(strcmp(FindFileData.cFileName, ".") != 0 &&	strcmp(FindFileData.cFileName, "..") != 0 )

  00d43	68 00 00 00 00	 push	 OFFSET FLAT:$SG83404
  00d48	8d 95 d8 fe ff
	ff		 lea	 edx, DWORD PTR _FindFileData$[ebp+44]
  00d4e	52		 push	 edx
  00d4f	e8 00 00 00 00	 call	 _strcmp
  00d54	83 c4 08	 add	 esp, 8
  00d57	85 c0		 test	 eax, eax
  00d59	0f 84 04 02 00
	00		 je	 $L83401
  00d5f	68 00 00 00 00	 push	 OFFSET FLAT:$SG83405
  00d64	8d 85 d8 fe ff
	ff		 lea	 eax, DWORD PTR _FindFileData$[ebp+44]
  00d6a	50		 push	 eax
  00d6b	e8 00 00 00 00	 call	 _strcmp
  00d70	83 c4 08	 add	 esp, 8
  00d73	85 c0		 test	 eax, eax
  00d75	0f 84 e8 01 00
	00		 je	 $L83401

; 257  : 		{
; 258  : 			if(FindFileData.dwFileAttributes & FILE_ATTRIBUTE_DIRECTORY)

  00d7b	8b 8d ac fe ff
	ff		 mov	 ecx, DWORD PTR _FindFileData$[ebp]
  00d81	83 e1 10	 and	 ecx, 16			; 00000010H
  00d84	74 05		 je	 SHORT $L83406

; 259  : 			{
; 260  : 				continue;

  00d86	e9 d8 01 00 00	 jmp	 $L83401
$L83406:

; 261  : 			}
; 262  : 
; 263  : 			string strFileName = strDirName + "\\" + FindFileData.cFileName;

  00d8b	68 00 00 00 00	 push	 OFFSET FLAT:$SG83410
  00d90	8b 55 08	 mov	 edx, DWORD PTR _strDirName$[ebp]
  00d93	52		 push	 edx
  00d94	8d 85 2c fe ff
	ff		 lea	 eax, DWORD PTR $T88226[ebp]
  00d9a	50		 push	 eax
  00d9b	e8 00 00 00 00	 call	 ??$?HDU?$char_traits@D@std@@V?$allocator@D@1@@std@@YA?AV?$basic_string@DU?$char_traits@D@std@@V?$allocator@D@2@@0@ABV10@PBD@Z ; std::operator+<char,std::char_traits<char>,std::allocator<char> >
  00da0	83 c4 0c	 add	 esp, 12			; 0000000cH
  00da3	89 85 1c fe ff
	ff		 mov	 DWORD PTR tv196[ebp], eax
  00da9	8b 8d 1c fe ff
	ff		 mov	 ecx, DWORD PTR tv196[ebp]
  00daf	89 8d 18 fe ff
	ff		 mov	 DWORD PTR tv188[ebp], ecx
  00db5	c6 45 fc 02	 mov	 BYTE PTR __$EHRec$[ebp+8], 2
  00db9	8d 95 d8 fe ff
	ff		 lea	 edx, DWORD PTR _FindFileData$[ebp+44]
  00dbf	52		 push	 edx
  00dc0	8b 85 18 fe ff
	ff		 mov	 eax, DWORD PTR tv188[ebp]
  00dc6	50		 push	 eax
  00dc7	8d 8d 6c fe ff
	ff		 lea	 ecx, DWORD PTR _strFileName$83407[ebp]
  00dcd	51		 push	 ecx
  00dce	e8 00 00 00 00	 call	 ??$?HDU?$char_traits@D@std@@V?$allocator@D@1@@std@@YA?AV?$basic_string@DU?$char_traits@D@std@@V?$allocator@D@2@@0@ABV10@PBD@Z ; std::operator+<char,std::char_traits<char>,std::allocator<char> >
  00dd3	83 c4 0c	 add	 esp, 12			; 0000000cH
  00dd6	c6 45 fc 04	 mov	 BYTE PTR __$EHRec$[ebp+8], 4
  00dda	8d 8d 2c fe ff
	ff		 lea	 ecx, DWORD PTR $T88226[ebp]
  00de0	ff 15 00 00 00
	00		 call	 DWORD PTR __imp_??1?$basic_string@DU?$char_traits@D@std@@V?$allocator@D@2@@std@@QAE@XZ

; 264  : 
; 265  : 			DWORD dwFlags = GetFileAttributes (strFileName.c_str ());

  00de6	8d 8d 6c fe ff
	ff		 lea	 ecx, DWORD PTR _strFileName$83407[ebp]
  00dec	ff 15 00 00 00
	00		 call	 DWORD PTR __imp_?c_str@?$basic_string@DU?$char_traits@D@std@@V?$allocator@D@2@@std@@QBEPBDXZ
  00df2	50		 push	 eax
  00df3	ff 15 00 00 00
	00		 call	 DWORD PTR __imp__GetFileAttributesA@4
  00df9	89 85 88 fe ff
	ff		 mov	 DWORD PTR _dwFlags$83411[ebp], eax

; 266  : 			dwFlags &= ~FILE_ATTRIBUTE_READONLY;

  00dff	8b 95 88 fe ff
	ff		 mov	 edx, DWORD PTR _dwFlags$83411[ebp]
  00e05	83 e2 fe	 and	 edx, -2			; fffffffeH
  00e08	89 95 88 fe ff
	ff		 mov	 DWORD PTR _dwFlags$83411[ebp], edx

; 267  : 			SetFileAttributes (strFileName.c_str (), dwFlags);

  00e0e	8b 85 88 fe ff
	ff		 mov	 eax, DWORD PTR _dwFlags$83411[ebp]
  00e14	50		 push	 eax
  00e15	8d 8d 6c fe ff
	ff		 lea	 ecx, DWORD PTR _strFileName$83407[ebp]
  00e1b	ff 15 00 00 00
	00		 call	 DWORD PTR __imp_?c_str@?$basic_string@DU?$char_traits@D@std@@V?$allocator@D@2@@std@@QBEPBDXZ
  00e21	50		 push	 eax
  00e22	ff 15 00 00 00
	00		 call	 DWORD PTR __imp__SetFileAttributesA@8

; 268  : 
; 269  : 			if( strExe == "")

  00e28	68 00 00 00 00	 push	 OFFSET FLAT:$SG83413
  00e2d	8b 4d 0c	 mov	 ecx, DWORD PTR _strExe$[ebp]
  00e30	51		 push	 ecx
  00e31	ff 15 00 00 00
	00		 call	 DWORD PTR __imp_??$?8DU?$char_traits@D@std@@V?$allocator@D@1@@std@@YA_NABV?$basic_string@DU?$char_traits@D@std@@V?$allocator@D@2@@0@PBD@Z
  00e37	83 c4 08	 add	 esp, 8
  00e3a	0f b6 d0	 movzx	 edx, al
  00e3d	85 d2		 test	 edx, edx
  00e3f	74 5e		 je	 SHORT $L83412

; 270  : 			{
; 271  : 				if( ::DeleteFile(strFileName.c_str()) == 0 )

  00e41	8d 8d 6c fe ff
	ff		 lea	 ecx, DWORD PTR _strFileName$83407[ebp]
  00e47	ff 15 00 00 00
	00		 call	 DWORD PTR __imp_?c_str@?$basic_string@DU?$char_traits@D@std@@V?$allocator@D@2@@std@@QBEPBDXZ
  00e4d	50		 push	 eax
  00e4e	ff 15 00 00 00
	00		 call	 DWORD PTR __imp__DeleteFileA@4
  00e54	85 c0		 test	 eax, eax
  00e56	75 42		 jne	 SHORT $L83414

; 272  : 				{
; 273  : 					FindClose( hFind );

  00e58	8b 85 8c fe ff
	ff		 mov	 eax, DWORD PTR _hFind$[ebp]
  00e5e	50		 push	 eax
  00e5f	ff 15 00 00 00
	00		 call	 DWORD PTR __imp__FindClose@4

; 274  : 					return false;

  00e65	c6 85 2b fe ff
	ff 00		 mov	 BYTE PTR $T88227[ebp], 0
  00e6c	c6 45 fc 00	 mov	 BYTE PTR __$EHRec$[ebp+8], 0
  00e70	8d 8d 6c fe ff
	ff		 lea	 ecx, DWORD PTR _strFileName$83407[ebp]
  00e76	ff 15 00 00 00
	00		 call	 DWORD PTR __imp_??1?$basic_string@DU?$char_traits@D@std@@V?$allocator@D@2@@std@@QAE@XZ
  00e7c	c7 45 fc ff ff
	ff ff		 mov	 DWORD PTR __$EHRec$[ebp+8], -1
  00e83	8d 8d 90 fe ff
	ff		 lea	 ecx, DWORD PTR _dir$[ebp]
  00e89	ff 15 00 00 00
	00		 call	 DWORD PTR __imp_??1?$basic_string@DU?$char_traits@D@std@@V?$allocator@D@2@@std@@QAE@XZ
  00e8f	8a 85 2b fe ff
	ff		 mov	 al, BYTE PTR $T88227[ebp]
  00e95	e9 48 01 00 00	 jmp	 $L83388
$L83414:

; 275  : 				}
; 276  : 			}
; 277  : 			else 

  00e9a	e9 b4 00 00 00	 jmp	 $L83416
$L83412:

; 278  : 			{
; 279  : 				char* pTmp = strstr(FindFileData.cFileName,strExe.c_str());

  00e9f	8b 4d 0c	 mov	 ecx, DWORD PTR _strExe$[ebp]
  00ea2	ff 15 00 00 00
	00		 call	 DWORD PTR __imp_?c_str@?$basic_string@DU?$char_traits@D@std@@V?$allocator@D@2@@std@@QBEPBDXZ
  00ea8	50		 push	 eax
  00ea9	8d 8d d8 fe ff
	ff		 lea	 ecx, DWORD PTR _FindFileData$[ebp+44]
  00eaf	51		 push	 ecx
  00eb0	ff 15 00 00 00
	00		 call	 DWORD PTR __imp__strstr
  00eb6	83 c4 08	 add	 esp, 8
  00eb9	89 85 68 fe ff
	ff		 mov	 DWORD PTR _pTmp$83417[ebp], eax

; 280  : 				if( pTmp != NULL && 
; 281  : 					( strlen( FindFileData.cFileName) - (pTmp - FindFileData.cFileName) ) == strExe.length() )

  00ebf	83 bd 68 fe ff
	ff 00		 cmp	 DWORD PTR _pTmp$83417[ebp], 0
  00ec6	0f 84 87 00 00
	00		 je	 $L83416
  00ecc	8d 95 d8 fe ff
	ff		 lea	 edx, DWORD PTR _FindFileData$[ebp+44]
  00ed2	52		 push	 edx
  00ed3	e8 00 00 00 00	 call	 _strlen
  00ed8	83 c4 04	 add	 esp, 4
  00edb	8b f0		 mov	 esi, eax
  00edd	8b 85 68 fe ff
	ff		 mov	 eax, DWORD PTR _pTmp$83417[ebp]
  00ee3	8d 8d d8 fe ff
	ff		 lea	 ecx, DWORD PTR _FindFileData$[ebp+44]
  00ee9	2b c1		 sub	 eax, ecx
  00eeb	2b f0		 sub	 esi, eax
  00eed	8b 4d 0c	 mov	 ecx, DWORD PTR _strExe$[ebp]
  00ef0	ff 15 00 00 00
	00		 call	 DWORD PTR __imp_?length@?$basic_string@DU?$char_traits@D@std@@V?$allocator@D@2@@std@@QBEIXZ
  00ef6	3b f0		 cmp	 esi, eax
  00ef8	75 59		 jne	 SHORT $L83416

; 282  : 				{
; 283  : 					if( ::DeleteFile(strFileName.c_str()) == 0 )

  00efa	8d 8d 6c fe ff
	ff		 lea	 ecx, DWORD PTR _strFileName$83407[ebp]
  00f00	ff 15 00 00 00
	00		 call	 DWORD PTR __imp_?c_str@?$basic_string@DU?$char_traits@D@std@@V?$allocator@D@2@@std@@QBEPBDXZ
  00f06	50		 push	 eax
  00f07	ff 15 00 00 00
	00		 call	 DWORD PTR __imp__DeleteFileA@4
  00f0d	85 c0		 test	 eax, eax
  00f0f	75 42		 jne	 SHORT $L83416

; 284  : 					{
; 285  : 						FindClose( hFind );

  00f11	8b 95 8c fe ff
	ff		 mov	 edx, DWORD PTR _hFind$[ebp]
  00f17	52		 push	 edx
  00f18	ff 15 00 00 00
	00		 call	 DWORD PTR __imp__FindClose@4

; 286  : 						return false;

  00f1e	c6 85 2a fe ff
	ff 00		 mov	 BYTE PTR $T88228[ebp], 0
  00f25	c6 45 fc 00	 mov	 BYTE PTR __$EHRec$[ebp+8], 0
  00f29	8d 8d 6c fe ff
	ff		 lea	 ecx, DWORD PTR _strFileName$83407[ebp]
  00f2f	ff 15 00 00 00
	00		 call	 DWORD PTR __imp_??1?$basic_string@DU?$char_traits@D@std@@V?$allocator@D@2@@std@@QAE@XZ
  00f35	c7 45 fc ff ff
	ff ff		 mov	 DWORD PTR __$EHRec$[ebp+8], -1
  00f3c	8d 8d 90 fe ff
	ff		 lea	 ecx, DWORD PTR _dir$[ebp]
  00f42	ff 15 00 00 00
	00		 call	 DWORD PTR __imp_??1?$basic_string@DU?$char_traits@D@std@@V?$allocator@D@2@@std@@QAE@XZ
  00f48	8a 85 2a fe ff
	ff		 mov	 al, BYTE PTR $T88228[ebp]
  00f4e	e9 8f 00 00 00	 jmp	 $L83388
$L83416:

; 287  : 					}
; 288  : 				}
; 289  : 			}
; 290  : 			
; 291  : 		}

  00f53	c6 45 fc 00	 mov	 BYTE PTR __$EHRec$[ebp+8], 0
  00f57	8d 8d 6c fe ff
	ff		 lea	 ecx, DWORD PTR _strFileName$83407[ebp]
  00f5d	ff 15 00 00 00
	00		 call	 DWORD PTR __imp_??1?$basic_string@DU?$char_traits@D@std@@V?$allocator@D@2@@std@@QAE@XZ
$L83401:

; 292  : 	}while(FindNextFile(hFind, &FindFileData));

  00f63	8d 85 ac fe ff
	ff		 lea	 eax, DWORD PTR _FindFileData$[ebp]
  00f69	50		 push	 eax
  00f6a	8b 8d 8c fe ff
	ff		 mov	 ecx, DWORD PTR _hFind$[ebp]
  00f70	51		 push	 ecx
  00f71	ff 15 00 00 00
	00		 call	 DWORD PTR __imp__FindNextFileA@8
  00f77	85 c0		 test	 eax, eax
  00f79	0f 85 c4 fd ff
	ff		 jne	 $L83400

; 293  : 	
; 294  : 	FindClose( hFind );	

  00f7f	8b 95 8c fe ff
	ff		 mov	 edx, DWORD PTR _hFind$[ebp]
  00f85	52		 push	 edx
  00f86	ff 15 00 00 00
	00		 call	 DWORD PTR __imp__FindClose@4

; 295  : 
; 296  : 	if(::RemoveDirectory(strDirName.c_str()) == FALSE)

  00f8c	8b 4d 08	 mov	 ecx, DWORD PTR _strDirName$[ebp]
  00f8f	ff 15 00 00 00
	00		 call	 DWORD PTR __imp_?c_str@?$basic_string@DU?$char_traits@D@std@@V?$allocator@D@2@@std@@QBEPBDXZ
  00f95	50		 push	 eax
  00f96	ff 15 00 00 00
	00		 call	 DWORD PTR __imp__RemoveDirectoryA@4
  00f9c	85 c0		 test	 eax, eax
  00f9e	75 22		 jne	 SHORT $L83421

; 297  : 	{
; 298  : 		return false;

  00fa0	c6 85 29 fe ff
	ff 00		 mov	 BYTE PTR $T88229[ebp], 0
  00fa7	c7 45 fc ff ff
	ff ff		 mov	 DWORD PTR __$EHRec$[ebp+8], -1
  00fae	8d 8d 90 fe ff
	ff		 lea	 ecx, DWORD PTR _dir$[ebp]
  00fb4	ff 15 00 00 00
	00		 call	 DWORD PTR __imp_??1?$basic_string@DU?$char_traits@D@std@@V?$allocator@D@2@@std@@QAE@XZ
  00fba	8a 85 29 fe ff
	ff		 mov	 al, BYTE PTR $T88229[ebp]
  00fc0	eb 20		 jmp	 SHORT $L83388
$L83421:

; 299  : 	}
; 300  : 	return true;

  00fc2	c6 85 28 fe ff
	ff 01		 mov	 BYTE PTR $T88230[ebp], 1
  00fc9	c7 45 fc ff ff
	ff ff		 mov	 DWORD PTR __$EHRec$[ebp+8], -1
  00fd0	8d 8d 90 fe ff
	ff		 lea	 ecx, DWORD PTR _dir$[ebp]
  00fd6	ff 15 00 00 00
	00		 call	 DWORD PTR __imp_??1?$basic_string@DU?$char_traits@D@std@@V?$allocator@D@2@@std@@QAE@XZ
  00fdc	8a 85 28 fe ff
	ff		 mov	 al, BYTE PTR $T88230[ebp]
$L83388:

; 301  : }

  00fe2	8b 4d f4	 mov	 ecx, DWORD PTR __$EHRec$[ebp]
  00fe5	64 89 0d 00 00
	00 00		 mov	 DWORD PTR fs:__except_list, ecx
  00fec	8b 4d f0	 mov	 ecx, DWORD PTR __$ArrayPad$[ebp]
  00fef	e8 00 00 00 00	 call	 @__security_check_cookie@4
  00ff4	5e		 pop	 esi
  00ff5	8b e5		 mov	 esp, ebp
  00ff7	5d		 pop	 ebp
  00ff8	c3		 ret	 0
_TEXT	ENDS
text$x	SEGMENT
$L88231:
  0010f	8d 8d 90 fe ff
	ff		 lea	 ecx, DWORD PTR _dir$[ebp]
  00115	ff 25 00 00 00
	00		 jmp	 DWORD PTR __imp_??1?$basic_string@DU?$char_traits@D@std@@V?$allocator@D@2@@std@@QAE@XZ
$L88232:
  0011b	8d 8d 4c fe ff
	ff		 lea	 ecx, DWORD PTR $T88224[ebp]
  00121	ff 25 00 00 00
	00		 jmp	 DWORD PTR __imp_??1?$basic_string@DU?$char_traits@D@std@@V?$allocator@D@2@@std@@QAE@XZ
$L88233:
  00127	8d 8d 2c fe ff
	ff		 lea	 ecx, DWORD PTR $T88226[ebp]
  0012d	ff 25 00 00 00
	00		 jmp	 DWORD PTR __imp_??1?$basic_string@DU?$char_traits@D@std@@V?$allocator@D@2@@std@@QAE@XZ
$L88234:
  00133	8d 8d 6c fe ff
	ff		 lea	 ecx, DWORD PTR _strFileName$83407[ebp]
  00139	ff 25 00 00 00
	00		 jmp	 DWORD PTR __imp_??1?$basic_string@DU?$char_traits@D@std@@V?$allocator@D@2@@std@@QAE@XZ
__ehhandler$?ClearDir@YL_DirInfo@@SA_NABV?$basic_string@DU?$char_traits@D@std@@V?$allocator@D@2@@std@@0@Z:
  0013f	b8 00 00 00 00	 mov	 eax, OFFSET FLAT:$T88236
  00144	e9 00 00 00 00	 jmp	 ___CxxFrameHandler
text$x	ENDS
?ClearDir@YL_DirInfo@@SA_NABV?$basic_string@DU?$char_traits@D@std@@V?$allocator@D@2@@std@@0@Z ENDP ; YL_DirInfo::ClearDir
PUBLIC	??A?$vector@V?$basic_string@DU?$char_traits@D@std@@V?$allocator@D@2@@std@@V?$allocator@V?$basic_string@DU?$char_traits@D@std@@V?$allocator@D@2@@std@@@2@@std@@QBEABV?$basic_string@DU?$char_traits@D@std@@V?$allocator@D@2@@1@I@Z ; std::vector<std::basic_string<char,std::char_traits<char>,std::allocator<char> >,std::allocator<std::basic_string<char,std::char_traits<char>,std::allocator<char> > > >::operator[]
EXTRN	?Str2Lower@YL_StringUtil@@SAXAAV?$basic_string@DU?$char_traits@D@std@@V?$allocator@D@2@@std@@@Z:NEAR ; YL_StringUtil::Str2Lower
EXTRN	__imp_??0?$basic_string@DU?$char_traits@D@std@@V?$allocator@D@2@@std@@QAE@ABV01@@Z:NEAR
xdata$x	SEGMENT
$T88272	DD	0ffffffffH
	DD	FLAT:$L88255
	DD	00H
	DD	FLAT:$L88256
	DD	00H
	DD	FLAT:$L88257
	DD	00H
	DD	FLAT:$L88258
	DD	03H
	DD	FLAT:$L88259
	DD	00H
	DD	FLAT:$L88260
	DD	05H
	DD	FLAT:$L88261
	DD	06H
	DD	FLAT:$L88262
	DD	07H
	DD	FLAT:$L88263
	DD	00H
	DD	FLAT:$L88264
	DD	09H
	DD	FLAT:$L88265
	DD	00H
	DD	FLAT:$L88266
	DD	0bH
	DD	FLAT:$L88267
$T88269	DD	019930520H
	DD	0dH
	DD	FLAT:$T88272
	DD	2 DUP(00H)
	DD	2 DUP(00H)
; Function compile flags: /Odt
xdata$x	ENDS
_TEXT	SEGMENT
tv277 = -804						; size = 4
tv285 = -800						; size = 4
tv275 = -796						; size = 4
tv284 = -792						; size = 4
tv273 = -788						; size = 4
tv283 = -784						; size = 4
tv271 = -780						; size = 4
tv282 = -776						; size = 4
tv269 = -772						; size = 4
tv151 = -768						; size = 4
tv267 = -764						; size = 4
tv156 = -760						; size = 4
tv263 = -756						; size = 4
tv281 = -752						; size = 4
tv261 = -748						; size = 4
tv280 = -744						; size = 4
tv258 = -740						; size = 4
tv279 = -736						; size = 4
tv256 = -732						; size = 4
tv65 = -728						; size = 4
$T88254 = -721						; size = 1
$T88253 = -720						; size = 28
$T88252 = -692						; size = 28
$T88251 = -661						; size = 1
$T88250 = -660						; size = 28
$T88249 = -632						; size = 28
$T88248 = -604						; size = 28
$T88247 = -576						; size = 28
$T88246 = -548						; size = 28
$T88245 = -520						; size = 28
$T88244 = -489						; size = 1
$T88243 = -488						; size = 28
$T88242 = -460						; size = 28
_pTmp$83463 = -432					; size = 4
_idx$83459 = -428					; size = 4
_strName$83457 = -424					; size = 28
_strExe$83458 = -396					; size = 28
_hFind$ = -368						; size = 4
_FindFileData$ = -364					; size = 320
_strDirName$ = -44					; size = 28
__$ArrayPad$ = -16					; size = 4
__$EHRec$ = -12						; size = 12
__$ReturnAddr$ = 4					; size = 4
_strDirNameSrc$ = 8					; size = 4
_pvecDir$ = 12						; size = 4
_pvecFile$ = 16						; size = 4
_bRecursion$ = 20					; size = 1
_vFileExe$ = 24						; size = 4
?FindFileAndDir@YL_DirInfo@@SA_NABV?$basic_string@DU?$char_traits@D@std@@V?$allocator@D@2@@std@@PAV?$vector@V?$basic_string@DU?$char_traits@D@std@@V?$allocator@D@2@@std@@V?$allocator@V?$basic_string@DU?$char_traits@D@std@@V?$allocator@D@2@@std@@@2@@3@1_NPBV43@@Z PROC NEAR ; YL_DirInfo::FindFileAndDir

; 304  : {

  01000	55		 push	 ebp
  01001	8b ec		 mov	 ebp, esp
  01003	6a ff		 push	 -1
  01005	68 00 00 00 00	 push	 __ehhandler$?FindFileAndDir@YL_DirInfo@@SA_NABV?$basic_string@DU?$char_traits@D@std@@V?$allocator@D@2@@std@@PAV?$vector@V?$basic_string@DU?$char_traits@D@std@@V?$allocator@D@2@@std@@V?$allocator@V?$basic_string@DU?$char_traits@D@std@@V?$allocator@D@2@@std@@@2@@3@1_NPBV43@@Z
  0100a	64 a1 00 00 00
	00		 mov	 eax, DWORD PTR fs:__except_list
  01010	50		 push	 eax
  01011	64 89 25 00 00
	00 00		 mov	 DWORD PTR fs:__except_list, esp
  01018	81 ec 18 03 00
	00		 sub	 esp, 792		; 00000318H
  0101e	a1 00 00 00 00	 mov	 eax, DWORD PTR ___security_cookie
  01023	89 45 f0	 mov	 DWORD PTR __$ArrayPad$[ebp], eax
  01026	56		 push	 esi

; 305  : 	WIN32_FIND_DATA FindFileData;
; 306  : 	HANDLE hFind = INVALID_HANDLE_VALUE;

  01027	c7 85 90 fe ff
	ff ff ff ff ff	 mov	 DWORD PTR _hFind$[ebp], -1

; 307  : 	string strDirName = strDirNameSrc;

  01031	8b 45 08	 mov	 eax, DWORD PTR _strDirNameSrc$[ebp]
  01034	50		 push	 eax
  01035	8d 4d d4	 lea	 ecx, DWORD PTR _strDirName$[ebp]
  01038	ff 15 00 00 00
	00		 call	 DWORD PTR __imp_??0?$basic_string@DU?$char_traits@D@std@@V?$allocator@D@2@@std@@QAE@ABV01@@Z
  0103e	c7 45 fc 00 00
	00 00		 mov	 DWORD PTR __$EHRec$[ebp+8], 0

; 308  : 	if( strDirName.find_last_of("\\") == strDirName.length()-1)

  01045	8b 0d 00 00 00
	00		 mov	 ecx, DWORD PTR __imp_?npos@?$basic_string@DU?$char_traits@D@std@@V?$allocator@D@2@@std@@2IB
  0104b	8b 11		 mov	 edx, DWORD PTR [ecx]
  0104d	52		 push	 edx
  0104e	68 00 00 00 00	 push	 OFFSET FLAT:$SG83440
  01053	8d 4d d4	 lea	 ecx, DWORD PTR _strDirName$[ebp]
  01056	ff 15 00 00 00
	00		 call	 DWORD PTR __imp_?find_last_of@?$basic_string@DU?$char_traits@D@std@@V?$allocator@D@2@@std@@QBEIPBDI@Z
  0105c	8b f0		 mov	 esi, eax
  0105e	8d 4d d4	 lea	 ecx, DWORD PTR _strDirName$[ebp]
  01061	ff 15 00 00 00
	00		 call	 DWORD PTR __imp_?length@?$basic_string@DU?$char_traits@D@std@@V?$allocator@D@2@@std@@QBEIXZ
  01067	83 e8 01	 sub	 eax, 1
  0106a	3b f0		 cmp	 esi, eax
  0106c	75 55		 jne	 SHORT $L83439

; 309  : 	{
; 310  : 		strDirName = strDirName.substr(0,strDirName.length()-1);

  0106e	8d 4d d4	 lea	 ecx, DWORD PTR _strDirName$[ebp]
  01071	ff 15 00 00 00
	00		 call	 DWORD PTR __imp_?length@?$basic_string@DU?$char_traits@D@std@@V?$allocator@D@2@@std@@QBEIXZ
  01077	83 e8 01	 sub	 eax, 1
  0107a	50		 push	 eax
  0107b	6a 00		 push	 0
  0107d	8d 85 34 fe ff
	ff		 lea	 eax, DWORD PTR $T88242[ebp]
  01083	50		 push	 eax
  01084	8d 4d d4	 lea	 ecx, DWORD PTR _strDirName$[ebp]
  01087	ff 15 00 00 00
	00		 call	 DWORD PTR __imp_?substr@?$basic_string@DU?$char_traits@D@std@@V?$allocator@D@2@@std@@QBE?AV12@II@Z
  0108d	89 85 28 fd ff
	ff		 mov	 DWORD PTR tv65[ebp], eax
  01093	8b 8d 28 fd ff
	ff		 mov	 ecx, DWORD PTR tv65[ebp]
  01099	89 8d 24 fd ff
	ff		 mov	 DWORD PTR tv256[ebp], ecx
  0109f	c6 45 fc 01	 mov	 BYTE PTR __$EHRec$[ebp+8], 1
  010a3	8b 95 24 fd ff
	ff		 mov	 edx, DWORD PTR tv256[ebp]
  010a9	52		 push	 edx
  010aa	8d 4d d4	 lea	 ecx, DWORD PTR _strDirName$[ebp]
  010ad	ff 15 00 00 00
	00		 call	 DWORD PTR __imp_??4?$basic_string@DU?$char_traits@D@std@@V?$allocator@D@2@@std@@QAEAAV01@ABV01@@Z
  010b3	c6 45 fc 00	 mov	 BYTE PTR __$EHRec$[ebp+8], 0
  010b7	8d 8d 34 fe ff
	ff		 lea	 ecx, DWORD PTR $T88242[ebp]
  010bd	ff 15 00 00 00
	00		 call	 DWORD PTR __imp_??1?$basic_string@DU?$char_traits@D@std@@V?$allocator@D@2@@std@@QAE@XZ
$L83439:

; 311  : 	}
; 312  : 
; 313  : 	//find a file	
; 314  : 	hFind = FindFirstFile((strDirName + "\\*").c_str(), &FindFileData);	

  010c3	68 00 00 00 00	 push	 OFFSET FLAT:$SG83443
  010c8	8d 45 d4	 lea	 eax, DWORD PTR _strDirName$[ebp]
  010cb	50		 push	 eax
  010cc	8d 8d 18 fe ff
	ff		 lea	 ecx, DWORD PTR $T88243[ebp]
  010d2	51		 push	 ecx
  010d3	e8 00 00 00 00	 call	 ??$?HDU?$char_traits@D@std@@V?$allocator@D@1@@std@@YA?AV?$basic_string@DU?$char_traits@D@std@@V?$allocator@D@2@@0@ABV10@PBD@Z ; std::operator+<char,std::char_traits<char>,std::allocator<char> >
  010d8	83 c4 0c	 add	 esp, 12			; 0000000cH
  010db	89 85 20 fd ff
	ff		 mov	 DWORD PTR tv279[ebp], eax
  010e1	8b 95 20 fd ff
	ff		 mov	 edx, DWORD PTR tv279[ebp]
  010e7	89 95 1c fd ff
	ff		 mov	 DWORD PTR tv258[ebp], edx
  010ed	c6 45 fc 02	 mov	 BYTE PTR __$EHRec$[ebp+8], 2
  010f1	8d 85 94 fe ff
	ff		 lea	 eax, DWORD PTR _FindFileData$[ebp]
  010f7	50		 push	 eax
  010f8	8b 8d 1c fd ff
	ff		 mov	 ecx, DWORD PTR tv258[ebp]
  010fe	ff 15 00 00 00
	00		 call	 DWORD PTR __imp_?c_str@?$basic_string@DU?$char_traits@D@std@@V?$allocator@D@2@@std@@QBEPBDXZ
  01104	50		 push	 eax
  01105	ff 15 00 00 00
	00		 call	 DWORD PTR __imp__FindFirstFileA@8
  0110b	89 85 90 fe ff
	ff		 mov	 DWORD PTR _hFind$[ebp], eax
  01111	c6 45 fc 00	 mov	 BYTE PTR __$EHRec$[ebp+8], 0
  01115	8d 8d 18 fe ff
	ff		 lea	 ecx, DWORD PTR $T88243[ebp]
  0111b	ff 15 00 00 00
	00		 call	 DWORD PTR __imp_??1?$basic_string@DU?$char_traits@D@std@@V?$allocator@D@2@@std@@QAE@XZ

; 315  : 
; 316  : 	if(hFind == INVALID_HANDLE_VALUE)

  01121	83 bd 90 fe ff
	ff ff		 cmp	 DWORD PTR _hFind$[ebp], -1
  01128	75 22		 jne	 SHORT $L83448

; 317  : 	{
; 318  : 		return false;

  0112a	c6 85 17 fe ff
	ff 00		 mov	 BYTE PTR $T88244[ebp], 0
  01131	c7 45 fc ff ff
	ff ff		 mov	 DWORD PTR __$EHRec$[ebp+8], -1
  01138	8d 4d d4	 lea	 ecx, DWORD PTR _strDirName$[ebp]
  0113b	ff 15 00 00 00
	00		 call	 DWORD PTR __imp_??1?$basic_string@DU?$char_traits@D@std@@V?$allocator@D@2@@std@@QAE@XZ
  01141	8a 85 17 fe ff
	ff		 mov	 al, BYTE PTR $T88244[ebp]
  01147	e9 46 04 00 00	 jmp	 $L83433
$L83448:

; 319  : 	}
; 320  : 	//find all files and dirs
; 321  : 	do{
; 322  : 		if (!(FindFileData.dwFileAttributes & FILE_ATTRIBUTE_DIRECTORY) && pvecFile  )

  0114c	8b 8d 94 fe ff
	ff		 mov	 ecx, DWORD PTR _FindFileData$[ebp]
  01152	83 e1 10	 and	 ecx, 16			; 00000010H
  01155	0f 85 55 02 00
	00		 jne	 $L83451
  0115b	83 7d 10 00	 cmp	 DWORD PTR _pvecFile$[ebp], 0
  0115f	0f 84 4b 02 00
	00		 je	 $L83451

; 323  : 		{
; 324  : 			if( vFileExe == NULL )

  01165	83 7d 18 00	 cmp	 DWORD PTR _vFileExe$[ebp], 0
  01169	0f 85 95 00 00
	00		 jne	 $L83452

; 325  : 			{
; 326  : 				(*pvecFile).push_back(strDirName + "\\" + FindFileData.cFileName);

  0116f	68 00 00 00 00	 push	 OFFSET FLAT:$SG83455
  01174	8d 55 d4	 lea	 edx, DWORD PTR _strDirName$[ebp]
  01177	52		 push	 edx
  01178	8d 85 f8 fd ff
	ff		 lea	 eax, DWORD PTR $T88245[ebp]
  0117e	50		 push	 eax
  0117f	e8 00 00 00 00	 call	 ??$?HDU?$char_traits@D@std@@V?$allocator@D@1@@std@@YA?AV?$basic_string@DU?$char_traits@D@std@@V?$allocator@D@2@@0@ABV10@PBD@Z ; std::operator+<char,std::char_traits<char>,std::allocator<char> >
  01184	83 c4 0c	 add	 esp, 12			; 0000000cH
  01187	89 85 18 fd ff
	ff		 mov	 DWORD PTR tv280[ebp], eax
  0118d	8b 8d 18 fd ff
	ff		 mov	 ecx, DWORD PTR tv280[ebp]
  01193	89 8d 14 fd ff
	ff		 mov	 DWORD PTR tv261[ebp], ecx
  01199	c6 45 fc 03	 mov	 BYTE PTR __$EHRec$[ebp+8], 3
  0119d	8d 95 c0 fe ff
	ff		 lea	 edx, DWORD PTR _FindFileData$[ebp+44]
  011a3	52		 push	 edx
  011a4	8b 85 14 fd ff
	ff		 mov	 eax, DWORD PTR tv261[ebp]
  011aa	50		 push	 eax
  011ab	8d 8d dc fd ff
	ff		 lea	 ecx, DWORD PTR $T88246[ebp]
  011b1	51		 push	 ecx
  011b2	e8 00 00 00 00	 call	 ??$?HDU?$char_traits@D@std@@V?$allocator@D@1@@std@@YA?AV?$basic_string@DU?$char_traits@D@std@@V?$allocator@D@2@@0@ABV10@PBD@Z ; std::operator+<char,std::char_traits<char>,std::allocator<char> >
  011b7	83 c4 0c	 add	 esp, 12			; 0000000cH
  011ba	89 85 10 fd ff
	ff		 mov	 DWORD PTR tv281[ebp], eax
  011c0	8b 95 10 fd ff
	ff		 mov	 edx, DWORD PTR tv281[ebp]
  011c6	89 95 0c fd ff
	ff		 mov	 DWORD PTR tv263[ebp], edx
  011cc	c6 45 fc 04	 mov	 BYTE PTR __$EHRec$[ebp+8], 4
  011d0	8b 85 0c fd ff
	ff		 mov	 eax, DWORD PTR tv263[ebp]
  011d6	50		 push	 eax
  011d7	8b 4d 10	 mov	 ecx, DWORD PTR _pvecFile$[ebp]
  011da	e8 00 00 00 00	 call	 ?push_back@?$vector@V?$basic_string@DU?$char_traits@D@std@@V?$allocator@D@2@@std@@V?$allocator@V?$basic_string@DU?$char_traits@D@std@@V?$allocator@D@2@@std@@@2@@std@@QAEXABV?$basic_string@DU?$char_traits@D@std@@V?$allocator@D@2@@2@@Z ; std::vector<std::basic_string<char,std::char_traits<char>,std::allocator<char> >,std::allocator<std::basic_string<char,std::char_traits<char>,std::allocator<char> > > >::push_back
  011df	c6 45 fc 03	 mov	 BYTE PTR __$EHRec$[ebp+8], 3
  011e3	8d 8d dc fd ff
	ff		 lea	 ecx, DWORD PTR $T88246[ebp]
  011e9	ff 15 00 00 00
	00		 call	 DWORD PTR __imp_??1?$basic_string@DU?$char_traits@D@std@@V?$allocator@D@2@@std@@QAE@XZ
  011ef	c6 45 fc 00	 mov	 BYTE PTR __$EHRec$[ebp+8], 0
  011f3	8d 8d f8 fd ff
	ff		 lea	 ecx, DWORD PTR $T88245[ebp]
  011f9	ff 15 00 00 00
	00		 call	 DWORD PTR __imp_??1?$basic_string@DU?$char_traits@D@std@@V?$allocator@D@2@@std@@QAE@XZ

; 327  : 			}
; 328  : 			else 

  011ff	e9 a7 01 00 00	 jmp	 $L83456
$L83452:

; 329  : 			{
; 330  : 				string strName = FindFileData.cFileName;

  01204	8d 8d c0 fe ff
	ff		 lea	 ecx, DWORD PTR _FindFileData$[ebp+44]
  0120a	51		 push	 ecx
  0120b	8d 8d 58 fe ff
	ff		 lea	 ecx, DWORD PTR _strName$83457[ebp]
  01211	ff 15 00 00 00
	00		 call	 DWORD PTR __imp_??0?$basic_string@DU?$char_traits@D@std@@V?$allocator@D@2@@std@@QAE@PBD@Z
  01217	c6 45 fc 05	 mov	 BYTE PTR __$EHRec$[ebp+8], 5

; 331  : 				YL_StringUtil::Str2Lower( strName );

  0121b	8d 95 58 fe ff
	ff		 lea	 edx, DWORD PTR _strName$83457[ebp]
  01221	52		 push	 edx
  01222	e8 00 00 00 00	 call	 ?Str2Lower@YL_StringUtil@@SAXAAV?$basic_string@DU?$char_traits@D@std@@V?$allocator@D@2@@std@@@Z ; YL_StringUtil::Str2Lower
  01227	83 c4 04	 add	 esp, 4

; 332  : 				string strExe;

  0122a	8d 8d 74 fe ff
	ff		 lea	 ecx, DWORD PTR _strExe$83458[ebp]
  01230	ff 15 00 00 00
	00		 call	 DWORD PTR __imp_??0?$basic_string@DU?$char_traits@D@std@@V?$allocator@D@2@@std@@QAE@XZ
  01236	c6 45 fc 06	 mov	 BYTE PTR __$EHRec$[ebp+8], 6

; 333  : 
; 334  : 				for(size_t idx = 0;idx < vFileExe->size();idx++ )

  0123a	c7 85 54 fe ff
	ff 00 00 00 00	 mov	 DWORD PTR _idx$83459[ebp], 0
  01244	eb 0f		 jmp	 SHORT $L83460
$L83461:
  01246	8b 85 54 fe ff
	ff		 mov	 eax, DWORD PTR _idx$83459[ebp]
  0124c	83 c0 01	 add	 eax, 1
  0124f	89 85 54 fe ff
	ff		 mov	 DWORD PTR _idx$83459[ebp], eax
$L83460:
  01255	8b 4d 18	 mov	 ecx, DWORD PTR _vFileExe$[ebp]
  01258	e8 00 00 00 00	 call	 ?size@?$vector@V?$basic_string@DU?$char_traits@D@std@@V?$allocator@D@2@@std@@V?$allocator@V?$basic_string@DU?$char_traits@D@std@@V?$allocator@D@2@@std@@@2@@std@@QBEIXZ ; std::vector<std::basic_string<char,std::char_traits<char>,std::allocator<char> >,std::allocator<std::basic_string<char,std::char_traits<char>,std::allocator<char> > > >::size
  0125d	39 85 54 fe ff
	ff		 cmp	 DWORD PTR _idx$83459[ebp], eax
  01263	0f 83 22 01 00
	00		 jae	 $L83462

; 335  : 				{
; 336  : 					strExe = (*vFileExe)[idx];

  01269	8b 8d 54 fe ff
	ff		 mov	 ecx, DWORD PTR _idx$83459[ebp]
  0126f	51		 push	 ecx
  01270	8b 4d 18	 mov	 ecx, DWORD PTR _vFileExe$[ebp]
  01273	e8 00 00 00 00	 call	 ??A?$vector@V?$basic_string@DU?$char_traits@D@std@@V?$allocator@D@2@@std@@V?$allocator@V?$basic_string@DU?$char_traits@D@std@@V?$allocator@D@2@@std@@@2@@std@@QBEABV?$basic_string@DU?$char_traits@D@std@@V?$allocator@D@2@@1@I@Z ; std::vector<std::basic_string<char,std::char_traits<char>,std::allocator<char> >,std::allocator<std::basic_string<char,std::char_traits<char>,std::allocator<char> > > >::operator[]
  01278	50		 push	 eax
  01279	8d 8d 74 fe ff
	ff		 lea	 ecx, DWORD PTR _strExe$83458[ebp]
  0127f	ff 15 00 00 00
	00		 call	 DWORD PTR __imp_??4?$basic_string@DU?$char_traits@D@std@@V?$allocator@D@2@@std@@QAEAAV01@ABV01@@Z

; 337  : 					char* pTmp = (char*)strstr( strName.c_str(),strExe.c_str());

  01285	8d 8d 74 fe ff
	ff		 lea	 ecx, DWORD PTR _strExe$83458[ebp]
  0128b	ff 15 00 00 00
	00		 call	 DWORD PTR __imp_?c_str@?$basic_string@DU?$char_traits@D@std@@V?$allocator@D@2@@std@@QBEPBDXZ
  01291	50		 push	 eax
  01292	8d 8d 58 fe ff
	ff		 lea	 ecx, DWORD PTR _strName$83457[ebp]
  01298	ff 15 00 00 00
	00		 call	 DWORD PTR __imp_?c_str@?$basic_string@DU?$char_traits@D@std@@V?$allocator@D@2@@std@@QBEPBDXZ
  0129e	50		 push	 eax
  0129f	ff 15 00 00 00
	00		 call	 DWORD PTR __imp__strstr
  012a5	83 c4 08	 add	 esp, 8
  012a8	89 85 50 fe ff
	ff		 mov	 DWORD PTR _pTmp$83463[ebp], eax

; 338  : 					if( pTmp != NULL && 
; 339  : 						( strlen( FindFileData.cFileName) - (pTmp - strName.c_str()) ) == strExe.length() )

  012ae	83 bd 50 fe ff
	ff 00		 cmp	 DWORD PTR _pTmp$83463[ebp], 0
  012b5	0f 84 cb 00 00
	00		 je	 $L83465
  012bb	8d 95 c0 fe ff
	ff		 lea	 edx, DWORD PTR _FindFileData$[ebp+44]
  012c1	52		 push	 edx
  012c2	e8 00 00 00 00	 call	 _strlen
  012c7	83 c4 04	 add	 esp, 4
  012ca	8b f0		 mov	 esi, eax
  012cc	8d 8d 58 fe ff
	ff		 lea	 ecx, DWORD PTR _strName$83457[ebp]
  012d2	ff 15 00 00 00
	00		 call	 DWORD PTR __imp_?c_str@?$basic_string@DU?$char_traits@D@std@@V?$allocator@D@2@@std@@QBEPBDXZ
  012d8	8b 8d 50 fe ff
	ff		 mov	 ecx, DWORD PTR _pTmp$83463[ebp]
  012de	2b c8		 sub	 ecx, eax
  012e0	2b f1		 sub	 esi, ecx
  012e2	8d 8d 74 fe ff
	ff		 lea	 ecx, DWORD PTR _strExe$83458[ebp]
  012e8	ff 15 00 00 00
	00		 call	 DWORD PTR __imp_?length@?$basic_string@DU?$char_traits@D@std@@V?$allocator@D@2@@std@@QBEIXZ
  012ee	3b f0		 cmp	 esi, eax
  012f0	0f 85 90 00 00
	00		 jne	 $L83465

; 340  : 					{
; 341  : 						(*pvecFile).push_back(strDirName + "\\" + FindFileData.cFileName);

  012f6	68 00 00 00 00	 push	 OFFSET FLAT:$SG83468
  012fb	8d 55 d4	 lea	 edx, DWORD PTR _strDirName$[ebp]
  012fe	52		 push	 edx
  012ff	8d 85 c0 fd ff
	ff		 lea	 eax, DWORD PTR $T88247[ebp]
  01305	50		 push	 eax
  01306	e8 00 00 00 00	 call	 ??$?HDU?$char_traits@D@std@@V?$allocator@D@1@@std@@YA?AV?$basic_string@DU?$char_traits@D@std@@V?$allocator@D@2@@0@ABV10@PBD@Z ; std::operator+<char,std::char_traits<char>,std::allocator<char> >
  0130b	83 c4 0c	 add	 esp, 12			; 0000000cH
  0130e	89 85 08 fd ff
	ff		 mov	 DWORD PTR tv156[ebp], eax
  01314	8b 8d 08 fd ff
	ff		 mov	 ecx, DWORD PTR tv156[ebp]
  0131a	89 8d 04 fd ff
	ff		 mov	 DWORD PTR tv267[ebp], ecx
  01320	c6 45 fc 07	 mov	 BYTE PTR __$EHRec$[ebp+8], 7
  01324	8d 95 c0 fe ff
	ff		 lea	 edx, DWORD PTR _FindFileData$[ebp+44]
  0132a	52		 push	 edx
  0132b	8b 85 04 fd ff
	ff		 mov	 eax, DWORD PTR tv267[ebp]
  01331	50		 push	 eax
  01332	8d 8d a4 fd ff
	ff		 lea	 ecx, DWORD PTR $T88248[ebp]
  01338	51		 push	 ecx
  01339	e8 00 00 00 00	 call	 ??$?HDU?$char_traits@D@std@@V?$allocator@D@1@@std@@YA?AV?$basic_string@DU?$char_traits@D@std@@V?$allocator@D@2@@0@ABV10@PBD@Z ; std::operator+<char,std::char_traits<char>,std::allocator<char> >
  0133e	83 c4 0c	 add	 esp, 12			; 0000000cH
  01341	89 85 00 fd ff
	ff		 mov	 DWORD PTR tv151[ebp], eax
  01347	8b 95 00 fd ff
	ff		 mov	 edx, DWORD PTR tv151[ebp]
  0134d	89 95 fc fc ff
	ff		 mov	 DWORD PTR tv269[ebp], edx
  01353	c6 45 fc 08	 mov	 BYTE PTR __$EHRec$[ebp+8], 8
  01357	8b 85 fc fc ff
	ff		 mov	 eax, DWORD PTR tv269[ebp]
  0135d	50		 push	 eax
  0135e	8b 4d 10	 mov	 ecx, DWORD PTR _pvecFile$[ebp]
  01361	e8 00 00 00 00	 call	 ?push_back@?$vector@V?$basic_string@DU?$char_traits@D@std@@V?$allocator@D@2@@std@@V?$allocator@V?$basic_string@DU?$char_traits@D@std@@V?$allocator@D@2@@std@@@2@@std@@QAEXABV?$basic_string@DU?$char_traits@D@std@@V?$allocator@D@2@@2@@Z ; std::vector<std::basic_string<char,std::char_traits<char>,std::allocator<char> >,std::allocator<std::basic_string<char,std::char_traits<char>,std::allocator<char> > > >::push_back
  01366	c6 45 fc 07	 mov	 BYTE PTR __$EHRec$[ebp+8], 7
  0136a	8d 8d a4 fd ff
	ff		 lea	 ecx, DWORD PTR $T88248[ebp]
  01370	ff 15 00 00 00
	00		 call	 DWORD PTR __imp_??1?$basic_string@DU?$char_traits@D@std@@V?$allocator@D@2@@std@@QAE@XZ
  01376	c6 45 fc 06	 mov	 BYTE PTR __$EHRec$[ebp+8], 6
  0137a	8d 8d c0 fd ff
	ff		 lea	 ecx, DWORD PTR $T88247[ebp]
  01380	ff 15 00 00 00
	00		 call	 DWORD PTR __imp_??1?$basic_string@DU?$char_traits@D@std@@V?$allocator@D@2@@std@@QAE@XZ
$L83465:

; 342  : 					}
; 343  : 				}

  01386	e9 bb fe ff ff	 jmp	 $L83461
$L83462:

; 344  : 			}

  0138b	c6 45 fc 05	 mov	 BYTE PTR __$EHRec$[ebp+8], 5
  0138f	8d 8d 74 fe ff
	ff		 lea	 ecx, DWORD PTR _strExe$83458[ebp]
  01395	ff 15 00 00 00
	00		 call	 DWORD PTR __imp_??1?$basic_string@DU?$char_traits@D@std@@V?$allocator@D@2@@std@@QAE@XZ
  0139b	c6 45 fc 00	 mov	 BYTE PTR __$EHRec$[ebp+8], 0
  0139f	8d 8d 58 fe ff
	ff		 lea	 ecx, DWORD PTR _strName$83457[ebp]
  013a5	ff 15 00 00 00
	00		 call	 DWORD PTR __imp_??1?$basic_string@DU?$char_traits@D@std@@V?$allocator@D@2@@std@@QAE@XZ
$L83456:

; 345  : 		}
; 346  : 		else

  013ab	e9 9b 01 00 00	 jmp	 $L83449
$L83451:

; 347  : 		{
; 348  : 			if (strcmp(FindFileData.cFileName,".") != 0 && strcmp(FindFileData.cFileName,"..") != 0 && FindFileData.dwFileAttributes & FILE_ATTRIBUTE_DIRECTORY )			

  013b0	68 00 00 00 00	 push	 OFFSET FLAT:$SG83471
  013b5	8d 8d c0 fe ff
	ff		 lea	 ecx, DWORD PTR _FindFileData$[ebp+44]
  013bb	51		 push	 ecx
  013bc	e8 00 00 00 00	 call	 _strcmp
  013c1	83 c4 08	 add	 esp, 8
  013c4	85 c0		 test	 eax, eax
  013c6	0f 84 7f 01 00
	00		 je	 $L83449
  013cc	68 00 00 00 00	 push	 OFFSET FLAT:$SG83472
  013d1	8d 95 c0 fe ff
	ff		 lea	 edx, DWORD PTR _FindFileData$[ebp+44]
  013d7	52		 push	 edx
  013d8	e8 00 00 00 00	 call	 _strcmp
  013dd	83 c4 08	 add	 esp, 8
  013e0	85 c0		 test	 eax, eax
  013e2	0f 84 63 01 00
	00		 je	 $L83449
  013e8	8b 85 94 fe ff
	ff		 mov	 eax, DWORD PTR _FindFileData$[ebp]
  013ee	83 e0 10	 and	 eax, 16			; 00000010H
  013f1	0f 84 54 01 00
	00		 je	 $L83449

; 349  : 			{
; 350  : 				if( pvecDir )

  013f7	83 7d 0c 00	 cmp	 DWORD PTR _pvecDir$[ebp], 0
  013fb	0f 84 90 00 00
	00		 je	 $L83473

; 351  : 				{
; 352  : 					(*pvecDir).push_back(strDirName + "\\" + FindFileData.cFileName);				

  01401	68 00 00 00 00	 push	 OFFSET FLAT:$SG83476
  01406	8d 4d d4	 lea	 ecx, DWORD PTR _strDirName$[ebp]
  01409	51		 push	 ecx
  0140a	8d 95 88 fd ff
	ff		 lea	 edx, DWORD PTR $T88249[ebp]
  01410	52		 push	 edx
  01411	e8 00 00 00 00	 call	 ??$?HDU?$char_traits@D@std@@V?$allocator@D@1@@std@@YA?AV?$basic_string@DU?$char_traits@D@std@@V?$allocator@D@2@@0@ABV10@PBD@Z ; std::operator+<char,std::char_traits<char>,std::allocator<char> >
  01416	83 c4 0c	 add	 esp, 12			; 0000000cH
  01419	89 85 f8 fc ff
	ff		 mov	 DWORD PTR tv282[ebp], eax
  0141f	8b 85 f8 fc ff
	ff		 mov	 eax, DWORD PTR tv282[ebp]
  01425	89 85 f4 fc ff
	ff		 mov	 DWORD PTR tv271[ebp], eax
  0142b	c6 45 fc 09	 mov	 BYTE PTR __$EHRec$[ebp+8], 9
  0142f	8d 8d c0 fe ff
	ff		 lea	 ecx, DWORD PTR _FindFileData$[ebp+44]
  01435	51		 push	 ecx
  01436	8b 95 f4 fc ff
	ff		 mov	 edx, DWORD PTR tv271[ebp]
  0143c	52		 push	 edx
  0143d	8d 85 6c fd ff
	ff		 lea	 eax, DWORD PTR $T88250[ebp]
  01443	50		 push	 eax
  01444	e8 00 00 00 00	 call	 ??$?HDU?$char_traits@D@std@@V?$allocator@D@1@@std@@YA?AV?$basic_string@DU?$char_traits@D@std@@V?$allocator@D@2@@0@ABV10@PBD@Z ; std::operator+<char,std::char_traits<char>,std::allocator<char> >
  01449	83 c4 0c	 add	 esp, 12			; 0000000cH
  0144c	89 85 f0 fc ff
	ff		 mov	 DWORD PTR tv283[ebp], eax
  01452	8b 8d f0 fc ff
	ff		 mov	 ecx, DWORD PTR tv283[ebp]
  01458	89 8d ec fc ff
	ff		 mov	 DWORD PTR tv273[ebp], ecx
  0145e	c6 45 fc 0a	 mov	 BYTE PTR __$EHRec$[ebp+8], 10 ; 0000000aH
  01462	8b 95 ec fc ff
	ff		 mov	 edx, DWORD PTR tv273[ebp]
  01468	52		 push	 edx
  01469	8b 4d 0c	 mov	 ecx, DWORD PTR _pvecDir$[ebp]
  0146c	e8 00 00 00 00	 call	 ?push_back@?$vector@V?$basic_string@DU?$char_traits@D@std@@V?$allocator@D@2@@std@@V?$allocator@V?$basic_string@DU?$char_traits@D@std@@V?$allocator@D@2@@std@@@2@@std@@QAEXABV?$basic_string@DU?$char_traits@D@std@@V?$allocator@D@2@@2@@Z ; std::vector<std::basic_string<char,std::char_traits<char>,std::allocator<char> >,std::allocator<std::basic_string<char,std::char_traits<char>,std::allocator<char> > > >::push_back
  01471	c6 45 fc 09	 mov	 BYTE PTR __$EHRec$[ebp+8], 9
  01475	8d 8d 6c fd ff
	ff		 lea	 ecx, DWORD PTR $T88250[ebp]
  0147b	ff 15 00 00 00
	00		 call	 DWORD PTR __imp_??1?$basic_string@DU?$char_traits@D@std@@V?$allocator@D@2@@std@@QAE@XZ
  01481	c6 45 fc 00	 mov	 BYTE PTR __$EHRec$[ebp+8], 0
  01485	8d 8d 88 fd ff
	ff		 lea	 ecx, DWORD PTR $T88249[ebp]
  0148b	ff 15 00 00 00
	00		 call	 DWORD PTR __imp_??1?$basic_string@DU?$char_traits@D@std@@V?$allocator@D@2@@std@@QAE@XZ
$L83473:

; 353  : 				}
; 354  : 
; 355  : 				if(bRecursion)

  01491	0f b6 45 14	 movzx	 eax, BYTE PTR _bRecursion$[ebp]
  01495	85 c0		 test	 eax, eax
  01497	0f 84 ae 00 00
	00		 je	 $L83449

; 356  : 				{
; 357  : 					if( !FindFileAndDir(strDirName + "\\" + FindFileData.cFileName, pvecDir,pvecFile, bRecursion, vFileExe) )

  0149d	68 00 00 00 00	 push	 OFFSET FLAT:$SG83482
  014a2	8d 4d d4	 lea	 ecx, DWORD PTR _strDirName$[ebp]
  014a5	51		 push	 ecx
  014a6	8d 95 4c fd ff
	ff		 lea	 edx, DWORD PTR $T88252[ebp]
  014ac	52		 push	 edx
  014ad	e8 00 00 00 00	 call	 ??$?HDU?$char_traits@D@std@@V?$allocator@D@1@@std@@YA?AV?$basic_string@DU?$char_traits@D@std@@V?$allocator@D@2@@0@ABV10@PBD@Z ; std::operator+<char,std::char_traits<char>,std::allocator<char> >
  014b2	83 c4 0c	 add	 esp, 12			; 0000000cH
  014b5	89 85 e8 fc ff
	ff		 mov	 DWORD PTR tv284[ebp], eax
  014bb	8b 85 e8 fc ff
	ff		 mov	 eax, DWORD PTR tv284[ebp]
  014c1	89 85 e4 fc ff
	ff		 mov	 DWORD PTR tv275[ebp], eax
  014c7	c6 45 fc 0b	 mov	 BYTE PTR __$EHRec$[ebp+8], 11 ; 0000000bH
  014cb	8d 8d c0 fe ff
	ff		 lea	 ecx, DWORD PTR _FindFileData$[ebp+44]
  014d1	51		 push	 ecx
  014d2	8b 95 e4 fc ff
	ff		 mov	 edx, DWORD PTR tv275[ebp]
  014d8	52		 push	 edx
  014d9	8d 85 30 fd ff
	ff		 lea	 eax, DWORD PTR $T88253[ebp]
  014df	50		 push	 eax
  014e0	e8 00 00 00 00	 call	 ??$?HDU?$char_traits@D@std@@V?$allocator@D@1@@std@@YA?AV?$basic_string@DU?$char_traits@D@std@@V?$allocator@D@2@@0@ABV10@PBD@Z ; std::operator+<char,std::char_traits<char>,std::allocator<char> >
  014e5	83 c4 0c	 add	 esp, 12			; 0000000cH
  014e8	89 85 e0 fc ff
	ff		 mov	 DWORD PTR tv285[ebp], eax
  014ee	8b 8d e0 fc ff
	ff		 mov	 ecx, DWORD PTR tv285[ebp]
  014f4	89 8d dc fc ff
	ff		 mov	 DWORD PTR tv277[ebp], ecx
  014fa	c6 45 fc 0c	 mov	 BYTE PTR __$EHRec$[ebp+8], 12 ; 0000000cH
  014fe	8b 55 18	 mov	 edx, DWORD PTR _vFileExe$[ebp]
  01501	52		 push	 edx
  01502	8a 45 14	 mov	 al, BYTE PTR _bRecursion$[ebp]
  01505	50		 push	 eax
  01506	8b 4d 10	 mov	 ecx, DWORD PTR _pvecFile$[ebp]
  01509	51		 push	 ecx
  0150a	8b 55 0c	 mov	 edx, DWORD PTR _pvecDir$[ebp]
  0150d	52		 push	 edx
  0150e	8b 85 dc fc ff
	ff		 mov	 eax, DWORD PTR tv277[ebp]
  01514	50		 push	 eax
  01515	e8 00 00 00 00	 call	 ?FindFileAndDir@YL_DirInfo@@SA_NABV?$basic_string@DU?$char_traits@D@std@@V?$allocator@D@2@@std@@PAV?$vector@V?$basic_string@DU?$char_traits@D@std@@V?$allocator@D@2@@std@@V?$allocator@V?$basic_string@DU?$char_traits@D@std@@V?$allocator@D@2@@std@@@2@@3@1_NPBV43@@Z ; YL_DirInfo::FindFileAndDir
  0151a	83 c4 14	 add	 esp, 20			; 00000014H
  0151d	0f b6 c8	 movzx	 ecx, al
  01520	f7 d9		 neg	 ecx
  01522	1b c9		 sbb	 ecx, ecx
  01524	41		 inc	 ecx
  01525	88 8d 6b fd ff
	ff		 mov	 BYTE PTR $T88251[ebp], cl
  0152b	c6 45 fc 0b	 mov	 BYTE PTR __$EHRec$[ebp+8], 11 ; 0000000bH
  0152f	8d 8d 30 fd ff
	ff		 lea	 ecx, DWORD PTR $T88253[ebp]
  01535	ff 15 00 00 00
	00		 call	 DWORD PTR __imp_??1?$basic_string@DU?$char_traits@D@std@@V?$allocator@D@2@@std@@QAE@XZ
  0153b	c6 45 fc 00	 mov	 BYTE PTR __$EHRec$[ebp+8], 0
  0153f	8d 8d 4c fd ff
	ff		 lea	 ecx, DWORD PTR $T88252[ebp]
  01545	ff 15 00 00 00
	00		 call	 DWORD PTR __imp_??1?$basic_string@DU?$char_traits@D@std@@V?$allocator@D@2@@std@@QAE@XZ
$L83449:

; 358  : 					{
; 359  : //						FindClose( hFind );
; 360  : //						return false;
; 361  : 					}
; 362  : 				}
; 363  : 			}
; 364  : 		}
; 365  : 	}while( FindNextFile(hFind, &FindFileData) == TRUE);

  0154b	8d 85 94 fe ff
	ff		 lea	 eax, DWORD PTR _FindFileData$[ebp]
  01551	50		 push	 eax
  01552	8b 8d 90 fe ff
	ff		 mov	 ecx, DWORD PTR _hFind$[ebp]
  01558	51		 push	 ecx
  01559	ff 15 00 00 00
	00		 call	 DWORD PTR __imp__FindNextFileA@8
  0155f	83 f8 01	 cmp	 eax, 1
  01562	0f 84 e4 fb ff
	ff		 je	 $L83448

; 366  : 
; 367  : 	FindClose( hFind );

  01568	8b 95 90 fe ff
	ff		 mov	 edx, DWORD PTR _hFind$[ebp]
  0156e	52		 push	 edx
  0156f	ff 15 00 00 00
	00		 call	 DWORD PTR __imp__FindClose@4

; 368  : 	return true;

  01575	c6 85 2f fd ff
	ff 01		 mov	 BYTE PTR $T88254[ebp], 1
  0157c	c7 45 fc ff ff
	ff ff		 mov	 DWORD PTR __$EHRec$[ebp+8], -1
  01583	8d 4d d4	 lea	 ecx, DWORD PTR _strDirName$[ebp]
  01586	ff 15 00 00 00
	00		 call	 DWORD PTR __imp_??1?$basic_string@DU?$char_traits@D@std@@V?$allocator@D@2@@std@@QAE@XZ
  0158c	8a 85 2f fd ff
	ff		 mov	 al, BYTE PTR $T88254[ebp]
$L83433:

; 369  : }

  01592	8b 4d f4	 mov	 ecx, DWORD PTR __$EHRec$[ebp]
  01595	64 89 0d 00 00
	00 00		 mov	 DWORD PTR fs:__except_list, ecx
  0159c	8b 4d f0	 mov	 ecx, DWORD PTR __$ArrayPad$[ebp]
  0159f	e8 00 00 00 00	 call	 @__security_check_cookie@4
  015a4	5e		 pop	 esi
  015a5	8b e5		 mov	 esp, ebp
  015a7	5d		 pop	 ebp
  015a8	c3		 ret	 0
_TEXT	ENDS
text$x	SEGMENT
$L88255:
  00149	8d 4d d4	 lea	 ecx, DWORD PTR _strDirName$[ebp]
  0014c	ff 25 00 00 00
	00		 jmp	 DWORD PTR __imp_??1?$basic_string@DU?$char_traits@D@std@@V?$allocator@D@2@@std@@QAE@XZ
$L88256:
  00152	8d 8d 34 fe ff
	ff		 lea	 ecx, DWORD PTR $T88242[ebp]
  00158	ff 25 00 00 00
	00		 jmp	 DWORD PTR __imp_??1?$basic_string@DU?$char_traits@D@std@@V?$allocator@D@2@@std@@QAE@XZ
$L88257:
  0015e	8d 8d 18 fe ff
	ff		 lea	 ecx, DWORD PTR $T88243[ebp]
  00164	ff 25 00 00 00
	00		 jmp	 DWORD PTR __imp_??1?$basic_string@DU?$char_traits@D@std@@V?$allocator@D@2@@std@@QAE@XZ
$L88258:
  0016a	8d 8d f8 fd ff
	ff		 lea	 ecx, DWORD PTR $T88245[ebp]
  00170	ff 25 00 00 00
	00		 jmp	 DWORD PTR __imp_??1?$basic_string@DU?$char_traits@D@std@@V?$allocator@D@2@@std@@QAE@XZ
$L88259:
  00176	8d 8d dc fd ff
	ff		 lea	 ecx, DWORD PTR $T88246[ebp]
  0017c	ff 25 00 00 00
	00		 jmp	 DWORD PTR __imp_??1?$basic_string@DU?$char_traits@D@std@@V?$allocator@D@2@@std@@QAE@XZ
$L88260:
  00182	8d 8d 58 fe ff
	ff		 lea	 ecx, DWORD PTR _strName$83457[ebp]
  00188	ff 25 00 00 00
	00		 jmp	 DWORD PTR __imp_??1?$basic_string@DU?$char_traits@D@std@@V?$allocator@D@2@@std@@QAE@XZ
$L88261:
  0018e	8d 8d 74 fe ff
	ff		 lea	 ecx, DWORD PTR _strExe$83458[ebp]
  00194	ff 25 00 00 00
	00		 jmp	 DWORD PTR __imp_??1?$basic_string@DU?$char_traits@D@std@@V?$allocator@D@2@@std@@QAE@XZ
$L88262:
  0019a	8d 8d c0 fd ff
	ff		 lea	 ecx, DWORD PTR $T88247[ebp]
  001a0	ff 25 00 00 00
	00		 jmp	 DWORD PTR __imp_??1?$basic_string@DU?$char_traits@D@std@@V?$allocator@D@2@@std@@QAE@XZ
$L88263:
  001a6	8d 8d a4 fd ff
	ff		 lea	 ecx, DWORD PTR $T88248[ebp]
  001ac	ff 25 00 00 00
	00		 jmp	 DWORD PTR __imp_??1?$basic_string@DU?$char_traits@D@std@@V?$allocator@D@2@@std@@QAE@XZ
$L88264:
  001b2	8d 8d 88 fd ff
	ff		 lea	 ecx, DWORD PTR $T88249[ebp]
  001b8	ff 25 00 00 00
	00		 jmp	 DWORD PTR __imp_??1?$basic_string@DU?$char_traits@D@std@@V?$allocator@D@2@@std@@QAE@XZ
$L88265:
  001be	8d 8d 6c fd ff
	ff		 lea	 ecx, DWORD PTR $T88250[ebp]
  001c4	ff 25 00 00 00
	00		 jmp	 DWORD PTR __imp_??1?$basic_string@DU?$char_traits@D@std@@V?$allocator@D@2@@std@@QAE@XZ
$L88266:
  001ca	8d 8d 4c fd ff
	ff		 lea	 ecx, DWORD PTR $T88252[ebp]
  001d0	ff 25 00 00 00
	00		 jmp	 DWORD PTR __imp_??1?$basic_string@DU?$char_traits@D@std@@V?$allocator@D@2@@std@@QAE@XZ
$L88267:
  001d6	8d 8d 30 fd ff
	ff		 lea	 ecx, DWORD PTR $T88253[ebp]
  001dc	ff 25 00 00 00
	00		 jmp	 DWORD PTR __imp_??1?$basic_string@DU?$char_traits@D@std@@V?$allocator@D@2@@std@@QAE@XZ
__ehhandler$?FindFileAndDir@YL_DirInfo@@SA_NABV?$basic_string@DU?$char_traits@D@std@@V?$allocator@D@2@@std@@PAV?$vector@V?$basic_string@DU?$char_traits@D@std@@V?$allocator@D@2@@std@@V?$allocator@V?$basic_string@DU?$char_traits@D@std@@V?$allocator@D@2@@std@@@2@@3@1_NPBV43@@Z:
  001e2	b8 00 00 00 00	 mov	 eax, OFFSET FLAT:$T88269
  001e7	e9 00 00 00 00	 jmp	 ___CxxFrameHandler
text$x	ENDS
?FindFileAndDir@YL_DirInfo@@SA_NABV?$basic_string@DU?$char_traits@D@std@@V?$allocator@D@2@@std@@PAV?$vector@V?$basic_string@DU?$char_traits@D@std@@V?$allocator@D@2@@std@@V?$allocator@V?$basic_string@DU?$char_traits@D@std@@V?$allocator@D@2@@std@@@2@@3@1_NPBV43@@Z ENDP ; YL_DirInfo::FindFileAndDir
PUBLIC	?GetSubDirNames@YL_DirInfo@@SAXABV?$basic_string@DU?$char_traits@D@std@@V?$allocator@D@2@@std@@AAV?$vector@V?$basic_string@DU?$char_traits@D@std@@V?$allocator@D@2@@std@@V?$allocator@V?$basic_string@DU?$char_traits@D@std@@V?$allocator@D@2@@std@@@2@@3@@Z ; YL_DirInfo::GetSubDirNames
xdata$x	SEGMENT
$T88283	DD	0ffffffffH
	DD	FLAT:$L88277
	DD	0ffffffffH
	DD	FLAT:$L88278
$T88280	DD	019930520H
	DD	02H
	DD	FLAT:$T88283
	DD	2 DUP(00H)
	DD	2 DUP(00H)
; Function compile flags: /Odt
xdata$x	ENDS
_TEXT	SEGMENT
tv130 = -408						; size = 4
tv132 = -404						; size = 4
$T88276 = -400						; size = 28
$T88275 = -372						; size = 28
_hFind$ = -344						; size = 4
_FindFileData$ = -340					; size = 320
__$ArrayPad$ = -16					; size = 4
__$EHRec$ = -12						; size = 12
__$ReturnAddr$ = 4					; size = 4
_dir$ = 8						; size = 4
_f$ = 12						; size = 4
?GetSubDirNames@YL_DirInfo@@SAXABV?$basic_string@DU?$char_traits@D@std@@V?$allocator@D@2@@std@@AAV?$vector@V?$basic_string@DU?$char_traits@D@std@@V?$allocator@D@2@@std@@V?$allocator@V?$basic_string@DU?$char_traits@D@std@@V?$allocator@D@2@@std@@@2@@3@@Z PROC NEAR ; YL_DirInfo::GetSubDirNames

; 372  : {

  015b0	55		 push	 ebp
  015b1	8b ec		 mov	 ebp, esp
  015b3	6a ff		 push	 -1
  015b5	68 00 00 00 00	 push	 __ehhandler$?GetSubDirNames@YL_DirInfo@@SAXABV?$basic_string@DU?$char_traits@D@std@@V?$allocator@D@2@@std@@AAV?$vector@V?$basic_string@DU?$char_traits@D@std@@V?$allocator@D@2@@std@@V?$allocator@V?$basic_string@DU?$char_traits@D@std@@V?$allocator@D@2@@std@@@2@@3@@Z
  015ba	64 a1 00 00 00
	00		 mov	 eax, DWORD PTR fs:__except_list
  015c0	50		 push	 eax
  015c1	64 89 25 00 00
	00 00		 mov	 DWORD PTR fs:__except_list, esp
  015c8	81 ec 8c 01 00
	00		 sub	 esp, 396		; 0000018cH
  015ce	a1 00 00 00 00	 mov	 eax, DWORD PTR ___security_cookie
  015d3	89 45 f0	 mov	 DWORD PTR __$ArrayPad$[ebp], eax

; 373  : 	WIN32_FIND_DATA FindFileData;
; 374  : 	HANDLE hFind = INVALID_HANDLE_VALUE;

  015d6	c7 85 a8 fe ff
	ff ff ff ff ff	 mov	 DWORD PTR _hFind$[ebp], -1

; 375  : 
; 376  : 	//find a file
; 377  : 	hFind = FindFirstFile((dir + "\\*").c_str(), &FindFileData);

  015e0	68 00 00 00 00	 push	 OFFSET FLAT:$SG83494
  015e5	8b 45 08	 mov	 eax, DWORD PTR _dir$[ebp]
  015e8	50		 push	 eax
  015e9	8d 8d 8c fe ff
	ff		 lea	 ecx, DWORD PTR $T88275[ebp]
  015ef	51		 push	 ecx
  015f0	e8 00 00 00 00	 call	 ??$?HDU?$char_traits@D@std@@V?$allocator@D@1@@std@@YA?AV?$basic_string@DU?$char_traits@D@std@@V?$allocator@D@2@@0@ABV10@PBD@Z ; std::operator+<char,std::char_traits<char>,std::allocator<char> >
  015f5	83 c4 0c	 add	 esp, 12			; 0000000cH
  015f8	89 85 6c fe ff
	ff		 mov	 DWORD PTR tv132[ebp], eax
  015fe	8b 95 6c fe ff
	ff		 mov	 edx, DWORD PTR tv132[ebp]
  01604	89 95 68 fe ff
	ff		 mov	 DWORD PTR tv130[ebp], edx
  0160a	c7 45 fc 00 00
	00 00		 mov	 DWORD PTR __$EHRec$[ebp+8], 0
  01611	8d 85 ac fe ff
	ff		 lea	 eax, DWORD PTR _FindFileData$[ebp]
  01617	50		 push	 eax
  01618	8b 8d 68 fe ff
	ff		 mov	 ecx, DWORD PTR tv130[ebp]
  0161e	ff 15 00 00 00
	00		 call	 DWORD PTR __imp_?c_str@?$basic_string@DU?$char_traits@D@std@@V?$allocator@D@2@@std@@QBEPBDXZ
  01624	50		 push	 eax
  01625	ff 15 00 00 00
	00		 call	 DWORD PTR __imp__FindFirstFileA@8
  0162b	89 85 a8 fe ff
	ff		 mov	 DWORD PTR _hFind$[ebp], eax
  01631	c7 45 fc ff ff
	ff ff		 mov	 DWORD PTR __$EHRec$[ebp+8], -1
  01638	8d 8d 8c fe ff
	ff		 lea	 ecx, DWORD PTR $T88275[ebp]
  0163e	ff 15 00 00 00
	00		 call	 DWORD PTR __imp_??1?$basic_string@DU?$char_traits@D@std@@V?$allocator@D@2@@std@@QAE@XZ

; 378  : 	if(hFind == INVALID_HANDLE_VALUE)

  01644	83 bd a8 fe ff
	ff ff		 cmp	 DWORD PTR _hFind$[ebp], -1
  0164b	75 05		 jne	 SHORT $L83498

; 379  : 	{
; 380  : 		return;

  0164d	e9 a1 00 00 00	 jmp	 $L83488
$L83498:

; 381  : 	}
; 382  : 	//find all files and dirs
; 383  : 	do{
; 384  : 		if (FindFileData.dwFileAttributes & FILE_ATTRIBUTE_DIRECTORY)

  01652	8b 8d ac fe ff
	ff		 mov	 ecx, DWORD PTR _FindFileData$[ebp]
  01658	83 e1 10	 and	 ecx, 16			; 00000010H
  0165b	74 6c		 je	 SHORT $L83499

; 385  : 		{
; 386  : 			if (strcmp(FindFileData.cFileName,".") != 0 && strcmp(FindFileData.cFileName,"..") != 0)			

  0165d	68 00 00 00 00	 push	 OFFSET FLAT:$SG83503
  01662	8d 95 d8 fe ff
	ff		 lea	 edx, DWORD PTR _FindFileData$[ebp+44]
  01668	52		 push	 edx
  01669	e8 00 00 00 00	 call	 _strcmp
  0166e	83 c4 08	 add	 esp, 8
  01671	85 c0		 test	 eax, eax
  01673	74 54		 je	 SHORT $L83499
  01675	68 00 00 00 00	 push	 OFFSET FLAT:$SG83504
  0167a	8d 85 d8 fe ff
	ff		 lea	 eax, DWORD PTR _FindFileData$[ebp+44]
  01680	50		 push	 eax
  01681	e8 00 00 00 00	 call	 _strcmp
  01686	83 c4 08	 add	 esp, 8
  01689	85 c0		 test	 eax, eax
  0168b	74 3c		 je	 SHORT $L83499

; 387  : 			{
; 388  : 				f.push_back(FindFileData.cFileName);

  0168d	8d 8d d8 fe ff
	ff		 lea	 ecx, DWORD PTR _FindFileData$[ebp+44]
  01693	51		 push	 ecx
  01694	8d 8d 70 fe ff
	ff		 lea	 ecx, DWORD PTR $T88276[ebp]
  0169a	ff 15 00 00 00
	00		 call	 DWORD PTR __imp_??0?$basic_string@DU?$char_traits@D@std@@V?$allocator@D@2@@std@@QAE@PBD@Z
  016a0	c7 45 fc 01 00
	00 00		 mov	 DWORD PTR __$EHRec$[ebp+8], 1
  016a7	8d 95 70 fe ff
	ff		 lea	 edx, DWORD PTR $T88276[ebp]
  016ad	52		 push	 edx
  016ae	8b 4d 0c	 mov	 ecx, DWORD PTR _f$[ebp]
  016b1	e8 00 00 00 00	 call	 ?push_back@?$vector@V?$basic_string@DU?$char_traits@D@std@@V?$allocator@D@2@@std@@V?$allocator@V?$basic_string@DU?$char_traits@D@std@@V?$allocator@D@2@@std@@@2@@std@@QAEXABV?$basic_string@DU?$char_traits@D@std@@V?$allocator@D@2@@2@@Z ; std::vector<std::basic_string<char,std::char_traits<char>,std::allocator<char> >,std::allocator<std::basic_string<char,std::char_traits<char>,std::allocator<char> > > >::push_back
  016b6	c7 45 fc ff ff
	ff ff		 mov	 DWORD PTR __$EHRec$[ebp+8], -1
  016bd	8d 8d 70 fe ff
	ff		 lea	 ecx, DWORD PTR $T88276[ebp]
  016c3	ff 15 00 00 00
	00		 call	 DWORD PTR __imp_??1?$basic_string@DU?$char_traits@D@std@@V?$allocator@D@2@@std@@QAE@XZ
$L83499:

; 389  : 			}
; 390  : 		}
; 391  : 	}while(FindNextFile(hFind, &FindFileData) == TRUE);

  016c9	8d 85 ac fe ff
	ff		 lea	 eax, DWORD PTR _FindFileData$[ebp]
  016cf	50		 push	 eax
  016d0	8b 8d a8 fe ff
	ff		 mov	 ecx, DWORD PTR _hFind$[ebp]
  016d6	51		 push	 ecx
  016d7	ff 15 00 00 00
	00		 call	 DWORD PTR __imp__FindNextFileA@8
  016dd	83 f8 01	 cmp	 eax, 1
  016e0	0f 84 6c ff ff
	ff		 je	 $L83498

; 392  : 
; 393  : 	FindClose(hFind);

  016e6	8b 95 a8 fe ff
	ff		 mov	 edx, DWORD PTR _hFind$[ebp]
  016ec	52		 push	 edx
  016ed	ff 15 00 00 00
	00		 call	 DWORD PTR __imp__FindClose@4
$L83488:

; 394  : }

  016f3	8b 4d f4	 mov	 ecx, DWORD PTR __$EHRec$[ebp]
  016f6	64 89 0d 00 00
	00 00		 mov	 DWORD PTR fs:__except_list, ecx
  016fd	8b 4d f0	 mov	 ecx, DWORD PTR __$ArrayPad$[ebp]
  01700	e8 00 00 00 00	 call	 @__security_check_cookie@4
  01705	8b e5		 mov	 esp, ebp
  01707	5d		 pop	 ebp
  01708	c3		 ret	 0
_TEXT	ENDS
text$x	SEGMENT
$L88277:
  001ec	8d 8d 8c fe ff
	ff		 lea	 ecx, DWORD PTR $T88275[ebp]
  001f2	ff 25 00 00 00
	00		 jmp	 DWORD PTR __imp_??1?$basic_string@DU?$char_traits@D@std@@V?$allocator@D@2@@std@@QAE@XZ
$L88278:
  001f8	8d 8d 70 fe ff
	ff		 lea	 ecx, DWORD PTR $T88276[ebp]
  001fe	ff 25 00 00 00
	00		 jmp	 DWORD PTR __imp_??1?$basic_string@DU?$char_traits@D@std@@V?$allocator@D@2@@std@@QAE@XZ
__ehhandler$?GetSubDirNames@YL_DirInfo@@SAXABV?$basic_string@DU?$char_traits@D@std@@V?$allocator@D@2@@std@@AAV?$vector@V?$basic_string@DU?$char_traits@D@std@@V?$allocator@D@2@@std@@V?$allocator@V?$basic_string@DU?$char_traits@D@std@@V?$allocator@D@2@@std@@@2@@3@@Z:
  00204	b8 00 00 00 00	 mov	 eax, OFFSET FLAT:$T88280
  00209	e9 00 00 00 00	 jmp	 ___CxxFrameHandler
text$x	ENDS
?GetSubDirNames@YL_DirInfo@@SAXABV?$basic_string@DU?$char_traits@D@std@@V?$allocator@D@2@@std@@AAV?$vector@V?$basic_string@DU?$char_traits@D@std@@V?$allocator@D@2@@std@@V?$allocator@V?$basic_string@DU?$char_traits@D@std@@V?$allocator@D@2@@std@@@2@@3@@Z ENDP ; YL_DirInfo::GetSubDirNames
PUBLIC	?GetDiskNames@YL_DirInfo@@SA_NAAV?$vector@V?$basic_string@DU?$char_traits@D@std@@V?$allocator@D@2@@std@@V?$allocator@V?$basic_string@DU?$char_traits@D@std@@V?$allocator@D@2@@std@@@2@@std@@@Z ; YL_DirInfo::GetDiskNames
EXTRN	??3@YAXPAX@Z:NEAR				; operator delete
EXTRN	__imp__GetLogicalDriveStringsA@8:NEAR
EXTRN	??_U@YAPAXI@Z:NEAR				; operator new[]
EXTRN	__imp__GetDriveTypeA@4:NEAR
xdata$x	SEGMENT
$T88292	DD	0ffffffffH
	DD	FLAT:$L88288
$T88290	DD	019930520H
	DD	01H
	DD	FLAT:$T88292
	DD	2 DUP(00H)
	DD	2 DUP(00H)
; Function compile flags: /Odt
xdata$x	ENDS
_TEXT	SEGMENT
$T88287 = -72						; size = 4
$T88286 = -68						; size = 28
$T88285 = -40						; size = 4
_dir$83520 = -36					; size = 4
_DType$83521 = -32					; size = 4
_i$83516 = -28						; size = 4
_DStr$ = -24						; size = 4
_si$ = -20						; size = 4
_DSLength$ = -16					; size = 4
__$EHRec$ = -12						; size = 12
_vDisk$ = 8						; size = 4
?GetDiskNames@YL_DirInfo@@SA_NAAV?$vector@V?$basic_string@DU?$char_traits@D@std@@V?$allocator@D@2@@std@@V?$allocator@V?$basic_string@DU?$char_traits@D@std@@V?$allocator@D@2@@std@@@2@@std@@@Z PROC NEAR ; YL_DirInfo::GetDiskNames

; 397  : {

  01710	55		 push	 ebp
  01711	8b ec		 mov	 ebp, esp
  01713	6a ff		 push	 -1
  01715	68 00 00 00 00	 push	 __ehhandler$?GetDiskNames@YL_DirInfo@@SA_NAAV?$vector@V?$basic_string@DU?$char_traits@D@std@@V?$allocator@D@2@@std@@V?$allocator@V?$basic_string@DU?$char_traits@D@std@@V?$allocator@D@2@@std@@@2@@std@@@Z
  0171a	64 a1 00 00 00
	00		 mov	 eax, DWORD PTR fs:__except_list
  01720	50		 push	 eax
  01721	64 89 25 00 00
	00 00		 mov	 DWORD PTR fs:__except_list, esp
  01728	83 ec 3c	 sub	 esp, 60			; 0000003cH

; 398  :     int DSLength = GetLogicalDriveStrings(0, NULL);

  0172b	6a 00		 push	 0
  0172d	6a 00		 push	 0
  0172f	ff 15 00 00 00
	00		 call	 DWORD PTR __imp__GetLogicalDriveStringsA@8
  01735	89 45 f0	 mov	 DWORD PTR _DSLength$[ebp], eax

; 399  :     //GetLogicalDriveStrings()
; 400  : 
; 401  :     char* DStr = new char[DSLength];//c

  01738	8b 45 f0	 mov	 eax, DWORD PTR _DSLength$[ebp]
  0173b	50		 push	 eax
  0173c	e8 00 00 00 00	 call	 ??_U@YAPAXI@Z		; operator new[]
  01741	83 c4 04	 add	 esp, 4
  01744	89 45 d8	 mov	 DWORD PTR $T88285[ebp], eax
  01747	8b 4d d8	 mov	 ecx, DWORD PTR $T88285[ebp]
  0174a	89 4d e8	 mov	 DWORD PTR _DStr$[ebp], ecx

; 402  :     GetLogicalDriveStrings(DSLength, (LPTSTR)DStr);

  0174d	8b 55 e8	 mov	 edx, DWORD PTR _DStr$[ebp]
  01750	52		 push	 edx
  01751	8b 45 f0	 mov	 eax, DWORD PTR _DSLength$[ebp]
  01754	50		 push	 eax
  01755	ff 15 00 00 00
	00		 call	 DWORD PTR __imp__GetLogicalDriveStringsA@8

; 403  :     //GetLogicalDriveStrings,
; 404  :     int si=0;

  0175b	c7 45 ec 00 00
	00 00		 mov	 DWORD PTR _si$[ebp], 0

; 405  :     for (int i = 0; i < DSLength/4; ++i)

  01762	c7 45 e4 00 00
	00 00		 mov	 DWORD PTR _i$83516[ebp], 0
  01769	eb 09		 jmp	 SHORT $L83517
$L83518:
  0176b	8b 4d e4	 mov	 ecx, DWORD PTR _i$83516[ebp]
  0176e	83 c1 01	 add	 ecx, 1
  01771	89 4d e4	 mov	 DWORD PTR _i$83516[ebp], ecx
$L83517:
  01774	8b 45 f0	 mov	 eax, DWORD PTR _DSLength$[ebp]
  01777	99		 cdq
  01778	83 e2 03	 and	 edx, 3
  0177b	03 c2		 add	 eax, edx
  0177d	c1 f8 02	 sar	 eax, 2
  01780	39 45 e4	 cmp	 DWORD PTR _i$83516[ebp], eax
  01783	7d 6e		 jge	 SHORT $L83519

; 406  :     //DStrA:\NULLB:\NULLC:\NULLDSLength/4
; 407  :     {
; 408  :         char dir[4]={DStr[si],':','\\','\0'};

  01785	8b 55 e8	 mov	 edx, DWORD PTR _DStr$[ebp]
  01788	03 55 ec	 add	 edx, DWORD PTR _si$[ebp]
  0178b	8a 02		 mov	 al, BYTE PTR [edx]
  0178d	88 45 dc	 mov	 BYTE PTR _dir$83520[ebp], al
  01790	c6 45 dd 3a	 mov	 BYTE PTR _dir$83520[ebp+1], 58 ; 0000003aH
  01794	c6 45 de 5c	 mov	 BYTE PTR _dir$83520[ebp+2], 92 ; 0000005cH
  01798	c6 45 df 00	 mov	 BYTE PTR _dir$83520[ebp+3], 0

; 409  :         int DType = GetDriveType(DStr+i*4);

  0179c	8b 4d e4	 mov	 ecx, DWORD PTR _i$83516[ebp]
  0179f	8b 55 e8	 mov	 edx, DWORD PTR _DStr$[ebp]
  017a2	8d 04 8a	 lea	 eax, DWORD PTR [edx+ecx*4]
  017a5	50		 push	 eax
  017a6	ff 15 00 00 00
	00		 call	 DWORD PTR __imp__GetDriveTypeA@4
  017ac	89 45 e0	 mov	 DWORD PTR _DType$83521[ebp], eax

; 410  :         //GetDriveType
; 411  :         if (DType == DRIVE_FIXED)//

  017af	83 7d e0 03	 cmp	 DWORD PTR _DType$83521[ebp], 3
  017b3	75 30		 jne	 SHORT $L83524

; 412  :         {
; 413  : 			vDisk.push_back(dir);

  017b5	8d 4d dc	 lea	 ecx, DWORD PTR _dir$83520[ebp]
  017b8	51		 push	 ecx
  017b9	8d 4d bc	 lea	 ecx, DWORD PTR $T88286[ebp]
  017bc	ff 15 00 00 00
	00		 call	 DWORD PTR __imp_??0?$basic_string@DU?$char_traits@D@std@@V?$allocator@D@2@@std@@QAE@PBD@Z
  017c2	c7 45 fc 00 00
	00 00		 mov	 DWORD PTR __$EHRec$[ebp+8], 0
  017c9	8d 55 bc	 lea	 edx, DWORD PTR $T88286[ebp]
  017cc	52		 push	 edx
  017cd	8b 4d 08	 mov	 ecx, DWORD PTR _vDisk$[ebp]
  017d0	e8 00 00 00 00	 call	 ?push_back@?$vector@V?$basic_string@DU?$char_traits@D@std@@V?$allocator@D@2@@std@@V?$allocator@V?$basic_string@DU?$char_traits@D@std@@V?$allocator@D@2@@std@@@2@@std@@QAEXABV?$basic_string@DU?$char_traits@D@std@@V?$allocator@D@2@@2@@Z ; std::vector<std::basic_string<char,std::char_traits<char>,std::allocator<char> >,std::allocator<std::basic_string<char,std::char_traits<char>,std::allocator<char> > > >::push_back
  017d5	c7 45 fc ff ff
	ff ff		 mov	 DWORD PTR __$EHRec$[ebp+8], -1
  017dc	8d 4d bc	 lea	 ecx, DWORD PTR $T88286[ebp]
  017df	ff 15 00 00 00
	00		 call	 DWORD PTR __imp_??1?$basic_string@DU?$char_traits@D@std@@V?$allocator@D@2@@std@@QAE@XZ
$L83524:

; 414  :         }
; 415  :         else if (DType == DRIVE_CDROM)//
; 416  :         {
; 417  :         }
; 418  :         else if (DType == DRIVE_REMOVABLE)//
; 419  :         {
; 420  :         }
; 421  :         else if (DType == DRIVE_REMOTE)//
; 422  :         {
; 423  :         }
; 424  :         else if (DType == DRIVE_RAMDISK)//RAM
; 425  :         {
; 426  :         }
; 427  :         else if (DType == DRIVE_UNKNOWN)//
; 428  :         {
; 429  :         }
; 430  :         si += 4;

  017e5	8b 45 ec	 mov	 eax, DWORD PTR _si$[ebp]
  017e8	83 c0 04	 add	 eax, 4
  017eb	89 45 ec	 mov	 DWORD PTR _si$[ebp], eax

; 431  :     }

  017ee	e9 78 ff ff ff	 jmp	 $L83518
$L83519:

; 432  : 	delete DStr;

  017f3	8b 4d e8	 mov	 ecx, DWORD PTR _DStr$[ebp]
  017f6	89 4d b8	 mov	 DWORD PTR $T88287[ebp], ecx
  017f9	8b 55 b8	 mov	 edx, DWORD PTR $T88287[ebp]
  017fc	52		 push	 edx
  017fd	e8 00 00 00 00	 call	 ??3@YAXPAX@Z		; operator delete
  01802	83 c4 04	 add	 esp, 4

; 433  : 	return true;

  01805	b0 01		 mov	 al, 1

; 434  : }

  01807	8b 4d f4	 mov	 ecx, DWORD PTR __$EHRec$[ebp]
  0180a	64 89 0d 00 00
	00 00		 mov	 DWORD PTR fs:__except_list, ecx
  01811	8b e5		 mov	 esp, ebp
  01813	5d		 pop	 ebp
  01814	c3		 ret	 0
_TEXT	ENDS
text$x	SEGMENT
$L88288:
  0020e	8d 4d bc	 lea	 ecx, DWORD PTR $T88286[ebp]
  00211	ff 25 00 00 00
	00		 jmp	 DWORD PTR __imp_??1?$basic_string@DU?$char_traits@D@std@@V?$allocator@D@2@@std@@QAE@XZ
__ehhandler$?GetDiskNames@YL_DirInfo@@SA_NAAV?$vector@V?$basic_string@DU?$char_traits@D@std@@V?$allocator@D@2@@std@@V?$allocator@V?$basic_string@DU?$char_traits@D@std@@V?$allocator@D@2@@std@@@2@@std@@@Z:
  00217	b8 00 00 00 00	 mov	 eax, OFFSET FLAT:$T88290
  0021c	e9 00 00 00 00	 jmp	 ___CxxFrameHandler
text$x	ENDS
?GetDiskNames@YL_DirInfo@@SA_NAAV?$vector@V?$basic_string@DU?$char_traits@D@std@@V?$allocator@D@2@@std@@V?$allocator@V?$basic_string@DU?$char_traits@D@std@@V?$allocator@D@2@@std@@@2@@std@@@Z ENDP ; YL_DirInfo::GetDiskNames
PUBLIC	?GetLargestFreeBytesDisk@YL_DirInfo@@SA_NAAV?$basic_string@DU?$char_traits@D@std@@V?$allocator@D@2@@std@@@Z ; YL_DirInfo::GetLargestFreeBytesDisk
PUBLIC	?begin@?$vector@V?$basic_string@DU?$char_traits@D@std@@V?$allocator@D@2@@std@@V?$allocator@V?$basic_string@DU?$char_traits@D@std@@V?$allocator@D@2@@std@@@2@@std@@QAE?AViterator@12@XZ ; std::vector<std::basic_string<char,std::char_traits<char>,std::allocator<char> >,std::allocator<std::basic_string<char,std::char_traits<char>,std::allocator<char> > > >::begin
PUBLIC	?end@?$vector@V?$basic_string@DU?$char_traits@D@std@@V?$allocator@D@2@@std@@V?$allocator@V?$basic_string@DU?$char_traits@D@std@@V?$allocator@D@2@@std@@@2@@std@@QAE?AViterator@12@XZ ; std::vector<std::basic_string<char,std::char_traits<char>,std::allocator<char> >,std::allocator<std::basic_string<char,std::char_traits<char>,std::allocator<char> > > >::end
PUBLIC	??9const_iterator@?$vector@V?$basic_string@DU?$char_traits@D@std@@V?$allocator@D@2@@std@@V?$allocator@V?$basic_string@DU?$char_traits@D@std@@V?$allocator@D@2@@std@@@2@@std@@QBE_NABV012@@Z ; std::vector<std::basic_string<char,std::char_traits<char>,std::allocator<char> >,std::allocator<std::basic_string<char,std::char_traits<char>,std::allocator<char> > > >::const_iterator::operator!=
PUBLIC	??Diterator@?$vector@V?$basic_string@DU?$char_traits@D@std@@V?$allocator@D@2@@std@@V?$allocator@V?$basic_string@DU?$char_traits@D@std@@V?$allocator@D@2@@std@@@2@@std@@QBEAAV?$basic_string@DU?$char_traits@D@std@@V?$allocator@D@2@@2@XZ ; std::vector<std::basic_string<char,std::char_traits<char>,std::allocator<char> >,std::allocator<std::basic_string<char,std::char_traits<char>,std::allocator<char> > > >::iterator::operator*
PUBLIC	??Citerator@?$vector@V?$basic_string@DU?$char_traits@D@std@@V?$allocator@D@2@@std@@V?$allocator@V?$basic_string@DU?$char_traits@D@std@@V?$allocator@D@2@@std@@@2@@std@@QBEPAV?$basic_string@DU?$char_traits@D@std@@V?$allocator@D@2@@2@XZ ; std::vector<std::basic_string<char,std::char_traits<char>,std::allocator<char> >,std::allocator<std::basic_string<char,std::char_traits<char>,std::allocator<char> > > >::iterator::operator->
PUBLIC	??Eiterator@?$vector@V?$basic_string@DU?$char_traits@D@std@@V?$allocator@D@2@@std@@V?$allocator@V?$basic_string@DU?$char_traits@D@std@@V?$allocator@D@2@@std@@@2@@std@@QAE?AV012@H@Z ; std::vector<std::basic_string<char,std::char_traits<char>,std::allocator<char> >,std::allocator<std::basic_string<char,std::char_traits<char>,std::allocator<char> > > >::iterator::operator++
EXTRN	__imp__GetDiskFreeSpaceExA@16:NEAR
xdata$x	SEGMENT
$T88304	DD	0ffffffffH
	DD	FLAT:$L88299
$T88301	DD	019930520H
	DD	01H
	DD	FLAT:$T88304
	DD	2 DUP(00H)
	DD	2 DUP(00H)
; Function compile flags: /Odt
xdata$x	ENDS
_TEXT	SEGMENT
$T88298 = -82						; size = 1
$T88297 = -81						; size = 1
$T88296 = -80						; size = 4
$T88295 = -76						; size = 4
$T88294 = -69						; size = 1
_i64FreeBytesToCaller$83667 = -68			; size = 8
_i64TotalBytes$83668 = -60				; size = 8
_i64FreeBytes$83669 = -52				; size = 8
_fResult$83670 = -44					; size = 4
_it1$83660 = -40					; size = 4
_i64LargestFreeBytes$ = -36				; size = 8
_vDisk$ = -28						; size = 16
__$EHRec$ = -12						; size = 12
_strDisk$ = 8						; size = 4
?GetLargestFreeBytesDisk@YL_DirInfo@@SA_NAAV?$basic_string@DU?$char_traits@D@std@@V?$allocator@D@2@@std@@@Z PROC NEAR ; YL_DirInfo::GetLargestFreeBytesDisk

; 437  : {

  01820	55		 push	 ebp
  01821	8b ec		 mov	 ebp, esp
  01823	6a ff		 push	 -1
  01825	68 00 00 00 00	 push	 __ehhandler$?GetLargestFreeBytesDisk@YL_DirInfo@@SA_NAAV?$basic_string@DU?$char_traits@D@std@@V?$allocator@D@2@@std@@@Z
  0182a	64 a1 00 00 00
	00		 mov	 eax, DWORD PTR fs:__except_list
  01830	50		 push	 eax
  01831	64 89 25 00 00
	00 00		 mov	 DWORD PTR fs:__except_list, esp
  01838	83 ec 48	 sub	 esp, 72			; 00000048H

; 438  : 	vector<string> vDisk;

  0183b	8d 4d e4	 lea	 ecx, DWORD PTR _vDisk$[ebp]
  0183e	e8 00 00 00 00	 call	 ??0?$vector@V?$basic_string@DU?$char_traits@D@std@@V?$allocator@D@2@@std@@V?$allocator@V?$basic_string@DU?$char_traits@D@std@@V?$allocator@D@2@@std@@@2@@std@@QAE@XZ ; std::vector<std::basic_string<char,std::char_traits<char>,std::allocator<char> >,std::allocator<std::basic_string<char,std::char_traits<char>,std::allocator<char> > > >::vector<std::basic_string<char,std::char_traits<char>,std::allocator<char> >,std::allocator<std::basic_string<char,std::char_traits<char>,std::allocator<char> > > >
  01843	c7 45 fc 00 00
	00 00		 mov	 DWORD PTR __$EHRec$[ebp+8], 0

; 439  : 	if( !GetDiskNames(vDisk) )

  0184a	8d 45 e4	 lea	 eax, DWORD PTR _vDisk$[ebp]
  0184d	50		 push	 eax
  0184e	e8 00 00 00 00	 call	 ?GetDiskNames@YL_DirInfo@@SA_NAAV?$vector@V?$basic_string@DU?$char_traits@D@std@@V?$allocator@D@2@@std@@V?$allocator@V?$basic_string@DU?$char_traits@D@std@@V?$allocator@D@2@@std@@@2@@std@@@Z ; YL_DirInfo::GetDiskNames
  01853	83 c4 04	 add	 esp, 4
  01856	0f b6 c8	 movzx	 ecx, al
  01859	85 c9		 test	 ecx, ecx
  0185b	75 1b		 jne	 SHORT $L83540

; 440  : 		return false;

  0185d	c6 45 bb 00	 mov	 BYTE PTR $T88294[ebp], 0
  01861	c7 45 fc ff ff
	ff ff		 mov	 DWORD PTR __$EHRec$[ebp+8], -1
  01868	8d 4d e4	 lea	 ecx, DWORD PTR _vDisk$[ebp]
  0186b	e8 00 00 00 00	 call	 ??1?$vector@V?$basic_string@DU?$char_traits@D@std@@V?$allocator@D@2@@std@@V?$allocator@V?$basic_string@DU?$char_traits@D@std@@V?$allocator@D@2@@std@@@2@@std@@QAE@XZ ; std::vector<std::basic_string<char,std::char_traits<char>,std::allocator<char> >,std::allocator<std::basic_string<char,std::char_traits<char>,std::allocator<char> > > >::~vector<std::basic_string<char,std::char_traits<char>,std::allocator<char> >,std::allocator<std::basic_string<char,std::char_traits<char>,std::allocator<char> > > >
  01870	8a 45 bb	 mov	 al, BYTE PTR $T88294[ebp]
  01873	e9 dd 00 00 00	 jmp	 $L83537
$L83540:

; 441  : 
; 442  : 	ULONGLONG i64LargestFreeBytes = 0;

  01878	c7 45 dc 00 00
	00 00		 mov	 DWORD PTR _i64LargestFreeBytes$[ebp], 0
  0187f	c7 45 e0 00 00
	00 00		 mov	 DWORD PTR _i64LargestFreeBytes$[ebp+4], 0

; 443  : 	for( vector<string>::iterator it1 = vDisk.begin(); it1 != vDisk.end(); it1++ )

  01886	8d 55 d8	 lea	 edx, DWORD PTR _it1$83660[ebp]
  01889	52		 push	 edx
  0188a	8d 4d e4	 lea	 ecx, DWORD PTR _vDisk$[ebp]
  0188d	e8 00 00 00 00	 call	 ?begin@?$vector@V?$basic_string@DU?$char_traits@D@std@@V?$allocator@D@2@@std@@V?$allocator@V?$basic_string@DU?$char_traits@D@std@@V?$allocator@D@2@@std@@@2@@std@@QAE?AViterator@12@XZ ; std::vector<std::basic_string<char,std::char_traits<char>,std::allocator<char> >,std::allocator<std::basic_string<char,std::char_traits<char>,std::allocator<char> > > >::begin
  01892	eb 0e		 jmp	 SHORT $L83664
$L83665:
  01894	6a 00		 push	 0
  01896	8d 45 b4	 lea	 eax, DWORD PTR $T88295[ebp]
  01899	50		 push	 eax
  0189a	8d 4d d8	 lea	 ecx, DWORD PTR _it1$83660[ebp]
  0189d	e8 00 00 00 00	 call	 ??Eiterator@?$vector@V?$basic_string@DU?$char_traits@D@std@@V?$allocator@D@2@@std@@V?$allocator@V?$basic_string@DU?$char_traits@D@std@@V?$allocator@D@2@@std@@@2@@std@@QAE?AV012@H@Z ; std::vector<std::basic_string<char,std::char_traits<char>,std::allocator<char> >,std::allocator<std::basic_string<char,std::char_traits<char>,std::allocator<char> > > >::iterator::operator++
$L83664:
  018a2	8d 4d b0	 lea	 ecx, DWORD PTR $T88296[ebp]
  018a5	51		 push	 ecx
  018a6	8d 4d e4	 lea	 ecx, DWORD PTR _vDisk$[ebp]
  018a9	e8 00 00 00 00	 call	 ?end@?$vector@V?$basic_string@DU?$char_traits@D@std@@V?$allocator@D@2@@std@@V?$allocator@V?$basic_string@DU?$char_traits@D@std@@V?$allocator@D@2@@std@@@2@@std@@QAE?AViterator@12@XZ ; std::vector<std::basic_string<char,std::char_traits<char>,std::allocator<char> >,std::allocator<std::basic_string<char,std::char_traits<char>,std::allocator<char> > > >::end
  018ae	50		 push	 eax
  018af	8d 4d d8	 lea	 ecx, DWORD PTR _it1$83660[ebp]
  018b2	e8 00 00 00 00	 call	 ??9const_iterator@?$vector@V?$basic_string@DU?$char_traits@D@std@@V?$allocator@D@2@@std@@V?$allocator@V?$basic_string@DU?$char_traits@D@std@@V?$allocator@D@2@@std@@@2@@std@@QBE_NABV012@@Z ; std::vector<std::basic_string<char,std::char_traits<char>,std::allocator<char> >,std::allocator<std::basic_string<char,std::char_traits<char>,std::allocator<char> > > >::const_iterator::operator!=
  018b7	0f b6 d0	 movzx	 edx, al
  018ba	85 d2		 test	 edx, edx
  018bc	74 61		 je	 SHORT $L83666

; 444  : 	{
; 445  : 		ULONGLONG i64FreeBytesToCaller, i64TotalBytes, i64FreeBytes;
; 446  : 		BOOL fResult = GetDiskFreeSpaceEx (
; 447  : 						it1->c_str(),
; 448  : 						(PULARGE_INTEGER)&i64FreeBytesToCaller,
; 449  : 						(PULARGE_INTEGER)&i64TotalBytes,
; 450  : 						(PULARGE_INTEGER)&i64FreeBytes);

  018be	8d 45 cc	 lea	 eax, DWORD PTR _i64FreeBytes$83669[ebp]
  018c1	50		 push	 eax
  018c2	8d 4d c4	 lea	 ecx, DWORD PTR _i64TotalBytes$83668[ebp]
  018c5	51		 push	 ecx
  018c6	8d 55 bc	 lea	 edx, DWORD PTR _i64FreeBytesToCaller$83667[ebp]
  018c9	52		 push	 edx
  018ca	8d 4d d8	 lea	 ecx, DWORD PTR _it1$83660[ebp]
  018cd	e8 00 00 00 00	 call	 ??Citerator@?$vector@V?$basic_string@DU?$char_traits@D@std@@V?$allocator@D@2@@std@@V?$allocator@V?$basic_string@DU?$char_traits@D@std@@V?$allocator@D@2@@std@@@2@@std@@QBEPAV?$basic_string@DU?$char_traits@D@std@@V?$allocator@D@2@@2@XZ ; std::vector<std::basic_string<char,std::char_traits<char>,std::allocator<char> >,std::allocator<std::basic_string<char,std::char_traits<char>,std::allocator<char> > > >::iterator::operator->
  018d2	8b c8		 mov	 ecx, eax
  018d4	ff 15 00 00 00
	00		 call	 DWORD PTR __imp_?c_str@?$basic_string@DU?$char_traits@D@std@@V?$allocator@D@2@@std@@QBEPBDXZ
  018da	50		 push	 eax
  018db	ff 15 00 00 00
	00		 call	 DWORD PTR __imp__GetDiskFreeSpaceExA@16
  018e1	89 45 d4	 mov	 DWORD PTR _fResult$83670[ebp], eax

; 451  : 		//GetDiskFreeSpaceEx,BOOL
; 452  : 		if (fResult)//BOOL

  018e4	83 7d d4 00	 cmp	 DWORD PTR _fResult$83670[ebp], 0
  018e8	74 30		 je	 SHORT $L83676

; 453  : 		{
; 454  : 			if( i64LargestFreeBytes < i64FreeBytes )

  018ea	8b 45 e0	 mov	 eax, DWORD PTR _i64LargestFreeBytes$[ebp+4]
  018ed	3b 45 d0	 cmp	 eax, DWORD PTR _i64FreeBytes$83669[ebp+4]
  018f0	77 28		 ja	 SHORT $L83676
  018f2	72 08		 jb	 SHORT $L88302
  018f4	8b 4d dc	 mov	 ecx, DWORD PTR _i64LargestFreeBytes$[ebp]
  018f7	3b 4d cc	 cmp	 ecx, DWORD PTR _i64FreeBytes$83669[ebp]
  018fa	73 1e		 jae	 SHORT $L83676
$L88302:

; 455  : 			{
; 456  : 				i64LargestFreeBytes = i64FreeBytes;

  018fc	8b 55 cc	 mov	 edx, DWORD PTR _i64FreeBytes$83669[ebp]
  018ff	89 55 dc	 mov	 DWORD PTR _i64LargestFreeBytes$[ebp], edx
  01902	8b 45 d0	 mov	 eax, DWORD PTR _i64FreeBytes$83669[ebp+4]
  01905	89 45 e0	 mov	 DWORD PTR _i64LargestFreeBytes$[ebp+4], eax

; 457  : 				strDisk = *it1;

  01908	8d 4d d8	 lea	 ecx, DWORD PTR _it1$83660[ebp]
  0190b	e8 00 00 00 00	 call	 ??Diterator@?$vector@V?$basic_string@DU?$char_traits@D@std@@V?$allocator@D@2@@std@@V?$allocator@V?$basic_string@DU?$char_traits@D@std@@V?$allocator@D@2@@std@@@2@@std@@QBEAAV?$basic_string@DU?$char_traits@D@std@@V?$allocator@D@2@@2@XZ ; std::vector<std::basic_string<char,std::char_traits<char>,std::allocator<char> >,std::allocator<std::basic_string<char,std::char_traits<char>,std::allocator<char> > > >::iterator::operator*
  01910	50		 push	 eax
  01911	8b 4d 08	 mov	 ecx, DWORD PTR _strDisk$[ebp]
  01914	ff 15 00 00 00
	00		 call	 DWORD PTR __imp_??4?$basic_string@DU?$char_traits@D@std@@V?$allocator@D@2@@std@@QAEAAV01@ABV01@@Z
$L83676:

; 458  : 			}
; 459  : 		}
; 460  : 		else
; 461  : 		{
; 462  : 			//
; 463  : 		}
; 464  : 	}

  0191a	e9 75 ff ff ff	 jmp	 $L83665
$L83666:

; 465  : 	if( i64LargestFreeBytes == 0 )

  0191f	8b 4d dc	 mov	 ecx, DWORD PTR _i64LargestFreeBytes$[ebp]
  01922	0b 4d e0	 or	 ecx, DWORD PTR _i64LargestFreeBytes$[ebp+4]
  01925	75 18		 jne	 SHORT $L83677

; 466  : 	{
; 467  : 		return false;

  01927	c6 45 af 00	 mov	 BYTE PTR $T88297[ebp], 0
  0192b	c7 45 fc ff ff
	ff ff		 mov	 DWORD PTR __$EHRec$[ebp+8], -1
  01932	8d 4d e4	 lea	 ecx, DWORD PTR _vDisk$[ebp]
  01935	e8 00 00 00 00	 call	 ??1?$vector@V?$basic_string@DU?$char_traits@D@std@@V?$allocator@D@2@@std@@V?$allocator@V?$basic_string@DU?$char_traits@D@std@@V?$allocator@D@2@@std@@@2@@std@@QAE@XZ ; std::vector<std::basic_string<char,std::char_traits<char>,std::allocator<char> >,std::allocator<std::basic_string<char,std::char_traits<char>,std::allocator<char> > > >::~vector<std::basic_string<char,std::char_traits<char>,std::allocator<char> >,std::allocator<std::basic_string<char,std::char_traits<char>,std::allocator<char> > > >
  0193a	8a 45 af	 mov	 al, BYTE PTR $T88297[ebp]
  0193d	eb 16		 jmp	 SHORT $L83537
$L83677:

; 468  : 	}else
; 469  : 	{
; 470  : 		return true;

  0193f	c6 45 ae 01	 mov	 BYTE PTR $T88298[ebp], 1
  01943	c7 45 fc ff ff
	ff ff		 mov	 DWORD PTR __$EHRec$[ebp+8], -1
  0194a	8d 4d e4	 lea	 ecx, DWORD PTR _vDisk$[ebp]
  0194d	e8 00 00 00 00	 call	 ??1?$vector@V?$basic_string@DU?$char_traits@D@std@@V?$allocator@D@2@@std@@V?$allocator@V?$basic_string@DU?$char_traits@D@std@@V?$allocator@D@2@@std@@@2@@std@@QAE@XZ ; std::vector<std::basic_string<char,std::char_traits<char>,std::allocator<char> >,std::allocator<std::basic_string<char,std::char_traits<char>,std::allocator<char> > > >::~vector<std::basic_string<char,std::char_traits<char>,std::allocator<char> >,std::allocator<std::basic_string<char,std::char_traits<char>,std::allocator<char> > > >
  01952	8a 45 ae	 mov	 al, BYTE PTR $T88298[ebp]
$L83537:

; 471  : 	}
; 472  : }

  01955	8b 4d f4	 mov	 ecx, DWORD PTR __$EHRec$[ebp]
  01958	64 89 0d 00 00
	00 00		 mov	 DWORD PTR fs:__except_list, ecx
  0195f	8b e5		 mov	 esp, ebp
  01961	5d		 pop	 ebp
  01962	c3		 ret	 0
_TEXT	ENDS
text$x	SEGMENT
$L88299:
  00221	8d 4d e4	 lea	 ecx, DWORD PTR _vDisk$[ebp]
  00224	e9 00 00 00 00	 jmp	 ??1?$vector@V?$basic_string@DU?$char_traits@D@std@@V?$allocator@D@2@@std@@V?$allocator@V?$basic_string@DU?$char_traits@D@std@@V?$allocator@D@2@@std@@@2@@std@@QAE@XZ ; std::vector<std::basic_string<char,std::char_traits<char>,std::allocator<char> >,std::allocator<std::basic_string<char,std::char_traits<char>,std::allocator<char> > > >::~vector<std::basic_string<char,std::char_traits<char>,std::allocator<char> >,std::allocator<std::basic_string<char,std::char_traits<char>,std::allocator<char> > > >
__ehhandler$?GetLargestFreeBytesDisk@YL_DirInfo@@SA_NAAV?$basic_string@DU?$char_traits@D@std@@V?$allocator@D@2@@std@@@Z:
  00229	b8 00 00 00 00	 mov	 eax, OFFSET FLAT:$T88301
  0022e	e9 00 00 00 00	 jmp	 ___CxxFrameHandler
text$x	ENDS
?GetLargestFreeBytesDisk@YL_DirInfo@@SA_NAAV?$basic_string@DU?$char_traits@D@std@@V?$allocator@D@2@@std@@@Z ENDP ; YL_DirInfo::GetLargestFreeBytesDisk
PUBLIC	??0?$_Vector_val@V?$basic_string@DU?$char_traits@D@std@@V?$allocator@D@2@@std@@V?$allocator@V?$basic_string@DU?$char_traits@D@std@@V?$allocator@D@2@@std@@@2@@std@@IAE@V?$allocator@V?$basic_string@DU?$char_traits@D@std@@V?$allocator@D@2@@std@@@1@@Z ; std::_Vector_val<std::basic_string<char,std::char_traits<char>,std::allocator<char> >,std::allocator<std::basic_string<char,std::char_traits<char>,std::allocator<char> > > >::_Vector_val<std::basic_string<char,std::char_traits<char>,std::allocator<char> >,std::allocator<std::basic_string<char,std::char_traits<char>,std::allocator<char> > > >
PUBLIC	??0?$allocator@V?$basic_string@DU?$char_traits@D@std@@V?$allocator@D@2@@std@@@std@@QAE@XZ ; std::allocator<std::basic_string<char,std::char_traits<char>,std::allocator<char> > >::allocator<std::basic_string<char,std::char_traits<char>,std::allocator<char> > >
PUBLIC	?_Buy@?$vector@V?$basic_string@DU?$char_traits@D@std@@V?$allocator@D@2@@std@@V?$allocator@V?$basic_string@DU?$char_traits@D@std@@V?$allocator@D@2@@std@@@2@@std@@IAE_NI@Z ; std::vector<std::basic_string<char,std::char_traits<char>,std::allocator<char> >,std::allocator<std::basic_string<char,std::char_traits<char>,std::allocator<char> > > >::_Buy
; Function compile flags: /Odt
; File d:\program files (x86)\microsoft visual studio .net 2003\vc7\include\vector
;	COMDAT ??0?$vector@V?$basic_string@DU?$char_traits@D@std@@V?$allocator@D@2@@std@@V?$allocator@V?$basic_string@DU?$char_traits@D@std@@V?$allocator@D@2@@std@@@2@@std@@QAE@XZ
_TEXT	SEGMENT
_this$ = -8						; size = 4
??0?$vector@V?$basic_string@DU?$char_traits@D@std@@V?$allocator@D@2@@std@@V?$allocator@V?$basic_string@DU?$char_traits@D@std@@V?$allocator@D@2@@std@@@2@@std@@QAE@XZ PROC NEAR ; std::vector<std::basic_string<char,std::char_traits<char>,std::allocator<char> >,std::allocator<std::basic_string<char,std::char_traits<char>,std::allocator<char> > > >::vector<std::basic_string<char,std::char_traits<char>,std::allocator<char> >,std::allocator<std::basic_string<char,std::char_traits<char>,std::allocator<char> > > >, COMDAT
; _this$ = ecx

; 299  : 		{	// construct empty vector

  00000	55		 push	 ebp
  00001	8b ec		 mov	 ebp, esp
  00003	83 ec 08	 sub	 esp, 8
  00006	89 4d f8	 mov	 DWORD PTR _this$[ebp], ecx
  00009	51		 push	 ecx
  0000a	8b cc		 mov	 ecx, esp
  0000c	e8 00 00 00 00	 call	 ??0?$allocator@V?$basic_string@DU?$char_traits@D@std@@V?$allocator@D@2@@std@@@std@@QAE@XZ ; std::allocator<std::basic_string<char,std::char_traits<char>,std::allocator<char> > >::allocator<std::basic_string<char,std::char_traits<char>,std::allocator<char> > >
  00011	8b 4d f8	 mov	 ecx, DWORD PTR _this$[ebp]
  00014	e8 00 00 00 00	 call	 ??0?$_Vector_val@V?$basic_string@DU?$char_traits@D@std@@V?$allocator@D@2@@std@@V?$allocator@V?$basic_string@DU?$char_traits@D@std@@V?$allocator@D@2@@std@@@2@@std@@IAE@V?$allocator@V?$basic_string@DU?$char_traits@D@std@@V?$allocator@D@2@@std@@@1@@Z ; std::_Vector_val<std::basic_string<char,std::char_traits<char>,std::allocator<char> >,std::allocator<std::basic_string<char,std::char_traits<char>,std::allocator<char> > > >::_Vector_val<std::basic_string<char,std::char_traits<char>,std::allocator<char> >,std::allocator<std::basic_string<char,std::char_traits<char>,std::allocator<char> > > >

; 300  : 		_Buy(0);

  00019	6a 00		 push	 0
  0001b	8b 4d f8	 mov	 ecx, DWORD PTR _this$[ebp]
  0001e	e8 00 00 00 00	 call	 ?_Buy@?$vector@V?$basic_string@DU?$char_traits@D@std@@V?$allocator@D@2@@std@@V?$allocator@V?$basic_string@DU?$char_traits@D@std@@V?$allocator@D@2@@std@@@2@@std@@IAE_NI@Z ; std::vector<std::basic_string<char,std::char_traits<char>,std::allocator<char> >,std::allocator<std::basic_string<char,std::char_traits<char>,std::allocator<char> > > >::_Buy

; 301  : 		}

  00023	8b 45 f8	 mov	 eax, DWORD PTR _this$[ebp]
  00026	8b e5		 mov	 esp, ebp
  00028	5d		 pop	 ebp
  00029	c3		 ret	 0
??0?$vector@V?$basic_string@DU?$char_traits@D@std@@V?$allocator@D@2@@std@@V?$allocator@V?$basic_string@DU?$char_traits@D@std@@V?$allocator@D@2@@std@@@2@@std@@QAE@XZ ENDP ; std::vector<std::basic_string<char,std::char_traits<char>,std::allocator<char> >,std::allocator<std::basic_string<char,std::char_traits<char>,std::allocator<char> > > >::vector<std::basic_string<char,std::char_traits<char>,std::allocator<char> >,std::allocator<std::basic_string<char,std::char_traits<char>,std::allocator<char> > > >
_TEXT	ENDS
PUBLIC	?_Tidy@?$vector@V?$basic_string@DU?$char_traits@D@std@@V?$allocator@D@2@@std@@V?$allocator@V?$basic_string@DU?$char_traits@D@std@@V?$allocator@D@2@@std@@@2@@std@@IAEXXZ ; std::vector<std::basic_string<char,std::char_traits<char>,std::allocator<char> >,std::allocator<std::basic_string<char,std::char_traits<char>,std::allocator<char> > > >::_Tidy
; Function compile flags: /Odt
;	COMDAT ??1?$vector@V?$basic_string@DU?$char_traits@D@std@@V?$allocator@D@2@@std@@V?$allocator@V?$basic_string@DU?$char_traits@D@std@@V?$allocator@D@2@@std@@@2@@std@@QAE@XZ
_TEXT	SEGMENT
_this$ = -4						; size = 4
??1?$vector@V?$basic_string@DU?$char_traits@D@std@@V?$allocator@D@2@@std@@V?$allocator@V?$basic_string@DU?$char_traits@D@std@@V?$allocator@D@2@@std@@@2@@std@@QAE@XZ PROC NEAR ; std::vector<std::basic_string<char,std::char_traits<char>,std::allocator<char> >,std::allocator<std::basic_string<char,std::char_traits<char>,std::allocator<char> > > >::~vector<std::basic_string<char,std::char_traits<char>,std::allocator<char> >,std::allocator<std::basic_string<char,std::char_traits<char>,std::allocator<char> > > >, COMDAT
; _this$ = ecx

; 387  : 		{	// destroy the object

  00000	55		 push	 ebp
  00001	8b ec		 mov	 ebp, esp
  00003	51		 push	 ecx
  00004	89 4d fc	 mov	 DWORD PTR _this$[ebp], ecx

; 388  : 		_Tidy();

  00007	8b 4d fc	 mov	 ecx, DWORD PTR _this$[ebp]
  0000a	e8 00 00 00 00	 call	 ?_Tidy@?$vector@V?$basic_string@DU?$char_traits@D@std@@V?$allocator@D@2@@std@@V?$allocator@V?$basic_string@DU?$char_traits@D@std@@V?$allocator@D@2@@std@@@2@@std@@IAEXXZ ; std::vector<std::basic_string<char,std::char_traits<char>,std::allocator<char> >,std::allocator<std::basic_string<char,std::char_traits<char>,std::allocator<char> > > >::_Tidy

; 389  : 		}

  0000f	8b e5		 mov	 esp, ebp
  00011	5d		 pop	 ebp
  00012	c3		 ret	 0
??1?$vector@V?$basic_string@DU?$char_traits@D@std@@V?$allocator@D@2@@std@@V?$allocator@V?$basic_string@DU?$char_traits@D@std@@V?$allocator@D@2@@std@@@2@@std@@QAE@XZ ENDP ; std::vector<std::basic_string<char,std::char_traits<char>,std::allocator<char> >,std::allocator<std::basic_string<char,std::char_traits<char>,std::allocator<char> > > >::~vector<std::basic_string<char,std::char_traits<char>,std::allocator<char> >,std::allocator<std::basic_string<char,std::char_traits<char>,std::allocator<char> > > >
_TEXT	ENDS
PUBLIC	??0iterator@?$vector@V?$basic_string@DU?$char_traits@D@std@@V?$allocator@D@2@@std@@V?$allocator@V?$basic_string@DU?$char_traits@D@std@@V?$allocator@D@2@@std@@@2@@std@@QAE@PAV?$basic_string@DU?$char_traits@D@std@@V?$allocator@D@2@@2@@Z ; std::vector<std::basic_string<char,std::char_traits<char>,std::allocator<char> >,std::allocator<std::basic_string<char,std::char_traits<char>,std::allocator<char> > > >::iterator::iterator
; Function compile flags: /Odt
;	COMDAT ?begin@?$vector@V?$basic_string@DU?$char_traits@D@std@@V?$allocator@D@2@@std@@V?$allocator@V?$basic_string@DU?$char_traits@D@std@@V?$allocator@D@2@@std@@@2@@std@@QAE?AViterator@12@XZ
_TEXT	SEGMENT
_this$ = -4						; size = 4
___$ReturnUdt$ = 8					; size = 4
?begin@?$vector@V?$basic_string@DU?$char_traits@D@std@@V?$allocator@D@2@@std@@V?$allocator@V?$basic_string@DU?$char_traits@D@std@@V?$allocator@D@2@@std@@@2@@std@@QAE?AViterator@12@XZ PROC NEAR ; std::vector<std::basic_string<char,std::char_traits<char>,std::allocator<char> >,std::allocator<std::basic_string<char,std::char_traits<char>,std::allocator<char> > > >::begin, COMDAT
; _this$ = ecx

; 462  : 		{	// return iterator for beginning of mutable sequence

  00000	55		 push	 ebp
  00001	8b ec		 mov	 ebp, esp
  00003	51		 push	 ecx
  00004	89 4d fc	 mov	 DWORD PTR _this$[ebp], ecx

; 463  : 		return (iterator(_Myfirst));

  00007	8b 45 fc	 mov	 eax, DWORD PTR _this$[ebp]
  0000a	8b 48 04	 mov	 ecx, DWORD PTR [eax+4]
  0000d	51		 push	 ecx
  0000e	8b 4d 08	 mov	 ecx, DWORD PTR ___$ReturnUdt$[ebp]
  00011	e8 00 00 00 00	 call	 ??0iterator@?$vector@V?$basic_string@DU?$char_traits@D@std@@V?$allocator@D@2@@std@@V?$allocator@V?$basic_string@DU?$char_traits@D@std@@V?$allocator@D@2@@std@@@2@@std@@QAE@PAV?$basic_string@DU?$char_traits@D@std@@V?$allocator@D@2@@2@@Z ; std::vector<std::basic_string<char,std::char_traits<char>,std::allocator<char> >,std::allocator<std::basic_string<char,std::char_traits<char>,std::allocator<char> > > >::iterator::iterator
  00016	8b 45 08	 mov	 eax, DWORD PTR ___$ReturnUdt$[ebp]

; 464  : 		}

  00019	8b e5		 mov	 esp, ebp
  0001b	5d		 pop	 ebp
  0001c	c2 04 00	 ret	 4
?begin@?$vector@V?$basic_string@DU?$char_traits@D@std@@V?$allocator@D@2@@std@@V?$allocator@V?$basic_string@DU?$char_traits@D@std@@V?$allocator@D@2@@std@@@2@@std@@QAE?AViterator@12@XZ ENDP ; std::vector<std::basic_string<char,std::char_traits<char>,std::allocator<char> >,std::allocator<std::basic_string<char,std::char_traits<char>,std::allocator<char> > > >::begin
; Function compile flags: /Odt
_TEXT	ENDS
;	COMDAT ?end@?$vector@V?$basic_string@DU?$char_traits@D@std@@V?$allocator@D@2@@std@@V?$allocator@V?$basic_string@DU?$char_traits@D@std@@V?$allocator@D@2@@std@@@2@@std@@QAE?AViterator@12@XZ
_TEXT	SEGMENT
_this$ = -4						; size = 4
___$ReturnUdt$ = 8					; size = 4
?end@?$vector@V?$basic_string@DU?$char_traits@D@std@@V?$allocator@D@2@@std@@V?$allocator@V?$basic_string@DU?$char_traits@D@std@@V?$allocator@D@2@@std@@@2@@std@@QAE?AViterator@12@XZ PROC NEAR ; std::vector<std::basic_string<char,std::char_traits<char>,std::allocator<char> >,std::allocator<std::basic_string<char,std::char_traits<char>,std::allocator<char> > > >::end, COMDAT
; _this$ = ecx

; 472  : 		{	// return iterator for end of mutable sequence

  00000	55		 push	 ebp
  00001	8b ec		 mov	 ebp, esp
  00003	51		 push	 ecx
  00004	89 4d fc	 mov	 DWORD PTR _this$[ebp], ecx

; 473  : 		return (iterator(_Mylast));

  00007	8b 45 fc	 mov	 eax, DWORD PTR _this$[ebp]
  0000a	8b 48 08	 mov	 ecx, DWORD PTR [eax+8]
  0000d	51		 push	 ecx
  0000e	8b 4d 08	 mov	 ecx, DWORD PTR ___$ReturnUdt$[ebp]
  00011	e8 00 00 00 00	 call	 ??0iterator@?$vector@V?$basic_string@DU?$char_traits@D@std@@V?$allocator@D@2@@std@@V?$allocator@V?$basic_string@DU?$char_traits@D@std@@V?$allocator@D@2@@std@@@2@@std@@QAE@PAV?$basic_string@DU?$char_traits@D@std@@V?$allocator@D@2@@2@@Z ; std::vector<std::basic_string<char,std::char_traits<char>,std::allocator<char> >,std::allocator<std::basic_string<char,std::char_traits<char>,std::allocator<char> > > >::iterator::iterator
  00016	8b 45 08	 mov	 eax, DWORD PTR ___$ReturnUdt$[ebp]

; 474  : 		}

  00019	8b e5		 mov	 esp, ebp
  0001b	5d		 pop	 ebp
  0001c	c2 04 00	 ret	 4
?end@?$vector@V?$basic_string@DU?$char_traits@D@std@@V?$allocator@D@2@@std@@V?$allocator@V?$basic_string@DU?$char_traits@D@std@@V?$allocator@D@2@@std@@@2@@std@@QAE?AViterator@12@XZ ENDP ; std::vector<std::basic_string<char,std::char_traits<char>,std::allocator<char> >,std::allocator<std::basic_string<char,std::char_traits<char>,std::allocator<char> > > >::end
; Function compile flags: /Odt
_TEXT	ENDS
;	COMDAT ?size@?$vector@V?$basic_string@DU?$char_traits@D@std@@V?$allocator@D@2@@std@@V?$allocator@V?$basic_string@DU?$char_traits@D@std@@V?$allocator@D@2@@std@@@2@@std@@QBEIXZ
_TEXT	SEGMENT
tv70 = -8						; size = 4
_this$ = -4						; size = 4
?size@?$vector@V?$basic_string@DU?$char_traits@D@std@@V?$allocator@D@2@@std@@V?$allocator@V?$basic_string@DU?$char_traits@D@std@@V?$allocator@D@2@@std@@@2@@std@@QBEIXZ PROC NEAR ; std::vector<std::basic_string<char,std::char_traits<char>,std::allocator<char> >,std::allocator<std::basic_string<char,std::char_traits<char>,std::allocator<char> > > >::size, COMDAT
; _this$ = ecx

; 515  : 		{	// return length of sequence

  00000	55		 push	 ebp
  00001	8b ec		 mov	 ebp, esp
  00003	83 ec 08	 sub	 esp, 8
  00006	89 4d fc	 mov	 DWORD PTR _this$[ebp], ecx

; 516  : 		return (_Myfirst == 0 ? 0 : _Mylast - _Myfirst);

  00009	8b 45 fc	 mov	 eax, DWORD PTR _this$[ebp]
  0000c	83 78 04 00	 cmp	 DWORD PTR [eax+4], 0
  00010	75 09		 jne	 SHORT $L88315
  00012	c7 45 f8 00 00
	00 00		 mov	 DWORD PTR tv70[ebp], 0
  00019	eb 17		 jmp	 SHORT $L88316
$L88315:
  0001b	8b 4d fc	 mov	 ecx, DWORD PTR _this$[ebp]
  0001e	8b 55 fc	 mov	 edx, DWORD PTR _this$[ebp]
  00021	8b 41 08	 mov	 eax, DWORD PTR [ecx+8]
  00024	2b 42 04	 sub	 eax, DWORD PTR [edx+4]
  00027	99		 cdq
  00028	b9 1c 00 00 00	 mov	 ecx, 28			; 0000001cH
  0002d	f7 f9		 idiv	 ecx
  0002f	89 45 f8	 mov	 DWORD PTR tv70[ebp], eax
$L88316:
  00032	8b 45 f8	 mov	 eax, DWORD PTR tv70[ebp]

; 517  : 		}

  00035	8b e5		 mov	 esp, ebp
  00037	5d		 pop	 ebp
  00038	c3		 ret	 0
?size@?$vector@V?$basic_string@DU?$char_traits@D@std@@V?$allocator@D@2@@std@@V?$allocator@V?$basic_string@DU?$char_traits@D@std@@V?$allocator@D@2@@std@@@2@@std@@QBEIXZ ENDP ; std::vector<std::basic_string<char,std::char_traits<char>,std::allocator<char> >,std::allocator<std::basic_string<char,std::char_traits<char>,std::allocator<char> > > >::size
_TEXT	ENDS
PUBLIC	?begin@?$vector@V?$basic_string@DU?$char_traits@D@std@@V?$allocator@D@2@@std@@V?$allocator@V?$basic_string@DU?$char_traits@D@std@@V?$allocator@D@2@@std@@@2@@std@@QBE?AVconst_iterator@12@XZ ; std::vector<std::basic_string<char,std::char_traits<char>,std::allocator<char> >,std::allocator<std::basic_string<char,std::char_traits<char>,std::allocator<char> > > >::begin
PUBLIC	??Dconst_iterator@?$vector@V?$basic_string@DU?$char_traits@D@std@@V?$allocator@D@2@@std@@V?$allocator@V?$basic_string@DU?$char_traits@D@std@@V?$allocator@D@2@@std@@@2@@std@@QBEABV?$basic_string@DU?$char_traits@D@std@@V?$allocator@D@2@@2@XZ ; std::vector<std::basic_string<char,std::char_traits<char>,std::allocator<char> >,std::allocator<std::basic_string<char,std::char_traits<char>,std::allocator<char> > > >::const_iterator::operator*
PUBLIC	??Hconst_iterator@?$vector@V?$basic_string@DU?$char_traits@D@std@@V?$allocator@D@2@@std@@V?$allocator@V?$basic_string@DU?$char_traits@D@std@@V?$allocator@D@2@@std@@@2@@std@@QBE?AV012@H@Z ; std::vector<std::basic_string<char,std::char_traits<char>,std::allocator<char> >,std::allocator<std::basic_string<char,std::char_traits<char>,std::allocator<char> > > >::const_iterator::operator+
; Function compile flags: /Odt
;	COMDAT ??A?$vector@V?$basic_string@DU?$char_traits@D@std@@V?$allocator@D@2@@std@@V?$allocator@V?$basic_string@DU?$char_traits@D@std@@V?$allocator@D@2@@std@@@2@@std@@QBEABV?$basic_string@DU?$char_traits@D@std@@V?$allocator@D@2@@1@I@Z
_TEXT	SEGMENT
_this$ = -12						; size = 4
$T88320 = -8						; size = 4
$T88319 = -4						; size = 4
__Pos$ = 8						; size = 4
??A?$vector@V?$basic_string@DU?$char_traits@D@std@@V?$allocator@D@2@@std@@V?$allocator@V?$basic_string@DU?$char_traits@D@std@@V?$allocator@D@2@@std@@@2@@std@@QBEABV?$basic_string@DU?$char_traits@D@std@@V?$allocator@D@2@@1@I@Z PROC NEAR ; std::vector<std::basic_string<char,std::char_traits<char>,std::allocator<char> >,std::allocator<std::basic_string<char,std::char_traits<char>,std::allocator<char> > > >::operator[], COMDAT
; _this$ = ecx

; 549  : 		{	// subscript nonmutable sequence

  00000	55		 push	 ebp
  00001	8b ec		 mov	 ebp, esp
  00003	83 ec 0c	 sub	 esp, 12			; 0000000cH
  00006	89 4d f4	 mov	 DWORD PTR _this$[ebp], ecx

; 550  : 		return (*(begin() + _Pos));

  00009	8b 45 08	 mov	 eax, DWORD PTR __Pos$[ebp]
  0000c	50		 push	 eax
  0000d	8d 4d f8	 lea	 ecx, DWORD PTR $T88320[ebp]
  00010	51		 push	 ecx
  00011	8d 55 fc	 lea	 edx, DWORD PTR $T88319[ebp]
  00014	52		 push	 edx
  00015	8b 4d f4	 mov	 ecx, DWORD PTR _this$[ebp]
  00018	e8 00 00 00 00	 call	 ?begin@?$vector@V?$basic_string@DU?$char_traits@D@std@@V?$allocator@D@2@@std@@V?$allocator@V?$basic_string@DU?$char_traits@D@std@@V?$allocator@D@2@@std@@@2@@std@@QBE?AVconst_iterator@12@XZ ; std::vector<std::basic_string<char,std::char_traits<char>,std::allocator<char> >,std::allocator<std::basic_string<char,std::char_traits<char>,std::allocator<char> > > >::begin
  0001d	8b c8		 mov	 ecx, eax
  0001f	e8 00 00 00 00	 call	 ??Hconst_iterator@?$vector@V?$basic_string@DU?$char_traits@D@std@@V?$allocator@D@2@@std@@V?$allocator@V?$basic_string@DU?$char_traits@D@std@@V?$allocator@D@2@@std@@@2@@std@@QBE?AV012@H@Z ; std::vector<std::basic_string<char,std::char_traits<char>,std::allocator<char> >,std::allocator<std::basic_string<char,std::char_traits<char>,std::allocator<char> > > >::const_iterator::operator+
  00024	8b c8		 mov	 ecx, eax
  00026	e8 00 00 00 00	 call	 ??Dconst_iterator@?$vector@V?$basic_string@DU?$char_traits@D@std@@V?$allocator@D@2@@std@@V?$allocator@V?$basic_string@DU?$char_traits@D@std@@V?$allocator@D@2@@std@@@2@@std@@QBEABV?$basic_string@DU?$char_traits@D@std@@V?$allocator@D@2@@2@XZ ; std::vector<std::basic_string<char,std::char_traits<char>,std::allocator<char> >,std::allocator<std::basic_string<char,std::char_traits<char>,std::allocator<char> > > >::const_iterator::operator*

; 551  : 		}

  0002b	8b e5		 mov	 esp, ebp
  0002d	5d		 pop	 ebp
  0002e	c2 04 00	 ret	 4
??A?$vector@V?$basic_string@DU?$char_traits@D@std@@V?$allocator@D@2@@std@@V?$allocator@V?$basic_string@DU?$char_traits@D@std@@V?$allocator@D@2@@std@@@2@@std@@QBEABV?$basic_string@DU?$char_traits@D@std@@V?$allocator@D@2@@1@I@Z ENDP ; std::vector<std::basic_string<char,std::char_traits<char>,std::allocator<char> >,std::allocator<std::basic_string<char,std::char_traits<char>,std::allocator<char> > > >::operator[]
_TEXT	ENDS
PUBLIC	??Hiterator@?$vector@V?$basic_string@DU?$char_traits@D@std@@V?$allocator@D@2@@std@@V?$allocator@V?$basic_string@DU?$char_traits@D@std@@V?$allocator@D@2@@std@@@2@@std@@QBE?AV012@H@Z ; std::vector<std::basic_string<char,std::char_traits<char>,std::allocator<char> >,std::allocator<std::basic_string<char,std::char_traits<char>,std::allocator<char> > > >::iterator::operator+
; Function compile flags: /Odt
;	COMDAT ??A?$vector@V?$basic_string@DU?$char_traits@D@std@@V?$allocator@D@2@@std@@V?$allocator@V?$basic_string@DU?$char_traits@D@std@@V?$allocator@D@2@@std@@@2@@std@@QAEAAV?$basic_string@DU?$char_traits@D@std@@V?$allocator@D@2@@1@I@Z
_TEXT	SEGMENT
_this$ = -12						; size = 4
$T88324 = -8						; size = 4
$T88323 = -4						; size = 4
__Pos$ = 8						; size = 4
??A?$vector@V?$basic_string@DU?$char_traits@D@std@@V?$allocator@D@2@@std@@V?$allocator@V?$basic_string@DU?$char_traits@D@std@@V?$allocator@D@2@@std@@@2@@std@@QAEAAV?$basic_string@DU?$char_traits@D@std@@V?$allocator@D@2@@1@I@Z PROC NEAR ; std::vector<std::basic_string<char,std::char_traits<char>,std::allocator<char> >,std::allocator<std::basic_string<char,std::char_traits<char>,std::allocator<char> > > >::operator[], COMDAT
; _this$ = ecx

; 554  : 		{	// subscript mutable sequence

  00000	55		 push	 ebp
  00001	8b ec		 mov	 ebp, esp
  00003	83 ec 0c	 sub	 esp, 12			; 0000000cH
  00006	89 4d f4	 mov	 DWORD PTR _this$[ebp], ecx

; 555  : 		return (*(begin() + _Pos));

  00009	8b 45 08	 mov	 eax, DWORD PTR __Pos$[ebp]
  0000c	50		 push	 eax
  0000d	8d 4d f8	 lea	 ecx, DWORD PTR $T88324[ebp]
  00010	51		 push	 ecx
  00011	8d 55 fc	 lea	 edx, DWORD PTR $T88323[ebp]
  00014	52		 push	 edx
  00015	8b 4d f4	 mov	 ecx, DWORD PTR _this$[ebp]
  00018	e8 00 00 00 00	 call	 ?begin@?$vector@V?$basic_string@DU?$char_traits@D@std@@V?$allocator@D@2@@std@@V?$allocator@V?$basic_string@DU?$char_traits@D@std@@V?$allocator@D@2@@std@@@2@@std@@QAE?AViterator@12@XZ ; std::vector<std::basic_string<char,std::char_traits<char>,std::allocator<char> >,std::allocator<std::basic_string<char,std::char_traits<char>,std::allocator<char> > > >::begin
  0001d	8b c8		 mov	 ecx, eax
  0001f	e8 00 00 00 00	 call	 ??Hiterator@?$vector@V?$basic_string@DU?$char_traits@D@std@@V?$allocator@D@2@@std@@V?$allocator@V?$basic_string@DU?$char_traits@D@std@@V?$allocator@D@2@@std@@@2@@std@@QBE?AV012@H@Z ; std::vector<std::basic_string<char,std::char_traits<char>,std::allocator<char> >,std::allocator<std::basic_string<char,std::char_traits<char>,std::allocator<char> > > >::iterator::operator+
  00024	8b c8		 mov	 ecx, eax
  00026	e8 00 00 00 00	 call	 ??Diterator@?$vector@V?$basic_string@DU?$char_traits@D@std@@V?$allocator@D@2@@std@@V?$allocator@V?$basic_string@DU?$char_traits@D@std@@V?$allocator@D@2@@std@@@2@@std@@QBEAAV?$basic_string@DU?$char_traits@D@std@@V?$allocator@D@2@@2@XZ ; std::vector<std::basic_string<char,std::char_traits<char>,std::allocator<char> >,std::allocator<std::basic_string<char,std::char_traits<char>,std::allocator<char> > > >::iterator::operator*

; 556  : 		}

  0002b	8b e5		 mov	 esp, ebp
  0002d	5d		 pop	 ebp
  0002e	c2 04 00	 ret	 4
??A?$vector@V?$basic_string@DU?$char_traits@D@std@@V?$allocator@D@2@@std@@V?$allocator@V?$basic_string@DU?$char_traits@D@std@@V?$allocator@D@2@@std@@@2@@std@@QAEAAV?$basic_string@DU?$char_traits@D@std@@V?$allocator@D@2@@1@I@Z ENDP ; std::vector<std::basic_string<char,std::char_traits<char>,std::allocator<char> >,std::allocator<std::basic_string<char,std::char_traits<char>,std::allocator<char> > > >::operator[]
_TEXT	ENDS
PUBLIC	?capacity@?$vector@V?$basic_string@DU?$char_traits@D@std@@V?$allocator@D@2@@std@@V?$allocator@V?$basic_string@DU?$char_traits@D@std@@V?$allocator@D@2@@std@@@2@@std@@QBEIXZ ; std::vector<std::basic_string<char,std::char_traits<char>,std::allocator<char> >,std::allocator<std::basic_string<char,std::char_traits<char>,std::allocator<char> > > >::capacity
PUBLIC	?insert@?$vector@V?$basic_string@DU?$char_traits@D@std@@V?$allocator@D@2@@std@@V?$allocator@V?$basic_string@DU?$char_traits@D@std@@V?$allocator@D@2@@std@@@2@@std@@QAE?AViterator@12@V312@ABV?$basic_string@DU?$char_traits@D@std@@V?$allocator@D@2@@2@@Z ; std::vector<std::basic_string<char,std::char_traits<char>,std::allocator<char> >,std::allocator<std::basic_string<char,std::char_traits<char>,std::allocator<char> > > >::insert
PUBLIC	?_Ufill@?$vector@V?$basic_string@DU?$char_traits@D@std@@V?$allocator@D@2@@std@@V?$allocator@V?$basic_string@DU?$char_traits@D@std@@V?$allocator@D@2@@std@@@2@@std@@IAEPAV?$basic_string@DU?$char_traits@D@std@@V?$allocator@D@2@@2@PAV32@IABV32@@Z ; std::vector<std::basic_string<char,std::char_traits<char>,std::allocator<char> >,std::allocator<std::basic_string<char,std::char_traits<char>,std::allocator<char> > > >::_Ufill
; Function compile flags: /Odt
;	COMDAT ?push_back@?$vector@V?$basic_string@DU?$char_traits@D@std@@V?$allocator@D@2@@std@@V?$allocator@V?$basic_string@DU?$char_traits@D@std@@V?$allocator@D@2@@std@@@2@@std@@QAEXABV?$basic_string@DU?$char_traits@D@std@@V?$allocator@D@2@@2@@Z
_TEXT	SEGMENT
_this$ = -12						; size = 4
$T88328 = -8						; size = 4
$T88327 = -4						; size = 4
__Val$ = 8						; size = 4
?push_back@?$vector@V?$basic_string@DU?$char_traits@D@std@@V?$allocator@D@2@@std@@V?$allocator@V?$basic_string@DU?$char_traits@D@std@@V?$allocator@D@2@@std@@@2@@std@@QAEXABV?$basic_string@DU?$char_traits@D@std@@V?$allocator@D@2@@2@@Z PROC NEAR ; std::vector<std::basic_string<char,std::char_traits<char>,std::allocator<char> >,std::allocator<std::basic_string<char,std::char_traits<char>,std::allocator<char> > > >::push_back, COMDAT
; _this$ = ecx

; 579  : 		{	// insert element at end

  00000	55		 push	 ebp
  00001	8b ec		 mov	 ebp, esp
  00003	83 ec 0c	 sub	 esp, 12			; 0000000cH
  00006	56		 push	 esi
  00007	89 4d f4	 mov	 DWORD PTR _this$[ebp], ecx

; 580  : 		if (size() < capacity())

  0000a	8b 4d f4	 mov	 ecx, DWORD PTR _this$[ebp]
  0000d	e8 00 00 00 00	 call	 ?size@?$vector@V?$basic_string@DU?$char_traits@D@std@@V?$allocator@D@2@@std@@V?$allocator@V?$basic_string@DU?$char_traits@D@std@@V?$allocator@D@2@@std@@@2@@std@@QBEIXZ ; std::vector<std::basic_string<char,std::char_traits<char>,std::allocator<char> >,std::allocator<std::basic_string<char,std::char_traits<char>,std::allocator<char> > > >::size
  00012	8b f0		 mov	 esi, eax
  00014	8b 4d f4	 mov	 ecx, DWORD PTR _this$[ebp]
  00017	e8 00 00 00 00	 call	 ?capacity@?$vector@V?$basic_string@DU?$char_traits@D@std@@V?$allocator@D@2@@std@@V?$allocator@V?$basic_string@DU?$char_traits@D@std@@V?$allocator@D@2@@std@@@2@@std@@QBEIXZ ; std::vector<std::basic_string<char,std::char_traits<char>,std::allocator<char> >,std::allocator<std::basic_string<char,std::char_traits<char>,std::allocator<char> > > >::capacity
  0001c	3b f0		 cmp	 esi, eax
  0001e	73 1d		 jae	 SHORT $L84931

; 581  : 			_Mylast = _Ufill(_Mylast, 1, _Val);

  00020	8b 45 08	 mov	 eax, DWORD PTR __Val$[ebp]
  00023	50		 push	 eax
  00024	6a 01		 push	 1
  00026	8b 4d f4	 mov	 ecx, DWORD PTR _this$[ebp]
  00029	8b 51 08	 mov	 edx, DWORD PTR [ecx+8]
  0002c	52		 push	 edx
  0002d	8b 4d f4	 mov	 ecx, DWORD PTR _this$[ebp]
  00030	e8 00 00 00 00	 call	 ?_Ufill@?$vector@V?$basic_string@DU?$char_traits@D@std@@V?$allocator@D@2@@std@@V?$allocator@V?$basic_string@DU?$char_traits@D@std@@V?$allocator@D@2@@std@@@2@@std@@IAEPAV?$basic_string@DU?$char_traits@D@std@@V?$allocator@D@2@@2@PAV32@IABV32@@Z ; std::vector<std::basic_string<char,std::char_traits<char>,std::allocator<char> >,std::allocator<std::basic_string<char,std::char_traits<char>,std::allocator<char> > > >::_Ufill
  00035	8b 4d f4	 mov	 ecx, DWORD PTR _this$[ebp]
  00038	89 41 08	 mov	 DWORD PTR [ecx+8], eax

; 582  : 		else

  0003b	eb 1f		 jmp	 SHORT $L84930
$L84931:

; 583  : 			insert(end(), _Val);

  0003d	8b 55 08	 mov	 edx, DWORD PTR __Val$[ebp]
  00040	52		 push	 edx
  00041	8d 45 fc	 lea	 eax, DWORD PTR $T88327[ebp]
  00044	50		 push	 eax
  00045	8b 4d f4	 mov	 ecx, DWORD PTR _this$[ebp]
  00048	e8 00 00 00 00	 call	 ?end@?$vector@V?$basic_string@DU?$char_traits@D@std@@V?$allocator@D@2@@std@@V?$allocator@V?$basic_string@DU?$char_traits@D@std@@V?$allocator@D@2@@std@@@2@@std@@QAE?AViterator@12@XZ ; std::vector<std::basic_string<char,std::char_traits<char>,std::allocator<char> >,std::allocator<std::basic_string<char,std::char_traits<char>,std::allocator<char> > > >::end
  0004d	8b 08		 mov	 ecx, DWORD PTR [eax]
  0004f	51		 push	 ecx
  00050	8d 55 f8	 lea	 edx, DWORD PTR $T88328[ebp]
  00053	52		 push	 edx
  00054	8b 4d f4	 mov	 ecx, DWORD PTR _this$[ebp]
  00057	e8 00 00 00 00	 call	 ?insert@?$vector@V?$basic_string@DU?$char_traits@D@std@@V?$allocator@D@2@@std@@V?$allocator@V?$basic_string@DU?$char_traits@D@std@@V?$allocator@D@2@@std@@@2@@std@@QAE?AViterator@12@V312@ABV?$basic_string@DU?$char_traits@D@std@@V?$allocator@D@2@@2@@Z ; std::vector<std::basic_string<char,std::char_traits<char>,std::allocator<char> >,std::allocator<std::basic_string<char,std::char_traits<char>,std::allocator<char> > > >::insert
$L84930:

; 584  : 		}

  0005c	5e		 pop	 esi
  0005d	8b e5		 mov	 esp, ebp
  0005f	5d		 pop	 ebp
  00060	c2 04 00	 ret	 4
?push_back@?$vector@V?$basic_string@DU?$char_traits@D@std@@V?$allocator@D@2@@std@@V?$allocator@V?$basic_string@DU?$char_traits@D@std@@V?$allocator@D@2@@std@@@2@@std@@QAEXABV?$basic_string@DU?$char_traits@D@std@@V?$allocator@D@2@@2@@Z ENDP ; std::vector<std::basic_string<char,std::char_traits<char>,std::allocator<char> >,std::allocator<std::basic_string<char,std::char_traits<char>,std::allocator<char> > > >::push_back
; Function compile flags: /Odt
_TEXT	ENDS
;	COMDAT ??Diterator@?$vector@V?$basic_string@DU?$char_traits@D@std@@V?$allocator@D@2@@std@@V?$allocator@V?$basic_string@DU?$char_traits@D@std@@V?$allocator@D@2@@std@@@2@@std@@QBEAAV?$basic_string@DU?$char_traits@D@std@@V?$allocator@D@2@@2@XZ
_TEXT	SEGMENT
_this$ = -4						; size = 4
??Diterator@?$vector@V?$basic_string@DU?$char_traits@D@std@@V?$allocator@D@2@@std@@V?$allocator@V?$basic_string@DU?$char_traits@D@std@@V?$allocator@D@2@@std@@@2@@std@@QBEAAV?$basic_string@DU?$char_traits@D@std@@V?$allocator@D@2@@2@XZ PROC NEAR ; std::vector<std::basic_string<char,std::char_traits<char>,std::allocator<char> >,std::allocator<std::basic_string<char,std::char_traits<char>,std::allocator<char> > > >::iterator::operator*, COMDAT
; _this$ = ecx

; 219  : 			{	// return designated object

  00000	55		 push	 ebp
  00001	8b ec		 mov	 ebp, esp
  00003	51		 push	 ecx
  00004	89 4d fc	 mov	 DWORD PTR _this$[ebp], ecx

; 220  : 			return ((reference)**(const_iterator *)this);

  00007	8b 4d fc	 mov	 ecx, DWORD PTR _this$[ebp]
  0000a	e8 00 00 00 00	 call	 ??Dconst_iterator@?$vector@V?$basic_string@DU?$char_traits@D@std@@V?$allocator@D@2@@std@@V?$allocator@V?$basic_string@DU?$char_traits@D@std@@V?$allocator@D@2@@std@@@2@@std@@QBEABV?$basic_string@DU?$char_traits@D@std@@V?$allocator@D@2@@2@XZ ; std::vector<std::basic_string<char,std::char_traits<char>,std::allocator<char> >,std::allocator<std::basic_string<char,std::char_traits<char>,std::allocator<char> > > >::const_iterator::operator*

; 221  : 			}

  0000f	8b e5		 mov	 esp, ebp
  00011	5d		 pop	 ebp
  00012	c3		 ret	 0
??Diterator@?$vector@V?$basic_string@DU?$char_traits@D@std@@V?$allocator@D@2@@std@@V?$allocator@V?$basic_string@DU?$char_traits@D@std@@V?$allocator@D@2@@std@@@2@@std@@QBEAAV?$basic_string@DU?$char_traits@D@std@@V?$allocator@D@2@@2@XZ ENDP ; std::vector<std::basic_string<char,std::char_traits<char>,std::allocator<char> >,std::allocator<std::basic_string<char,std::char_traits<char>,std::allocator<char> > > >::iterator::operator*
; Function compile flags: /Odt
_TEXT	ENDS
;	COMDAT ??Citerator@?$vector@V?$basic_string@DU?$char_traits@D@std@@V?$allocator@D@2@@std@@V?$allocator@V?$basic_string@DU?$char_traits@D@std@@V?$allocator@D@2@@std@@@2@@std@@QBEPAV?$basic_string@DU?$char_traits@D@std@@V?$allocator@D@2@@2@XZ
_TEXT	SEGMENT
_this$ = -4						; size = 4
??Citerator@?$vector@V?$basic_string@DU?$char_traits@D@std@@V?$allocator@D@2@@std@@V?$allocator@V?$basic_string@DU?$char_traits@D@std@@V?$allocator@D@2@@std@@@2@@std@@QBEPAV?$basic_string@DU?$char_traits@D@std@@V?$allocator@D@2@@2@XZ PROC NEAR ; std::vector<std::basic_string<char,std::char_traits<char>,std::allocator<char> >,std::allocator<std::basic_string<char,std::char_traits<char>,std::allocator<char> > > >::iterator::operator->, COMDAT
; _this$ = ecx

; 224  : 			{	// return pointer to class object

  00000	55		 push	 ebp
  00001	8b ec		 mov	 ebp, esp
  00003	51		 push	 ecx
  00004	89 4d fc	 mov	 DWORD PTR _this$[ebp], ecx

; 225  : 			return (&**this);

  00007	8b 4d fc	 mov	 ecx, DWORD PTR _this$[ebp]
  0000a	e8 00 00 00 00	 call	 ??Diterator@?$vector@V?$basic_string@DU?$char_traits@D@std@@V?$allocator@D@2@@std@@V?$allocator@V?$basic_string@DU?$char_traits@D@std@@V?$allocator@D@2@@std@@@2@@std@@QBEAAV?$basic_string@DU?$char_traits@D@std@@V?$allocator@D@2@@2@XZ ; std::vector<std::basic_string<char,std::char_traits<char>,std::allocator<char> >,std::allocator<std::basic_string<char,std::char_traits<char>,std::allocator<char> > > >::iterator::operator*

; 226  : 			}

  0000f	8b e5		 mov	 esp, ebp
  00011	5d		 pop	 ebp
  00012	c3		 ret	 0
??Citerator@?$vector@V?$basic_string@DU?$char_traits@D@std@@V?$allocator@D@2@@std@@V?$allocator@V?$basic_string@DU?$char_traits@D@std@@V?$allocator@D@2@@std@@@2@@std@@QBEPAV?$basic_string@DU?$char_traits@D@std@@V?$allocator@D@2@@2@XZ ENDP ; std::vector<std::basic_string<char,std::char_traits<char>,std::allocator<char> >,std::allocator<std::basic_string<char,std::char_traits<char>,std::allocator<char> > > >::iterator::operator->
_TEXT	ENDS
PUBLIC	??Eiterator@?$vector@V?$basic_string@DU?$char_traits@D@std@@V?$allocator@D@2@@std@@V?$allocator@V?$basic_string@DU?$char_traits@D@std@@V?$allocator@D@2@@std@@@2@@std@@QAEAAV012@XZ ; std::vector<std::basic_string<char,std::char_traits<char>,std::allocator<char> >,std::allocator<std::basic_string<char,std::char_traits<char>,std::allocator<char> > > >::iterator::operator++
; Function compile flags: /Odt
;	COMDAT ??Eiterator@?$vector@V?$basic_string@DU?$char_traits@D@std@@V?$allocator@D@2@@std@@V?$allocator@V?$basic_string@DU?$char_traits@D@std@@V?$allocator@D@2@@std@@@2@@std@@QAE?AV012@H@Z
_TEXT	SEGMENT
_this$ = -8						; size = 4
__Tmp$ = -4						; size = 4
___$ReturnUdt$ = 8					; size = 4
___formal$ = 12						; size = 4
??Eiterator@?$vector@V?$basic_string@DU?$char_traits@D@std@@V?$allocator@D@2@@std@@V?$allocator@V?$basic_string@DU?$char_traits@D@std@@V?$allocator@D@2@@std@@@2@@std@@QAE?AV012@H@Z PROC NEAR ; std::vector<std::basic_string<char,std::char_traits<char>,std::allocator<char> >,std::allocator<std::basic_string<char,std::char_traits<char>,std::allocator<char> > > >::iterator::operator++, COMDAT
; _this$ = ecx

; 235  : 			{	// postincrement

  00000	55		 push	 ebp
  00001	8b ec		 mov	 ebp, esp
  00003	83 ec 08	 sub	 esp, 8
  00006	89 4d f8	 mov	 DWORD PTR _this$[ebp], ecx

; 236  : 			iterator _Tmp = *this;

  00009	8b 45 f8	 mov	 eax, DWORD PTR _this$[ebp]
  0000c	8b 08		 mov	 ecx, DWORD PTR [eax]
  0000e	89 4d fc	 mov	 DWORD PTR __Tmp$[ebp], ecx

; 237  : 			++*this;

  00011	8b 4d f8	 mov	 ecx, DWORD PTR _this$[ebp]
  00014	e8 00 00 00 00	 call	 ??Eiterator@?$vector@V?$basic_string@DU?$char_traits@D@std@@V?$allocator@D@2@@std@@V?$allocator@V?$basic_string@DU?$char_traits@D@std@@V?$allocator@D@2@@std@@@2@@std@@QAEAAV012@XZ ; std::vector<std::basic_string<char,std::char_traits<char>,std::allocator<char> >,std::allocator<std::basic_string<char,std::char_traits<char>,std::allocator<char> > > >::iterator::operator++

; 238  : 			return (_Tmp);

  00019	8b 55 08	 mov	 edx, DWORD PTR ___$ReturnUdt$[ebp]
