; Listing generated by Microsoft (R) Optimizing Compiler Version 13.10.3077 

	TITLE	\boxgit\PlayBox\CommonLib\common\YL_DirInfo.cpp
	.386P
include listing.inc
if @Version gt 510
.model FLAT
else
_TEXT	SEGMENT PARA USE32 PUBLIC 'CODE'
_TEXT	ENDS
_DATA	SEGMENT DWORD USE32 PUBLIC 'DATA'
_DATA	ENDS
CONST	SEGMENT DWORD USE32 PUBLIC 'CONST'
CONST	ENDS
_BSS	SEGMENT DWORD USE32 PUBLIC 'BSS'
_BSS	ENDS
$$SYMBOLS	SEGMENT BYTE USE32 'DEBSYM'
$$SYMBOLS	ENDS
$$TYPES	SEGMENT BYTE USE32 'DEBTYP'
$$TYPES	ENDS
_TLS	SEGMENT DWORD USE32 PUBLIC 'TLS'
_TLS	ENDS
;	COMDAT ??_C@_0FG@EOHGAEB@?3Sun?3Sunday?3Mon?3Monday?3Tue?3Tuesd@
CONST	SEGMENT DWORD USE32 PUBLIC 'CONST'
CONST	ENDS
;	COMDAT ??_C@_0IH@HPGJLCCK@?3Jan?3January?3Feb?3February?3Mar?3Ma@
CONST	SEGMENT DWORD USE32 PUBLIC 'CONST'
CONST	ENDS
;	COMDAT ??_C@_05LAPONLG@false?$AA@
CONST	SEGMENT DWORD USE32 PUBLIC 'CONST'
CONST	ENDS
;	COMDAT ??_C@_04LOAJBDKD@true?$AA@
CONST	SEGMENT DWORD USE32 PUBLIC 'CONST'
CONST	ENDS
;	COMDAT ??_C@_01GFHCPBMG@C?$AA@
CONST	SEGMENT DWORD USE32 PUBLIC 'CONST'
CONST	ENDS
;	COMDAT ??_C@_02EAOCLKAK@ld?$AA@
CONST	SEGMENT DWORD USE32 PUBLIC 'CONST'
CONST	ENDS
;	COMDAT ??_C@_02BDDLJJBK@lu?$AA@
CONST	SEGMENT DWORD USE32 PUBLIC 'CONST'
CONST	ENDS
;	COMDAT ??_C@_02HIKPPMOK@Ld?$AA@
CONST	SEGMENT DWORD USE32 PUBLIC 'CONST'
CONST	ENDS
;	COMDAT ??_C@_02CLHGNPPK@Lu?$AA@
CONST	SEGMENT DWORD USE32 PUBLIC 'CONST'
CONST	ENDS
;	COMDAT ??_C@_02BBAHNLBA@?$CFp?$AA@
CONST	SEGMENT DWORD USE32 PUBLIC 'CONST'
CONST	ENDS
;	COMDAT ??_C@_0BH@HHDGIIFB@0123456789abcdefABCDEF?$AA@
CONST	SEGMENT DWORD USE32 PUBLIC 'CONST'
CONST	ENDS
;	COMDAT ??_C@_01DDCIFGEA@E?$AA@
CONST	SEGMENT DWORD USE32 PUBLIC 'CONST'
CONST	ENDS
;	COMDAT ??_C@_01KGKMHCOC@e?$AA@
CONST	SEGMENT DWORD USE32 PUBLIC 'CONST'
CONST	ENDS
;	COMDAT ??_C@_0BD@OLBABOEK@vector?$DMT?$DO?5too?5long?$AA@
CONST	SEGMENT DWORD USE32 PUBLIC 'CONST'
CONST	ENDS
;	COMDAT ??_C@_08EPJLHIJG@bad?5cast?$AA@
CONST	SEGMENT DWORD USE32 PUBLIC 'CONST'
CONST	ENDS
rdata$r	SEGMENT DWORD USE32 PUBLIC 'CONST'
rdata$r	ENDS
xdata$x	SEGMENT DWORD USE32 PUBLIC 'CONST'
xdata$x	ENDS
;	COMDAT _IsEqualGUID
_TEXT	SEGMENT PARA USE32 PUBLIC 'CODE'
_TEXT	ENDS
;	COMDAT _==
_TEXT	SEGMENT PARA USE32 PUBLIC 'CODE'
_TEXT	ENDS
;	COMDAT ??1bad_exception@std@@UAE@XZ
_TEXT	SEGMENT PARA USE32 PUBLIC 'CODE'
_TEXT	ENDS
;	COMDAT ??_Gbad_exception@std@@UAEPAXI@Z
_TEXT	SEGMENT PARA USE32 PUBLIC 'CODE'
_TEXT	ENDS
;	COMDAT ??1bad_alloc@std@@UAE@XZ
_TEXT	SEGMENT PARA USE32 PUBLIC 'CODE'
_TEXT	ENDS
;	COMDAT ??_Gbad_alloc@std@@UAEPAXI@Z
_TEXT	SEGMENT PARA USE32 PUBLIC 'CODE'
_TEXT	ENDS
;	COMDAT ??2@YAPAXIPAX@Z
_TEXT	SEGMENT PARA USE32 PUBLIC 'CODE'
_TEXT	ENDS
;	COMDAT ??3@YAXPAX0@Z
_TEXT	SEGMENT PARA USE32 PUBLIC 'CODE'
_TEXT	ENDS
;	COMDAT _wmemchr
_TEXT	SEGMENT PARA USE32 PUBLIC 'CODE'
_TEXT	ENDS
;	COMDAT _wmemcmp
_TEXT	SEGMENT PARA USE32 PUBLIC 'CODE'
_TEXT	ENDS
;	COMDAT _wmemcpy
_TEXT	SEGMENT PARA USE32 PUBLIC 'CODE'
_TEXT	ENDS
;	COMDAT _wmemmove
_TEXT	SEGMENT PARA USE32 PUBLIC 'CODE'
_TEXT	ENDS
;	COMDAT _wmemset
_TEXT	SEGMENT PARA USE32 PUBLIC 'CODE'
_TEXT	ENDS
;	COMDAT ??0logic_error@std@@QAE@ABV?$basic_string@DU?$char_traits@D@std@@V?$allocator@D@2@@1@@Z
_TEXT	SEGMENT PARA USE32 PUBLIC 'CODE'
_TEXT	ENDS
;	COMDAT ??1logic_error@std@@UAE@XZ
_TEXT	SEGMENT PARA USE32 PUBLIC 'CODE'
_TEXT	ENDS
;	COMDAT ?what@logic_error@std@@UBEPBDXZ
_TEXT	SEGMENT PARA USE32 PUBLIC 'CODE'
_TEXT	ENDS
;	COMDAT ??_Glogic_error@std@@UAEPAXI@Z
_TEXT	SEGMENT PARA USE32 PUBLIC 'CODE'
_TEXT	ENDS
;	COMDAT ??1domain_error@std@@UAE@XZ
_TEXT	SEGMENT PARA USE32 PUBLIC 'CODE'
_TEXT	ENDS
;	COMDAT ??_Gdomain_error@std@@UAEPAXI@Z
_TEXT	SEGMENT PARA USE32 PUBLIC 'CODE'
_TEXT	ENDS
;	COMDAT ??1invalid_argument@std@@UAE@XZ
_TEXT	SEGMENT PARA USE32 PUBLIC 'CODE'
_TEXT	ENDS
;	COMDAT ??_Ginvalid_argument@std@@UAEPAXI@Z
_TEXT	SEGMENT PARA USE32 PUBLIC 'CODE'
_TEXT	ENDS
;	COMDAT ??0length_error@std@@QAE@ABV?$basic_string@DU?$char_traits@D@std@@V?$allocator@D@2@@1@@Z
_TEXT	SEGMENT PARA USE32 PUBLIC 'CODE'
_TEXT	ENDS
;	COMDAT ??1length_error@std@@UAE@XZ
_TEXT	SEGMENT PARA USE32 PUBLIC 'CODE'
_TEXT	ENDS
;	COMDAT ??_Glength_error@std@@UAEPAXI@Z
_TEXT	SEGMENT PARA USE32 PUBLIC 'CODE'
_TEXT	ENDS
;	COMDAT ??1out_of_range@std@@UAE@XZ
_TEXT	SEGMENT PARA USE32 PUBLIC 'CODE'
_TEXT	ENDS
;	COMDAT ??_Gout_of_range@std@@UAEPAXI@Z
_TEXT	SEGMENT PARA USE32 PUBLIC 'CODE'
_TEXT	ENDS
;	COMDAT ??0runtime_error@std@@QAE@ABV?$basic_string@DU?$char_traits@D@std@@V?$allocator@D@2@@1@@Z
_TEXT	SEGMENT PARA USE32 PUBLIC 'CODE'
_TEXT	ENDS
;	COMDAT ??1runtime_error@std@@UAE@XZ
_TEXT	SEGMENT PARA USE32 PUBLIC 'CODE'
_TEXT	ENDS
;	COMDAT ?what@runtime_error@std@@UBEPBDXZ
_TEXT	SEGMENT PARA USE32 PUBLIC 'CODE'
_TEXT	ENDS
;	COMDAT ??_Gruntime_error@std@@UAEPAXI@Z
_TEXT	SEGMENT PARA USE32 PUBLIC 'CODE'
_TEXT	ENDS
;	COMDAT ??1overflow_error@std@@UAE@XZ
_TEXT	SEGMENT PARA USE32 PUBLIC 'CODE'
_TEXT	ENDS
;	COMDAT ??_Goverflow_error@std@@UAEPAXI@Z
_TEXT	SEGMENT PARA USE32 PUBLIC 'CODE'
_TEXT	ENDS
;	COMDAT ??1underflow_error@std@@UAE@XZ
_TEXT	SEGMENT PARA USE32 PUBLIC 'CODE'
_TEXT	ENDS
;	COMDAT ??_Gunderflow_error@std@@UAEPAXI@Z
_TEXT	SEGMENT PARA USE32 PUBLIC 'CODE'
_TEXT	ENDS
;	COMDAT ??1range_error@std@@UAE@XZ
_TEXT	SEGMENT PARA USE32 PUBLIC 'CODE'
_TEXT	ENDS
;	COMDAT ??_Grange_error@std@@UAEPAXI@Z
_TEXT	SEGMENT PARA USE32 PUBLIC 'CODE'
_TEXT	ENDS
;	COMDAT ??$_Maklocbyte@_W@std@@YAD_WABU_Cvtvec@@@Z
_TEXT	SEGMENT PARA USE32 PUBLIC 'CODE'
_TEXT	ENDS
;	COMDAT ??$_Maklocchr@_W@std@@YA_WDPA_WABU_Cvtvec@@@Z
_TEXT	SEGMENT PARA USE32 PUBLIC 'CODE'
_TEXT	ENDS
;	COMDAT ??$_Maklocstr@_W@std@@YAPA_WPBDPA_WABU_Cvtvec@@@Z
_TEXT	SEGMENT PARA USE32 PUBLIC 'CODE'
_TEXT	ENDS
;	COMDAT ??_G?$codecvt@_WDH@std@@MAEPAXI@Z
_TEXT	SEGMENT PARA USE32 PUBLIC 'CODE'
_TEXT	ENDS
;	COMDAT ??_G?$ctype@D@std@@MAEPAXI@Z
_TEXT	SEGMENT PARA USE32 PUBLIC 'CODE'
_TEXT	ENDS
;	COMDAT ??_G?$ctype@_W@std@@MAEPAXI@Z
_TEXT	SEGMENT PARA USE32 PUBLIC 'CODE'
_TEXT	ENDS
;	COMDAT ??1failure@ios_base@std@@UAE@XZ
_TEXT	SEGMENT PARA USE32 PUBLIC 'CODE'
_TEXT	ENDS
;	COMDAT ??_Gfailure@ios_base@std@@UAEPAXI@Z
_TEXT	SEGMENT PARA USE32 PUBLIC 'CODE'
_TEXT	ENDS
;	COMDAT ??1sentry@?$basic_istream@DU?$char_traits@D@std@@@std@@QAE@XZ
_TEXT	SEGMENT PARA USE32 PUBLIC 'CODE'
_TEXT	ENDS
;	COMDAT ??1sentry@?$basic_istream@_WU?$char_traits@_W@std@@@std@@QAE@XZ
_TEXT	SEGMENT PARA USE32 PUBLIC 'CODE'
_TEXT	ENDS
;	COMDAT ??0?$allocator@D@std@@QAE@XZ
_TEXT	SEGMENT PARA USE32 PUBLIC 'CODE'
_TEXT	ENDS
;	COMDAT ??0?$allocator@D@std@@QAE@ABV01@@Z
_TEXT	SEGMENT PARA USE32 PUBLIC 'CODE'
_TEXT	ENDS
;	COMDAT ??0?$allocator@_W@std@@QAE@XZ
_TEXT	SEGMENT PARA USE32 PUBLIC 'CODE'
_TEXT	ENDS
;	COMDAT ??0?$allocator@_W@std@@QAE@ABV01@@Z
_TEXT	SEGMENT PARA USE32 PUBLIC 'CODE'
_TEXT	ENDS
;	COMDAT ??0sentry@?$basic_istream@DU?$char_traits@D@std@@@std@@QAE@AAV12@_N@Z
_TEXT	SEGMENT PARA USE32 PUBLIC 'CODE'
_TEXT	ENDS
;	COMDAT ??Bsentry@?$basic_istream@DU?$char_traits@D@std@@@std@@QBE_NXZ
_TEXT	SEGMENT PARA USE32 PUBLIC 'CODE'
_TEXT	ENDS
;	COMDAT ??1_Sentry_base@?$basic_istream@DU?$char_traits@D@std@@@std@@QAE@XZ
_TEXT	SEGMENT PARA USE32 PUBLIC 'CODE'
_TEXT	ENDS
;	COMDAT ??0sentry@?$basic_istream@_WU?$char_traits@_W@std@@@std@@QAE@AAV12@_N@Z
_TEXT	SEGMENT PARA USE32 PUBLIC 'CODE'
_TEXT	ENDS
;	COMDAT ??Bsentry@?$basic_istream@_WU?$char_traits@_W@std@@@std@@QBE_NXZ
_TEXT	SEGMENT PARA USE32 PUBLIC 'CODE'
_TEXT	ENDS
;	COMDAT ??1_Sentry_base@?$basic_istream@_WU?$char_traits@_W@std@@@std@@QAE@XZ
_TEXT	SEGMENT PARA USE32 PUBLIC 'CODE'
_TEXT	ENDS
;	COMDAT ??0?$vector@V?$basic_string@DU?$char_traits@D@std@@V?$allocator@D@2@@std@@V?$allocator@V?$basic_string@DU?$char_traits@D@std@@V?$allocator@D@2@@std@@@2@@std@@QAE@XZ
_TEXT	SEGMENT PARA USE32 PUBLIC 'CODE'
_TEXT	ENDS
;	COMDAT ??1?$vector@V?$basic_string@DU?$char_traits@D@std@@V?$allocator@D@2@@std@@V?$allocator@V?$basic_string@DU?$char_traits@D@std@@V?$allocator@D@2@@std@@@2@@std@@QAE@XZ
_TEXT	SEGMENT PARA USE32 PUBLIC 'CODE'
_TEXT	ENDS
;	COMDAT ?begin@?$vector@V?$basic_string@DU?$char_traits@D@std@@V?$allocator@D@2@@std@@V?$allocator@V?$basic_string@DU?$char_traits@D@std@@V?$allocator@D@2@@std@@@2@@std@@QAE?AViterator@12@XZ
_TEXT	SEGMENT PARA USE32 PUBLIC 'CODE'
_TEXT	ENDS
;	COMDAT ?end@?$vector@V?$basic_string@DU?$char_traits@D@std@@V?$allocator@D@2@@std@@V?$allocator@V?$basic_string@DU?$char_traits@D@std@@V?$allocator@D@2@@std@@@2@@std@@QAE?AViterator@12@XZ
_TEXT	SEGMENT PARA USE32 PUBLIC 'CODE'
_TEXT	ENDS
;	COMDAT ?size@?$vector@V?$basic_string@DU?$char_traits@D@std@@V?$allocator@D@2@@std@@V?$allocator@V?$basic_string@DU?$char_traits@D@std@@V?$allocator@D@2@@std@@@2@@std@@QBEIXZ
_TEXT	SEGMENT PARA USE32 PUBLIC 'CODE'
_TEXT	ENDS
;	COMDAT ??A?$vector@V?$basic_string@DU?$char_traits@D@std@@V?$allocator@D@2@@std@@V?$allocator@V?$basic_string@DU?$char_traits@D@std@@V?$allocator@D@2@@std@@@2@@std@@QBEABV?$basic_string@DU?$char_traits@D@std@@V?$allocator@D@2@@1@I@Z
_TEXT	SEGMENT PARA USE32 PUBLIC 'CODE'
_TEXT	ENDS
;	COMDAT ??A?$vector@V?$basic_string@DU?$char_traits@D@std@@V?$allocator@D@2@@std@@V?$allocator@V?$basic_string@DU?$char_traits@D@std@@V?$allocator@D@2@@std@@@2@@std@@QAEAAV?$basic_string@DU?$char_traits@D@std@@V?$allocator@D@2@@1@I@Z
_TEXT	SEGMENT PARA USE32 PUBLIC 'CODE'
_TEXT	ENDS
;	COMDAT ?push_back@?$vector@V?$basic_string@DU?$char_traits@D@std@@V?$allocator@D@2@@std@@V?$allocator@V?$basic_string@DU?$char_traits@D@std@@V?$allocator@D@2@@std@@@2@@std@@QAEXABV?$basic_string@DU?$char_traits@D@std@@V?$allocator@D@2@@2@@Z
_TEXT	SEGMENT PARA USE32 PUBLIC 'CODE'
_TEXT	ENDS
;	COMDAT ??Diterator@?$vector@V?$basic_string@DU?$char_traits@D@std@@V?$allocator@D@2@@std@@V?$allocator@V?$basic_string@DU?$char_traits@D@std@@V?$allocator@D@2@@std@@@2@@std@@QBEAAV?$basic_string@DU?$char_traits@D@std@@V?$allocator@D@2@@2@XZ
_TEXT	SEGMENT PARA USE32 PUBLIC 'CODE'
_TEXT	ENDS
;	COMDAT ??Citerator@?$vector@V?$basic_string@DU?$char_traits@D@std@@V?$allocator@D@2@@std@@V?$allocator@V?$basic_string@DU?$char_traits@D@std@@V?$allocator@D@2@@std@@@2@@std@@QBEPAV?$basic_string@DU?$char_traits@D@std@@V?$allocator@D@2@@2@XZ
_TEXT	SEGMENT PARA USE32 PUBLIC 'CODE'
_TEXT	ENDS
;	COMDAT ??Eiterator@?$vector@V?$basic_string@DU?$char_traits@D@std@@V?$allocator@D@2@@std@@V?$allocator@V?$basic_string@DU?$char_traits@D@std@@V?$allocator@D@2@@std@@@2@@std@@QAE?AV012@H@Z
_TEXT	SEGMENT PARA USE32 PUBLIC 'CODE'
_TEXT	ENDS
;	COMDAT ??9const_iterator@?$vector@V?$basic_string@DU?$char_traits@D@std@@V?$allocator@D@2@@std@@V?$allocator@V?$basic_string@DU?$char_traits@D@std@@V?$allocator@D@2@@std@@@2@@std@@QBE_NABV012@@Z
_TEXT	SEGMENT PARA USE32 PUBLIC 'CODE'
_TEXT	ENDS
;	COMDAT ??_Glocale@std@@QAEPAXI@Z
_TEXT	SEGMENT PARA USE32 PUBLIC 'CODE'
_TEXT	ENDS
;	COMDAT ??_G?$numpunct@D@std@@MAEPAXI@Z
_TEXT	SEGMENT PARA USE32 PUBLIC 'CODE'
_TEXT	ENDS
;	COMDAT ??_G?$numpunct@_W@std@@MAEPAXI@Z
_TEXT	SEGMENT PARA USE32 PUBLIC 'CODE'
_TEXT	ENDS
;	COMDAT ??0_Sentry_base@?$basic_istream@DU?$char_traits@D@std@@@std@@QAE@AAV12@@Z
_TEXT	SEGMENT PARA USE32 PUBLIC 'CODE'
_TEXT	ENDS
;	COMDAT ??0_Sentry_base@?$basic_istream@_WU?$char_traits@_W@std@@@std@@QAE@AAV12@@Z
_TEXT	SEGMENT PARA USE32 PUBLIC 'CODE'
_TEXT	ENDS
;	COMDAT ?capacity@?$vector@V?$basic_string@DU?$char_traits@D@std@@V?$allocator@D@2@@std@@V?$allocator@V?$basic_string@DU?$char_traits@D@std@@V?$allocator@D@2@@std@@@2@@std@@QBEIXZ
_TEXT	SEGMENT PARA USE32 PUBLIC 'CODE'
_TEXT	ENDS
;	COMDAT ?begin@?$vector@V?$basic_string@DU?$char_traits@D@std@@V?$allocator@D@2@@std@@V?$allocator@V?$basic_string@DU?$char_traits@D@std@@V?$allocator@D@2@@std@@@2@@std@@QBE?AVconst_iterator@12@XZ
_TEXT	SEGMENT PARA USE32 PUBLIC 'CODE'
_TEXT	ENDS
;	COMDAT ?insert@?$vector@V?$basic_string@DU?$char_traits@D@std@@V?$allocator@D@2@@std@@V?$allocator@V?$basic_string@DU?$char_traits@D@std@@V?$allocator@D@2@@std@@@2@@std@@QAE?AViterator@12@V312@ABV?$basic_string@DU?$char_traits@D@std@@V?$allocator@D@2@@2@@Z
_TEXT	SEGMENT PARA USE32 PUBLIC 'CODE'
_TEXT	ENDS
;	COMDAT ?_Buy@?$vector@V?$basic_string@DU?$char_traits@D@std@@V?$allocator@D@2@@std@@V?$allocator@V?$basic_string@DU?$char_traits@D@std@@V?$allocator@D@2@@std@@@2@@std@@IAE_NI@Z
_TEXT	SEGMENT PARA USE32 PUBLIC 'CODE'
_TEXT	ENDS
;	COMDAT ?_Tidy@?$vector@V?$basic_string@DU?$char_traits@D@std@@V?$allocator@D@2@@std@@V?$allocator@V?$basic_string@DU?$char_traits@D@std@@V?$allocator@D@2@@std@@@2@@std@@IAEXXZ
_TEXT	SEGMENT PARA USE32 PUBLIC 'CODE'
_TEXT	ENDS
;	COMDAT ?_Ufill@?$vector@V?$basic_string@DU?$char_traits@D@std@@V?$allocator@D@2@@std@@V?$allocator@V?$basic_string@DU?$char_traits@D@std@@V?$allocator@D@2@@std@@@2@@std@@IAEPAV?$basic_string@DU?$char_traits@D@std@@V?$allocator@D@2@@2@PAV32@IABV32@@Z
_TEXT	SEGMENT PARA USE32 PUBLIC 'CODE'
_TEXT	ENDS
;	COMDAT ??0?$_Vector_val@V?$basic_string@DU?$char_traits@D@std@@V?$allocator@D@2@@std@@V?$allocator@V?$basic_string@DU?$char_traits@D@std@@V?$allocator@D@2@@std@@@2@@std@@IAE@V?$allocator@V?$basic_string@DU?$char_traits@D@std@@V?$allocator@D@2@@std@@@1@@Z
_TEXT	SEGMENT PARA USE32 PUBLIC 'CODE'
_TEXT	ENDS
;	COMDAT ??0?$allocator@V?$basic_string@DU?$char_traits@D@std@@V?$allocator@D@2@@std@@@std@@QAE@XZ
_TEXT	SEGMENT PARA USE32 PUBLIC 'CODE'
_TEXT	ENDS
;	COMDAT ??0iterator@?$vector@V?$basic_string@DU?$char_traits@D@std@@V?$allocator@D@2@@std@@V?$allocator@V?$basic_string@DU?$char_traits@D@std@@V?$allocator@D@2@@std@@@2@@std@@QAE@PAV?$basic_string@DU?$char_traits@D@std@@V?$allocator@D@2@@2@@Z
_TEXT	SEGMENT PARA USE32 PUBLIC 'CODE'
_TEXT	ENDS
;	COMDAT ??Eiterator@?$vector@V?$basic_string@DU?$char_traits@D@std@@V?$allocator@D@2@@std@@V?$allocator@V?$basic_string@DU?$char_traits@D@std@@V?$allocator@D@2@@std@@@2@@std@@QAEAAV012@XZ
_TEXT	SEGMENT PARA USE32 PUBLIC 'CODE'
_TEXT	ENDS
;	COMDAT ??Hiterator@?$vector@V?$basic_string@DU?$char_traits@D@std@@V?$allocator@D@2@@std@@V?$allocator@V?$basic_string@DU?$char_traits@D@std@@V?$allocator@D@2@@std@@@2@@std@@QBE?AV012@H@Z
_TEXT	SEGMENT PARA USE32 PUBLIC 'CODE'
_TEXT	ENDS
;	COMDAT ??Dconst_iterator@?$vector@V?$basic_string@DU?$char_traits@D@std@@V?$allocator@D@2@@std@@V?$allocator@V?$basic_string@DU?$char_traits@D@std@@V?$allocator@D@2@@std@@@2@@std@@QBEABV?$basic_string@DU?$char_traits@D@std@@V?$allocator@D@2@@2@XZ
_TEXT	SEGMENT PARA USE32 PUBLIC 'CODE'
_TEXT	ENDS
;	COMDAT ??Hconst_iterator@?$vector@V?$basic_string@DU?$char_traits@D@std@@V?$allocator@D@2@@std@@V?$allocator@V?$basic_string@DU?$char_traits@D@std@@V?$allocator@D@2@@std@@@2@@std@@QBE?AV012@H@Z
_TEXT	SEGMENT PARA USE32 PUBLIC 'CODE'
_TEXT	ENDS
;	COMDAT ??8const_iterator@?$vector@V?$basic_string@DU?$char_traits@D@std@@V?$allocator@D@2@@std@@V?$allocator@V?$basic_string@DU?$char_traits@D@std@@V?$allocator@D@2@@std@@@2@@std@@QBE_NABV012@@Z
_TEXT	SEGMENT PARA USE32 PUBLIC 'CODE'
_TEXT	ENDS
;	COMDAT ??0?$fpos@H@std@@QAE@J@Z
_TEXT	SEGMENT PARA USE32 PUBLIC 'CODE'
_TEXT	ENDS
;	COMDAT ??0sentry@?$basic_ostream@DU?$char_traits@D@std@@@std@@QAE@AAV12@@Z
_TEXT	SEGMENT PARA USE32 PUBLIC 'CODE'
_TEXT	ENDS
;	COMDAT ??1sentry@?$basic_ostream@DU?$char_traits@D@std@@@std@@QAE@XZ
_TEXT	SEGMENT PARA USE32 PUBLIC 'CODE'
_TEXT	ENDS
;	COMDAT ??Bsentry@?$basic_ostream@DU?$char_traits@D@std@@@std@@QBE_NXZ
_TEXT	SEGMENT PARA USE32 PUBLIC 'CODE'
_TEXT	ENDS
;	COMDAT ??0sentry@?$basic_ostream@_WU?$char_traits@_W@std@@@std@@QAE@AAV12@@Z
_TEXT	SEGMENT PARA USE32 PUBLIC 'CODE'
_TEXT	ENDS
;	COMDAT ??1sentry@?$basic_ostream@_WU?$char_traits@_W@std@@@std@@QAE@XZ
_TEXT	SEGMENT PARA USE32 PUBLIC 'CODE'
_TEXT	ENDS
;	COMDAT ??Bsentry@?$basic_ostream@_WU?$char_traits@_W@std@@@std@@QBE_NXZ
_TEXT	SEGMENT PARA USE32 PUBLIC 'CODE'
_TEXT	ENDS
;	COMDAT ?deallocate@?$allocator@D@std@@QAEXPADI@Z
_TEXT	SEGMENT PARA USE32 PUBLIC 'CODE'
_TEXT	ENDS
;	COMDAT ?max_size@?$vector@V?$basic_string@DU?$char_traits@D@std@@V?$allocator@D@2@@std@@V?$allocator@V?$basic_string@DU?$char_traits@D@std@@V?$allocator@D@2@@std@@@2@@std@@QBEIXZ
_TEXT	SEGMENT PARA USE32 PUBLIC 'CODE'
_TEXT	ENDS
;	COMDAT ?_Destroy@?$vector@V?$basic_string@DU?$char_traits@D@std@@V?$allocator@D@2@@std@@V?$allocator@V?$basic_string@DU?$char_traits@D@std@@V?$allocator@D@2@@std@@@2@@std@@IAEXPAV?$basic_string@DU?$char_traits@D@std@@V?$allocator@D@2@@2@0@Z
_TEXT	SEGMENT PARA USE32 PUBLIC 'CODE'
_TEXT	ENDS
;	COMDAT ?_Insert_n@?$vector@V?$basic_string@DU?$char_traits@D@std@@V?$allocator@D@2@@std@@V?$allocator@V?$basic_string@DU?$char_traits@D@std@@V?$allocator@D@2@@std@@@2@@std@@IAEXViterator@12@IABV?$basic_string@DU?$char_traits@D@std@@V?$allocator@D@2@@2@@Z
_TEXT	SEGMENT PARA USE32 PUBLIC 'CODE'
_TEXT	ENDS
;	COMDAT ?_Xlen@?$vector@V?$basic_string@DU?$char_traits@D@std@@V?$allocator@D@2@@std@@V?$allocator@V?$basic_string@DU?$char_traits@D@std@@V?$allocator@D@2@@std@@@2@@std@@IBEXXZ
_TEXT	SEGMENT PARA USE32 PUBLIC 'CODE'
_TEXT	ENDS
;	COMDAT ??0?$allocator@V?$basic_string@DU?$char_traits@D@std@@V?$allocator@D@2@@std@@@std@@QAE@ABV01@@Z
_TEXT	SEGMENT PARA USE32 PUBLIC 'CODE'
_TEXT	ENDS
;	COMDAT ?deallocate@?$allocator@V?$basic_string@DU?$char_traits@D@std@@V?$allocator@D@2@@std@@@std@@QAEXPAV?$basic_string@DU?$char_traits@D@std@@V?$allocator@D@2@@2@I@Z
_TEXT	SEGMENT PARA USE32 PUBLIC 'CODE'
_TEXT	ENDS
;	COMDAT ?allocate@?$allocator@V?$basic_string@DU?$char_traits@D@std@@V?$allocator@D@2@@std@@@std@@QAEPAV?$basic_string@DU?$char_traits@D@std@@V?$allocator@D@2@@2@I@Z
_TEXT	SEGMENT PARA USE32 PUBLIC 'CODE'
_TEXT	ENDS
;	COMDAT ??Yiterator@?$vector@V?$basic_string@DU?$char_traits@D@std@@V?$allocator@D@2@@std@@V?$allocator@V?$basic_string@DU?$char_traits@D@std@@V?$allocator@D@2@@std@@@2@@std@@QAEAAV012@H@Z
_TEXT	SEGMENT PARA USE32 PUBLIC 'CODE'
_TEXT	ENDS
;	COMDAT ??Giterator@?$vector@V?$basic_string@DU?$char_traits@D@std@@V?$allocator@D@2@@std@@V?$allocator@V?$basic_string@DU?$char_traits@D@std@@V?$allocator@D@2@@std@@@2@@std@@QBEHABVconst_iterator@12@@Z
_TEXT	SEGMENT PARA USE32 PUBLIC 'CODE'
_TEXT	ENDS
;	COMDAT ??0const_iterator@?$vector@V?$basic_string@DU?$char_traits@D@std@@V?$allocator@D@2@@std@@V?$allocator@V?$basic_string@DU?$char_traits@D@std@@V?$allocator@D@2@@std@@@2@@std@@QAE@PAV?$basic_string@DU?$char_traits@D@std@@V?$allocator@D@2@@2@@Z
_TEXT	SEGMENT PARA USE32 PUBLIC 'CODE'
_TEXT	ENDS
;	COMDAT ??Yconst_iterator@?$vector@V?$basic_string@DU?$char_traits@D@std@@V?$allocator@D@2@@std@@V?$allocator@V?$basic_string@DU?$char_traits@D@std@@V?$allocator@D@2@@std@@@2@@std@@QAEAAV012@H@Z
_TEXT	SEGMENT PARA USE32 PUBLIC 'CODE'
_TEXT	ENDS
;	COMDAT ??D?$istreambuf_iterator@DU?$char_traits@D@std@@@std@@QBEDXZ
_TEXT	SEGMENT PARA USE32 PUBLIC 'CODE'
_TEXT	ENDS
;	COMDAT ??E?$istreambuf_iterator@DU?$char_traits@D@std@@@std@@QAEAAV01@XZ
_TEXT	SEGMENT PARA USE32 PUBLIC 'CODE'
_TEXT	ENDS
;	COMDAT ??4?$ostreambuf_iterator@DU?$char_traits@D@std@@@std@@QAEAAV01@D@Z
_TEXT	SEGMENT PARA USE32 PUBLIC 'CODE'
_TEXT	ENDS
;	COMDAT ??D?$ostreambuf_iterator@DU?$char_traits@D@std@@@std@@QAEAAV01@XZ
_TEXT	SEGMENT PARA USE32 PUBLIC 'CODE'
_TEXT	ENDS
;	COMDAT ??E?$ostreambuf_iterator@DU?$char_traits@D@std@@@std@@QAEAAV01@XZ
_TEXT	SEGMENT PARA USE32 PUBLIC 'CODE'
_TEXT	ENDS
;	COMDAT ??D?$istreambuf_iterator@_WU?$char_traits@_W@std@@@std@@QBE_WXZ
_TEXT	SEGMENT PARA USE32 PUBLIC 'CODE'
_TEXT	ENDS
;	COMDAT ??E?$istreambuf_iterator@_WU?$char_traits@_W@std@@@std@@QAEAAV01@XZ
_TEXT	SEGMENT PARA USE32 PUBLIC 'CODE'
_TEXT	ENDS
;	COMDAT ??4?$ostreambuf_iterator@_WU?$char_traits@_W@std@@@std@@QAEAAV01@_W@Z
_TEXT	SEGMENT PARA USE32 PUBLIC 'CODE'
_TEXT	ENDS
;	COMDAT ??D?$ostreambuf_iterator@_WU?$char_traits@_W@std@@@std@@QAEAAV01@XZ
_TEXT	SEGMENT PARA USE32 PUBLIC 'CODE'
_TEXT	ENDS
;	COMDAT ??E?$ostreambuf_iterator@_WU?$char_traits@_W@std@@@std@@QAEAAV01@XZ
_TEXT	SEGMENT PARA USE32 PUBLIC 'CODE'
_TEXT	ENDS
;	COMDAT ??0_Sentry_base@?$basic_ostream@DU?$char_traits@D@std@@@std@@QAE@AAV12@@Z
_TEXT	SEGMENT PARA USE32 PUBLIC 'CODE'
_TEXT	ENDS
;	COMDAT ??1_Sentry_base@?$basic_ostream@DU?$char_traits@D@std@@@std@@QAE@XZ
_TEXT	SEGMENT PARA USE32 PUBLIC 'CODE'
_TEXT	ENDS
;	COMDAT ??0_Sentry_base@?$basic_ostream@_WU?$char_traits@_W@std@@@std@@QAE@AAV12@@Z
_TEXT	SEGMENT PARA USE32 PUBLIC 'CODE'
_TEXT	ENDS
;	COMDAT ??1_Sentry_base@?$basic_ostream@_WU?$char_traits@_W@std@@@std@@QAE@XZ
_TEXT	SEGMENT PARA USE32 PUBLIC 'CODE'
_TEXT	ENDS
;	COMDAT ??0length_error@std@@QAE@ABV01@@Z
_TEXT	SEGMENT PARA USE32 PUBLIC 'CODE'
_TEXT	ENDS
;	COMDAT ??0logic_error@std@@QAE@ABV01@@Z
_TEXT	SEGMENT PARA USE32 PUBLIC 'CODE'
_TEXT	ENDS
;	COMDAT ?deallocate@?$allocator@_W@std@@QAEXPA_WI@Z
_TEXT	SEGMENT PARA USE32 PUBLIC 'CODE'
_TEXT	ENDS
;	COMDAT ?max_size@?$allocator@V?$basic_string@DU?$char_traits@D@std@@V?$allocator@D@2@@std@@@std@@QBEIXZ
_TEXT	SEGMENT PARA USE32 PUBLIC 'CODE'
_TEXT	ENDS
;	COMDAT ??Gconst_iterator@?$vector@V?$basic_string@DU?$char_traits@D@std@@V?$allocator@D@2@@std@@V?$allocator@V?$basic_string@DU?$char_traits@D@std@@V?$allocator@D@2@@std@@@2@@std@@QBEHABV012@@Z
_TEXT	SEGMENT PARA USE32 PUBLIC 'CODE'
_TEXT	ENDS
;	COMDAT ?_Inc@?$istreambuf_iterator@DU?$char_traits@D@std@@@std@@AAEXXZ
_TEXT	SEGMENT PARA USE32 PUBLIC 'CODE'
_TEXT	ENDS
;	COMDAT ?_Peek@?$istreambuf_iterator@DU?$char_traits@D@std@@@std@@AAEDXZ
_TEXT	SEGMENT PARA USE32 PUBLIC 'CODE'
_TEXT	ENDS
;	COMDAT ?_Inc@?$istreambuf_iterator@_WU?$char_traits@_W@std@@@std@@AAEXXZ
_TEXT	SEGMENT PARA USE32 PUBLIC 'CODE'
_TEXT	ENDS
;	COMDAT ?_Peek@?$istreambuf_iterator@_WU?$char_traits@_W@std@@@std@@AAE_WXZ
_TEXT	SEGMENT PARA USE32 PUBLIC 'CODE'
_TEXT	ENDS
;	COMDAT ?allocate@?$allocator@D@std@@QAEPADI@Z
_TEXT	SEGMENT PARA USE32 PUBLIC 'CODE'
_TEXT	ENDS
;	COMDAT ?max_size@?$allocator@D@std@@QBEIXZ
_TEXT	SEGMENT PARA USE32 PUBLIC 'CODE'
_TEXT	ENDS
;	COMDAT ?allocate@?$allocator@_W@std@@QAEPA_WI@Z
_TEXT	SEGMENT PARA USE32 PUBLIC 'CODE'
_TEXT	ENDS
;	COMDAT ?max_size@?$allocator@_W@std@@QBEIXZ
_TEXT	SEGMENT PARA USE32 PUBLIC 'CODE'
_TEXT	ENDS
;	COMDAT ??$use_facet@V?$ctype@D@std@@@std@@YAABV?$ctype@D@0@ABVlocale@0@@Z
_TEXT	SEGMENT PARA USE32 PUBLIC 'CODE'
_TEXT	ENDS
;	COMDAT ??$use_facet@V?$ctype@_W@std@@@std@@YAABV?$ctype@_W@0@ABVlocale@0@@Z
_TEXT	SEGMENT PARA USE32 PUBLIC 'CODE'
_TEXT	ENDS
;	COMDAT ??$?HDU?$char_traits@D@std@@V?$allocator@D@1@@std@@YA?AV?$basic_string@DU?$char_traits@D@std@@V?$allocator@D@2@@0@ABV10@0@Z
_TEXT	SEGMENT PARA USE32 PUBLIC 'CODE'
_TEXT	ENDS
;	COMDAT ??$?HDU?$char_traits@D@std@@V?$allocator@D@1@@std@@YA?AV?$basic_string@DU?$char_traits@D@std@@V?$allocator@D@2@@0@PBDABV10@@Z
_TEXT	SEGMENT PARA USE32 PUBLIC 'CODE'
_TEXT	ENDS
;	COMDAT ??$?HDU?$char_traits@D@std@@V?$allocator@D@1@@std@@YA?AV?$basic_string@DU?$char_traits@D@std@@V?$allocator@D@2@@0@DABV10@@Z
_TEXT	SEGMENT PARA USE32 PUBLIC 'CODE'
_TEXT	ENDS
;	COMDAT ??$?HDU?$char_traits@D@std@@V?$allocator@D@1@@std@@YA?AV?$basic_string@DU?$char_traits@D@std@@V?$allocator@D@2@@0@ABV10@PBD@Z
_TEXT	SEGMENT PARA USE32 PUBLIC 'CODE'
_TEXT	ENDS
;	COMDAT ??$?HDU?$char_traits@D@std@@V?$allocator@D@1@@std@@YA?AV?$basic_string@DU?$char_traits@D@std@@V?$allocator@D@2@@0@ABV10@D@Z
_TEXT	SEGMENT PARA USE32 PUBLIC 'CODE'
_TEXT	ENDS
;	COMDAT ??$?H_WU?$char_traits@_W@std@@V?$allocator@_W@1@@std@@YA?AV?$basic_string@_WU?$char_traits@_W@std@@V?$allocator@_W@2@@0@ABV10@0@Z
_TEXT	SEGMENT PARA USE32 PUBLIC 'CODE'
_TEXT	ENDS
;	COMDAT ??$?H_WU?$char_traits@_W@std@@V?$allocator@_W@1@@std@@YA?AV?$basic_string@_WU?$char_traits@_W@std@@V?$allocator@_W@2@@0@PB_WABV10@@Z
_TEXT	SEGMENT PARA USE32 PUBLIC 'CODE'
_TEXT	ENDS
;	COMDAT ??$?H_WU?$char_traits@_W@std@@V?$allocator@_W@1@@std@@YA?AV?$basic_string@_WU?$char_traits@_W@std@@V?$allocator@_W@2@@0@_WABV10@@Z
_TEXT	SEGMENT PARA USE32 PUBLIC 'CODE'
_TEXT	ENDS
;	COMDAT ??$?H_WU?$char_traits@_W@std@@V?$allocator@_W@1@@std@@YA?AV?$basic_string@_WU?$char_traits@_W@std@@V?$allocator@_W@2@@0@ABV10@PB_W@Z
_TEXT	SEGMENT PARA USE32 PUBLIC 'CODE'
_TEXT	ENDS
;	COMDAT ??$?H_WU?$char_traits@_W@std@@V?$allocator@_W@1@@std@@YA?AV?$basic_string@_WU?$char_traits@_W@std@@V?$allocator@_W@2@@0@ABV10@_W@Z
_TEXT	SEGMENT PARA USE32 PUBLIC 'CODE'
_TEXT	ENDS
;	COMDAT ??$?5DU?$char_traits@D@std@@V?$allocator@D@1@@std@@YAAAV?$basic_istream@DU?$char_traits@D@std@@@0@AAV10@AAV?$basic_string@DU?$char_traits@D@std@@V?$allocator@D@2@@0@@Z
_TEXT	SEGMENT PARA USE32 PUBLIC 'CODE'
_TEXT	ENDS
;	COMDAT ??$getline@DU?$char_traits@D@std@@V?$allocator@D@2@@std@@YAAAV?$basic_istream@DU?$char_traits@D@std@@@0@AAV10@AAV?$basic_string@DU?$char_traits@D@std@@V?$allocator@D@2@@0@@Z
_TEXT	SEGMENT PARA USE32 PUBLIC 'CODE'
_TEXT	ENDS
;	COMDAT ??$getline@DU?$char_traits@D@std@@V?$allocator@D@2@@std@@YAAAV?$basic_istream@DU?$char_traits@D@std@@@0@AAV10@AAV?$basic_string@DU?$char_traits@D@std@@V?$allocator@D@2@@0@D@Z
_TEXT	SEGMENT PARA USE32 PUBLIC 'CODE'
_TEXT	ENDS
;	COMDAT ??$?6DU?$char_traits@D@std@@V?$allocator@D@1@@std@@YAAAV?$basic_ostream@DU?$char_traits@D@std@@@0@AAV10@ABV?$basic_string@DU?$char_traits@D@std@@V?$allocator@D@2@@0@@Z
_TEXT	SEGMENT PARA USE32 PUBLIC 'CODE'
_TEXT	ENDS
;	COMDAT ??$?5_WU?$char_traits@_W@std@@V?$allocator@_W@1@@std@@YAAAV?$basic_istream@_WU?$char_traits@_W@std@@@0@AAV10@AAV?$basic_string@_WU?$char_traits@_W@std@@V?$allocator@_W@2@@0@@Z
_TEXT	SEGMENT PARA USE32 PUBLIC 'CODE'
_TEXT	ENDS
;	COMDAT ??$getline@_WU?$char_traits@_W@std@@V?$allocator@_W@2@@std@@YAAAV?$basic_istream@_WU?$char_traits@_W@std@@@0@AAV10@AAV?$basic_string@_WU?$char_traits@_W@std@@V?$allocator@_W@2@@0@@Z
_TEXT	SEGMENT PARA USE32 PUBLIC 'CODE'
_TEXT	ENDS
;	COMDAT ??$getline@_WU?$char_traits@_W@std@@V?$allocator@_W@2@@std@@YAAAV?$basic_istream@_WU?$char_traits@_W@std@@@0@AAV10@AAV?$basic_string@_WU?$char_traits@_W@std@@V?$allocator@_W@2@@0@_W@Z
_TEXT	SEGMENT PARA USE32 PUBLIC 'CODE'
_TEXT	ENDS
;	COMDAT ??$?6_WU?$char_traits@_W@std@@V?$allocator@_W@1@@std@@YAAAV?$basic_ostream@_WU?$char_traits@_W@std@@@0@AAV10@ABV?$basic_string@_WU?$char_traits@_W@std@@V?$allocator@_W@2@@0@@Z
_TEXT	SEGMENT PARA USE32 PUBLIC 'CODE'
_TEXT	ENDS
;	COMDAT ??$use_facet@V?$numpunct@D@std@@@std@@YAABV?$numpunct@D@0@ABVlocale@0@@Z
_TEXT	SEGMENT PARA USE32 PUBLIC 'CODE'
_TEXT	ENDS
;	COMDAT ??$_Getloctxt@DV?$istreambuf_iterator@DU?$char_traits@D@std@@@std@@@std@@YAHAAV?$istreambuf_iterator@DU?$char_traits@D@std@@@0@0IPBD@Z
_TEXT	SEGMENT PARA USE32 PUBLIC 'CODE'
_TEXT	ENDS
;	COMDAT ??$?8DU?$char_traits@D@std@@@std@@YA_NABV?$istreambuf_iterator@DU?$char_traits@D@std@@@0@0@Z
_TEXT	SEGMENT PARA USE32 PUBLIC 'CODE'
_TEXT	ENDS
;	COMDAT ??$use_facet@V?$numpunct@_W@std@@@std@@YAABV?$numpunct@_W@0@ABVlocale@0@@Z
_TEXT	SEGMENT PARA USE32 PUBLIC 'CODE'
_TEXT	ENDS
;	COMDAT ??$_Getloctxt@_WV?$istreambuf_iterator@_WU?$char_traits@_W@std@@@std@@@std@@YAHAAV?$istreambuf_iterator@_WU?$char_traits@_W@std@@@0@0IPB_W@Z
_TEXT	SEGMENT PARA USE32 PUBLIC 'CODE'
_TEXT	ENDS
;	COMDAT ??$?8_WU?$char_traits@_W@std@@@std@@YA_NABV?$istreambuf_iterator@_WU?$char_traits@_W@std@@@0@0@Z
_TEXT	SEGMENT PARA USE32 PUBLIC 'CODE'
_TEXT	ENDS
;	COMDAT ??$_Maklocchr@D@std@@YADDPADABU_Cvtvec@@@Z
_TEXT	SEGMENT PARA USE32 PUBLIC 'CODE'
_TEXT	ENDS
;	COMDAT ??$?9DU?$char_traits@D@std@@@std@@YA_NABV?$istreambuf_iterator@DU?$char_traits@D@std@@@0@0@Z
_TEXT	SEGMENT PARA USE32 PUBLIC 'CODE'
_TEXT	ENDS
;	COMDAT ??$_Maklocbyte@D@std@@YADDABU_Cvtvec@@@Z
_TEXT	SEGMENT PARA USE32 PUBLIC 'CODE'
_TEXT	ENDS
;	COMDAT ??$?9_WU?$char_traits@_W@std@@@std@@YA_NABV?$istreambuf_iterator@_WU?$char_traits@_W@std@@@0@0@Z
_TEXT	SEGMENT PARA USE32 PUBLIC 'CODE'
_TEXT	ENDS
;	COMDAT ??$_Uninitialized_fill_n@PAV?$basic_string@DU?$char_traits@D@std@@V?$allocator@D@2@@std@@IV12@V?$allocator@V?$basic_string@DU?$char_traits@D@std@@V?$allocator@D@2@@std@@@2@@std@@YAXPAV?$basic_string@DU?$char_traits@D@std@@V?$allocator@D@2@@0@IABV10@AAV?$allocator@V?$basic_string@DU?$char_traits@D@std@@V?$allocator@D@2@@std@@@0@@Z
_TEXT	SEGMENT PARA USE32 PUBLIC 'CODE'
_TEXT	ENDS
;	COMDAT ??$_Destroy_range@V?$basic_string@DU?$char_traits@D@std@@V?$allocator@D@2@@std@@V?$allocator@V?$basic_string@DU?$char_traits@D@std@@V?$allocator@D@2@@std@@@2@@std@@YAXPAV?$basic_string@DU?$char_traits@D@std@@V?$allocator@D@2@@0@0AAV?$allocator@V?$basic_string@DU?$char_traits@D@std@@V?$allocator@D@2@@std@@@0@@Z
_TEXT	SEGMENT PARA USE32 PUBLIC 'CODE'
_TEXT	ENDS
;	COMDAT ??$_Ucopy@PAV?$basic_string@DU?$char_traits@D@std@@V?$allocator@D@2@@std@@@?$vector@V?$basic_string@DU?$char_traits@D@std@@V?$allocator@D@2@@std@@V?$allocator@V?$basic_string@DU?$char_traits@D@std@@V?$allocator@D@2@@std@@@2@@std@@IAEPAV?$basic_string@DU?$char_traits@D@std@@V?$allocator@D@2@@1@PAV21@00@Z
_TEXT	SEGMENT PARA USE32 PUBLIC 'CODE'
_TEXT	ENDS
;	COMDAT ??$fill@PAV?$basic_string@DU?$char_traits@D@std@@V?$allocator@D@2@@std@@V12@@std@@YAXPAV?$basic_string@DU?$char_traits@D@std@@V?$allocator@D@2@@0@0ABV10@@Z
_TEXT	SEGMENT PARA USE32 PUBLIC 'CODE'
_TEXT	ENDS
;	COMDAT ??$copy_backward@PAV?$basic_string@DU?$char_traits@D@std@@V?$allocator@D@2@@std@@PAV12@@std@@YAPAV?$basic_string@DU?$char_traits@D@std@@V?$allocator@D@2@@0@PAV10@00@Z
_TEXT	SEGMENT PARA USE32 PUBLIC 'CODE'
_TEXT	ENDS
;	COMDAT ??$_Allocate@V?$basic_string@DU?$char_traits@D@std@@V?$allocator@D@2@@std@@@std@@YAPAV?$basic_string@DU?$char_traits@D@std@@V?$allocator@D@2@@0@IPAV10@@Z
_TEXT	SEGMENT PARA USE32 PUBLIC 'CODE'
_TEXT	ENDS
;	COMDAT ??$_Allocate@D@std@@YAPADIPAD@Z
_TEXT	SEGMENT PARA USE32 PUBLIC 'CODE'
_TEXT	ENDS
;	COMDAT ??$_Allocate@_W@std@@YAPA_WIPA_W@Z
_TEXT	SEGMENT PARA USE32 PUBLIC 'CODE'
_TEXT	ENDS
;	COMDAT ?equal@?$istreambuf_iterator@DU?$char_traits@D@std@@@std@@QBE_NABV12@@Z
_TEXT	SEGMENT PARA USE32 PUBLIC 'CODE'
_TEXT	ENDS
;	COMDAT ?equal@?$istreambuf_iterator@_WU?$char_traits@_W@std@@@std@@QBE_NABV12@@Z
_TEXT	SEGMENT PARA USE32 PUBLIC 'CODE'
_TEXT	ENDS
;	COMDAT ??$_Ptr_cat@PAV?$basic_string@DU?$char_traits@D@std@@V?$allocator@D@2@@std@@PAV12@@std@@YA?AU_Nonscalar_ptr_iterator_tag@0@AAPAV?$basic_string@DU?$char_traits@D@std@@V?$allocator@D@2@@0@0@Z
_TEXT	SEGMENT PARA USE32 PUBLIC 'CODE'
_TEXT	ENDS
;	COMDAT ??$_Uninit_fill_n@PAV?$basic_string@DU?$char_traits@D@std@@V?$allocator@D@2@@std@@IV12@V?$allocator@V?$basic_string@DU?$char_traits@D@std@@V?$allocator@D@2@@std@@@2@@std@@YAXPAV?$basic_string@DU?$char_traits@D@std@@V?$allocator@D@2@@0@IABV10@AAV?$allocator@V?$basic_string@DU?$char_traits@D@std@@V?$allocator@D@2@@std@@@0@U_Nonscalar_ptr_iterator_tag@0@@Z
_TEXT	SEGMENT PARA USE32 PUBLIC 'CODE'
_TEXT	ENDS
;	COMDAT ??$_Destroy_range@V?$basic_string@DU?$char_traits@D@std@@V?$allocator@D@2@@std@@V?$allocator@V?$basic_string@DU?$char_traits@D@std@@V?$allocator@D@2@@std@@@2@@std@@YAXPAV?$basic_string@DU?$char_traits@D@std@@V?$allocator@D@2@@0@0AAV?$allocator@V?$basic_string@DU?$char_traits@D@std@@V?$allocator@D@2@@std@@@0@U_Nonscalar_ptr_iterator_tag@0@@Z
_TEXT	SEGMENT PARA USE32 PUBLIC 'CODE'
_TEXT	ENDS
;	COMDAT ??$_Uninitialized_copy@PAV?$basic_string@DU?$char_traits@D@std@@V?$allocator@D@2@@std@@PAV12@V?$allocator@V?$basic_string@DU?$char_traits@D@std@@V?$allocator@D@2@@std@@@2@@std@@YAPAV?$basic_string@DU?$char_traits@D@std@@V?$allocator@D@2@@0@PAV10@00AAV?$allocator@V?$basic_string@DU?$char_traits@D@std@@V?$allocator@D@2@@std@@@0@@Z
_TEXT	SEGMENT PARA USE32 PUBLIC 'CODE'
_TEXT	ENDS
;	COMDAT ??$_Copy_backward_opt@PAV?$basic_string@DU?$char_traits@D@std@@V?$allocator@D@2@@std@@PAV12@@std@@YAPAV?$basic_string@DU?$char_traits@D@std@@V?$allocator@D@2@@0@PAV10@00U_Nonscalar_ptr_iterator_tag@0@@Z
_TEXT	SEGMENT PARA USE32 PUBLIC 'CODE'
_TEXT	ENDS
;	COMDAT ??$_Maklocstr@D@std@@YAPADPBDPADABU_Cvtvec@@@Z
_TEXT	SEGMENT PARA USE32 PUBLIC 'CODE'
_TEXT	ENDS
;	COMDAT ?construct@?$allocator@V?$basic_string@DU?$char_traits@D@std@@V?$allocator@D@2@@std@@@std@@QAEXPAV?$basic_string@DU?$char_traits@D@std@@V?$allocator@D@2@@2@ABV32@@Z
_TEXT	SEGMENT PARA USE32 PUBLIC 'CODE'
_TEXT	ENDS
;	COMDAT ?destroy@?$allocator@V?$basic_string@DU?$char_traits@D@std@@V?$allocator@D@2@@std@@@std@@QAEXPAV?$basic_string@DU?$char_traits@D@std@@V?$allocator@D@2@@2@@Z
_TEXT	SEGMENT PARA USE32 PUBLIC 'CODE'
_TEXT	ENDS
;	COMDAT ??$_Uninit_copy@PAV?$basic_string@DU?$char_traits@D@std@@V?$allocator@D@2@@std@@PAV12@V?$allocator@V?$basic_string@DU?$char_traits@D@std@@V?$allocator@D@2@@std@@@2@@std@@YAPAV?$basic_string@DU?$char_traits@D@std@@V?$allocator@D@2@@0@PAV10@00AAV?$allocator@V?$basic_string@DU?$char_traits@D@std@@V?$allocator@D@2@@std@@@0@U_Nonscalar_ptr_iterator_tag@0@@Z
_TEXT	SEGMENT PARA USE32 PUBLIC 'CODE'
_TEXT	ENDS
;	COMDAT ??$_Construct@V?$basic_string@DU?$char_traits@D@std@@V?$allocator@D@2@@std@@V12@@std@@YAXPAV?$basic_string@DU?$char_traits@D@std@@V?$allocator@D@2@@0@ABV10@@Z
_TEXT	SEGMENT PARA USE32 PUBLIC 'CODE'
_TEXT	ENDS
;	COMDAT ??$_Destroy@V?$basic_string@DU?$char_traits@D@std@@V?$allocator@D@2@@std@@@std@@YAXPAV?$basic_string@DU?$char_traits@D@std@@V?$allocator@D@2@@0@@Z
_TEXT	SEGMENT PARA USE32 PUBLIC 'CODE'
_TEXT	ENDS
;	COMDAT ??_G?$basic_string@DU?$char_traits@D@std@@V?$allocator@D@2@@std@@QAEPAXI@Z
_TEXT	SEGMENT PARA USE32 PUBLIC 'CODE'
_TEXT	ENDS
;	COMDAT ??_R4out_of_range@std@@6B@
rdata$r	SEGMENT DWORD USE32 PUBLIC 'CONST'
rdata$r	ENDS
;	COMDAT ??_R0?AVout_of_range@std@@@8
_DATA	SEGMENT DWORD USE32 PUBLIC 'DATA'
_DATA	ENDS
;	COMDAT ??_R3?$ctype@D@std@@8
rdata$r	SEGMENT DWORD USE32 PUBLIC 'CONST'
rdata$r	ENDS
;	COMDAT __TI3?AVlength_error@std@@
xdata$x	SEGMENT DWORD USE32 PUBLIC 'CONST'
xdata$x	ENDS
;	COMDAT ??_R1A@?0A@A@overflow_error@std@@8
rdata$r	SEGMENT DWORD USE32 PUBLIC 'CONST'
rdata$r	ENDS
;	COMDAT ??_R1A@?0A@A@out_of_range@std@@8
rdata$r	SEGMENT DWORD USE32 PUBLIC 'CONST'
rdata$r	ENDS
;	COMDAT ??_R1A@?0A@A@?$numpunct@D@std@@8
rdata$r	SEGMENT DWORD USE32 PUBLIC 'CONST'
rdata$r	ENDS
;	COMDAT ??_R2domain_error@std@@8
rdata$r	SEGMENT DWORD USE32 PUBLIC 'CONST'
rdata$r	ENDS
;	COMDAT ??_R1A@?0A@A@facet@locale@std@@8
rdata$r	SEGMENT DWORD USE32 PUBLIC 'CONST'
rdata$r	ENDS
;	COMDAT ??_R0?AVdomain_error@std@@@8
_DATA	SEGMENT DWORD USE32 PUBLIC 'DATA'
_DATA	ENDS
;	COMDAT ??_R3underflow_error@std@@8
rdata$r	SEGMENT DWORD USE32 PUBLIC 'CONST'
rdata$r	ENDS
;	COMDAT ??_R0?AV?$numpunct@_W@std@@@8
_DATA	SEGMENT DWORD USE32 PUBLIC 'DATA'
_DATA	ENDS
;	COMDAT ??_R0?AVrange_error@std@@@8
_DATA	SEGMENT DWORD USE32 PUBLIC 'DATA'
_DATA	ENDS
;	COMDAT ??_R2?$numpunct@D@std@@8
rdata$r	SEGMENT DWORD USE32 PUBLIC 'CONST'
rdata$r	ENDS
;	COMDAT __CT??_R0?AVlogic_error@std@@@8??0logic_error@std@@QAE@ABV01@@Z40
xdata$x	SEGMENT DWORD USE32 PUBLIC 'CONST'
xdata$x	ENDS
;	COMDAT ??_R1A@?0A@A@codecvt_base@std@@8
rdata$r	SEGMENT DWORD USE32 PUBLIC 'CONST'
rdata$r	ENDS
;	COMDAT ??_R2length_error@std@@8
rdata$r	SEGMENT DWORD USE32 PUBLIC 'CONST'
rdata$r	ENDS
;	COMDAT ??_R2runtime_error@std@@8
rdata$r	SEGMENT DWORD USE32 PUBLIC 'CONST'
rdata$r	ENDS
;	COMDAT ??_R2failure@ios_base@std@@8
rdata$r	SEGMENT DWORD USE32 PUBLIC 'CONST'
rdata$r	ENDS
;	COMDAT ??_R1A@?0A@A@bad_alloc@std@@8
rdata$r	SEGMENT DWORD USE32 PUBLIC 'CONST'
rdata$r	ENDS
;	COMDAT ??_R4?$numpunct@D@std@@6B@
rdata$r	SEGMENT DWORD USE32 PUBLIC 'CONST'
rdata$r	ENDS
;	COMDAT ??_R0?AVcodecvt_base@std@@@8
_DATA	SEGMENT DWORD USE32 PUBLIC 'DATA'
_DATA	ENDS
;	COMDAT ??_R2?$ctype@_W@std@@8
rdata$r	SEGMENT DWORD USE32 PUBLIC 'CONST'
rdata$r	ENDS
;	COMDAT ??_R2bad_alloc@std@@8
rdata$r	SEGMENT DWORD USE32 PUBLIC 'CONST'
rdata$r	ENDS
;	COMDAT ??_R0?AV?$codecvt@_WDH@std@@@8
_DATA	SEGMENT DWORD USE32 PUBLIC 'DATA'
_DATA	ENDS
;	COMDAT ??_R1A@?0A@A@exception@@8
rdata$r	SEGMENT DWORD USE32 PUBLIC 'CONST'
rdata$r	ENDS
;	COMDAT __CT??_R0?AVexception@@@8??0exception@@QAE@ABV0@@Z12
xdata$x	SEGMENT DWORD USE32 PUBLIC 'CONST'
xdata$x	ENDS
;	COMDAT ??_R1A@?0A@A@?$codecvt@_WDH@std@@8
rdata$r	SEGMENT DWORD USE32 PUBLIC 'CONST'
rdata$r	ENDS
;	COMDAT ??_R4underflow_error@std@@6B@
rdata$r	SEGMENT DWORD USE32 PUBLIC 'CONST'
rdata$r	ENDS
;	COMDAT ??_R2overflow_error@std@@8
rdata$r	SEGMENT DWORD USE32 PUBLIC 'CONST'
rdata$r	ENDS
;	COMDAT ??_R4length_error@std@@6B@
rdata$r	SEGMENT DWORD USE32 PUBLIC 'CONST'
rdata$r	ENDS
;	COMDAT ??_R1A@?0A@A@range_error@std@@8
rdata$r	SEGMENT DWORD USE32 PUBLIC 'CONST'
rdata$r	ENDS
;	COMDAT ??_R4?$ctype@D@std@@6B@
rdata$r	SEGMENT DWORD USE32 PUBLIC 'CONST'
rdata$r	ENDS
;	COMDAT ??_R0?AV?$ctype@_W@std@@@8
_DATA	SEGMENT DWORD USE32 PUBLIC 'DATA'
_DATA	ENDS
;	COMDAT ??_R3invalid_argument@std@@8
rdata$r	SEGMENT DWORD USE32 PUBLIC 'CONST'
rdata$r	ENDS
;	COMDAT ??_R0?AVfailure@ios_base@std@@@8
_DATA	SEGMENT DWORD USE32 PUBLIC 'DATA'
_DATA	ENDS
;	COMDAT ??_R3overflow_error@std@@8
rdata$r	SEGMENT DWORD USE32 PUBLIC 'CONST'
rdata$r	ENDS
;	COMDAT ??_R2out_of_range@std@@8
rdata$r	SEGMENT DWORD USE32 PUBLIC 'CONST'
rdata$r	ENDS
;	COMDAT ??_R0?AVruntime_error@std@@@8
_DATA	SEGMENT DWORD USE32 PUBLIC 'DATA'
_DATA	ENDS
;	COMDAT ??_R4overflow_error@std@@6B@
rdata$r	SEGMENT DWORD USE32 PUBLIC 'CONST'
rdata$r	ENDS
;	COMDAT __TI2?AVbad_cast@@
xdata$x	SEGMENT DWORD USE32 PUBLIC 'CONST'
xdata$x	ENDS
;	COMDAT ??_R0?AVunderflow_error@std@@@8
_DATA	SEGMENT DWORD USE32 PUBLIC 'DATA'
_DATA	ENDS
;	COMDAT ??_R3runtime_error@std@@8
rdata$r	SEGMENT DWORD USE32 PUBLIC 'CONST'
rdata$r	ENDS
;	COMDAT ??_R0?AV?$ctype@D@std@@@8
_DATA	SEGMENT DWORD USE32 PUBLIC 'DATA'
_DATA	ENDS
;	COMDAT ??_R4domain_error@std@@6B@
rdata$r	SEGMENT DWORD USE32 PUBLIC 'CONST'
rdata$r	ENDS
;	COMDAT ??_R3bad_exception@std@@8
rdata$r	SEGMENT DWORD USE32 PUBLIC 'CONST'
rdata$r	ENDS
;	COMDAT ??_R1A@?0A@A@?$numpunct@_W@std@@8
rdata$r	SEGMENT DWORD USE32 PUBLIC 'CONST'
rdata$r	ENDS
;	COMDAT ??_R2range_error@std@@8
rdata$r	SEGMENT DWORD USE32 PUBLIC 'CONST'
rdata$r	ENDS
;	COMDAT ??_R0?AVexception@@@8
_DATA	SEGMENT DWORD USE32 PUBLIC 'DATA'
_DATA	ENDS
;	COMDAT __CT??_R0?AVlength_error@std@@@8??0length_error@std@@QAE@ABV01@@Z40
xdata$x	SEGMENT DWORD USE32 PUBLIC 'CONST'
xdata$x	ENDS
;	COMDAT ??_R1A@?0A@A@?$ctype@D@std@@8
rdata$r	SEGMENT DWORD USE32 PUBLIC 'CONST'
rdata$r	ENDS
;	COMDAT __CT??_R0?AVbad_cast@@@8??0bad_cast@@QAE@ABV0@@Z12
xdata$x	SEGMENT DWORD USE32 PUBLIC 'CONST'
xdata$x	ENDS
;	COMDAT ??_R3?$ctype@_W@std@@8
rdata$r	SEGMENT DWORD USE32 PUBLIC 'CONST'
rdata$r	ENDS
;	COMDAT ??_R3bad_alloc@std@@8
rdata$r	SEGMENT DWORD USE32 PUBLIC 'CONST'
rdata$r	ENDS
;	COMDAT ??_R3domain_error@std@@8
rdata$r	SEGMENT DWORD USE32 PUBLIC 'CONST'
rdata$r	ENDS
;	COMDAT ??_R0?AVbad_exception@std@@@8
_DATA	SEGMENT DWORD USE32 PUBLIC 'DATA'
_DATA	ENDS
;	COMDAT ??_R2bad_exception@std@@8
rdata$r	SEGMENT DWORD USE32 PUBLIC 'CONST'
rdata$r	ENDS
;	COMDAT ??_R0?AV?$numpunct@D@std@@@8
_DATA	SEGMENT DWORD USE32 PUBLIC 'DATA'
_DATA	ENDS
;	COMDAT ??_R0?AVbad_alloc@std@@@8
_DATA	SEGMENT DWORD USE32 PUBLIC 'DATA'
_DATA	ENDS
;	COMDAT ??_R4invalid_argument@std@@6B@
rdata$r	SEGMENT DWORD USE32 PUBLIC 'CONST'
rdata$r	ENDS
;	COMDAT ??_R4?$codecvt@_WDH@std@@6B@
rdata$r	SEGMENT DWORD USE32 PUBLIC 'CONST'
rdata$r	ENDS
;	COMDAT ??_R4range_error@std@@6B@
rdata$r	SEGMENT DWORD USE32 PUBLIC 'CONST'
rdata$r	ENDS
;	COMDAT ??_R3?$codecvt@_WDH@std@@8
rdata$r	SEGMENT DWORD USE32 PUBLIC 'CONST'
rdata$r	ENDS
;	COMDAT ??_R1A@?0A@A@logic_error@std@@8
rdata$r	SEGMENT DWORD USE32 PUBLIC 'CONST'
rdata$r	ENDS
;	COMDAT __CTA2?AVbad_cast@@
xdata$x	SEGMENT DWORD USE32 PUBLIC 'CONST'
xdata$x	ENDS
;	COMDAT ??_R4logic_error@std@@6B@
rdata$r	SEGMENT DWORD USE32 PUBLIC 'CONST'
rdata$r	ENDS
;	COMDAT ??_R0?AVlength_error@std@@@8
_DATA	SEGMENT DWORD USE32 PUBLIC 'DATA'
_DATA	ENDS
;	COMDAT ??_R3out_of_range@std@@8
rdata$r	SEGMENT DWORD USE32 PUBLIC 'CONST'
rdata$r	ENDS
;	COMDAT ??_R2?$numpunct@_W@std@@8
rdata$r	SEGMENT DWORD USE32 PUBLIC 'CONST'
rdata$r	ENDS
;	COMDAT ??_R0?AVbad_cast@@@8
_DATA	SEGMENT DWORD USE32 PUBLIC 'DATA'
_DATA	ENDS
;	COMDAT ??_R1A@?0A@A@runtime_error@std@@8
rdata$r	SEGMENT DWORD USE32 PUBLIC 'CONST'
rdata$r	ENDS
;	COMDAT ??_R1A@?0A@A@invalid_argument@std@@8
rdata$r	SEGMENT DWORD USE32 PUBLIC 'CONST'
rdata$r	ENDS
;	COMDAT ??_R1A@?0A@A@ctype_base@std@@8
rdata$r	SEGMENT DWORD USE32 PUBLIC 'CONST'
rdata$r	ENDS
;	COMDAT ??_R2logic_error@std@@8
rdata$r	SEGMENT DWORD USE32 PUBLIC 'CONST'
rdata$r	ENDS
;	COMDAT ??_R1A@?0A@A@failure@ios_base@std@@8
rdata$r	SEGMENT DWORD USE32 PUBLIC 'CONST'
rdata$r	ENDS
;	COMDAT ??_R3logic_error@std@@8
rdata$r	SEGMENT DWORD USE32 PUBLIC 'CONST'
rdata$r	ENDS
;	COMDAT __CTA3?AVlength_error@std@@
xdata$x	SEGMENT DWORD USE32 PUBLIC 'CONST'
xdata$x	ENDS
;	COMDAT ??_R0?AVlogic_error@std@@@8
_DATA	SEGMENT DWORD USE32 PUBLIC 'DATA'
_DATA	ENDS
;	COMDAT ??_R4?$ctype@_W@std@@6B@
rdata$r	SEGMENT DWORD USE32 PUBLIC 'CONST'
rdata$r	ENDS
;	COMDAT ??_R3length_error@std@@8
rdata$r	SEGMENT DWORD USE32 PUBLIC 'CONST'
rdata$r	ENDS
;	COMDAT ??_R4bad_exception@std@@6B@
rdata$r	SEGMENT DWORD USE32 PUBLIC 'CONST'
rdata$r	ENDS
;	COMDAT ??_R1A@?0A@A@underflow_error@std@@8
rdata$r	SEGMENT DWORD USE32 PUBLIC 'CONST'
rdata$r	ENDS
;	COMDAT ??_R3failure@ios_base@std@@8
rdata$r	SEGMENT DWORD USE32 PUBLIC 'CONST'
rdata$r	ENDS
;	COMDAT ??_R1A@?0A@A@?$ctype@_W@std@@8
rdata$r	SEGMENT DWORD USE32 PUBLIC 'CONST'
rdata$r	ENDS
;	COMDAT ??_R4bad_alloc@std@@6B@
rdata$r	SEGMENT DWORD USE32 PUBLIC 'CONST'
rdata$r	ENDS
;	COMDAT ??_R1A@?0A@A@bad_exception@std@@8
rdata$r	SEGMENT DWORD USE32 PUBLIC 'CONST'
rdata$r	ENDS
;	COMDAT ??_R2underflow_error@std@@8
rdata$r	SEGMENT DWORD USE32 PUBLIC 'CONST'
rdata$r	ENDS
;	COMDAT ??_R0?AUctype_base@std@@@8
_DATA	SEGMENT DWORD USE32 PUBLIC 'DATA'
_DATA	ENDS
;	COMDAT ??_R4failure@ios_base@std@@6B@
rdata$r	SEGMENT DWORD USE32 PUBLIC 'CONST'
rdata$r	ENDS
;	COMDAT ??_R2?$ctype@D@std@@8
rdata$r	SEGMENT DWORD USE32 PUBLIC 'CONST'
rdata$r	ENDS
;	COMDAT ??_R4?$numpunct@_W@std@@6B@
rdata$r	SEGMENT DWORD USE32 PUBLIC 'CONST'
rdata$r	ENDS
;	COMDAT ??_R3range_error@std@@8
rdata$r	SEGMENT DWORD USE32 PUBLIC 'CONST'
rdata$r	ENDS
;	COMDAT ??_R3?$numpunct@D@std@@8
rdata$r	SEGMENT DWORD USE32 PUBLIC 'CONST'
rdata$r	ENDS
;	COMDAT ??_R0?AVfacet@locale@std@@@8
_DATA	SEGMENT DWORD USE32 PUBLIC 'DATA'
_DATA	ENDS
;	COMDAT ?binary@?$_Iosb@H@std@@2W4_Openmode@12@B
CONST	SEGMENT DWORD USE32 PUBLIC 'CONST'
CONST	ENDS
;	COMDAT ?_Hardfail@?$_Iosb@H@std@@2W4_Iostate@12@B
CONST	SEGMENT DWORD USE32 PUBLIC 'CONST'
CONST	ENDS
;	COMDAT ?eofbit@?$_Iosb@H@std@@2W4_Iostate@12@B
CONST	SEGMENT DWORD USE32 PUBLIC 'CONST'
CONST	ENDS
;	COMDAT ??_7invalid_argument@std@@6B@
CONST	SEGMENT DWORD USE32 PUBLIC 'CONST'
CONST	ENDS
;	COMDAT ?app@?$_Iosb@H@std@@2W4_Openmode@12@B
CONST	SEGMENT DWORD USE32 PUBLIC 'CONST'
CONST	ENDS
;	COMDAT ?uppercase@?$_Iosb@H@std@@2W4_Fmtflags@12@B
CONST	SEGMENT DWORD USE32 PUBLIC 'CONST'
CONST	ENDS
;	COMDAT ??_S?$numpunct@_W@std@@6B@
CONST	SEGMENT DWORD USE32 PUBLIC 'CONST'
CONST	ENDS
;	COMDAT ??_7out_of_range@std@@6B@
CONST	SEGMENT DWORD USE32 PUBLIC 'CONST'
CONST	ENDS
;	COMDAT ?trunc@?$_Iosb@H@std@@2W4_Openmode@12@B
CONST	SEGMENT DWORD USE32 PUBLIC 'CONST'
CONST	ENDS
;	COMDAT ??_S?$ctype@_W@std@@6B@
CONST	SEGMENT DWORD USE32 PUBLIC 'CONST'
CONST	ENDS
;	COMDAT ??_S?$numpunct@D@std@@6B@
CONST	SEGMENT DWORD USE32 PUBLIC 'CONST'
CONST	ENDS
;	COMDAT ?skipws@?$_Iosb@H@std@@2W4_Fmtflags@12@B
CONST	SEGMENT DWORD USE32 PUBLIC 'CONST'
CONST	ENDS
;	COMDAT ?basefield@?$_Iosb@H@std@@2W4_Fmtflags@12@B
CONST	SEGMENT DWORD USE32 PUBLIC 'CONST'
CONST	ENDS
;	COMDAT ??_7bad_alloc@std@@6B@
CONST	SEGMENT DWORD USE32 PUBLIC 'CONST'
CONST	ENDS
;	COMDAT ?_Stdio@?$_Iosb@H@std@@2W4_Fmtflags@12@B
CONST	SEGMENT DWORD USE32 PUBLIC 'CONST'
CONST	ENDS
;	COMDAT ?left@?$_Iosb@H@std@@2W4_Fmtflags@12@B
CONST	SEGMENT DWORD USE32 PUBLIC 'CONST'
CONST	ENDS
;	COMDAT ??_7runtime_error@std@@6B@
CONST	SEGMENT DWORD USE32 PUBLIC 'CONST'
CONST	ENDS
;	COMDAT ?showpos@?$_Iosb@H@std@@2W4_Fmtflags@12@B
CONST	SEGMENT DWORD USE32 PUBLIC 'CONST'
CONST	ENDS
;	COMDAT ?_Psave@?$_Facetptr@V?$ctype@D@std@@@std@@2PBVfacet@locale@2@B
_DATA	SEGMENT DWORD USE32 PUBLIC 'DATA'
_DATA	ENDS
;	COMDAT ?adjustfield@?$_Iosb@H@std@@2W4_Fmtflags@12@B
CONST	SEGMENT DWORD USE32 PUBLIC 'CONST'
CONST	ENDS
;	COMDAT ??_S?$ctype@D@std@@6B@
CONST	SEGMENT DWORD USE32 PUBLIC 'CONST'
CONST	ENDS
;	COMDAT ?badbit@?$_Iosb@H@std@@2W4_Iostate@12@B
CONST	SEGMENT DWORD USE32 PUBLIC 'CONST'
CONST	ENDS
;	COMDAT ?in@?$_Iosb@H@std@@2W4_Openmode@12@B
CONST	SEGMENT DWORD USE32 PUBLIC 'CONST'
CONST	ENDS
;	COMDAT ??_7underflow_error@std@@6B@
CONST	SEGMENT DWORD USE32 PUBLIC 'CONST'
CONST	ENDS
;	COMDAT ??_7overflow_error@std@@6B@
CONST	SEGMENT DWORD USE32 PUBLIC 'CONST'
CONST	ENDS
;	COMDAT ?_Psave@?$_Facetptr@V?$ctype@_W@std@@@std@@2PBVfacet@locale@2@B
_DATA	SEGMENT DWORD USE32 PUBLIC 'DATA'
_DATA	ENDS
;	COMDAT ?oct@?$_Iosb@H@std@@2W4_Fmtflags@12@B
CONST	SEGMENT DWORD USE32 PUBLIC 'CONST'
CONST	ENDS
;	COMDAT ?hex@?$_Iosb@H@std@@2W4_Fmtflags@12@B
CONST	SEGMENT DWORD USE32 PUBLIC 'CONST'
CONST	ENDS
;	COMDAT ?showbase@?$_Iosb@H@std@@2W4_Fmtflags@12@B
CONST	SEGMENT DWORD USE32 PUBLIC 'CONST'
CONST	ENDS
;	COMDAT ?showpoint@?$_Iosb@H@std@@2W4_Fmtflags@12@B
CONST	SEGMENT DWORD USE32 PUBLIC 'CONST'
CONST	ENDS
;	COMDAT ?collate@?$_Locbase@H@std@@2HB
CONST	SEGMENT DWORD USE32 PUBLIC 'CONST'
CONST	ENDS
;	COMDAT ??_7length_error@std@@6B@
CONST	SEGMENT DWORD USE32 PUBLIC 'CONST'
CONST	ENDS
;	COMDAT ?beg@?$_Iosb@H@std@@2W4_Seekdir@12@B
CONST	SEGMENT DWORD USE32 PUBLIC 'CONST'
CONST	ENDS
;	COMDAT ?failbit@?$_Iosb@H@std@@2W4_Iostate@12@B
CONST	SEGMENT DWORD USE32 PUBLIC 'CONST'
CONST	ENDS
;	COMDAT ?unitbuf@?$_Iosb@H@std@@2W4_Fmtflags@12@B
CONST	SEGMENT DWORD USE32 PUBLIC 'CONST'
CONST	ENDS
;	COMDAT ?right@?$_Iosb@H@std@@2W4_Fmtflags@12@B
CONST	SEGMENT DWORD USE32 PUBLIC 'CONST'
CONST	ENDS
;	COMDAT ?_Stz@?$fpos@H@std@@0HA
_BSS	SEGMENT DWORD USE32 PUBLIC 'BSS'
_BSS	ENDS
;	COMDAT ?ctype@?$_Locbase@H@std@@2HB
CONST	SEGMENT DWORD USE32 PUBLIC 'CONST'
CONST	ENDS
;	COMDAT ?out@?$_Iosb@H@std@@2W4_Openmode@12@B
CONST	SEGMENT DWORD USE32 PUBLIC 'CONST'
CONST	ENDS
;	COMDAT ?_Psave@?$_Facetptr@V?$numpunct@D@std@@@std@@2PBVfacet@locale@2@B
_DATA	SEGMENT DWORD USE32 PUBLIC 'DATA'
_DATA	ENDS
;	COMDAT ?internal@?$_Iosb@H@std@@2W4_Fmtflags@12@B
CONST	SEGMENT DWORD USE32 PUBLIC 'CONST'
CONST	ENDS
;	COMDAT ??_S?$codecvt@_WDH@std@@6B@
CONST	SEGMENT DWORD USE32 PUBLIC 'CONST'
CONST	ENDS
;	COMDAT ?goodbit@?$_Iosb@H@std@@2W4_Iostate@12@B
CONST	SEGMENT DWORD USE32 PUBLIC 'CONST'
CONST	ENDS
;	COMDAT ??_7bad_exception@std@@6B@
CONST	SEGMENT DWORD USE32 PUBLIC 'CONST'
CONST	ENDS
;	COMDAT ?boolalpha@?$_Iosb@H@std@@2W4_Fmtflags@12@B
CONST	SEGMENT DWORD USE32 PUBLIC 'CONST'
CONST	ENDS
;	COMDAT ?ate@?$_Iosb@H@std@@2W4_Openmode@12@B
CONST	SEGMENT DWORD USE32 PUBLIC 'CONST'
CONST	ENDS
;	COMDAT ?all@?$_Locbase@H@std@@2HB
CONST	SEGMENT DWORD USE32 PUBLIC 'CONST'
CONST	ENDS
;	COMDAT ?numeric@?$_Locbase@H@std@@2HB
CONST	SEGMENT DWORD USE32 PUBLIC 'CONST'
CONST	ENDS
;	COMDAT ?end@?$_Iosb@H@std@@2W4_Seekdir@12@B
CONST	SEGMENT DWORD USE32 PUBLIC 'CONST'
CONST	ENDS
;	COMDAT ?_Noreplace@?$_Iosb@H@std@@2W4_Openmode@12@B
CONST	SEGMENT DWORD USE32 PUBLIC 'CONST'
CONST	ENDS
;	COMDAT ??_7failure@ios_base@std@@6B@
CONST	SEGMENT DWORD USE32 PUBLIC 'CONST'
CONST	ENDS
;	COMDAT ?cur@?$_Iosb@H@std@@2W4_Seekdir@12@B
CONST	SEGMENT DWORD USE32 PUBLIC 'CONST'
CONST	ENDS
;	COMDAT ??_7range_error@std@@6B@
CONST	SEGMENT DWORD USE32 PUBLIC 'CONST'
CONST	ENDS
;	COMDAT ??_7logic_error@std@@6B@
CONST	SEGMENT DWORD USE32 PUBLIC 'CONST'
CONST	ENDS
;	COMDAT ?time@?$_Locbase@H@std@@2HB
CONST	SEGMENT DWORD USE32 PUBLIC 'CONST'
CONST	ENDS
;	COMDAT ?messages@?$_Locbase@H@std@@2HB
CONST	SEGMENT DWORD USE32 PUBLIC 'CONST'
CONST	ENDS
;	COMDAT ??_7domain_error@std@@6B@
CONST	SEGMENT DWORD USE32 PUBLIC 'CONST'
CONST	ENDS
;	COMDAT ?fixed@?$_Iosb@H@std@@2W4_Fmtflags@12@B
CONST	SEGMENT DWORD USE32 PUBLIC 'CONST'
CONST	ENDS
;	COMDAT ?none@?$_Locbase@H@std@@2HB
CONST	SEGMENT DWORD USE32 PUBLIC 'CONST'
CONST	ENDS
;	COMDAT ?floatfield@?$_Iosb@H@std@@2W4_Fmtflags@12@B
CONST	SEGMENT DWORD USE32 PUBLIC 'CONST'
CONST	ENDS
;	COMDAT ?_Nocreate@?$_Iosb@H@std@@2W4_Openmode@12@B
CONST	SEGMENT DWORD USE32 PUBLIC 'CONST'
CONST	ENDS
;	COMDAT ?scientific@?$_Iosb@H@std@@2W4_Fmtflags@12@B
CONST	SEGMENT DWORD USE32 PUBLIC 'CONST'
CONST	ENDS
;	COMDAT ?monetary@?$_Locbase@H@std@@2HB
CONST	SEGMENT DWORD USE32 PUBLIC 'CONST'
CONST	ENDS
;	COMDAT ?_Psave@?$_Facetptr@V?$numpunct@_W@std@@@std@@2PBVfacet@locale@2@B
_DATA	SEGMENT DWORD USE32 PUBLIC 'DATA'
_DATA	ENDS
;	COMDAT ?dec@?$_Iosb@H@std@@2W4_Fmtflags@12@B
CONST	SEGMENT DWORD USE32 PUBLIC 'CONST'
CONST	ENDS
;	COMDAT ??_R2invalid_argument@std@@8
rdata$r	SEGMENT DWORD USE32 PUBLIC 'CONST'
rdata$r	ENDS
;	COMDAT ??_R2?$codecvt@_WDH@std@@8
rdata$r	SEGMENT DWORD USE32 PUBLIC 'CONST'
rdata$r	ENDS
;	COMDAT ??_R1A@?0A@A@length_error@std@@8
rdata$r	SEGMENT DWORD USE32 PUBLIC 'CONST'
rdata$r	ENDS
;	COMDAT ??_R3?$numpunct@_W@std@@8
rdata$r	SEGMENT DWORD USE32 PUBLIC 'CONST'
rdata$r	ENDS
;	COMDAT ??_R4runtime_error@std@@6B@
rdata$r	SEGMENT DWORD USE32 PUBLIC 'CONST'
rdata$r	ENDS
;	COMDAT ??_R0?AVinvalid_argument@std@@@8
_DATA	SEGMENT DWORD USE32 PUBLIC 'DATA'
_DATA	ENDS
;	COMDAT ??_R1A@?0A@A@domain_error@std@@8
rdata$r	SEGMENT DWORD USE32 PUBLIC 'CONST'
rdata$r	ENDS
;	COMDAT ??_R0?AVoverflow_error@std@@@8
_DATA	SEGMENT DWORD USE32 PUBLIC 'DATA'
_DATA	ENDS
sxdata	SEGMENT DWORD USE32 'SXDATA'
sxdata	ENDS
FLAT	GROUP _DATA, CONST, _BSS
	ASSUME	CS: FLAT, DS: FLAT, SS: FLAT
endif

INCLUDELIB MSVCRT
INCLUDELIB OLDNAMES

PUBLIC	?collate@?$_Locbase@H@std@@2HB			; std::_Locbase<int>::collate
PUBLIC	?ctype@?$_Locbase@H@std@@2HB			; std::_Locbase<int>::ctype
PUBLIC	?monetary@?$_Locbase@H@std@@2HB			; std::_Locbase<int>::monetary
PUBLIC	?numeric@?$_Locbase@H@std@@2HB			; std::_Locbase<int>::numeric
PUBLIC	?time@?$_Locbase@H@std@@2HB			; std::_Locbase<int>::time
PUBLIC	?messages@?$_Locbase@H@std@@2HB			; std::_Locbase<int>::messages
PUBLIC	?all@?$_Locbase@H@std@@2HB			; std::_Locbase<int>::all
PUBLIC	?none@?$_Locbase@H@std@@2HB			; std::_Locbase<int>::none
PUBLIC	?skipws@?$_Iosb@H@std@@2W4_Fmtflags@12@B	; std::_Iosb<int>::skipws
PUBLIC	?unitbuf@?$_Iosb@H@std@@2W4_Fmtflags@12@B	; std::_Iosb<int>::unitbuf
PUBLIC	?uppercase@?$_Iosb@H@std@@2W4_Fmtflags@12@B	; std::_Iosb<int>::uppercase
PUBLIC	?showbase@?$_Iosb@H@std@@2W4_Fmtflags@12@B	; std::_Iosb<int>::showbase
PUBLIC	?showpoint@?$_Iosb@H@std@@2W4_Fmtflags@12@B	; std::_Iosb<int>::showpoint
PUBLIC	?showpos@?$_Iosb@H@std@@2W4_Fmtflags@12@B	; std::_Iosb<int>::showpos
PUBLIC	?left@?$_Iosb@H@std@@2W4_Fmtflags@12@B		; std::_Iosb<int>::left
PUBLIC	?right@?$_Iosb@H@std@@2W4_Fmtflags@12@B		; std::_Iosb<int>::right
PUBLIC	?internal@?$_Iosb@H@std@@2W4_Fmtflags@12@B	; std::_Iosb<int>::internal
PUBLIC	?dec@?$_Iosb@H@std@@2W4_Fmtflags@12@B		; std::_Iosb<int>::dec
PUBLIC	?oct@?$_Iosb@H@std@@2W4_Fmtflags@12@B		; std::_Iosb<int>::oct
PUBLIC	?hex@?$_Iosb@H@std@@2W4_Fmtflags@12@B		; std::_Iosb<int>::hex
PUBLIC	?scientific@?$_Iosb@H@std@@2W4_Fmtflags@12@B	; std::_Iosb<int>::scientific
PUBLIC	?fixed@?$_Iosb@H@std@@2W4_Fmtflags@12@B		; std::_Iosb<int>::fixed
PUBLIC	?boolalpha@?$_Iosb@H@std@@2W4_Fmtflags@12@B	; std::_Iosb<int>::boolalpha
PUBLIC	?_Stdio@?$_Iosb@H@std@@2W4_Fmtflags@12@B	; std::_Iosb<int>::_Stdio
PUBLIC	?adjustfield@?$_Iosb@H@std@@2W4_Fmtflags@12@B	; std::_Iosb<int>::adjustfield
PUBLIC	?basefield@?$_Iosb@H@std@@2W4_Fmtflags@12@B	; std::_Iosb<int>::basefield
PUBLIC	?floatfield@?$_Iosb@H@std@@2W4_Fmtflags@12@B	; std::_Iosb<int>::floatfield
PUBLIC	?goodbit@?$_Iosb@H@std@@2W4_Iostate@12@B	; std::_Iosb<int>::goodbit
PUBLIC	?eofbit@?$_Iosb@H@std@@2W4_Iostate@12@B		; std::_Iosb<int>::eofbit
PUBLIC	?failbit@?$_Iosb@H@std@@2W4_Iostate@12@B	; std::_Iosb<int>::failbit
PUBLIC	?badbit@?$_Iosb@H@std@@2W4_Iostate@12@B		; std::_Iosb<int>::badbit
PUBLIC	?_Hardfail@?$_Iosb@H@std@@2W4_Iostate@12@B	; std::_Iosb<int>::_Hardfail
PUBLIC	?in@?$_Iosb@H@std@@2W4_Openmode@12@B		; std::_Iosb<int>::in
PUBLIC	?out@?$_Iosb@H@std@@2W4_Openmode@12@B		; std::_Iosb<int>::out
PUBLIC	?ate@?$_Iosb@H@std@@2W4_Openmode@12@B		; std::_Iosb<int>::ate
PUBLIC	?app@?$_Iosb@H@std@@2W4_Openmode@12@B		; std::_Iosb<int>::app
PUBLIC	?trunc@?$_Iosb@H@std@@2W4_Openmode@12@B		; std::_Iosb<int>::trunc
PUBLIC	?_Nocreate@?$_Iosb@H@std@@2W4_Openmode@12@B	; std::_Iosb<int>::_Nocreate
PUBLIC	?_Noreplace@?$_Iosb@H@std@@2W4_Openmode@12@B	; std::_Iosb<int>::_Noreplace
PUBLIC	?binary@?$_Iosb@H@std@@2W4_Openmode@12@B	; std::_Iosb<int>::binary
PUBLIC	?beg@?$_Iosb@H@std@@2W4_Seekdir@12@B		; std::_Iosb<int>::beg
PUBLIC	?cur@?$_Iosb@H@std@@2W4_Seekdir@12@B		; std::_Iosb<int>::cur
PUBLIC	?end@?$_Iosb@H@std@@2W4_Seekdir@12@B		; std::_Iosb<int>::end
;	COMDAT ?collate@?$_Locbase@H@std@@2HB
CONST	SEGMENT
?collate@?$_Locbase@H@std@@2HB DD 01H			; std::_Locbase<int>::collate
CONST	ENDS
;	COMDAT ?ctype@?$_Locbase@H@std@@2HB
CONST	SEGMENT
?ctype@?$_Locbase@H@std@@2HB DD 02H			; std::_Locbase<int>::ctype
CONST	ENDS
;	COMDAT ?monetary@?$_Locbase@H@std@@2HB
CONST	SEGMENT
?monetary@?$_Locbase@H@std@@2HB DD 04H			; std::_Locbase<int>::monetary
CONST	ENDS
;	COMDAT ?numeric@?$_Locbase@H@std@@2HB
CONST	SEGMENT
?numeric@?$_Locbase@H@std@@2HB DD 08H			; std::_Locbase<int>::numeric
CONST	ENDS
;	COMDAT ?time@?$_Locbase@H@std@@2HB
CONST	SEGMENT
?time@?$_Locbase@H@std@@2HB DD 010H			; std::_Locbase<int>::time
CONST	ENDS
;	COMDAT ?messages@?$_Locbase@H@std@@2HB
CONST	SEGMENT
?messages@?$_Locbase@H@std@@2HB DD 020H			; std::_Locbase<int>::messages
CONST	ENDS
;	COMDAT ?all@?$_Locbase@H@std@@2HB
CONST	SEGMENT
?all@?$_Locbase@H@std@@2HB DD 03fH			; std::_Locbase<int>::all
CONST	ENDS
;	COMDAT ?none@?$_Locbase@H@std@@2HB
CONST	SEGMENT
?none@?$_Locbase@H@std@@2HB DD 00H			; std::_Locbase<int>::none
CONST	ENDS
;	COMDAT ?skipws@?$_Iosb@H@std@@2W4_Fmtflags@12@B
CONST	SEGMENT
?skipws@?$_Iosb@H@std@@2W4_Fmtflags@12@B DD 01H		; std::_Iosb<int>::skipws
CONST	ENDS
;	COMDAT ?unitbuf@?$_Iosb@H@std@@2W4_Fmtflags@12@B
CONST	SEGMENT
?unitbuf@?$_Iosb@H@std@@2W4_Fmtflags@12@B DD 02H	; std::_Iosb<int>::unitbuf
CONST	ENDS
;	COMDAT ?uppercase@?$_Iosb@H@std@@2W4_Fmtflags@12@B
CONST	SEGMENT
?uppercase@?$_Iosb@H@std@@2W4_Fmtflags@12@B DD 04H	; std::_Iosb<int>::uppercase
CONST	ENDS
;	COMDAT ?showbase@?$_Iosb@H@std@@2W4_Fmtflags@12@B
CONST	SEGMENT
?showbase@?$_Iosb@H@std@@2W4_Fmtflags@12@B DD 08H	; std::_Iosb<int>::showbase
CONST	ENDS
;	COMDAT ?showpoint@?$_Iosb@H@std@@2W4_Fmtflags@12@B
CONST	SEGMENT
?showpoint@?$_Iosb@H@std@@2W4_Fmtflags@12@B DD 010H	; std::_Iosb<int>::showpoint
CONST	ENDS
;	COMDAT ?showpos@?$_Iosb@H@std@@2W4_Fmtflags@12@B
CONST	SEGMENT
?showpos@?$_Iosb@H@std@@2W4_Fmtflags@12@B DD 020H	; std::_Iosb<int>::showpos
CONST	ENDS
;	COMDAT ?left@?$_Iosb@H@std@@2W4_Fmtflags@12@B
CONST	SEGMENT
?left@?$_Iosb@H@std@@2W4_Fmtflags@12@B DD 040H		; std::_Iosb<int>::left
CONST	ENDS
;	COMDAT ?right@?$_Iosb@H@std@@2W4_Fmtflags@12@B
CONST	SEGMENT
?right@?$_Iosb@H@std@@2W4_Fmtflags@12@B DD 080H		; std::_Iosb<int>::right
CONST	ENDS
;	COMDAT ?internal@?$_Iosb@H@std@@2W4_Fmtflags@12@B
CONST	SEGMENT
?internal@?$_Iosb@H@std@@2W4_Fmtflags@12@B DD 0100H	; std::_Iosb<int>::internal
CONST	ENDS
;	COMDAT ?dec@?$_Iosb@H@std@@2W4_Fmtflags@12@B
CONST	SEGMENT
?dec@?$_Iosb@H@std@@2W4_Fmtflags@12@B DD 0200H		; std::_Iosb<int>::dec
CONST	ENDS
;	COMDAT ?oct@?$_Iosb@H@std@@2W4_Fmtflags@12@B
CONST	SEGMENT
?oct@?$_Iosb@H@std@@2W4_Fmtflags@12@B DD 0400H		; std::_Iosb<int>::oct
CONST	ENDS
;	COMDAT ?hex@?$_Iosb@H@std@@2W4_Fmtflags@12@B
CONST	SEGMENT
?hex@?$_Iosb@H@std@@2W4_Fmtflags@12@B DD 0800H		; std::_Iosb<int>::hex
CONST	ENDS
;	COMDAT ?scientific@?$_Iosb@H@std@@2W4_Fmtflags@12@B
CONST	SEGMENT
?scientific@?$_Iosb@H@std@@2W4_Fmtflags@12@B DD 01000H	; std::_Iosb<int>::scientific
CONST	ENDS
;	COMDAT ?fixed@?$_Iosb@H@std@@2W4_Fmtflags@12@B
CONST	SEGMENT
?fixed@?$_Iosb@H@std@@2W4_Fmtflags@12@B DD 02000H	; std::_Iosb<int>::fixed
CONST	ENDS
;	COMDAT ?boolalpha@?$_Iosb@H@std@@2W4_Fmtflags@12@B
CONST	SEGMENT
?boolalpha@?$_Iosb@H@std@@2W4_Fmtflags@12@B DD 04000H	; std::_Iosb<int>::boolalpha
CONST	ENDS
;	COMDAT ?_Stdio@?$_Iosb@H@std@@2W4_Fmtflags@12@B
CONST	SEGMENT
?_Stdio@?$_Iosb@H@std@@2W4_Fmtflags@12@B DD 08000H	; std::_Iosb<int>::_Stdio
CONST	ENDS
;	COMDAT ?adjustfield@?$_Iosb@H@std@@2W4_Fmtflags@12@B
CONST	SEGMENT
?adjustfield@?$_Iosb@H@std@@2W4_Fmtflags@12@B DD 01c0H	; std::_Iosb<int>::adjustfield
CONST	ENDS
;	COMDAT ?basefield@?$_Iosb@H@std@@2W4_Fmtflags@12@B
CONST	SEGMENT
?basefield@?$_Iosb@H@std@@2W4_Fmtflags@12@B DD 0e00H	; std::_Iosb<int>::basefield
CONST	ENDS
;	COMDAT ?floatfield@?$_Iosb@H@std@@2W4_Fmtflags@12@B
CONST	SEGMENT
?floatfield@?$_Iosb@H@std@@2W4_Fmtflags@12@B DD 03000H	; std::_Iosb<int>::floatfield
CONST	ENDS
;	COMDAT ?goodbit@?$_Iosb@H@std@@2W4_Iostate@12@B
CONST	SEGMENT
?goodbit@?$_Iosb@H@std@@2W4_Iostate@12@B DD 00H		; std::_Iosb<int>::goodbit
CONST	ENDS
;	COMDAT ?eofbit@?$_Iosb@H@std@@2W4_Iostate@12@B
CONST	SEGMENT
?eofbit@?$_Iosb@H@std@@2W4_Iostate@12@B DD 01H		; std::_Iosb<int>::eofbit
CONST	ENDS
;	COMDAT ?failbit@?$_Iosb@H@std@@2W4_Iostate@12@B
CONST	SEGMENT
?failbit@?$_Iosb@H@std@@2W4_Iostate@12@B DD 02H		; std::_Iosb<int>::failbit
CONST	ENDS
;	COMDAT ?badbit@?$_Iosb@H@std@@2W4_Iostate@12@B
CONST	SEGMENT
?badbit@?$_Iosb@H@std@@2W4_Iostate@12@B DD 04H		; std::_Iosb<int>::badbit
CONST	ENDS
;	COMDAT ?_Hardfail@?$_Iosb@H@std@@2W4_Iostate@12@B
CONST	SEGMENT
?_Hardfail@?$_Iosb@H@std@@2W4_Iostate@12@B DD 010H	; std::_Iosb<int>::_Hardfail
CONST	ENDS
;	COMDAT ?in@?$_Iosb@H@std@@2W4_Openmode@12@B
CONST	SEGMENT
?in@?$_Iosb@H@std@@2W4_Openmode@12@B DD 01H		; std::_Iosb<int>::in
CONST	ENDS
;	COMDAT ?out@?$_Iosb@H@std@@2W4_Openmode@12@B
CONST	SEGMENT
?out@?$_Iosb@H@std@@2W4_Openmode@12@B DD 02H		; std::_Iosb<int>::out
CONST	ENDS
;	COMDAT ?ate@?$_Iosb@H@std@@2W4_Openmode@12@B
CONST	SEGMENT
?ate@?$_Iosb@H@std@@2W4_Openmode@12@B DD 04H		; std::_Iosb<int>::ate
CONST	ENDS
;	COMDAT ?app@?$_Iosb@H@std@@2W4_Openmode@12@B
CONST	SEGMENT
?app@?$_Iosb@H@std@@2W4_Openmode@12@B DD 08H		; std::_Iosb<int>::app
CONST	ENDS
;	COMDAT ?trunc@?$_Iosb@H@std@@2W4_Openmode@12@B
CONST	SEGMENT
?trunc@?$_Iosb@H@std@@2W4_Openmode@12@B DD 010H		; std::_Iosb<int>::trunc
CONST	ENDS
;	COMDAT ?_Nocreate@?$_Iosb@H@std@@2W4_Openmode@12@B
CONST	SEGMENT
?_Nocreate@?$_Iosb@H@std@@2W4_Openmode@12@B DD 040H	; std::_Iosb<int>::_Nocreate
CONST	ENDS
;	COMDAT ?_Noreplace@?$_Iosb@H@std@@2W4_Openmode@12@B
CONST	SEGMENT
?_Noreplace@?$_Iosb@H@std@@2W4_Openmode@12@B DD 080H	; std::_Iosb<int>::_Noreplace
CONST	ENDS
;	COMDAT ?binary@?$_Iosb@H@std@@2W4_Openmode@12@B
CONST	SEGMENT
?binary@?$_Iosb@H@std@@2W4_Openmode@12@B DD 020H	; std::_Iosb<int>::binary
CONST	ENDS
;	COMDAT ?beg@?$_Iosb@H@std@@2W4_Seekdir@12@B
CONST	SEGMENT
?beg@?$_Iosb@H@std@@2W4_Seekdir@12@B DD 00H		; std::_Iosb<int>::beg
CONST	ENDS
;	COMDAT ?cur@?$_Iosb@H@std@@2W4_Seekdir@12@B
CONST	SEGMENT
?cur@?$_Iosb@H@std@@2W4_Seekdir@12@B DD 01H		; std::_Iosb<int>::cur
CONST	ENDS
;	COMDAT ?end@?$_Iosb@H@std@@2W4_Seekdir@12@B
CONST	SEGMENT
?end@?$_Iosb@H@std@@2W4_Seekdir@12@B DD 02H		; std::_Iosb<int>::end
CONST	ENDS
CONST	SEGMENT
$SG83038 DB	'\', 00H
	ORG $+2
$SG83046 DB	'\temp', 00H
$SG83317 DB	00H
	ORG $+1
$SG83332 DB	'\', 00H
$SG83368 DB	00H
$SG83380 DB	00H
$SG83395 DB	'\*', 00H
	ORG $+1
$SG83404 DB	'.', 00H
	ORG $+2
$SG83405 DB	'..', 00H
	ORG $+1
$SG83410 DB	'\', 00H
$SG83413 DB	00H
	ORG $+1
$SG83440 DB	'\', 00H
	ORG $+2
$SG83443 DB	'\*', 00H
	ORG $+1
$SG83455 DB	'\', 00H
	ORG $+2
$SG83468 DB	'\', 00H
	ORG $+2
$SG83471 DB	'.', 00H
	ORG $+2
$SG83472 DB	'..', 00H
	ORG $+1
$SG83476 DB	'\', 00H
	ORG $+2
$SG83482 DB	'\', 00H
	ORG $+2
$SG83494 DB	'\*', 00H
	ORG $+1
$SG83503 DB	'.', 00H
	ORG $+2
$SG83504 DB	'..', 00H
CONST	ENDS
PUBLIC	?GetWindowsDir@YL_DirInfo@@SA_NQADI@Z		; YL_DirInfo::GetWindowsDir
PUBLIC	?GetWindowsDir@YL_DirInfo@@SA_NAAV?$basic_string@DU?$char_traits@D@std@@V?$allocator@D@2@@std@@@Z ; YL_DirInfo::GetWindowsDir
EXTRN	__except_list:DWORD
EXTRN	__imp_??1?$basic_string@DU?$char_traits@D@std@@V?$allocator@D@2@@std@@QAE@XZ:NEAR
EXTRN	___security_cookie:DWORD
EXTRN	@__security_check_cookie@4:NEAR
EXTRN	___CxxFrameHandler:NEAR
EXTRN	__imp_?c_str@?$basic_string@DU?$char_traits@D@std@@V?$allocator@D@2@@std@@QBEPBDXZ:NEAR
EXTRN	__imp_?length@?$basic_string@DU?$char_traits@D@std@@V?$allocator@D@2@@std@@QBEIXZ:NEAR
EXTRN	_strcpy:NEAR
EXTRN	__imp_??0?$basic_string@DU?$char_traits@D@std@@V?$allocator@D@2@@std@@QAE@XZ:NEAR
xdata$x	SEGMENT
$T88111	DD	0ffffffffH
	DD	FLAT:$L88101
$T88105	DD	019930520H
	DD	01H
	DD	FLAT:$T88111
	DD	2 DUP(00H)
	DD	2 DUP(00H)
; Function compile flags: /Odt
; File d:\boxgit\playbox\commonlib\common\yl_dirinfo.cpp
xdata$x	ENDS
_TEXT	SEGMENT
$T88100 = -46						; size = 1
$T88099 = -45						; size = 1
_strDir$ = -44						; size = 28
__$ArrayPad$ = -16					; size = 4
__$EHRec$ = -12						; size = 12
__$ReturnAddr$ = 4					; size = 4
_szDirBuffer$ = 8					; size = 4
_unBuffLen$ = 12					; size = 4
?GetWindowsDir@YL_DirInfo@@SA_NQADI@Z PROC NEAR		; YL_DirInfo::GetWindowsDir

; 9    : {

  00000	55		 push	 ebp
  00001	8b ec		 mov	 ebp, esp
  00003	6a ff		 push	 -1
  00005	68 00 00 00 00	 push	 __ehhandler$?GetWindowsDir@YL_DirInfo@@SA_NQADI@Z
  0000a	64 a1 00 00 00
	00		 mov	 eax, DWORD PTR fs:__except_list
  00010	50		 push	 eax
  00011	64 89 25 00 00
	00 00		 mov	 DWORD PTR fs:__except_list, esp
  00018	83 ec 24	 sub	 esp, 36			; 00000024H
  0001b	a1 00 00 00 00	 mov	 eax, DWORD PTR ___security_cookie
  00020	89 45 f0	 mov	 DWORD PTR __$ArrayPad$[ebp], eax

; 10   : 	string strDir;

  00023	8d 4d d4	 lea	 ecx, DWORD PTR _strDir$[ebp]
  00026	ff 15 00 00 00
	00		 call	 DWORD PTR __imp_??0?$basic_string@DU?$char_traits@D@std@@V?$allocator@D@2@@std@@QAE@XZ
  0002c	c7 45 fc 00 00
	00 00		 mov	 DWORD PTR __$EHRec$[ebp+8], 0

; 11   : 	if( GetWindowsDir(strDir) && strDir.length() <= unBuffLen-1)

  00033	8d 45 d4	 lea	 eax, DWORD PTR _strDir$[ebp]
  00036	50		 push	 eax
  00037	e8 00 00 00 00	 call	 ?GetWindowsDir@YL_DirInfo@@SA_NAAV?$basic_string@DU?$char_traits@D@std@@V?$allocator@D@2@@std@@@Z ; YL_DirInfo::GetWindowsDir
  0003c	83 c4 04	 add	 esp, 4
  0003f	0f b6 c8	 movzx	 ecx, al
  00042	85 c9		 test	 ecx, ecx
  00044	74 42		 je	 SHORT $L83001
  00046	8d 4d d4	 lea	 ecx, DWORD PTR _strDir$[ebp]
  00049	ff 15 00 00 00
	00		 call	 DWORD PTR __imp_?length@?$basic_string@DU?$char_traits@D@std@@V?$allocator@D@2@@std@@QBEIXZ
  0004f	8b 55 0c	 mov	 edx, DWORD PTR _unBuffLen$[ebp]
  00052	83 ea 01	 sub	 edx, 1
  00055	3b c2		 cmp	 eax, edx
  00057	77 2f		 ja	 SHORT $L83001

; 12   : 	{
; 13   : 		strcpy(szDirBuffer,strDir.c_str());

  00059	8d 4d d4	 lea	 ecx, DWORD PTR _strDir$[ebp]
  0005c	ff 15 00 00 00
	00		 call	 DWORD PTR __imp_?c_str@?$basic_string@DU?$char_traits@D@std@@V?$allocator@D@2@@std@@QBEPBDXZ
  00062	50		 push	 eax
  00063	8b 45 08	 mov	 eax, DWORD PTR _szDirBuffer$[ebp]
  00066	50		 push	 eax
  00067	e8 00 00 00 00	 call	 _strcpy
  0006c	83 c4 08	 add	 esp, 8

; 14   : 		return true;

  0006f	c6 45 d3 01	 mov	 BYTE PTR $T88099[ebp], 1
  00073	c7 45 fc ff ff
	ff ff		 mov	 DWORD PTR __$EHRec$[ebp+8], -1
  0007a	8d 4d d4	 lea	 ecx, DWORD PTR _strDir$[ebp]
  0007d	ff 15 00 00 00
	00		 call	 DWORD PTR __imp_??1?$basic_string@DU?$char_traits@D@std@@V?$allocator@D@2@@std@@QAE@XZ
  00083	8a 45 d3	 mov	 al, BYTE PTR $T88099[ebp]
  00086	eb 17		 jmp	 SHORT $L82999
$L83001:

; 15   : 	}
; 16   : 	return false;

  00088	c6 45 d2 00	 mov	 BYTE PTR $T88100[ebp], 0
  0008c	c7 45 fc ff ff
	ff ff		 mov	 DWORD PTR __$EHRec$[ebp+8], -1
  00093	8d 4d d4	 lea	 ecx, DWORD PTR _strDir$[ebp]
  00096	ff 15 00 00 00
	00		 call	 DWORD PTR __imp_??1?$basic_string@DU?$char_traits@D@std@@V?$allocator@D@2@@std@@QAE@XZ
  0009c	8a 45 d2	 mov	 al, BYTE PTR $T88100[ebp]
$L82999:

; 17   : }

  0009f	8b 4d f4	 mov	 ecx, DWORD PTR __$EHRec$[ebp]
  000a2	64 89 0d 00 00
	00 00		 mov	 DWORD PTR fs:__except_list, ecx
  000a9	8b 4d f0	 mov	 ecx, DWORD PTR __$ArrayPad$[ebp]
  000ac	e8 00 00 00 00	 call	 @__security_check_cookie@4
  000b1	8b e5		 mov	 esp, ebp
  000b3	5d		 pop	 ebp
  000b4	c3		 ret	 0
_TEXT	ENDS
text$x	SEGMENT
$L88101:
  00000	8d 4d d4	 lea	 ecx, DWORD PTR _strDir$[ebp]
  00003	ff 25 00 00 00
	00		 jmp	 DWORD PTR __imp_??1?$basic_string@DU?$char_traits@D@std@@V?$allocator@D@2@@std@@QAE@XZ
__ehhandler$?GetWindowsDir@YL_DirInfo@@SA_NQADI@Z:
  00009	b8 00 00 00 00	 mov	 eax, OFFSET FLAT:$T88105
  0000e	e9 00 00 00 00	 jmp	 ___CxxFrameHandler
text$x	ENDS
?GetWindowsDir@YL_DirInfo@@SA_NQADI@Z ENDP		; YL_DirInfo::GetWindowsDir
EXTRN	__imp_??4?$basic_string@DU?$char_traits@D@std@@V?$allocator@D@2@@std@@QAEAAV01@PBD@Z:NEAR
EXTRN	__imp__SHGetFolderPathA@20:NEAR
; Function compile flags: /Odt
_TEXT	SEGMENT
_szPath$ = -520						; size = 512
__$ArrayPad$ = -4					; size = 4
__$ReturnAddr$ = 4					; size = 4
_strDir$ = 8						; size = 4
?GetWindowsDir@YL_DirInfo@@SA_NAAV?$basic_string@DU?$char_traits@D@std@@V?$allocator@D@2@@std@@@Z PROC NEAR ; YL_DirInfo::GetWindowsDir

; 20   : {

  000c0	55		 push	 ebp
  000c1	8b ec		 mov	 ebp, esp
  000c3	81 ec 08 02 00
	00		 sub	 esp, 520		; 00000208H
  000c9	a1 00 00 00 00	 mov	 eax, DWORD PTR ___security_cookie
  000ce	89 45 fc	 mov	 DWORD PTR __$ArrayPad$[ebp], eax

; 21   : 	char szPath[512];	
; 22   : 	if( SUCCEEDED(SHGetFolderPath(NULL, CSIDL_WINDOWS, NULL, 0, szPath)) ) 

  000d1	8d 85 f8 fd ff
	ff		 lea	 eax, DWORD PTR _szPath$[ebp]
  000d7	50		 push	 eax
  000d8	6a 00		 push	 0
  000da	6a 00		 push	 0
  000dc	6a 24		 push	 36			; 00000024H
  000de	6a 00		 push	 0
  000e0	ff 15 00 00 00
	00		 call	 DWORD PTR __imp__SHGetFolderPathA@20
  000e6	85 c0		 test	 eax, eax
  000e8	7c 14		 jl	 SHORT $L83009

; 23   : 	{
; 24   : 		strDir = szPath;

  000ea	8d 8d f8 fd ff
	ff		 lea	 ecx, DWORD PTR _szPath$[ebp]
  000f0	51		 push	 ecx
  000f1	8b 4d 08	 mov	 ecx, DWORD PTR _strDir$[ebp]
  000f4	ff 15 00 00 00
	00		 call	 DWORD PTR __imp_??4?$basic_string@DU?$char_traits@D@std@@V?$allocator@D@2@@std@@QAEAAV01@PBD@Z

; 25   : 		return true;

  000fa	b0 01		 mov	 al, 1
  000fc	eb 02		 jmp	 SHORT $L83006
$L83009:

; 26   : 	}
; 27   : 	return false;

  000fe	32 c0		 xor	 al, al
$L83006:

; 28   : }

  00100	8b 4d fc	 mov	 ecx, DWORD PTR __$ArrayPad$[ebp]
  00103	e8 00 00 00 00	 call	 @__security_check_cookie@4
  00108	8b e5		 mov	 esp, ebp
  0010a	5d		 pop	 ebp
  0010b	c3		 ret	 0
?GetWindowsDir@YL_DirInfo@@SA_NAAV?$basic_string@DU?$char_traits@D@std@@V?$allocator@D@2@@std@@@Z ENDP ; YL_DirInfo::GetWindowsDir
_TEXT	ENDS
PUBLIC	?GetSystemDir@YL_DirInfo@@SA_NQADI@Z		; YL_DirInfo::GetSystemDir
PUBLIC	?GetSystemDir@YL_DirInfo@@SA_NAAV?$basic_string@DU?$char_traits@D@std@@V?$allocator@D@2@@std@@@Z ; YL_DirInfo::GetSystemDir
xdata$x	SEGMENT
$T88125	DD	0ffffffffH
	DD	FLAT:$L88120
$T88122	DD	019930520H
	DD	01H
	DD	FLAT:$T88125
	DD	2 DUP(00H)
	DD	2 DUP(00H)
; Function compile flags: /Odt
xdata$x	ENDS
_TEXT	SEGMENT
$T88119 = -46						; size = 1
$T88118 = -45						; size = 1
_strDir$ = -44						; size = 28
__$ArrayPad$ = -16					; size = 4
__$EHRec$ = -12						; size = 12
__$ReturnAddr$ = 4					; size = 4
_szDirBuffer$ = 8					; size = 4
_unBuffLen$ = 12					; size = 4
?GetSystemDir@YL_DirInfo@@SA_NQADI@Z PROC NEAR		; YL_DirInfo::GetSystemDir

; 32   : {

  00110	55		 push	 ebp
  00111	8b ec		 mov	 ebp, esp
  00113	6a ff		 push	 -1
  00115	68 00 00 00 00	 push	 __ehhandler$?GetSystemDir@YL_DirInfo@@SA_NQADI@Z
  0011a	64 a1 00 00 00
	00		 mov	 eax, DWORD PTR fs:__except_list
  00120	50		 push	 eax
  00121	64 89 25 00 00
	00 00		 mov	 DWORD PTR fs:__except_list, esp
  00128	83 ec 24	 sub	 esp, 36			; 00000024H
  0012b	a1 00 00 00 00	 mov	 eax, DWORD PTR ___security_cookie
  00130	89 45 f0	 mov	 DWORD PTR __$ArrayPad$[ebp], eax

; 33   : 	string strDir;

  00133	8d 4d d4	 lea	 ecx, DWORD PTR _strDir$[ebp]
  00136	ff 15 00 00 00
	00		 call	 DWORD PTR __imp_??0?$basic_string@DU?$char_traits@D@std@@V?$allocator@D@2@@std@@QAE@XZ
  0013c	c7 45 fc 00 00
	00 00		 mov	 DWORD PTR __$EHRec$[ebp+8], 0

; 34   : 	if( GetSystemDir(strDir) && strDir.length() <= unBuffLen-1)

  00143	8d 45 d4	 lea	 eax, DWORD PTR _strDir$[ebp]
  00146	50		 push	 eax
  00147	e8 00 00 00 00	 call	 ?GetSystemDir@YL_DirInfo@@SA_NAAV?$basic_string@DU?$char_traits@D@std@@V?$allocator@D@2@@std@@@Z ; YL_DirInfo::GetSystemDir
  0014c	83 c4 04	 add	 esp, 4
  0014f	0f b6 c8	 movzx	 ecx, al
  00152	85 c9		 test	 ecx, ecx
  00154	74 42		 je	 SHORT $L83015
  00156	8d 4d d4	 lea	 ecx, DWORD PTR _strDir$[ebp]
  00159	ff 15 00 00 00
	00		 call	 DWORD PTR __imp_?length@?$basic_string@DU?$char_traits@D@std@@V?$allocator@D@2@@std@@QBEIXZ
  0015f	8b 55 0c	 mov	 edx, DWORD PTR _unBuffLen$[ebp]
  00162	83 ea 01	 sub	 edx, 1
  00165	3b c2		 cmp	 eax, edx
  00167	77 2f		 ja	 SHORT $L83015

; 35   : 	{
; 36   : 		strcpy(szDirBuffer,strDir.c_str());

  00169	8d 4d d4	 lea	 ecx, DWORD PTR _strDir$[ebp]
  0016c	ff 15 00 00 00
	00		 call	 DWORD PTR __imp_?c_str@?$basic_string@DU?$char_traits@D@std@@V?$allocator@D@2@@std@@QBEPBDXZ
  00172	50		 push	 eax
  00173	8b 45 08	 mov	 eax, DWORD PTR _szDirBuffer$[ebp]
  00176	50		 push	 eax
  00177	e8 00 00 00 00	 call	 _strcpy
  0017c	83 c4 08	 add	 esp, 8

; 37   : 		return true;

  0017f	c6 45 d3 01	 mov	 BYTE PTR $T88118[ebp], 1
  00183	c7 45 fc ff ff
	ff ff		 mov	 DWORD PTR __$EHRec$[ebp+8], -1
  0018a	8d 4d d4	 lea	 ecx, DWORD PTR _strDir$[ebp]
  0018d	ff 15 00 00 00
	00		 call	 DWORD PTR __imp_??1?$basic_string@DU?$char_traits@D@std@@V?$allocator@D@2@@std@@QAE@XZ
  00193	8a 45 d3	 mov	 al, BYTE PTR $T88118[ebp]
  00196	eb 17		 jmp	 SHORT $L83013
$L83015:

; 38   : 	}
; 39   : 	return false;

  00198	c6 45 d2 00	 mov	 BYTE PTR $T88119[ebp], 0
  0019c	c7 45 fc ff ff
	ff ff		 mov	 DWORD PTR __$EHRec$[ebp+8], -1
  001a3	8d 4d d4	 lea	 ecx, DWORD PTR _strDir$[ebp]
  001a6	ff 15 00 00 00
	00		 call	 DWORD PTR __imp_??1?$basic_string@DU?$char_traits@D@std@@V?$allocator@D@2@@std@@QAE@XZ
  001ac	8a 45 d2	 mov	 al, BYTE PTR $T88119[ebp]
$L83013:

; 40   : }

  001af	8b 4d f4	 mov	 ecx, DWORD PTR __$EHRec$[ebp]
  001b2	64 89 0d 00 00
	00 00		 mov	 DWORD PTR fs:__except_list, ecx
  001b9	8b 4d f0	 mov	 ecx, DWORD PTR __$ArrayPad$[ebp]
  001bc	e8 00 00 00 00	 call	 @__security_check_cookie@4
  001c1	8b e5		 mov	 esp, ebp
  001c3	5d		 pop	 ebp
  001c4	c3		 ret	 0
_TEXT	ENDS
text$x	SEGMENT
$L88120:
  00013	8d 4d d4	 lea	 ecx, DWORD PTR _strDir$[ebp]
  00016	ff 25 00 00 00
	00		 jmp	 DWORD PTR __imp_??1?$basic_string@DU?$char_traits@D@std@@V?$allocator@D@2@@std@@QAE@XZ
__ehhandler$?GetSystemDir@YL_DirInfo@@SA_NQADI@Z:
  0001c	b8 00 00 00 00	 mov	 eax, OFFSET FLAT:$T88122
  00021	e9 00 00 00 00	 jmp	 ___CxxFrameHandler
text$x	ENDS
?GetSystemDir@YL_DirInfo@@SA_NQADI@Z ENDP		; YL_DirInfo::GetSystemDir
; Function compile flags: /Odt
_TEXT	SEGMENT
_szPath$ = -520						; size = 512
__$ArrayPad$ = -4					; size = 4
__$ReturnAddr$ = 4					; size = 4
_strDir$ = 8						; size = 4
?GetSystemDir@YL_DirInfo@@SA_NAAV?$basic_string@DU?$char_traits@D@std@@V?$allocator@D@2@@std@@@Z PROC NEAR ; YL_DirInfo::GetSystemDir

; 43   : {

  001d0	55		 push	 ebp
  001d1	8b ec		 mov	 ebp, esp
  001d3	81 ec 08 02 00
	00		 sub	 esp, 520		; 00000208H
  001d9	a1 00 00 00 00	 mov	 eax, DWORD PTR ___security_cookie
  001de	89 45 fc	 mov	 DWORD PTR __$ArrayPad$[ebp], eax

; 44   : 	char szPath[512];	
; 45   : 	if(SUCCEEDED(SHGetFolderPath(NULL, CSIDL_SYSTEM, NULL, 0, szPath))) 

  001e1	8d 85 f8 fd ff
	ff		 lea	 eax, DWORD PTR _szPath$[ebp]
  001e7	50		 push	 eax
  001e8	6a 00		 push	 0
  001ea	6a 00		 push	 0
  001ec	6a 25		 push	 37			; 00000025H
  001ee	6a 00		 push	 0
  001f0	ff 15 00 00 00
	00		 call	 DWORD PTR __imp__SHGetFolderPathA@20
  001f6	85 c0		 test	 eax, eax
  001f8	7c 14		 jl	 SHORT $L83023

; 46   : 	{
; 47   : 		strDir = szPath;

  001fa	8d 8d f8 fd ff
	ff		 lea	 ecx, DWORD PTR _szPath$[ebp]
  00200	51		 push	 ecx
  00201	8b 4d 08	 mov	 ecx, DWORD PTR _strDir$[ebp]
  00204	ff 15 00 00 00
	00		 call	 DWORD PTR __imp_??4?$basic_string@DU?$char_traits@D@std@@V?$allocator@D@2@@std@@QAEAAV01@PBD@Z

; 48   : 		return true;

  0020a	b0 01		 mov	 al, 1
  0020c	eb 02		 jmp	 SHORT $L83020
$L83023:

; 49   : 	}
; 50   : 	return false;

  0020e	32 c0		 xor	 al, al
$L83020:

; 51   : }

  00210	8b 4d fc	 mov	 ecx, DWORD PTR __$ArrayPad$[ebp]
  00213	e8 00 00 00 00	 call	 @__security_check_cookie@4
  00218	8b e5		 mov	 esp, ebp
  0021a	5d		 pop	 ebp
  0021b	c3		 ret	 0
?GetSystemDir@YL_DirInfo@@SA_NAAV?$basic_string@DU?$char_traits@D@std@@V?$allocator@D@2@@std@@@Z ENDP ; YL_DirInfo::GetSystemDir
_TEXT	ENDS
PUBLIC	?GetTempDir@YL_DirInfo@@SA_NQADI@Z		; YL_DirInfo::GetTempDir
PUBLIC	?GetTempDir@YL_DirInfo@@SA_NAAV?$basic_string@DU?$char_traits@D@std@@V?$allocator@D@2@@std@@@Z ; YL_DirInfo::GetTempDir
xdata$x	SEGMENT
$T88138	DD	0ffffffffH
	DD	FLAT:$L88133
$T88135	DD	019930520H
	DD	01H
	DD	FLAT:$T88138
	DD	2 DUP(00H)
	DD	2 DUP(00H)
; Function compile flags: /Odt
xdata$x	ENDS
_TEXT	SEGMENT
$T88132 = -46						; size = 1
$T88131 = -45						; size = 1
_strDir$ = -44						; size = 28
__$ArrayPad$ = -16					; size = 4
__$EHRec$ = -12						; size = 12
__$ReturnAddr$ = 4					; size = 4
_szDirBuffer$ = 8					; size = 4
_unBuffLen$ = 12					; size = 4
?GetTempDir@YL_DirInfo@@SA_NQADI@Z PROC NEAR		; YL_DirInfo::GetTempDir

; 54   : {

  00220	55		 push	 ebp
  00221	8b ec		 mov	 ebp, esp
  00223	6a ff		 push	 -1
  00225	68 00 00 00 00	 push	 __ehhandler$?GetTempDir@YL_DirInfo@@SA_NQADI@Z
  0022a	64 a1 00 00 00
	00		 mov	 eax, DWORD PTR fs:__except_list
  00230	50		 push	 eax
  00231	64 89 25 00 00
	00 00		 mov	 DWORD PTR fs:__except_list, esp
  00238	83 ec 24	 sub	 esp, 36			; 00000024H
  0023b	a1 00 00 00 00	 mov	 eax, DWORD PTR ___security_cookie
  00240	89 45 f0	 mov	 DWORD PTR __$ArrayPad$[ebp], eax

; 55   : 	string strDir;

  00243	8d 4d d4	 lea	 ecx, DWORD PTR _strDir$[ebp]
  00246	ff 15 00 00 00
	00		 call	 DWORD PTR __imp_??0?$basic_string@DU?$char_traits@D@std@@V?$allocator@D@2@@std@@QAE@XZ
  0024c	c7 45 fc 00 00
	00 00		 mov	 DWORD PTR __$EHRec$[ebp+8], 0

; 56   : 	if( GetTempDir(strDir) && strDir.length() <= unBuffLen-1)

  00253	8d 45 d4	 lea	 eax, DWORD PTR _strDir$[ebp]
  00256	50		 push	 eax
  00257	e8 00 00 00 00	 call	 ?GetTempDir@YL_DirInfo@@SA_NAAV?$basic_string@DU?$char_traits@D@std@@V?$allocator@D@2@@std@@@Z ; YL_DirInfo::GetTempDir
  0025c	83 c4 04	 add	 esp, 4
  0025f	0f b6 c8	 movzx	 ecx, al
  00262	85 c9		 test	 ecx, ecx
  00264	74 42		 je	 SHORT $L83029
  00266	8d 4d d4	 lea	 ecx, DWORD PTR _strDir$[ebp]
  00269	ff 15 00 00 00
	00		 call	 DWORD PTR __imp_?length@?$basic_string@DU?$char_traits@D@std@@V?$allocator@D@2@@std@@QBEIXZ
  0026f	8b 55 0c	 mov	 edx, DWORD PTR _unBuffLen$[ebp]
  00272	83 ea 01	 sub	 edx, 1
  00275	3b c2		 cmp	 eax, edx
  00277	77 2f		 ja	 SHORT $L83029

; 57   : 	{
; 58   : 		strcpy(szDirBuffer,strDir.c_str());

  00279	8d 4d d4	 lea	 ecx, DWORD PTR _strDir$[ebp]
  0027c	ff 15 00 00 00
	00		 call	 DWORD PTR __imp_?c_str@?$basic_string@DU?$char_traits@D@std@@V?$allocator@D@2@@std@@QBEPBDXZ
  00282	50		 push	 eax
  00283	8b 45 08	 mov	 eax, DWORD PTR _szDirBuffer$[ebp]
  00286	50		 push	 eax
  00287	e8 00 00 00 00	 call	 _strcpy
  0028c	83 c4 08	 add	 esp, 8

; 59   : 		return true;

  0028f	c6 45 d3 01	 mov	 BYTE PTR $T88131[ebp], 1
  00293	c7 45 fc ff ff
	ff ff		 mov	 DWORD PTR __$EHRec$[ebp+8], -1
  0029a	8d 4d d4	 lea	 ecx, DWORD PTR _strDir$[ebp]
  0029d	ff 15 00 00 00
	00		 call	 DWORD PTR __imp_??1?$basic_string@DU?$char_traits@D@std@@V?$allocator@D@2@@std@@QAE@XZ
  002a3	8a 45 d3	 mov	 al, BYTE PTR $T88131[ebp]
  002a6	eb 17		 jmp	 SHORT $L83027
$L83029:

; 60   : 	}
; 61   : 	return false;

  002a8	c6 45 d2 00	 mov	 BYTE PTR $T88132[ebp], 0
  002ac	c7 45 fc ff ff
	ff ff		 mov	 DWORD PTR __$EHRec$[ebp+8], -1
  002b3	8d 4d d4	 lea	 ecx, DWORD PTR _strDir$[ebp]
  002b6	ff 15 00 00 00
	00		 call	 DWORD PTR __imp_??1?$basic_string@DU?$char_traits@D@std@@V?$allocator@D@2@@std@@QAE@XZ
  002bc	8a 45 d2	 mov	 al, BYTE PTR $T88132[ebp]
$L83027:

; 62   : }

  002bf	8b 4d f4	 mov	 ecx, DWORD PTR __$EHRec$[ebp]
  002c2	64 89 0d 00 00
	00 00		 mov	 DWORD PTR fs:__except_list, ecx
  002c9	8b 4d f0	 mov	 ecx, DWORD PTR __$ArrayPad$[ebp]
  002cc	e8 00 00 00 00	 call	 @__security_check_cookie@4
  002d1	8b e5		 mov	 esp, ebp
  002d3	5d		 pop	 ebp
  002d4	c3		 ret	 0
_TEXT	ENDS
text$x	SEGMENT
$L88133:
  00026	8d 4d d4	 lea	 ecx, DWORD PTR _strDir$[ebp]
  00029	ff 25 00 00 00
	00		 jmp	 DWORD PTR __imp_??1?$basic_string@DU?$char_traits@D@std@@V?$allocator@D@2@@std@@QAE@XZ
__ehhandler$?GetTempDir@YL_DirInfo@@SA_NQADI@Z:
  0002f	b8 00 00 00 00	 mov	 eax, OFFSET FLAT:$T88135
  00034	e9 00 00 00 00	 jmp	 ___CxxFrameHandler
text$x	ENDS
?GetTempDir@YL_DirInfo@@SA_NQADI@Z ENDP			; YL_DirInfo::GetTempDir
EXTRN	__imp_??0?$basic_string@DU?$char_traits@D@std@@V?$allocator@D@2@@std@@QAE@PBD@Z:NEAR
EXTRN	__imp_?npos@?$basic_string@DU?$char_traits@D@std@@V?$allocator@D@2@@std@@2IB:DWORD
EXTRN	__imp_??4?$basic_string@DU?$char_traits@D@std@@V?$allocator@D@2@@std@@QAEAAV01@ABV01@@Z:NEAR
EXTRN	__imp_??Y?$basic_string@DU?$char_traits@D@std@@V?$allocator@D@2@@std@@QAEAAV01@PBD@Z:NEAR
EXTRN	__imp_??A?$basic_string@DU?$char_traits@D@std@@V?$allocator@D@2@@std@@QAEAADI@Z:NEAR
EXTRN	__imp_?find_last_of@?$basic_string@DU?$char_traits@D@std@@V?$allocator@D@2@@std@@QBEIPBDI@Z:NEAR
EXTRN	__imp_?substr@?$basic_string@DU?$char_traits@D@std@@V?$allocator@D@2@@std@@QBE?AV12@II@Z:NEAR
EXTRN	__imp__GetModuleFileNameA@12:NEAR
xdata$x	SEGMENT
$T88152	DD	0ffffffffH
	DD	FLAT:$L88145
	DD	00H
	DD	FLAT:$L88146
	DD	01H
	DD	FLAT:$L88147
$T88149	DD	019930520H
	DD	03H
	DD	FLAT:$T88152
	DD	2 DUP(00H)
	DD	2 DUP(00H)
; Function compile flags: /Odt
xdata$x	ENDS
_TEXT	SEGMENT
tv148 = -388						; size = 4
tv80 = -384						; size = 4
$T88144 = -378						; size = 1
$T88143 = -377						; size = 1
$T88142 = -376						; size = 28
$T88141 = -345						; size = 1
_str$ = -344						; size = 28
_sz$ = -316						; size = 260
_strExePath$ = -48					; size = 28
__$ArrayPad$ = -20					; size = 4
_n$ = -16						; size = 4
__$EHRec$ = -12						; size = 12
__$ReturnAddr$ = 4					; size = 4
_strDir$ = 8						; size = 4
?GetTempDir@YL_DirInfo@@SA_NAAV?$basic_string@DU?$char_traits@D@std@@V?$allocator@D@2@@std@@@Z PROC NEAR ; YL_DirInfo::GetTempDir

; 65   : {

  002e0	55		 push	 ebp
  002e1	8b ec		 mov	 ebp, esp
  002e3	6a ff		 push	 -1
  002e5	68 00 00 00 00	 push	 __ehhandler$?GetTempDir@YL_DirInfo@@SA_NAAV?$basic_string@DU?$char_traits@D@std@@V?$allocator@D@2@@std@@@Z
  002ea	64 a1 00 00 00
	00		 mov	 eax, DWORD PTR fs:__except_list
  002f0	50		 push	 eax
  002f1	64 89 25 00 00
	00 00		 mov	 DWORD PTR fs:__except_list, esp
  002f8	81 ec 78 01 00
	00		 sub	 esp, 376		; 00000178H
  002fe	a1 00 00 00 00	 mov	 eax, DWORD PTR ___security_cookie
  00303	89 45 ec	 mov	 DWORD PTR __$ArrayPad$[ebp], eax
  00306	57		 push	 edi

; 66   : 	char sz[MAX_PATH]={0};

  00307	c6 85 c4 fe ff
	ff 00		 mov	 BYTE PTR _sz$[ebp], 0
  0030e	b9 40 00 00 00	 mov	 ecx, 64			; 00000040H
  00313	33 c0		 xor	 eax, eax
  00315	8d bd c5 fe ff
	ff		 lea	 edi, DWORD PTR _sz$[ebp+1]
  0031b	f3 ab		 rep stosd
  0031d	66 ab		 stosw
  0031f	aa		 stosb

; 67   : 	::GetModuleFileName(NULL, sz, MAX_PATH);

  00320	68 04 01 00 00	 push	 260			; 00000104H
  00325	8d 85 c4 fe ff
	ff		 lea	 eax, DWORD PTR _sz$[ebp]
  0032b	50		 push	 eax
  0032c	6a 00		 push	 0
  0032e	ff 15 00 00 00
	00		 call	 DWORD PTR __imp__GetModuleFileNameA@12

; 68   : 	string strExePath = sz;

  00334	8d 8d c4 fe ff
	ff		 lea	 ecx, DWORD PTR _sz$[ebp]
  0033a	51		 push	 ecx
  0033b	8d 4d d0	 lea	 ecx, DWORD PTR _strExePath$[ebp]
  0033e	ff 15 00 00 00
	00		 call	 DWORD PTR __imp_??0?$basic_string@DU?$char_traits@D@std@@V?$allocator@D@2@@std@@QAE@PBD@Z
  00344	c7 45 fc 00 00
	00 00		 mov	 DWORD PTR __$EHRec$[ebp+8], 0

; 69   : 
; 70   : 	size_t n = strExePath.find_last_of("\\");

  0034b	8b 15 00 00 00
	00		 mov	 edx, DWORD PTR __imp_?npos@?$basic_string@DU?$char_traits@D@std@@V?$allocator@D@2@@std@@2IB
  00351	8b 02		 mov	 eax, DWORD PTR [edx]
  00353	50		 push	 eax
  00354	68 00 00 00 00	 push	 OFFSET FLAT:$SG83038
  00359	8d 4d d0	 lea	 ecx, DWORD PTR _strExePath$[ebp]
  0035c	ff 15 00 00 00
	00		 call	 DWORD PTR __imp_?find_last_of@?$basic_string@DU?$char_traits@D@std@@V?$allocator@D@2@@std@@QBEIPBDI@Z
  00362	89 45 f0	 mov	 DWORD PTR _n$[ebp], eax

; 71   : 	if( n == string::npos )

  00365	8b 0d 00 00 00
	00		 mov	 ecx, DWORD PTR __imp_?npos@?$basic_string@DU?$char_traits@D@std@@V?$allocator@D@2@@std@@2IB
  0036b	8b 55 f0	 mov	 edx, DWORD PTR _n$[ebp]
  0036e	3b 11		 cmp	 edx, DWORD PTR [ecx]
  00370	75 22		 jne	 SHORT $L83039

; 72   : 	{
; 73   : 		return false;

  00372	c6 85 a7 fe ff
	ff 00		 mov	 BYTE PTR $T88141[ebp], 0
  00379	c7 45 fc ff ff
	ff ff		 mov	 DWORD PTR __$EHRec$[ebp+8], -1
  00380	8d 4d d0	 lea	 ecx, DWORD PTR _strExePath$[ebp]
  00383	ff 15 00 00 00
	00		 call	 DWORD PTR __imp_??1?$basic_string@DU?$char_traits@D@std@@V?$allocator@D@2@@std@@QAE@XZ
  00389	8a 85 a7 fe ff
	ff		 mov	 al, BYTE PTR $T88141[ebp]
  0038f	e9 2d 01 00 00	 jmp	 $L83034
$L83039:

; 74   : 	}
; 75   : 	string str = strExePath.substr(0,n);

  00394	8b 45 f0	 mov	 eax, DWORD PTR _n$[ebp]
  00397	50		 push	 eax
  00398	6a 00		 push	 0
  0039a	8d 8d a8 fe ff
	ff		 lea	 ecx, DWORD PTR _str$[ebp]
  003a0	51		 push	 ecx
  003a1	8d 4d d0	 lea	 ecx, DWORD PTR _strExePath$[ebp]
  003a4	ff 15 00 00 00
	00		 call	 DWORD PTR __imp_?substr@?$basic_string@DU?$char_traits@D@std@@V?$allocator@D@2@@std@@QBE?AV12@II@Z
  003aa	c6 45 fc 01	 mov	 BYTE PTR __$EHRec$[ebp+8], 1

; 76   : 
; 77   : 	if(str.length() > 0 )		

  003ae	8d 8d a8 fe ff
	ff		 lea	 ecx, DWORD PTR _str$[ebp]
  003b4	ff 15 00 00 00
	00		 call	 DWORD PTR __imp_?length@?$basic_string@DU?$char_traits@D@std@@V?$allocator@D@2@@std@@QBEIXZ
  003ba	85 c0		 test	 eax, eax
  003bc	0f 86 d2 00 00
	00		 jbe	 $L83043

; 78   : 	{
; 79   : 		if(str[str.length()-1] == '\\')

  003c2	8d 8d a8 fe ff
	ff		 lea	 ecx, DWORD PTR _str$[ebp]
  003c8	ff 15 00 00 00
	00		 call	 DWORD PTR __imp_?length@?$basic_string@DU?$char_traits@D@std@@V?$allocator@D@2@@std@@QBEIXZ
  003ce	83 e8 01	 sub	 eax, 1
  003d1	50		 push	 eax
  003d2	8d 8d a8 fe ff
	ff		 lea	 ecx, DWORD PTR _str$[ebp]
  003d8	ff 15 00 00 00
	00		 call	 DWORD PTR __imp_??A?$basic_string@DU?$char_traits@D@std@@V?$allocator@D@2@@std@@QAEAADI@Z
  003de	0f be 10	 movsx	 edx, BYTE PTR [eax]
  003e1	83 fa 5c	 cmp	 edx, 92			; 0000005cH
  003e4	75 5e		 jne	 SHORT $L83044

; 80   : 		{
; 81   : 			str = str.substr(0, str.length()-1);

  003e6	8d 8d a8 fe ff
	ff		 lea	 ecx, DWORD PTR _str$[ebp]
  003ec	ff 15 00 00 00
	00		 call	 DWORD PTR __imp_?length@?$basic_string@DU?$char_traits@D@std@@V?$allocator@D@2@@std@@QBEIXZ
  003f2	83 e8 01	 sub	 eax, 1
  003f5	50		 push	 eax
  003f6	6a 00		 push	 0
  003f8	8d 85 88 fe ff
	ff		 lea	 eax, DWORD PTR $T88142[ebp]
  003fe	50		 push	 eax
  003ff	8d 8d a8 fe ff
	ff		 lea	 ecx, DWORD PTR _str$[ebp]
  00405	ff 15 00 00 00
	00		 call	 DWORD PTR __imp_?substr@?$basic_string@DU?$char_traits@D@std@@V?$allocator@D@2@@std@@QBE?AV12@II@Z
  0040b	89 85 80 fe ff
	ff		 mov	 DWORD PTR tv80[ebp], eax
  00411	8b 8d 80 fe ff
	ff		 mov	 ecx, DWORD PTR tv80[ebp]
  00417	89 8d 7c fe ff
	ff		 mov	 DWORD PTR tv148[ebp], ecx
  0041d	c6 45 fc 02	 mov	 BYTE PTR __$EHRec$[ebp+8], 2
  00421	8b 95 7c fe ff
	ff		 mov	 edx, DWORD PTR tv148[ebp]
  00427	52		 push	 edx
  00428	8d 8d a8 fe ff
	ff		 lea	 ecx, DWORD PTR _str$[ebp]
  0042e	ff 15 00 00 00
	00		 call	 DWORD PTR __imp_??4?$basic_string@DU?$char_traits@D@std@@V?$allocator@D@2@@std@@QAEAAV01@ABV01@@Z
  00434	c6 45 fc 01	 mov	 BYTE PTR __$EHRec$[ebp+8], 1
  00438	8d 8d 88 fe ff
	ff		 lea	 ecx, DWORD PTR $T88142[ebp]
  0043e	ff 15 00 00 00
	00		 call	 DWORD PTR __imp_??1?$basic_string@DU?$char_traits@D@std@@V?$allocator@D@2@@std@@QAE@XZ
$L83044:

; 82   : 		}
; 83   : 		str += "\\temp";

  00444	68 00 00 00 00	 push	 OFFSET FLAT:$SG83046
  00449	8d 8d a8 fe ff
	ff		 lea	 ecx, DWORD PTR _str$[ebp]
  0044f	ff 15 00 00 00
	00		 call	 DWORD PTR __imp_??Y?$basic_string@DU?$char_traits@D@std@@V?$allocator@D@2@@std@@QAEAAV01@PBD@Z

; 84   : 		
; 85   : 		strDir = str;

  00455	8d 85 a8 fe ff
	ff		 lea	 eax, DWORD PTR _str$[ebp]
  0045b	50		 push	 eax
  0045c	8b 4d 08	 mov	 ecx, DWORD PTR _strDir$[ebp]
  0045f	ff 15 00 00 00
	00		 call	 DWORD PTR __imp_??4?$basic_string@DU?$char_traits@D@std@@V?$allocator@D@2@@std@@QAEAAV01@ABV01@@Z

; 86   : 		return true;

  00465	c6 85 87 fe ff
	ff 01		 mov	 BYTE PTR $T88143[ebp], 1
  0046c	c6 45 fc 00	 mov	 BYTE PTR __$EHRec$[ebp+8], 0
  00470	8d 8d a8 fe ff
	ff		 lea	 ecx, DWORD PTR _str$[ebp]
  00476	ff 15 00 00 00
	00		 call	 DWORD PTR __imp_??1?$basic_string@DU?$char_traits@D@std@@V?$allocator@D@2@@std@@QAE@XZ
  0047c	c7 45 fc ff ff
	ff ff		 mov	 DWORD PTR __$EHRec$[ebp+8], -1
  00483	8d 4d d0	 lea	 ecx, DWORD PTR _strExePath$[ebp]
  00486	ff 15 00 00 00
	00		 call	 DWORD PTR __imp_??1?$basic_string@DU?$char_traits@D@std@@V?$allocator@D@2@@std@@QAE@XZ
  0048c	8a 85 87 fe ff
	ff		 mov	 al, BYTE PTR $T88143[ebp]
  00492	eb 2d		 jmp	 SHORT $L83034
$L83043:

; 87   : 	}
; 88   : 
; 89   : 	return false;

  00494	c6 85 86 fe ff
	ff 00		 mov	 BYTE PTR $T88144[ebp], 0
  0049b	c6 45 fc 00	 mov	 BYTE PTR __$EHRec$[ebp+8], 0
  0049f	8d 8d a8 fe ff
	ff		 lea	 ecx, DWORD PTR _str$[ebp]
  004a5	ff 15 00 00 00
	00		 call	 DWORD PTR __imp_??1?$basic_string@DU?$char_traits@D@std@@V?$allocator@D@2@@std@@QAE@XZ
  004ab	c7 45 fc ff ff
	ff ff		 mov	 DWORD PTR __$EHRec$[ebp+8], -1
  004b2	8d 4d d0	 lea	 ecx, DWORD PTR _strExePath$[ebp]
  004b5	ff 15 00 00 00
	00		 call	 DWORD PTR __imp_??1?$basic_string@DU?$char_traits@D@std@@V?$allocator@D@2@@std@@QAE@XZ
  004bb	8a 85 86 fe ff
	ff		 mov	 al, BYTE PTR $T88144[ebp]
$L83034:

; 90   : }

  004c1	8b 4d f4	 mov	 ecx, DWORD PTR __$EHRec$[ebp]
  004c4	64 89 0d 00 00
	00 00		 mov	 DWORD PTR fs:__except_list, ecx
  004cb	8b 4d ec	 mov	 ecx, DWORD PTR __$ArrayPad$[ebp]
  004ce	e8 00 00 00 00	 call	 @__security_check_cookie@4
  004d3	5f		 pop	 edi
  004d4	8b e5		 mov	 esp, ebp
  004d6	5d		 pop	 ebp
  004d7	c3		 ret	 0
_TEXT	ENDS
text$x	SEGMENT
$L88145:
  00039	8d 4d d0	 lea	 ecx, DWORD PTR _strExePath$[ebp]
  0003c	ff 25 00 00 00
	00		 jmp	 DWORD PTR __imp_??1?$basic_string@DU?$char_traits@D@std@@V?$allocator@D@2@@std@@QAE@XZ
$L88146:
  00042	8d 8d a8 fe ff
	ff		 lea	 ecx, DWORD PTR _str$[ebp]
  00048	ff 25 00 00 00
	00		 jmp	 DWORD PTR __imp_??1?$basic_string@DU?$char_traits@D@std@@V?$allocator@D@2@@std@@QAE@XZ
$L88147:
  0004e	8d 8d 88 fe ff
	ff		 lea	 ecx, DWORD PTR $T88142[ebp]
  00054	ff 25 00 00 00
	00		 jmp	 DWORD PTR __imp_??1?$basic_string@DU?$char_traits@D@std@@V?$allocator@D@2@@std@@QAE@XZ
__ehhandler$?GetTempDir@YL_DirInfo@@SA_NAAV?$basic_string@DU?$char_traits@D@std@@V?$allocator@D@2@@std@@@Z:
  0005a	b8 00 00 00 00	 mov	 eax, OFFSET FLAT:$T88149
  0005f	e9 00 00 00 00	 jmp	 ___CxxFrameHandler
text$x	ENDS
?GetTempDir@YL_DirInfo@@SA_NAAV?$basic_string@DU?$char_traits@D@std@@V?$allocator@D@2@@std@@@Z ENDP ; YL_DirInfo::GetTempDir
PUBLIC	?GetProgramFilesDir@YL_DirInfo@@SA_NQADI@Z	; YL_DirInfo::GetProgramFilesDir
PUBLIC	?GetProgramFilesDir@YL_DirInfo@@SA_NAAV?$basic_string@DU?$char_traits@D@std@@V?$allocator@D@2@@std@@@Z ; YL_DirInfo::GetProgramFilesDir
xdata$x	SEGMENT
$T88162	DD	0ffffffffH
	DD	FLAT:$L88157
$T88159	DD	019930520H
	DD	01H
	DD	FLAT:$T88162
	DD	2 DUP(00H)
	DD	2 DUP(00H)
; Function compile flags: /Odt
xdata$x	ENDS
_TEXT	SEGMENT
$T88156 = -46						; size = 1
$T88155 = -45						; size = 1
_strDir$ = -44						; size = 28
__$ArrayPad$ = -16					; size = 4
__$EHRec$ = -12						; size = 12
__$ReturnAddr$ = 4					; size = 4
_szDirBuffer$ = 8					; size = 4
_unBuffLen$ = 12					; size = 4
?GetProgramFilesDir@YL_DirInfo@@SA_NQADI@Z PROC NEAR	; YL_DirInfo::GetProgramFilesDir

; 93   : {

  004e0	55		 push	 ebp
  004e1	8b ec		 mov	 ebp, esp
  004e3	6a ff		 push	 -1
  004e5	68 00 00 00 00	 push	 __ehhandler$?GetProgramFilesDir@YL_DirInfo@@SA_NQADI@Z
  004ea	64 a1 00 00 00
	00		 mov	 eax, DWORD PTR fs:__except_list
  004f0	50		 push	 eax
  004f1	64 89 25 00 00
	00 00		 mov	 DWORD PTR fs:__except_list, esp
  004f8	83 ec 24	 sub	 esp, 36			; 00000024H
  004fb	a1 00 00 00 00	 mov	 eax, DWORD PTR ___security_cookie
  00500	89 45 f0	 mov	 DWORD PTR __$ArrayPad$[ebp], eax

; 94   : 	string strDir;

  00503	8d 4d d4	 lea	 ecx, DWORD PTR _strDir$[ebp]
  00506	ff 15 00 00 00
	00		 call	 DWORD PTR __imp_??0?$basic_string@DU?$char_traits@D@std@@V?$allocator@D@2@@std@@QAE@XZ
  0050c	c7 45 fc 00 00
	00 00		 mov	 DWORD PTR __$EHRec$[ebp+8], 0

; 95   : 	if( GetProgramFilesDir(strDir) && strDir.length() <= unBuffLen-1)

  00513	8d 45 d4	 lea	 eax, DWORD PTR _strDir$[ebp]
  00516	50		 push	 eax
  00517	e8 00 00 00 00	 call	 ?GetProgramFilesDir@YL_DirInfo@@SA_NAAV?$basic_string@DU?$char_traits@D@std@@V?$allocator@D@2@@std@@@Z ; YL_DirInfo::GetProgramFilesDir
  0051c	83 c4 04	 add	 esp, 4
  0051f	0f b6 c8	 movzx	 ecx, al
  00522	85 c9		 test	 ecx, ecx
  00524	74 42		 je	 SHORT $L83054
  00526	8d 4d d4	 lea	 ecx, DWORD PTR _strDir$[ebp]
  00529	ff 15 00 00 00
	00		 call	 DWORD PTR __imp_?length@?$basic_string@DU?$char_traits@D@std@@V?$allocator@D@2@@std@@QBEIXZ
  0052f	8b 55 0c	 mov	 edx, DWORD PTR _unBuffLen$[ebp]
  00532	83 ea 01	 sub	 edx, 1
  00535	3b c2		 cmp	 eax, edx
  00537	77 2f		 ja	 SHORT $L83054

; 96   : 	{
; 97   : 		strcpy(szDirBuffer,strDir.c_str());

  00539	8d 4d d4	 lea	 ecx, DWORD PTR _strDir$[ebp]
  0053c	ff 15 00 00 00
	00		 call	 DWORD PTR __imp_?c_str@?$basic_string@DU?$char_traits@D@std@@V?$allocator@D@2@@std@@QBEPBDXZ
  00542	50		 push	 eax
  00543	8b 45 08	 mov	 eax, DWORD PTR _szDirBuffer$[ebp]
  00546	50		 push	 eax
  00547	e8 00 00 00 00	 call	 _strcpy
  0054c	83 c4 08	 add	 esp, 8

; 98   : 		return true;

  0054f	c6 45 d3 01	 mov	 BYTE PTR $T88155[ebp], 1
  00553	c7 45 fc ff ff
	ff ff		 mov	 DWORD PTR __$EHRec$[ebp+8], -1
  0055a	8d 4d d4	 lea	 ecx, DWORD PTR _strDir$[ebp]
  0055d	ff 15 00 00 00
	00		 call	 DWORD PTR __imp_??1?$basic_string@DU?$char_traits@D@std@@V?$allocator@D@2@@std@@QAE@XZ
  00563	8a 45 d3	 mov	 al, BYTE PTR $T88155[ebp]
  00566	eb 17		 jmp	 SHORT $L83052
$L83054:

; 99   : 	}
; 100  : 	return false;

  00568	c6 45 d2 00	 mov	 BYTE PTR $T88156[ebp], 0
  0056c	c7 45 fc ff ff
	ff ff		 mov	 DWORD PTR __$EHRec$[ebp+8], -1
  00573	8d 4d d4	 lea	 ecx, DWORD PTR _strDir$[ebp]
  00576	ff 15 00 00 00
	00		 call	 DWORD PTR __imp_??1?$basic_string@DU?$char_traits@D@std@@V?$allocator@D@2@@std@@QAE@XZ
  0057c	8a 45 d2	 mov	 al, BYTE PTR $T88156[ebp]
$L83052:

; 101  : }

  0057f	8b 4d f4	 mov	 ecx, DWORD PTR __$EHRec$[ebp]
  00582	64 89 0d 00 00
	00 00		 mov	 DWORD PTR fs:__except_list, ecx
  00589	8b 4d f0	 mov	 ecx, DWORD PTR __$ArrayPad$[ebp]
  0058c	e8 00 00 00 00	 call	 @__security_check_cookie@4
  00591	8b e5		 mov	 esp, ebp
  00593	5d		 pop	 ebp
  00594	c3		 ret	 0
_TEXT	ENDS
text$x	SEGMENT
$L88157:
  00064	8d 4d d4	 lea	 ecx, DWORD PTR _strDir$[ebp]
  00067	ff 25 00 00 00
	00		 jmp	 DWORD PTR __imp_??1?$basic_string@DU?$char_traits@D@std@@V?$allocator@D@2@@std@@QAE@XZ
__ehhandler$?GetProgramFilesDir@YL_DirInfo@@SA_NQADI@Z:
  0006d	b8 00 00 00 00	 mov	 eax, OFFSET FLAT:$T88159
  00072	e9 00 00 00 00	 jmp	 ___CxxFrameHandler
text$x	ENDS
?GetProgramFilesDir@YL_DirInfo@@SA_NQADI@Z ENDP		; YL_DirInfo::GetProgramFilesDir
; Function compile flags: /Odt
_TEXT	SEGMENT
_szPath$ = -520						; size = 512
__$ArrayPad$ = -4					; size = 4
__$ReturnAddr$ = 4					; size = 4
_strDir$ = 8						; size = 4
?GetProgramFilesDir@YL_DirInfo@@SA_NAAV?$basic_string@DU?$char_traits@D@std@@V?$allocator@D@2@@std@@@Z PROC NEAR ; YL_DirInfo::GetProgramFilesDir

; 104  : {

  005a0	55		 push	 ebp
  005a1	8b ec		 mov	 ebp, esp
  005a3	81 ec 08 02 00
	00		 sub	 esp, 520		; 00000208H
  005a9	a1 00 00 00 00	 mov	 eax, DWORD PTR ___security_cookie
  005ae	89 45 fc	 mov	 DWORD PTR __$ArrayPad$[ebp], eax

; 105  : 	char szPath[512];	
; 106  : 	if(SUCCEEDED(SHGetFolderPath(NULL, CSIDL_PROGRAM_FILES, NULL, 0, szPath))) 

  005b1	8d 85 f8 fd ff
	ff		 lea	 eax, DWORD PTR _szPath$[ebp]
  005b7	50		 push	 eax
  005b8	6a 00		 push	 0
  005ba	6a 00		 push	 0
  005bc	6a 26		 push	 38			; 00000026H
  005be	6a 00		 push	 0
  005c0	ff 15 00 00 00
	00		 call	 DWORD PTR __imp__SHGetFolderPathA@20
  005c6	85 c0		 test	 eax, eax
  005c8	7c 14		 jl	 SHORT $L83062

; 107  : 	{
; 108  : 		strDir = szPath;

  005ca	8d 8d f8 fd ff
	ff		 lea	 ecx, DWORD PTR _szPath$[ebp]
  005d0	51		 push	 ecx
  005d1	8b 4d 08	 mov	 ecx, DWORD PTR _strDir$[ebp]
  005d4	ff 15 00 00 00
	00		 call	 DWORD PTR __imp_??4?$basic_string@DU?$char_traits@D@std@@V?$allocator@D@2@@std@@QAEAAV01@PBD@Z

; 109  : 		return true;

  005da	b0 01		 mov	 al, 1
  005dc	eb 02		 jmp	 SHORT $L83059
$L83062:

; 110  : 	}
; 111  : 	return false;

  005de	32 c0		 xor	 al, al
$L83059:

; 112  : }

  005e0	8b 4d fc	 mov	 ecx, DWORD PTR __$ArrayPad$[ebp]
  005e3	e8 00 00 00 00	 call	 @__security_check_cookie@4
  005e8	8b e5		 mov	 esp, ebp
  005ea	5d		 pop	 ebp
  005eb	c3		 ret	 0
?GetProgramFilesDir@YL_DirInfo@@SA_NAAV?$basic_string@DU?$char_traits@D@std@@V?$allocator@D@2@@std@@@Z ENDP ; YL_DirInfo::GetProgramFilesDir
_TEXT	ENDS
PUBLIC	?MakeDir@YL_DirInfo@@SA_NPBD@Z			; YL_DirInfo::MakeDir
PUBLIC	?MakeDir@YL_DirInfo@@SA_NABV?$basic_string@DU?$char_traits@D@std@@V?$allocator@D@2@@std@@@Z ; YL_DirInfo::MakeDir
xdata$x	SEGMENT
$T88173	DD	0ffffffffH
	DD	FLAT:$L88169
$T88171	DD	019930520H
	DD	01H
	DD	FLAT:$T88173
	DD	2 DUP(00H)
	DD	2 DUP(00H)
; Function compile flags: /Odt
xdata$x	ENDS
_TEXT	SEGMENT
tv73 = -52						; size = 4
tv74 = -48						; size = 4
$T88168 = -44						; size = 28
$T88167 = -13						; size = 1
__$EHRec$ = -12						; size = 12
_pszDirName$ = 8					; size = 4
?MakeDir@YL_DirInfo@@SA_NPBD@Z PROC NEAR		; YL_DirInfo::MakeDir

; 116  : {

  005f0	55		 push	 ebp
  005f1	8b ec		 mov	 ebp, esp
  005f3	6a ff		 push	 -1
  005f5	68 00 00 00 00	 push	 __ehhandler$?MakeDir@YL_DirInfo@@SA_NPBD@Z
  005fa	64 a1 00 00 00
	00		 mov	 eax, DWORD PTR fs:__except_list
  00600	50		 push	 eax
  00601	64 89 25 00 00
	00 00		 mov	 DWORD PTR fs:__except_list, esp
  00608	83 ec 28	 sub	 esp, 40			; 00000028H

; 117  : 	if( pszDirName == NULL )

  0060b	83 7d 08 00	 cmp	 DWORD PTR _pszDirName$[ebp], 0
  0060f	75 04		 jne	 SHORT $L83066

; 118  : 	{
; 119  : 		return false;

  00611	32 c0		 xor	 al, al
  00613	eb 3f		 jmp	 SHORT $L83065
$L83066:

; 120  : 	}
; 121  : 	return MakeDir(string(pszDirName));

  00615	8b 45 08	 mov	 eax, DWORD PTR _pszDirName$[ebp]
  00618	50		 push	 eax
  00619	8d 4d d4	 lea	 ecx, DWORD PTR $T88168[ebp]
  0061c	ff 15 00 00 00
	00		 call	 DWORD PTR __imp_??0?$basic_string@DU?$char_traits@D@std@@V?$allocator@D@2@@std@@QAE@PBD@Z
  00622	89 45 d0	 mov	 DWORD PTR tv74[ebp], eax
  00625	8b 4d d0	 mov	 ecx, DWORD PTR tv74[ebp]
  00628	89 4d cc	 mov	 DWORD PTR tv73[ebp], ecx
  0062b	c7 45 fc 00 00
	00 00		 mov	 DWORD PTR __$EHRec$[ebp+8], 0
  00632	8b 55 cc	 mov	 edx, DWORD PTR tv73[ebp]
  00635	52		 push	 edx
  00636	e8 00 00 00 00	 call	 ?MakeDir@YL_DirInfo@@SA_NABV?$basic_string@DU?$char_traits@D@std@@V?$allocator@D@2@@std@@@Z ; YL_DirInfo::MakeDir
  0063b	83 c4 04	 add	 esp, 4
  0063e	88 45 f3	 mov	 BYTE PTR $T88167[ebp], al
  00641	c7 45 fc ff ff
	ff ff		 mov	 DWORD PTR __$EHRec$[ebp+8], -1
  00648	8d 4d d4	 lea	 ecx, DWORD PTR $T88168[ebp]
  0064b	ff 15 00 00 00
	00		 call	 DWORD PTR __imp_??1?$basic_string@DU?$char_traits@D@std@@V?$allocator@D@2@@std@@QAE@XZ
  00651	8a 45 f3	 mov	 al, BYTE PTR $T88167[ebp]
$L83065:

; 122  : }

  00654	8b 4d f4	 mov	 ecx, DWORD PTR __$EHRec$[ebp]
  00657	64 89 0d 00 00
	00 00		 mov	 DWORD PTR fs:__except_list, ecx
  0065e	8b e5		 mov	 esp, ebp
  00660	5d		 pop	 ebp
  00661	c3		 ret	 0
_TEXT	ENDS
text$x	SEGMENT
$L88169:
  00077	8d 4d d4	 lea	 ecx, DWORD PTR $T88168[ebp]
  0007a	ff 25 00 00 00
	00		 jmp	 DWORD PTR __imp_??1?$basic_string@DU?$char_traits@D@std@@V?$allocator@D@2@@std@@QAE@XZ
__ehhandler$?MakeDir@YL_DirInfo@@SA_NPBD@Z:
  00080	b8 00 00 00 00	 mov	 eax, OFFSET FLAT:$T88171
  00085	e9 00 00 00 00	 jmp	 ___CxxFrameHandler
text$x	ENDS
?MakeDir@YL_DirInfo@@SA_NPBD@Z ENDP			; YL_DirInfo::MakeDir
PUBLIC	??0?$vector@V?$basic_string@DU?$char_traits@D@std@@V?$allocator@D@2@@std@@V?$allocator@V?$basic_string@DU?$char_traits@D@std@@V?$allocator@D@2@@std@@@2@@std@@QAE@XZ ; std::vector<std::basic_string<char,std::char_traits<char>,std::allocator<char> >,std::allocator<std::basic_string<char,std::char_traits<char>,std::allocator<char> > > >::vector<std::basic_string<char,std::char_traits<char>,std::allocator<char> >,std::allocator<std::basic_string<char,std::char_traits<char>,std::allocator<char> > > >
PUBLIC	??1?$vector@V?$basic_string@DU?$char_traits@D@std@@V?$allocator@D@2@@std@@V?$allocator@V?$basic_string@DU?$char_traits@D@std@@V?$allocator@D@2@@std@@@2@@std@@QAE@XZ ; std::vector<std::basic_string<char,std::char_traits<char>,std::allocator<char> >,std::allocator<std::basic_string<char,std::char_traits<char>,std::allocator<char> > > >::~vector<std::basic_string<char,std::char_traits<char>,std::allocator<char> >,std::allocator<std::basic_string<char,std::char_traits<char>,std::allocator<char> > > >
PUBLIC	?size@?$vector@V?$basic_string@DU?$char_traits@D@std@@V?$allocator@D@2@@std@@V?$allocator@V?$basic_string@DU?$char_traits@D@std@@V?$allocator@D@2@@std@@@2@@std@@QBEIXZ ; std::vector<std::basic_string<char,std::char_traits<char>,std::allocator<char> >,std::allocator<std::basic_string<char,std::char_traits<char>,std::allocator<char> > > >::size
PUBLIC	??A?$vector@V?$basic_string@DU?$char_traits@D@std@@V?$allocator@D@2@@std@@V?$allocator@V?$basic_string@DU?$char_traits@D@std@@V?$allocator@D@2@@std@@@2@@std@@QAEAAV?$basic_string@DU?$char_traits@D@std@@V?$allocator@D@2@@1@I@Z ; std::vector<std::basic_string<char,std::char_traits<char>,std::allocator<char> >,std::allocator<std::basic_string<char,std::char_traits<char>,std::allocator<char> > > >::operator[]
PUBLIC	?push_back@?$vector@V?$basic_string@DU?$char_traits@D@std@@V?$allocator@D@2@@std@@V?$allocator@V?$basic_string@DU?$char_traits@D@std@@V?$allocator@D@2@@std@@@2@@std@@QAEXABV?$basic_string@DU?$char_traits@D@std@@V?$allocator@D@2@@2@@Z ; std::vector<std::basic_string<char,std::char_traits<char>,std::allocator<char> >,std::allocator<std::basic_string<char,std::char_traits<char>,std::allocator<char> > > >::push_back
EXTRN	__imp_??Y?$basic_string@DU?$char_traits@D@std@@V?$allocator@D@2@@std@@QAEAAV01@D@Z:NEAR
EXTRN	__imp_??A?$basic_string@DU?$char_traits@D@std@@V?$allocator@D@2@@std@@QBEABDI@Z:NEAR
EXTRN	__imp__GetLastError@0:NEAR
EXTRN	__imp__FindClose@4:NEAR
EXTRN	__imp__CreateDirectoryA@8:NEAR
EXTRN	__imp__SetFileAttributesA@8:NEAR
EXTRN	__imp__DeleteFileA@4:NEAR
EXTRN	__imp__FindFirstFileA@8:NEAR
EXTRN	__imp_??$?8DU?$char_traits@D@std@@V?$allocator@D@1@@std@@YA_NABV?$basic_string@DU?$char_traits@D@std@@V?$allocator@D@2@@0@PBD@Z:NEAR
xdata$x	SEGMENT
$T88185	DD	0ffffffffH
	DD	FLAT:$L88179
	DD	00H
	DD	FLAT:$L88180
$T88182	DD	019930520H
	DD	02H
	DD	FLAT:$T88185
	DD	2 DUP(00H)
	DD	2 DUP(00H)
; Function compile flags: /Odt
xdata$x	ENDS
_TEXT	SEGMENT
$T88178 = -407						; size = 1
$T88177 = -406						; size = 1
$T88176 = -405						; size = 1
_dwError$83342 = -404					; size = 4
_i$83335 = -400						; size = 4
_i$83326 = -396						; size = 4
_hHandle$ = -392					; size = 4
_ret$ = -385						; size = 1
_strTemp$ = -384					; size = 28
_fileInfo$ = -356					; size = 320
__$ArrayPad$ = -32					; size = 4
_vecDirs$ = -28						; size = 16
__$EHRec$ = -12						; size = 12
__$ReturnAddr$ = 4					; size = 4
_strDirName$ = 8					; size = 4
?MakeDir@YL_DirInfo@@SA_NABV?$basic_string@DU?$char_traits@D@std@@V?$allocator@D@2@@std@@@Z PROC NEAR ; YL_DirInfo::MakeDir

; 125  : {

  00670	55		 push	 ebp
  00671	8b ec		 mov	 ebp, esp
  00673	6a ff		 push	 -1
  00675	68 00 00 00 00	 push	 __ehhandler$?MakeDir@YL_DirInfo@@SA_NABV?$basic_string@DU?$char_traits@D@std@@V?$allocator@D@2@@std@@@Z
  0067a	64 a1 00 00 00
	00		 mov	 eax, DWORD PTR fs:__except_list
  00680	50		 push	 eax
  00681	64 89 25 00 00
	00 00		 mov	 DWORD PTR fs:__except_list, esp
  00688	81 ec 8c 01 00
	00		 sub	 esp, 396		; 0000018cH
  0068e	a1 00 00 00 00	 mov	 eax, DWORD PTR ___security_cookie
  00693	89 45 e0	 mov	 DWORD PTR __$ArrayPad$[ebp], eax

; 126  : 	WIN32_FIND_DATA fileInfo;
; 127  : 	vector<string> vecDirs;

  00696	8d 4d e4	 lea	 ecx, DWORD PTR _vecDirs$[ebp]
  00699	e8 00 00 00 00	 call	 ??0?$vector@V?$basic_string@DU?$char_traits@D@std@@V?$allocator@D@2@@std@@V?$allocator@V?$basic_string@DU?$char_traits@D@std@@V?$allocator@D@2@@std@@@2@@std@@QAE@XZ ; std::vector<std::basic_string<char,std::char_traits<char>,std::allocator<char> >,std::allocator<std::basic_string<char,std::char_traits<char>,std::allocator<char> > > >::vector<std::basic_string<char,std::char_traits<char>,std::allocator<char> >,std::allocator<std::basic_string<char,std::char_traits<char>,std::allocator<char> > > >
  0069e	c7 45 fc 00 00
	00 00		 mov	 DWORD PTR __$EHRec$[ebp+8], 0

; 128  : 
; 129  : 	if( strDirName == "" )

  006a5	68 00 00 00 00	 push	 OFFSET FLAT:$SG83317
  006aa	8b 45 08	 mov	 eax, DWORD PTR _strDirName$[ebp]
  006ad	50		 push	 eax
  006ae	ff 15 00 00 00
	00		 call	 DWORD PTR __imp_??$?8DU?$char_traits@D@std@@V?$allocator@D@1@@std@@YA_NABV?$basic_string@DU?$char_traits@D@std@@V?$allocator@D@2@@0@PBD@Z
  006b4	83 c4 08	 add	 esp, 8
  006b7	0f b6 c8	 movzx	 ecx, al
  006ba	85 c9		 test	 ecx, ecx
  006bc	74 21		 je	 SHORT $L83316

; 130  : 	{
; 131  : 		return false;

  006be	c6 85 6b fe ff
	ff 00		 mov	 BYTE PTR $T88176[ebp], 0
  006c5	c7 45 fc ff ff
	ff ff		 mov	 DWORD PTR __$EHRec$[ebp+8], -1
  006cc	8d 4d e4	 lea	 ecx, DWORD PTR _vecDirs$[ebp]
  006cf	e8 00 00 00 00	 call	 ??1?$vector@V?$basic_string@DU?$char_traits@D@std@@V?$allocator@D@2@@std@@V?$allocator@V?$basic_string@DU?$char_traits@D@std@@V?$allocator@D@2@@std@@@2@@std@@QAE@XZ ; std::vector<std::basic_string<char,std::char_traits<char>,std::allocator<char> >,std::allocator<std::basic_string<char,std::char_traits<char>,std::allocator<char> > > >::~vector<std::basic_string<char,std::char_traits<char>,std::allocator<char> >,std::allocator<std::basic_string<char,std::char_traits<char>,std::allocator<char> > > >
  006d4	8a 85 6b fe ff
	ff		 mov	 al, BYTE PTR $T88176[ebp]
  006da	e9 58 02 00 00	 jmp	 $L83071
$L83316:

; 132  : 	}
; 133  : 
; 134  : 	HANDLE hHandle = FindFirstFile(strDirName.c_str(), &fileInfo);

  006df	8d 95 9c fe ff
	ff		 lea	 edx, DWORD PTR _fileInfo$[ebp]
  006e5	52		 push	 edx
  006e6	8b 4d 08	 mov	 ecx, DWORD PTR _strDirName$[ebp]
  006e9	ff 15 00 00 00
	00		 call	 DWORD PTR __imp_?c_str@?$basic_string@DU?$char_traits@D@std@@V?$allocator@D@2@@std@@QBEPBDXZ
  006ef	50		 push	 eax
  006f0	ff 15 00 00 00
	00		 call	 DWORD PTR __imp__FindFirstFileA@8
  006f6	89 85 78 fe ff
	ff		 mov	 DWORD PTR _hHandle$[ebp], eax

; 135  : 	if( hHandle != INVALID_HANDLE_VALUE) 

  006fc	83 bd 78 fe ff
	ff ff		 cmp	 DWORD PTR _hHandle$[ebp], -1
  00703	74 56		 je	 SHORT $L83322

; 136  : 	{
; 137  : 		if( fileInfo.dwFileAttributes & FILE_ATTRIBUTE_DIRECTORY )

  00705	8b 85 9c fe ff
	ff		 mov	 eax, DWORD PTR _fileInfo$[ebp]
  0070b	83 e0 10	 and	 eax, 16			; 00000010H
  0070e	74 2e		 je	 SHORT $L83323

; 138  : 		{
; 139  : 			FindClose(hHandle);

  00710	8b 8d 78 fe ff
	ff		 mov	 ecx, DWORD PTR _hHandle$[ebp]
  00716	51		 push	 ecx
  00717	ff 15 00 00 00
	00		 call	 DWORD PTR __imp__FindClose@4

; 140  : 			return true;

  0071d	c6 85 6a fe ff
	ff 01		 mov	 BYTE PTR $T88177[ebp], 1
  00724	c7 45 fc ff ff
	ff ff		 mov	 DWORD PTR __$EHRec$[ebp+8], -1
  0072b	8d 4d e4	 lea	 ecx, DWORD PTR _vecDirs$[ebp]
  0072e	e8 00 00 00 00	 call	 ??1?$vector@V?$basic_string@DU?$char_traits@D@std@@V?$allocator@D@2@@std@@V?$allocator@V?$basic_string@DU?$char_traits@D@std@@V?$allocator@D@2@@std@@@2@@std@@QAE@XZ ; std::vector<std::basic_string<char,std::char_traits<char>,std::allocator<char> >,std::allocator<std::basic_string<char,std::char_traits<char>,std::allocator<char> > > >::~vector<std::basic_string<char,std::char_traits<char>,std::allocator<char> >,std::allocator<std::basic_string<char,std::char_traits<char>,std::allocator<char> > > >
  00733	8a 85 6a fe ff
	ff		 mov	 al, BYTE PTR $T88177[ebp]
  00739	e9 f9 01 00 00	 jmp	 $L83071
$L83323:

; 141  : 		}
; 142  : 		FindClose( hHandle );

  0073e	8b 95 78 fe ff
	ff		 mov	 edx, DWORD PTR _hHandle$[ebp]
  00744	52		 push	 edx
  00745	ff 15 00 00 00
	00		 call	 DWORD PTR __imp__FindClose@4

; 143  : 
; 144  : 		DeleteFile( strDirName.c_str() );

  0074b	8b 4d 08	 mov	 ecx, DWORD PTR _strDirName$[ebp]
  0074e	ff 15 00 00 00
	00		 call	 DWORD PTR __imp_?c_str@?$basic_string@DU?$char_traits@D@std@@V?$allocator@D@2@@std@@QBEPBDXZ
  00754	50		 push	 eax
  00755	ff 15 00 00 00
	00		 call	 DWORD PTR __imp__DeleteFileA@4
$L83322:

; 145  : 	}	
; 146  : 
; 147  : 	string strTemp;

  0075b	8d 8d 80 fe ff
	ff		 lea	 ecx, DWORD PTR _strTemp$[ebp]
  00761	ff 15 00 00 00
	00		 call	 DWORD PTR __imp_??0?$basic_string@DU?$char_traits@D@std@@V?$allocator@D@2@@std@@QAE@XZ
  00767	c6 45 fc 01	 mov	 BYTE PTR __$EHRec$[ebp+8], 1

; 148  : 	//scan the path string, get all sub dir path string in the path
; 149  : 	for(unsigned int i= 0; i < strDirName.length(); i++)

  0076b	c7 85 74 fe ff
	ff 00 00 00 00	 mov	 DWORD PTR _i$83326[ebp], 0
  00775	eb 0f		 jmp	 SHORT $L83327
$L83328:
  00777	8b 85 74 fe ff
	ff		 mov	 eax, DWORD PTR _i$83326[ebp]
  0077d	83 c0 01	 add	 eax, 1
  00780	89 85 74 fe ff
	ff		 mov	 DWORD PTR _i$83326[ebp], eax
$L83327:
  00786	8b 4d 08	 mov	 ecx, DWORD PTR _strDirName$[ebp]
  00789	ff 15 00 00 00
	00		 call	 DWORD PTR __imp_?length@?$basic_string@DU?$char_traits@D@std@@V?$allocator@D@2@@std@@QBEIXZ
  0078f	39 85 74 fe ff
	ff		 cmp	 DWORD PTR _i$83326[ebp], eax
  00795	0f 83 c9 00 00
	00		 jae	 $L83329

; 150  : 	{
; 151  : 		if(strDirName[i] != '\\' && strDirName[i] != '/')

  0079b	8b 8d 74 fe ff
	ff		 mov	 ecx, DWORD PTR _i$83326[ebp]
  007a1	51		 push	 ecx
  007a2	8b 4d 08	 mov	 ecx, DWORD PTR _strDirName$[ebp]
  007a5	ff 15 00 00 00
	00		 call	 DWORD PTR __imp_??A?$basic_string@DU?$char_traits@D@std@@V?$allocator@D@2@@std@@QBEABDI@Z
  007ab	0f be 10	 movsx	 edx, BYTE PTR [eax]
  007ae	83 fa 5c	 cmp	 edx, 92			; 0000005cH
  007b1	74 39		 je	 SHORT $L83330
  007b3	8b 85 74 fe ff
	ff		 mov	 eax, DWORD PTR _i$83326[ebp]
  007b9	50		 push	 eax
  007ba	8b 4d 08	 mov	 ecx, DWORD PTR _strDirName$[ebp]
  007bd	ff 15 00 00 00
	00		 call	 DWORD PTR __imp_??A?$basic_string@DU?$char_traits@D@std@@V?$allocator@D@2@@std@@QBEABDI@Z
  007c3	0f be 08	 movsx	 ecx, BYTE PTR [eax]
  007c6	83 f9 2f	 cmp	 ecx, 47			; 0000002fH
  007c9	74 21		 je	 SHORT $L83330

; 152  : 		{
; 153  : 			strTemp += strDirName[i];

  007cb	8b 95 74 fe ff
	ff		 mov	 edx, DWORD PTR _i$83326[ebp]
  007d1	52		 push	 edx
  007d2	8b 4d 08	 mov	 ecx, DWORD PTR _strDirName$[ebp]
  007d5	ff 15 00 00 00
	00		 call	 DWORD PTR __imp_??A?$basic_string@DU?$char_traits@D@std@@V?$allocator@D@2@@std@@QBEABDI@Z
  007db	8a 00		 mov	 al, BYTE PTR [eax]
  007dd	50		 push	 eax
  007de	8d 8d 80 fe ff
	ff		 lea	 ecx, DWORD PTR _strTemp$[ebp]
  007e4	ff 15 00 00 00
	00		 call	 DWORD PTR __imp_??Y?$basic_string@DU?$char_traits@D@std@@V?$allocator@D@2@@std@@QAEAAV01@D@Z

; 154  : 		}
; 155  : 		else

  007ea	eb 20		 jmp	 SHORT $L83331
$L83330:

; 156  : 		{
; 157  : 			vecDirs.push_back(strTemp);

  007ec	8d 8d 80 fe ff
	ff		 lea	 ecx, DWORD PTR _strTemp$[ebp]
  007f2	51		 push	 ecx
  007f3	8d 4d e4	 lea	 ecx, DWORD PTR _vecDirs$[ebp]
  007f6	e8 00 00 00 00	 call	 ?push_back@?$vector@V?$basic_string@DU?$char_traits@D@std@@V?$allocator@D@2@@std@@V?$allocator@V?$basic_string@DU?$char_traits@D@std@@V?$allocator@D@2@@std@@@2@@std@@QAEXABV?$basic_string@DU?$char_traits@D@std@@V?$allocator@D@2@@2@@Z ; std::vector<std::basic_string<char,std::char_traits<char>,std::allocator<char> >,std::allocator<std::basic_string<char,std::char_traits<char>,std::allocator<char> > > >::push_back

; 158  : 			strTemp += "\\";

  007fb	68 00 00 00 00	 push	 OFFSET FLAT:$SG83332
  00800	8d 8d 80 fe ff
	ff		 lea	 ecx, DWORD PTR _strTemp$[ebp]
  00806	ff 15 00 00 00
	00		 call	 DWORD PTR __imp_??Y?$basic_string@DU?$char_traits@D@std@@V?$allocator@D@2@@std@@QAEAAV01@PBD@Z
$L83331:

; 159  : 		}
; 160  : 
; 161  : 		//end of strPath
; 162  : 		if( strDirName[i] != '\\' && strDirName[i] != '/' && i == strDirName.length() - 1)

  0080c	8b 95 74 fe ff
	ff		 mov	 edx, DWORD PTR _i$83326[ebp]
  00812	52		 push	 edx
  00813	8b 4d 08	 mov	 ecx, DWORD PTR _strDirName$[ebp]
  00816	ff 15 00 00 00
	00		 call	 DWORD PTR __imp_??A?$basic_string@DU?$char_traits@D@std@@V?$allocator@D@2@@std@@QBEABDI@Z
  0081c	0f be 00	 movsx	 eax, BYTE PTR [eax]
  0081f	83 f8 5c	 cmp	 eax, 92			; 0000005cH
  00822	74 3b		 je	 SHORT $L83333
  00824	8b 8d 74 fe ff
	ff		 mov	 ecx, DWORD PTR _i$83326[ebp]
  0082a	51		 push	 ecx
  0082b	8b 4d 08	 mov	 ecx, DWORD PTR _strDirName$[ebp]
  0082e	ff 15 00 00 00
	00		 call	 DWORD PTR __imp_??A?$basic_string@DU?$char_traits@D@std@@V?$allocator@D@2@@std@@QBEABDI@Z
  00834	0f be 10	 movsx	 edx, BYTE PTR [eax]
  00837	83 fa 2f	 cmp	 edx, 47			; 0000002fH
  0083a	74 23		 je	 SHORT $L83333
  0083c	8b 4d 08	 mov	 ecx, DWORD PTR _strDirName$[ebp]
  0083f	ff 15 00 00 00
	00		 call	 DWORD PTR __imp_?length@?$basic_string@DU?$char_traits@D@std@@V?$allocator@D@2@@std@@QBEIXZ
  00845	83 e8 01	 sub	 eax, 1
  00848	39 85 74 fe ff
	ff		 cmp	 DWORD PTR _i$83326[ebp], eax
  0084e	75 0f		 jne	 SHORT $L83333

; 163  : 		{
; 164  : 			vecDirs.push_back(strTemp);

  00850	8d 85 80 fe ff
	ff		 lea	 eax, DWORD PTR _strTemp$[ebp]
  00856	50		 push	 eax
  00857	8d 4d e4	 lea	 ecx, DWORD PTR _vecDirs$[ebp]
  0085a	e8 00 00 00 00	 call	 ?push_back@?$vector@V?$basic_string@DU?$char_traits@D@std@@V?$allocator@D@2@@std@@V?$allocator@V?$basic_string@DU?$char_traits@D@std@@V?$allocator@D@2@@std@@@2@@std@@QAEXABV?$basic_string@DU?$char_traits@D@std@@V?$allocator@D@2@@2@@Z ; std::vector<std::basic_string<char,std::char_traits<char>,std::allocator<char> >,std::allocator<std::basic_string<char,std::char_traits<char>,std::allocator<char> > > >::push_back
$L83333:

; 165  : 		}
; 166  : 	}

  0085f	e9 13 ff ff ff	 jmp	 $L83328
$L83329:

; 167  : 
; 168  : 	bool ret = true;

  00864	c6 85 7f fe ff
	ff 01		 mov	 BYTE PTR _ret$[ebp], 1

; 169  : 	//create dirs in the vecDirs 
; 170  : 	for(int i = 1; i < (int)vecDirs.size(); i++)

  0086b	c7 85 70 fe ff
	ff 01 00 00 00	 mov	 DWORD PTR _i$83335[ebp], 1
  00875	eb 0f		 jmp	 SHORT $L83337
$L83338:
  00877	8b 8d 70 fe ff
	ff		 mov	 ecx, DWORD PTR _i$83335[ebp]
  0087d	83 c1 01	 add	 ecx, 1
  00880	89 8d 70 fe ff
	ff		 mov	 DWORD PTR _i$83335[ebp], ecx
$L83337:
  00886	8d 4d e4	 lea	 ecx, DWORD PTR _vecDirs$[ebp]
  00889	e8 00 00 00 00	 call	 ?size@?$vector@V?$basic_string@DU?$char_traits@D@std@@V?$allocator@D@2@@std@@V?$allocator@V?$basic_string@DU?$char_traits@D@std@@V?$allocator@D@2@@std@@@2@@std@@QBEIXZ ; std::vector<std::basic_string<char,std::char_traits<char>,std::allocator<char> >,std::allocator<std::basic_string<char,std::char_traits<char>,std::allocator<char> > > >::size
  0088e	39 85 70 fe ff
	ff		 cmp	 DWORD PTR _i$83335[ebp], eax
  00894	7d 70		 jge	 SHORT $L83339

; 171  : 	{
; 172  : 		if(::CreateDirectory(vecDirs[i].c_str(), NULL) == TRUE )

  00896	6a 00		 push	 0
  00898	8b 95 70 fe ff
	ff		 mov	 edx, DWORD PTR _i$83335[ebp]
  0089e	52		 push	 edx
  0089f	8d 4d e4	 lea	 ecx, DWORD PTR _vecDirs$[ebp]
  008a2	e8 00 00 00 00	 call	 ??A?$vector@V?$basic_string@DU?$char_traits@D@std@@V?$allocator@D@2@@std@@V?$allocator@V?$basic_string@DU?$char_traits@D@std@@V?$allocator@D@2@@std@@@2@@std@@QAEAAV?$basic_string@DU?$char_traits@D@std@@V?$allocator@D@2@@1@I@Z ; std::vector<std::basic_string<char,std::char_traits<char>,std::allocator<char> >,std::allocator<std::basic_string<char,std::char_traits<char>,std::allocator<char> > > >::operator[]
  008a7	8b c8		 mov	 ecx, eax
  008a9	ff 15 00 00 00
	00		 call	 DWORD PTR __imp_?c_str@?$basic_string@DU?$char_traits@D@std@@V?$allocator@D@2@@std@@QBEPBDXZ
  008af	50		 push	 eax
  008b0	ff 15 00 00 00
	00		 call	 DWORD PTR __imp__CreateDirectoryA@8
  008b6	83 f8 01	 cmp	 eax, 1
  008b9	75 25		 jne	 SHORT $L83340

; 173  : 		{
; 174  : 			SetFileAttributes(vecDirs[i].c_str(), FILE_ATTRIBUTE_NORMAL);

  008bb	68 80 00 00 00	 push	 128			; 00000080H
  008c0	8b 85 70 fe ff
	ff		 mov	 eax, DWORD PTR _i$83335[ebp]
  008c6	50		 push	 eax
  008c7	8d 4d e4	 lea	 ecx, DWORD PTR _vecDirs$[ebp]
  008ca	e8 00 00 00 00	 call	 ??A?$vector@V?$basic_string@DU?$char_traits@D@std@@V?$allocator@D@2@@std@@V?$allocator@V?$basic_string@DU?$char_traits@D@std@@V?$allocator@D@2@@std@@@2@@std@@QAEAAV?$basic_string@DU?$char_traits@D@std@@V?$allocator@D@2@@1@I@Z ; std::vector<std::basic_string<char,std::char_traits<char>,std::allocator<char> >,std::allocator<std::basic_string<char,std::char_traits<char>,std::allocator<char> > > >::operator[]
  008cf	8b c8		 mov	 ecx, eax
  008d1	ff 15 00 00 00
	00		 call	 DWORD PTR __imp_?c_str@?$basic_string@DU?$char_traits@D@std@@V?$allocator@D@2@@std@@QBEPBDXZ
  008d7	50		 push	 eax
  008d8	ff 15 00 00 00
	00		 call	 DWORD PTR __imp__SetFileAttributesA@8

; 175  : 		}
; 176  : 		else

  008de	eb 21		 jmp	 SHORT $L83341
$L83340:

; 177  : 		{
; 178  : 			DWORD dwError = ::GetLastError();

  008e0	ff 15 00 00 00
	00		 call	 DWORD PTR __imp__GetLastError@0
  008e6	89 85 6c fe ff
	ff		 mov	 DWORD PTR _dwError$83342[ebp], eax

; 179  : 			if(dwError != ERROR_ALREADY_EXISTS)

  008ec	81 bd 6c fe ff
	ff b7 00 00 00	 cmp	 DWORD PTR _dwError$83342[ebp], 183 ; 000000b7H
  008f6	74 09		 je	 SHORT $L83341

; 180  : 			{
; 181  : 				ret = false;

  008f8	c6 85 7f fe ff
	ff 00		 mov	 BYTE PTR _ret$[ebp], 0

; 182  : 				break;

  008ff	eb 05		 jmp	 SHORT $L83339
$L83341:

; 183  : 			}
; 184  : 		}
; 185  : 	}

  00901	e9 71 ff ff ff	 jmp	 $L83338
$L83339:

; 186  : 
; 187  : 	return ret;

  00906	8a 8d 7f fe ff
	ff		 mov	 cl, BYTE PTR _ret$[ebp]
  0090c	88 8d 69 fe ff
	ff		 mov	 BYTE PTR $T88178[ebp], cl
  00912	c6 45 fc 00	 mov	 BYTE PTR __$EHRec$[ebp+8], 0
  00916	8d 8d 80 fe ff
	ff		 lea	 ecx, DWORD PTR _strTemp$[ebp]
  0091c	ff 15 00 00 00
	00		 call	 DWORD PTR __imp_??1?$basic_string@DU?$char_traits@D@std@@V?$allocator@D@2@@std@@QAE@XZ
  00922	c7 45 fc ff ff
	ff ff		 mov	 DWORD PTR __$EHRec$[ebp+8], -1
  00929	8d 4d e4	 lea	 ecx, DWORD PTR _vecDirs$[ebp]
  0092c	e8 00 00 00 00	 call	 ??1?$vector@V?$basic_string@DU?$char_traits@D@std@@V?$allocator@D@2@@std@@V?$allocator@V?$basic_string@DU?$char_traits@D@std@@V?$allocator@D@2@@std@@@2@@std@@QAE@XZ ; std::vector<std::basic_string<char,std::char_traits<char>,std::allocator<char> >,std::allocator<std::basic_string<char,std::char_traits<char>,std::allocator<char> > > >::~vector<std::basic_string<char,std::char_traits<char>,std::allocator<char> >,std::allocator<std::basic_string<char,std::char_traits<char>,std::allocator<char> > > >
  00931	8a 85 69 fe ff
	ff		 mov	 al, BYTE PTR $T88178[ebp]
$L83071:

; 188  : }

  00937	8b 4d f4	 mov	 ecx, DWORD PTR __$EHRec$[ebp]
  0093a	64 89 0d 00 00
	00 00		 mov	 DWORD PTR fs:__except_list, ecx
  00941	8b 4d e0	 mov	 ecx, DWORD PTR __$ArrayPad$[ebp]
  00944	e8 00 00 00 00	 call	 @__security_check_cookie@4
  00949	8b e5		 mov	 esp, ebp
  0094b	5d		 pop	 ebp
  0094c	c3		 ret	 0
_TEXT	ENDS
text$x	SEGMENT
$L88179:
  0008a	8d 4d e4	 lea	 ecx, DWORD PTR _vecDirs$[ebp]
  0008d	e9 00 00 00 00	 jmp	 ??1?$vector@V?$basic_string@DU?$char_traits@D@std@@V?$allocator@D@2@@std@@V?$allocator@V?$basic_string@DU?$char_traits@D@std@@V?$allocator@D@2@@std@@@2@@std@@QAE@XZ ; std::vector<std::basic_string<char,std::char_traits<char>,std::allocator<char> >,std::allocator<std::basic_string<char,std::char_traits<char>,std::allocator<char> > > >::~vector<std::basic_string<char,std::char_traits<char>,std::allocator<char> >,std::allocator<std::basic_string<char,std::char_traits<char>,std::allocator<char> > > >
$L88180:
  00092	8d 8d 80 fe ff
	ff		 lea	 ecx, DWORD PTR _strTemp$[ebp]
  00098	ff 25 00 00 00
	00		 jmp	 DWORD PTR __imp_??1?$basic_string@DU?$char_traits@D@std@@V?$allocator@D@2@@std@@QAE@XZ
__ehhandler$?MakeDir@YL_DirInfo@@SA_NABV?$basic_string@DU?$char_traits@D@std@@V?$allocator@D@2@@std@@@Z:
  0009e	b8 00 00 00 00	 mov	 eax, OFFSET FLAT:$T88182
  000a3	e9 00 00 00 00	 jmp	 ___CxxFrameHandler
text$x	ENDS
?MakeDir@YL_DirInfo@@SA_NABV?$basic_string@DU?$char_traits@D@std@@V?$allocator@D@2@@std@@@Z ENDP ; YL_DirInfo::MakeDir
PUBLIC	?DeleteDir@YL_DirInfo@@SA_NPBD@Z		; YL_DirInfo::DeleteDir
PUBLIC	?DeleteDir@YL_DirInfo@@SA_NABV?$basic_string@DU?$char_traits@D@std@@V?$allocator@D@2@@std@@@Z ; YL_DirInfo::DeleteDir
xdata$x	SEGMENT
$T88193	DD	0ffffffffH
	DD	FLAT:$L88189
$T88191	DD	019930520H
	DD	01H
	DD	FLAT:$T88193
	DD	2 DUP(00H)
	DD	2 DUP(00H)
; Function compile flags: /Odt
xdata$x	ENDS
_TEXT	SEGMENT
tv73 = -52						; size = 4
tv74 = -48						; size = 4
$T88188 = -44						; size = 28
$T88187 = -13						; size = 1
__$EHRec$ = -12						; size = 12
_pszDirName$ = 8					; size = 4
?DeleteDir@YL_DirInfo@@SA_NPBD@Z PROC NEAR		; YL_DirInfo::DeleteDir

; 192  : {

  00950	55		 push	 ebp
  00951	8b ec		 mov	 ebp, esp
  00953	6a ff		 push	 -1
  00955	68 00 00 00 00	 push	 __ehhandler$?DeleteDir@YL_DirInfo@@SA_NPBD@Z
  0095a	64 a1 00 00 00
	00		 mov	 eax, DWORD PTR fs:__except_list
  00960	50		 push	 eax
  00961	64 89 25 00 00
	00 00		 mov	 DWORD PTR fs:__except_list, esp
  00968	83 ec 28	 sub	 esp, 40			; 00000028H

; 193  : 	if( pszDirName == NULL )

  0096b	83 7d 08 00	 cmp	 DWORD PTR _pszDirName$[ebp], 0
  0096f	75 04		 jne	 SHORT $L83348

; 194  : 	{
; 195  : 		return false;

  00971	32 c0		 xor	 al, al
  00973	eb 3f		 jmp	 SHORT $L83347
$L83348:

; 196  : 	}
; 197  : 	return DeleteDir(string(pszDirName));

  00975	8b 45 08	 mov	 eax, DWORD PTR _pszDirName$[ebp]
  00978	50		 push	 eax
  00979	8d 4d d4	 lea	 ecx, DWORD PTR $T88188[ebp]
  0097c	ff 15 00 00 00
	00		 call	 DWORD PTR __imp_??0?$basic_string@DU?$char_traits@D@std@@V?$allocator@D@2@@std@@QAE@PBD@Z
  00982	89 45 d0	 mov	 DWORD PTR tv74[ebp], eax
  00985	8b 4d d0	 mov	 ecx, DWORD PTR tv74[ebp]
  00988	89 4d cc	 mov	 DWORD PTR tv73[ebp], ecx
  0098b	c7 45 fc 00 00
	00 00		 mov	 DWORD PTR __$EHRec$[ebp+8], 0
  00992	8b 55 cc	 mov	 edx, DWORD PTR tv73[ebp]
  00995	52		 push	 edx
  00996	e8 00 00 00 00	 call	 ?DeleteDir@YL_DirInfo@@SA_NABV?$basic_string@DU?$char_traits@D@std@@V?$allocator@D@2@@std@@@Z ; YL_DirInfo::DeleteDir
  0099b	83 c4 04	 add	 esp, 4
  0099e	88 45 f3	 mov	 BYTE PTR $T88187[ebp], al
  009a1	c7 45 fc ff ff
	ff ff		 mov	 DWORD PTR __$EHRec$[ebp+8], -1
  009a8	8d 4d d4	 lea	 ecx, DWORD PTR $T88188[ebp]
  009ab	ff 15 00 00 00
	00		 call	 DWORD PTR __imp_??1?$basic_string@DU?$char_traits@D@std@@V?$allocator@D@2@@std@@QAE@XZ
  009b1	8a 45 f3	 mov	 al, BYTE PTR $T88187[ebp]
$L83347:

; 198  : }

  009b4	8b 4d f4	 mov	 ecx, DWORD PTR __$EHRec$[ebp]
  009b7	64 89 0d 00 00
	00 00		 mov	 DWORD PTR fs:__except_list, ecx
  009be	8b e5		 mov	 esp, ebp
  009c0	5d		 pop	 ebp
  009c1	c3		 ret	 0
_TEXT	ENDS
text$x	SEGMENT
$L88189:
  000a8	8d 4d d4	 lea	 ecx, DWORD PTR $T88188[ebp]
  000ab	ff 25 00 00 00
	00		 jmp	 DWORD PTR __imp_??1?$basic_string@DU?$char_traits@D@std@@V?$allocator@D@2@@std@@QAE@XZ
__ehhandler$?DeleteDir@YL_DirInfo@@SA_NPBD@Z:
  000b1	b8 00 00 00 00	 mov	 eax, OFFSET FLAT:$T88191
  000b6	e9 00 00 00 00	 jmp	 ___CxxFrameHandler
text$x	ENDS
?DeleteDir@YL_DirInfo@@SA_NPBD@Z ENDP			; YL_DirInfo::DeleteDir
PUBLIC	?FindFileAndDir@YL_DirInfo@@SA_NABV?$basic_string@DU?$char_traits@D@std@@V?$allocator@D@2@@std@@PAV?$vector@V?$basic_string@DU?$char_traits@D@std@@V?$allocator@D@2@@std@@V?$allocator@V?$basic_string@DU?$char_traits@D@std@@V?$allocator@D@2@@std@@@2@@3@1_NPBV43@@Z ; YL_DirInfo::FindFileAndDir
PUBLIC	?ClearDir@YL_DirInfo@@SA_NABV?$basic_string@DU?$char_traits@D@std@@V?$allocator@D@2@@std@@0@Z ; YL_DirInfo::ClearDir
xdata$x	SEGMENT
$T88206	DD	0ffffffffH
	DD	FLAT:$L88200
	DD	00H
	DD	FLAT:$L88201
	DD	01H
	DD	FLAT:$L88202
$T88204	DD	019930520H
	DD	03H
	DD	FLAT:$T88206
	DD	2 DUP(00H)
	DD	2 DUP(00H)
; Function compile flags: /Odt
xdata$x	ENDS
_TEXT	SEGMENT
$T88199 = -82						; size = 1
$T88198 = -81						; size = 1
$T88197 = -80						; size = 28
$T88196 = -50						; size = 1
$T88195 = -49						; size = 1
_idx$83359 = -48					; size = 4
_vecFile$ = -44						; size = 16
_vecDir$ = -28						; size = 16
__$EHRec$ = -12						; size = 12
_strDirName$ = 8					; size = 4
?DeleteDir@YL_DirInfo@@SA_NABV?$basic_string@DU?$char_traits@D@std@@V?$allocator@D@2@@std@@@Z PROC NEAR ; YL_DirInfo::DeleteDir

; 201  : {	

  009d0	55		 push	 ebp
  009d1	8b ec		 mov	 ebp, esp
  009d3	6a ff		 push	 -1
  009d5	68 00 00 00 00	 push	 __ehhandler$?DeleteDir@YL_DirInfo@@SA_NABV?$basic_string@DU?$char_traits@D@std@@V?$allocator@D@2@@std@@@Z
  009da	64 a1 00 00 00
	00		 mov	 eax, DWORD PTR fs:__except_list
  009e0	50		 push	 eax
  009e1	64 89 25 00 00
	00 00		 mov	 DWORD PTR fs:__except_list, esp
  009e8	83 ec 48	 sub	 esp, 72			; 00000048H

; 202  : 	vector<string> vecDir;

  009eb	8d 4d e4	 lea	 ecx, DWORD PTR _vecDir$[ebp]
  009ee	e8 00 00 00 00	 call	 ??0?$vector@V?$basic_string@DU?$char_traits@D@std@@V?$allocator@D@2@@std@@V?$allocator@V?$basic_string@DU?$char_traits@D@std@@V?$allocator@D@2@@std@@@2@@std@@QAE@XZ ; std::vector<std::basic_string<char,std::char_traits<char>,std::allocator<char> >,std::allocator<std::basic_string<char,std::char_traits<char>,std::allocator<char> > > >::vector<std::basic_string<char,std::char_traits<char>,std::allocator<char> >,std::allocator<std::basic_string<char,std::char_traits<char>,std::allocator<char> > > >
  009f3	c7 45 fc 00 00
	00 00		 mov	 DWORD PTR __$EHRec$[ebp+8], 0

; 203  : 	vector<string> vecFile;

  009fa	8d 4d d4	 lea	 ecx, DWORD PTR _vecFile$[ebp]
  009fd	e8 00 00 00 00	 call	 ??0?$vector@V?$basic_string@DU?$char_traits@D@std@@V?$allocator@D@2@@std@@V?$allocator@V?$basic_string@DU?$char_traits@D@std@@V?$allocator@D@2@@std@@@2@@std@@QAE@XZ ; std::vector<std::basic_string<char,std::char_traits<char>,std::allocator<char> >,std::allocator<std::basic_string<char,std::char_traits<char>,std::allocator<char> > > >::vector<std::basic_string<char,std::char_traits<char>,std::allocator<char> >,std::allocator<std::basic_string<char,std::char_traits<char>,std::allocator<char> > > >
  00a02	c6 45 fc 01	 mov	 BYTE PTR __$EHRec$[ebp+8], 1

; 204  : 
; 205  : 	if( YL_DirInfo::FindFileAndDir(strDirName,&vecDir,&vecFile,false) )

  00a06	6a 00		 push	 0
  00a08	6a 00		 push	 0
  00a0a	8d 45 d4	 lea	 eax, DWORD PTR _vecFile$[ebp]
  00a0d	50		 push	 eax
  00a0e	8d 4d e4	 lea	 ecx, DWORD PTR _vecDir$[ebp]
  00a11	51		 push	 ecx
  00a12	8b 55 08	 mov	 edx, DWORD PTR _strDirName$[ebp]
  00a15	52		 push	 edx
  00a16	e8 00 00 00 00	 call	 ?FindFileAndDir@YL_DirInfo@@SA_NABV?$basic_string@DU?$char_traits@D@std@@V?$allocator@D@2@@std@@PAV?$vector@V?$basic_string@DU?$char_traits@D@std@@V?$allocator@D@2@@std@@V?$allocator@V?$basic_string@DU?$char_traits@D@std@@V?$allocator@D@2@@std@@@2@@3@1_NPBV43@@Z ; YL_DirInfo::FindFileAndDir
  00a1b	83 c4 14	 add	 esp, 20			; 00000014H
  00a1e	0f b6 c0	 movzx	 eax, al
  00a21	85 c0		 test	 eax, eax
  00a23	0f 84 c2 00 00
	00		 je	 $L83358

; 206  : 	{
; 207  : 		for(size_t idx = 0;idx <vecDir.size();idx++ )

  00a29	c7 45 d0 00 00
	00 00		 mov	 DWORD PTR _idx$83359[ebp], 0
  00a30	eb 09		 jmp	 SHORT $L83360
$L83361:
  00a32	8b 4d d0	 mov	 ecx, DWORD PTR _idx$83359[ebp]
  00a35	83 c1 01	 add	 ecx, 1
  00a38	89 4d d0	 mov	 DWORD PTR _idx$83359[ebp], ecx
$L83360:
  00a3b	8d 4d e4	 lea	 ecx, DWORD PTR _vecDir$[ebp]
  00a3e	e8 00 00 00 00	 call	 ?size@?$vector@V?$basic_string@DU?$char_traits@D@std@@V?$allocator@D@2@@std@@V?$allocator@V?$basic_string@DU?$char_traits@D@std@@V?$allocator@D@2@@std@@@2@@std@@QBEIXZ ; std::vector<std::basic_string<char,std::char_traits<char>,std::allocator<char> >,std::allocator<std::basic_string<char,std::char_traits<char>,std::allocator<char> > > >::size
  00a43	39 45 d0	 cmp	 DWORD PTR _idx$83359[ebp], eax
  00a46	73 45		 jae	 SHORT $L83362

; 208  : 		{
; 209  : 			if( !DeleteDir(vecDir[idx]) )

  00a48	8b 55 d0	 mov	 edx, DWORD PTR _idx$83359[ebp]
  00a4b	52		 push	 edx
  00a4c	8d 4d e4	 lea	 ecx, DWORD PTR _vecDir$[ebp]
  00a4f	e8 00 00 00 00	 call	 ??A?$vector@V?$basic_string@DU?$char_traits@D@std@@V?$allocator@D@2@@std@@V?$allocator@V?$basic_string@DU?$char_traits@D@std@@V?$allocator@D@2@@std@@@2@@std@@QAEAAV?$basic_string@DU?$char_traits@D@std@@V?$allocator@D@2@@1@I@Z ; std::vector<std::basic_string<char,std::char_traits<char>,std::allocator<char> >,std::allocator<std::basic_string<char,std::char_traits<char>,std::allocator<char> > > >::operator[]
  00a54	50		 push	 eax
  00a55	e8 00 00 00 00	 call	 ?DeleteDir@YL_DirInfo@@SA_NABV?$basic_string@DU?$char_traits@D@std@@V?$allocator@D@2@@std@@@Z ; YL_DirInfo::DeleteDir
  00a5a	83 c4 04	 add	 esp, 4
  00a5d	0f b6 c0	 movzx	 eax, al
  00a60	85 c0		 test	 eax, eax
  00a62	75 27		 jne	 SHORT $L83363

; 210  : 			{
; 211  : 				return false;

  00a64	c6 45 cf 00	 mov	 BYTE PTR $T88195[ebp], 0
  00a68	c6 45 fc 00	 mov	 BYTE PTR __$EHRec$[ebp+8], 0
  00a6c	8d 4d d4	 lea	 ecx, DWORD PTR _vecFile$[ebp]
  00a6f	e8 00 00 00 00	 call	 ??1?$vector@V?$basic_string@DU?$char_traits@D@std@@V?$allocator@D@2@@std@@V?$allocator@V?$basic_string@DU?$char_traits@D@std@@V?$allocator@D@2@@std@@@2@@std@@QAE@XZ ; std::vector<std::basic_string<char,std::char_traits<char>,std::allocator<char> >,std::allocator<std::basic_string<char,std::char_traits<char>,std::allocator<char> > > >::~vector<std::basic_string<char,std::char_traits<char>,std::allocator<char> >,std::allocator<std::basic_string<char,std::char_traits<char>,std::allocator<char> > > >
  00a74	c7 45 fc ff ff
	ff ff		 mov	 DWORD PTR __$EHRec$[ebp+8], -1
  00a7b	8d 4d e4	 lea	 ecx, DWORD PTR _vecDir$[ebp]
  00a7e	e8 00 00 00 00	 call	 ??1?$vector@V?$basic_string@DU?$char_traits@D@std@@V?$allocator@D@2@@std@@V?$allocator@V?$basic_string@DU?$char_traits@D@std@@V?$allocator@D@2@@std@@@2@@std@@QAE@XZ ; std::vector<std::basic_string<char,std::char_traits<char>,std::allocator<char> >,std::allocator<std::basic_string<char,std::char_traits<char>,std::allocator<char> > > >::~vector<std::basic_string<char,std::char_traits<char>,std::allocator<char> >,std::allocator<std::basic_string<char,std::char_traits<char>,std::allocator<char> > > >
  00a83	8a 45 cf	 mov	 al, BYTE PTR $T88195[ebp]
  00a86	e9 82 00 00 00	 jmp	 $L83353
$L83363:

; 212  : 			}
; 213  : 		}

  00a8b	eb a5		 jmp	 SHORT $L83361
$L83362:

; 214  : 
; 215  : 		if( ClearDir(strDirName) )

  00a8d	68 00 00 00 00	 push	 OFFSET FLAT:$SG83368
  00a92	8d 4d b0	 lea	 ecx, DWORD PTR $T88197[ebp]
  00a95	ff 15 00 00 00
	00		 call	 DWORD PTR __imp_??0?$basic_string@DU?$char_traits@D@std@@V?$allocator@D@2@@std@@QAE@PBD@Z
  00a9b	c6 45 fc 02	 mov	 BYTE PTR __$EHRec$[ebp+8], 2
  00a9f	8d 4d b0	 lea	 ecx, DWORD PTR $T88197[ebp]
  00aa2	51		 push	 ecx
  00aa3	8b 55 08	 mov	 edx, DWORD PTR _strDirName$[ebp]
  00aa6	52		 push	 edx
  00aa7	e8 00 00 00 00	 call	 ?ClearDir@YL_DirInfo@@SA_NABV?$basic_string@DU?$char_traits@D@std@@V?$allocator@D@2@@std@@0@Z ; YL_DirInfo::ClearDir
  00aac	83 c4 08	 add	 esp, 8
  00aaf	88 45 ce	 mov	 BYTE PTR $T88196[ebp], al
  00ab2	c6 45 fc 01	 mov	 BYTE PTR __$EHRec$[ebp+8], 1
  00ab6	8d 4d b0	 lea	 ecx, DWORD PTR $T88197[ebp]
  00ab9	ff 15 00 00 00
	00		 call	 DWORD PTR __imp_??1?$basic_string@DU?$char_traits@D@std@@V?$allocator@D@2@@std@@QAE@XZ
  00abf	0f b6 45 ce	 movzx	 eax, BYTE PTR $T88196[ebp]
  00ac3	85 c0		 test	 eax, eax
  00ac5	74 24		 je	 SHORT $L83358

; 216  : 		{
; 217  : 			return true;

  00ac7	c6 45 af 01	 mov	 BYTE PTR $T88198[ebp], 1
  00acb	c6 45 fc 00	 mov	 BYTE PTR __$EHRec$[ebp+8], 0
  00acf	8d 4d d4	 lea	 ecx, DWORD PTR _vecFile$[ebp]
  00ad2	e8 00 00 00 00	 call	 ??1?$vector@V?$basic_string@DU?$char_traits@D@std@@V?$allocator@D@2@@std@@V?$allocator@V?$basic_string@DU?$char_traits@D@std@@V?$allocator@D@2@@std@@@2@@std@@QAE@XZ ; std::vector<std::basic_string<char,std::char_traits<char>,std::allocator<char> >,std::allocator<std::basic_string<char,std::char_traits<char>,std::allocator<char> > > >::~vector<std::basic_string<char,std::char_traits<char>,std::allocator<char> >,std::allocator<std::basic_string<char,std::char_traits<char>,std::allocator<char> > > >
  00ad7	c7 45 fc ff ff
	ff ff		 mov	 DWORD PTR __$EHRec$[ebp+8], -1
  00ade	8d 4d e4	 lea	 ecx, DWORD PTR _vecDir$[ebp]
  00ae1	e8 00 00 00 00	 call	 ??1?$vector@V?$basic_string@DU?$char_traits@D@std@@V?$allocator@D@2@@std@@V?$allocator@V?$basic_string@DU?$char_traits@D@std@@V?$allocator@D@2@@std@@@2@@std@@QAE@XZ ; std::vector<std::basic_string<char,std::char_traits<char>,std::allocator<char> >,std::allocator<std::basic_string<char,std::char_traits<char>,std::allocator<char> > > >::~vector<std::basic_string<char,std::char_traits<char>,std::allocator<char> >,std::allocator<std::basic_string<char,std::char_traits<char>,std::allocator<char> > > >
  00ae6	8a 45 af	 mov	 al, BYTE PTR $T88198[ebp]
  00ae9	eb 22		 jmp	 SHORT $L83353
$L83358:

; 218  : 		}		
; 219  : 	}
; 220  : 
; 221  : 	return false;

  00aeb	c6 45 ae 00	 mov	 BYTE PTR $T88199[ebp], 0
  00aef	c6 45 fc 00	 mov	 BYTE PTR __$EHRec$[ebp+8], 0
  00af3	8d 4d d4	 lea	 ecx, DWORD PTR _vecFile$[ebp]
  00af6	e8 00 00 00 00	 call	 ??1?$vector@V?$basic_string@DU?$char_traits@D@std@@V?$allocator@D@2@@std@@V?$allocator@V?$basic_string@DU?$char_traits@D@std@@V?$allocator@D@2@@std@@@2@@std@@QAE@XZ ; std::vector<std::basic_string<char,std::char_traits<char>,std::allocator<char> >,std::allocator<std::basic_string<char,std::char_traits<char>,std::allocator<char> > > >::~vector<std::basic_string<char,std::char_traits<char>,std::allocator<char> >,std::allocator<std::basic_string<char,std::char_traits<char>,std::allocator<char> > > >
  00afb	c7 45 fc ff ff
	ff ff		 mov	 DWORD PTR __$EHRec$[ebp+8], -1
  00b02	8d 4d e4	 lea	 ecx, DWORD PTR _vecDir$[ebp]
  00b05	e8 00 00 00 00	 call	 ??1?$vector@V?$basic_string@DU?$char_traits@D@std@@V?$allocator@D@2@@std@@V?$allocator@V?$basic_string@DU?$char_traits@D@std@@V?$allocator@D@2@@std@@@2@@std@@QAE@XZ ; std::vector<std::basic_string<char,std::char_traits<char>,std::allocator<char> >,std::allocator<std::basic_string<char,std::char_traits<char>,std::allocator<char> > > >::~vector<std::basic_string<char,std::char_traits<char>,std::allocator<char> >,std::allocator<std::basic_string<char,std::char_traits<char>,std::allocator<char> > > >
  00b0a	8a 45 ae	 mov	 al, BYTE PTR $T88199[ebp]
$L83353:

; 222  : }

  00b0d	8b 4d f4	 mov	 ecx, DWORD PTR __$EHRec$[ebp]
  00b10	64 89 0d 00 00
	00 00		 mov	 DWORD PTR fs:__except_list, ecx
  00b17	8b e5		 mov	 esp, ebp
  00b19	5d		 pop	 ebp
  00b1a	c3		 ret	 0
_TEXT	ENDS
text$x	SEGMENT
$L88200:
  000bb	8d 4d e4	 lea	 ecx, DWORD PTR _vecDir$[ebp]
  000be	e9 00 00 00 00	 jmp	 ??1?$vector@V?$basic_string@DU?$char_traits@D@std@@V?$allocator@D@2@@std@@V?$allocator@V?$basic_string@DU?$char_traits@D@std@@V?$allocator@D@2@@std@@@2@@std@@QAE@XZ ; std::vector<std::basic_string<char,std::char_traits<char>,std::allocator<char> >,std::allocator<std::basic_string<char,std::char_traits<char>,std::allocator<char> > > >::~vector<std::basic_string<char,std::char_traits<char>,std::allocator<char> >,std::allocator<std::basic_string<char,std::char_traits<char>,std::allocator<char> > > >
$L88201:
  000c3	8d 4d d4	 lea	 ecx, DWORD PTR _vecFile$[ebp]
  000c6	e9 00 00 00 00	 jmp	 ??1?$vector@V?$basic_string@DU?$char_traits@D@std@@V?$allocator@D@2@@std@@V?$allocator@V?$basic_string@DU?$char_traits@D@std@@V?$allocator@D@2@@std@@@2@@std@@QAE@XZ ; std::vector<std::basic_string<char,std::char_traits<char>,std::allocator<char> >,std::allocator<std::basic_string<char,std::char_traits<char>,std::allocator<char> > > >::~vector<std::basic_string<char,std::char_traits<char>,std::allocator<char> >,std::allocator<std::basic_string<char,std::char_traits<char>,std::allocator<char> > > >
$L88202:
  000cb	8d 4d b0	 lea	 ecx, DWORD PTR $T88197[ebp]
  000ce	ff 25 00 00 00
	00		 jmp	 DWORD PTR __imp_??1?$basic_string@DU?$char_traits@D@std@@V?$allocator@D@2@@std@@QAE@XZ
__ehhandler$?DeleteDir@YL_DirInfo@@SA_NABV?$basic_string@DU?$char_traits@D@std@@V?$allocator@D@2@@std@@@Z:
  000d4	b8 00 00 00 00	 mov	 eax, OFFSET FLAT:$T88204
  000d9	e9 00 00 00 00	 jmp	 ___CxxFrameHandler
text$x	ENDS
?DeleteDir@YL_DirInfo@@SA_NABV?$basic_string@DU?$char_traits@D@std@@V?$allocator@D@2@@std@@@Z ENDP ; YL_DirInfo::DeleteDir
PUBLIC	?ClearDir@YL_DirInfo@@SA_NPBD0@Z		; YL_DirInfo::ClearDir
xdata$x	SEGMENT
$T88221	DD	0ffffffffH
	DD	FLAT:$L88214
	DD	00H
	DD	FLAT:$L88215
	DD	0ffffffffH
	DD	FLAT:$L88216
	DD	02H
	DD	FLAT:$L88217
$T88219	DD	019930520H
	DD	04H
	DD	FLAT:$T88221
	DD	2 DUP(00H)
	DD	2 DUP(00H)
; Function compile flags: /Odt
xdata$x	ENDS
_TEXT	SEGMENT
tv129 = -156						; size = 4
tv131 = -152						; size = 4
tv95 = -148						; size = 4
tv130 = -144						; size = 4
tv93 = -140						; size = 4
tv68 = -136						; size = 4
$T88213 = -132						; size = 28
$T88212 = -104						; size = 28
$T88211 = -73						; size = 1
$T88210 = -72						; size = 28
$T88209 = -44						; size = 28
$T88208 = -13						; size = 1
__$EHRec$ = -12						; size = 12
_pszDirName$ = 8					; size = 4
_pszFileExe$ = 12					; size = 4
?ClearDir@YL_DirInfo@@SA_NPBD0@Z PROC NEAR		; YL_DirInfo::ClearDir

; 225  : {

  00b20	55		 push	 ebp
  00b21	8b ec		 mov	 ebp, esp
  00b23	6a ff		 push	 -1
  00b25	68 00 00 00 00	 push	 __ehhandler$?ClearDir@YL_DirInfo@@SA_NPBD0@Z
  00b2a	64 a1 00 00 00
	00		 mov	 eax, DWORD PTR fs:__except_list
  00b30	50		 push	 eax
  00b31	64 89 25 00 00
	00 00		 mov	 DWORD PTR fs:__except_list, esp
  00b38	81 ec 90 00 00
	00		 sub	 esp, 144		; 00000090H

; 226  : 	if( pszDirName == NULL )

  00b3e	83 7d 08 00	 cmp	 DWORD PTR _pszDirName$[ebp], 0
  00b42	75 07		 jne	 SHORT $L83375

; 227  : 	{
; 228  : 		return false;

  00b44	32 c0		 xor	 al, al
  00b46	e9 01 01 00 00	 jmp	 $L83374
$L83375:

; 229  : 	}
; 230  : 	if( pszFileExe == NULL )

  00b4b	83 7d 0c 00	 cmp	 DWORD PTR _pszFileExe$[ebp], 0
  00b4f	75 73		 jne	 SHORT $L83376

; 231  : 	{
; 232  : 		return ClearDir(string(pszDirName));

  00b51	68 00 00 00 00	 push	 OFFSET FLAT:$SG83380
  00b56	8d 4d d4	 lea	 ecx, DWORD PTR $T88209[ebp]
  00b59	ff 15 00 00 00
	00		 call	 DWORD PTR __imp_??0?$basic_string@DU?$char_traits@D@std@@V?$allocator@D@2@@std@@QAE@PBD@Z
  00b5f	c7 45 fc 00 00
	00 00		 mov	 DWORD PTR __$EHRec$[ebp+8], 0
  00b66	8b 45 08	 mov	 eax, DWORD PTR _pszDirName$[ebp]
  00b69	50		 push	 eax
  00b6a	8d 4d b8	 lea	 ecx, DWORD PTR $T88210[ebp]
  00b6d	ff 15 00 00 00
	00		 call	 DWORD PTR __imp_??0?$basic_string@DU?$char_traits@D@std@@V?$allocator@D@2@@std@@QAE@PBD@Z
  00b73	89 85 78 ff ff
	ff		 mov	 DWORD PTR tv68[ebp], eax
  00b79	8b 8d 78 ff ff
	ff		 mov	 ecx, DWORD PTR tv68[ebp]
  00b7f	89 8d 74 ff ff
	ff		 mov	 DWORD PTR tv93[ebp], ecx
  00b85	c6 45 fc 01	 mov	 BYTE PTR __$EHRec$[ebp+8], 1
  00b89	8d 55 d4	 lea	 edx, DWORD PTR $T88209[ebp]
  00b8c	52		 push	 edx
  00b8d	8b 85 74 ff ff
	ff		 mov	 eax, DWORD PTR tv93[ebp]
  00b93	50		 push	 eax
  00b94	e8 00 00 00 00	 call	 ?ClearDir@YL_DirInfo@@SA_NABV?$basic_string@DU?$char_traits@D@std@@V?$allocator@D@2@@std@@0@Z ; YL_DirInfo::ClearDir
  00b99	83 c4 08	 add	 esp, 8
  00b9c	88 45 f3	 mov	 BYTE PTR $T88208[ebp], al
  00b9f	c6 45 fc 00	 mov	 BYTE PTR __$EHRec$[ebp+8], 0
  00ba3	8d 4d b8	 lea	 ecx, DWORD PTR $T88210[ebp]
  00ba6	ff 15 00 00 00
	00		 call	 DWORD PTR __imp_??1?$basic_string@DU?$char_traits@D@std@@V?$allocator@D@2@@std@@QAE@XZ
  00bac	c7 45 fc ff ff
	ff ff		 mov	 DWORD PTR __$EHRec$[ebp+8], -1
  00bb3	8d 4d d4	 lea	 ecx, DWORD PTR $T88209[ebp]
  00bb6	ff 15 00 00 00
	00		 call	 DWORD PTR __imp_??1?$basic_string@DU?$char_traits@D@std@@V?$allocator@D@2@@std@@QAE@XZ
  00bbc	8a 45 f3	 mov	 al, BYTE PTR $T88208[ebp]
  00bbf	e9 88 00 00 00	 jmp	 $L83374
$L83376:

; 233  : 	}
; 234  : 	else
; 235  : 	{
; 236  : 		return ClearDir(string(pszDirName),string(pszFileExe));

  00bc4	8b 4d 0c	 mov	 ecx, DWORD PTR _pszFileExe$[ebp]
  00bc7	51		 push	 ecx
  00bc8	8d 4d 98	 lea	 ecx, DWORD PTR $T88212[ebp]
  00bcb	ff 15 00 00 00
	00		 call	 DWORD PTR __imp_??0?$basic_string@DU?$char_traits@D@std@@V?$allocator@D@2@@std@@QAE@PBD@Z
  00bd1	89 85 70 ff ff
	ff		 mov	 DWORD PTR tv130[ebp], eax
  00bd7	8b 95 70 ff ff
	ff		 mov	 edx, DWORD PTR tv130[ebp]
  00bdd	89 95 6c ff ff
	ff		 mov	 DWORD PTR tv95[ebp], edx
  00be3	c7 45 fc 02 00
	00 00		 mov	 DWORD PTR __$EHRec$[ebp+8], 2
  00bea	8b 45 08	 mov	 eax, DWORD PTR _pszDirName$[ebp]
  00bed	50		 push	 eax
  00bee	8d 8d 7c ff ff
	ff		 lea	 ecx, DWORD PTR $T88213[ebp]
  00bf4	ff 15 00 00 00
	00		 call	 DWORD PTR __imp_??0?$basic_string@DU?$char_traits@D@std@@V?$allocator@D@2@@std@@QAE@PBD@Z
  00bfa	89 85 68 ff ff
	ff		 mov	 DWORD PTR tv131[ebp], eax
  00c00	8b 8d 68 ff ff
	ff		 mov	 ecx, DWORD PTR tv131[ebp]
  00c06	89 8d 64 ff ff
	ff		 mov	 DWORD PTR tv129[ebp], ecx
  00c0c	c6 45 fc 03	 mov	 BYTE PTR __$EHRec$[ebp+8], 3
  00c10	8b 95 6c ff ff
	ff		 mov	 edx, DWORD PTR tv95[ebp]
  00c16	52		 push	 edx
  00c17	8b 85 64 ff ff
	ff		 mov	 eax, DWORD PTR tv129[ebp]
  00c1d	50		 push	 eax
  00c1e	e8 00 00 00 00	 call	 ?ClearDir@YL_DirInfo@@SA_NABV?$basic_string@DU?$char_traits@D@std@@V?$allocator@D@2@@std@@0@Z ; YL_DirInfo::ClearDir
  00c23	83 c4 08	 add	 esp, 8
  00c26	88 45 b7	 mov	 BYTE PTR $T88211[ebp], al
  00c29	c6 45 fc 02	 mov	 BYTE PTR __$EHRec$[ebp+8], 2
  00c2d	8d 8d 7c ff ff
	ff		 lea	 ecx, DWORD PTR $T88213[ebp]
  00c33	ff 15 00 00 00
	00		 call	 DWORD PTR __imp_??1?$basic_string@DU?$char_traits@D@std@@V?$allocator@D@2@@std@@QAE@XZ
  00c39	c7 45 fc ff ff
	ff ff		 mov	 DWORD PTR __$EHRec$[ebp+8], -1
  00c40	8d 4d 98	 lea	 ecx, DWORD PTR $T88212[ebp]
  00c43	ff 15 00 00 00
	00		 call	 DWORD PTR __imp_??1?$basic_string@DU?$char_traits@D@std@@V?$allocator@D@2@@std@@QAE@XZ
  00c49	8a 45 b7	 mov	 al, BYTE PTR $T88211[ebp]
$L83374:

; 237  : 	}
; 238  : }

  00c4c	8b 4d f4	 mov	 ecx, DWORD PTR __$EHRec$[ebp]
  00c4f	64 89 0d 00 00
	00 00		 mov	 DWORD PTR fs:__except_list, ecx
  00c56	8b e5		 mov	 esp, ebp
  00c58	5d		 pop	 ebp
  00c59	c3		 ret	 0
_TEXT	ENDS
text$x	SEGMENT
$L88214:
  000de	8d 4d d4	 lea	 ecx, DWORD PTR $T88209[ebp]
  000e1	ff 25 00 00 00
	00		 jmp	 DWORD PTR __imp_??1?$basic_string@DU?$char_traits@D@std@@V?$allocator@D@2@@std@@QAE@XZ
$L88215:
  000e7	8d 4d b8	 lea	 ecx, DWORD PTR $T88210[ebp]
  000ea	ff 25 00 00 00
	00		 jmp	 DWORD PTR __imp_??1?$basic_string@DU?$char_traits@D@std@@V?$allocator@D@2@@std@@QAE@XZ
$L88216:
  000f0	8d 4d 98	 lea	 ecx, DWORD PTR $T88212[ebp]
  000f3	ff 25 00 00 00
	00		 jmp	 DWORD PTR __imp_??1?$basic_string@DU?$char_traits@D@std@@V?$allocator@D@2@@std@@QAE@XZ
$L88217:
  000f9	8d 8d 7c ff ff
	ff		 lea	 ecx, DWORD PTR $T88213[ebp]
  000ff	ff 25 00 00 00
	00		 jmp	 DWORD PTR __imp_??1?$basic_string@DU?$char_traits@D@std@@V?$allocator@D@2@@std@@QAE@XZ
__ehhandler$?ClearDir@YL_DirInfo@@SA_NPBD0@Z:
  00105	b8 00 00 00 00	 mov	 eax, OFFSET FLAT:$T88219
  0010a	e9 00 00 00 00	 jmp	 ___CxxFrameHandler
text$x	ENDS
?ClearDir@YL_DirInfo@@SA_NPBD0@Z ENDP			; YL_DirInfo::ClearDir
PUBLIC	??$?HDU?$char_traits@D@std@@V?$allocator@D@1@@std@@YA?AV?$basic_string@DU?$char_traits@D@std@@V?$allocator@D@2@@0@ABV10@PBD@Z ; std::operator+<char,std::char_traits<char>,std::allocator<char> >
EXTRN	_strcmp:NEAR
EXTRN	_strlen:NEAR
EXTRN	__imp__strstr:NEAR
EXTRN	__imp__RemoveDirectoryA@4:NEAR
EXTRN	__imp__GetFileAttributesA@4:NEAR
EXTRN	__imp__FindNextFileA@8:NEAR
xdata$x	SEGMENT
$T88239	DD	0ffffffffH
	DD	FLAT:$L88231
	DD	00H
	DD	FLAT:$L88232
	DD	00H
	DD	FLAT:$L88233
	DD	02H
	DD	FLAT:$L88234
	DD	00H
	DD	FLAT:$L88234
$T88236	DD	019930520H
	DD	05H
	DD	FLAT:$T88239
	DD	2 DUP(00H)
	DD	2 DUP(00H)
; Function compile flags: /Odt
xdata$x	ENDS
_TEXT	SEGMENT
tv188 = -488						; size = 4
tv196 = -484						; size = 4
tv185 = -480						; size = 4
tv65 = -476						; size = 4
$T88230 = -472						; size = 1
$T88229 = -471						; size = 1
$T88228 = -470						; size = 1
$T88227 = -469						; size = 1
$T88226 = -468						; size = 28
$T88225 = -437						; size = 1
$T88224 = -436						; size = 28
_pTmp$83417 = -408					; size = 4
_strFileName$83407 = -404				; size = 28
_dwFlags$83411 = -376					; size = 4
_hFind$ = -372						; size = 4
_dir$ = -368						; size = 28
_FindFileData$ = -340					; size = 320
__$ArrayPad$ = -16					; size = 4
__$EHRec$ = -12						; size = 12
__$ReturnAddr$ = 4					; size = 4
_strDirName$ = 8					; size = 4
_strExe$ = 12						; size = 4
?ClearDir@YL_DirInfo@@SA_NABV?$basic_string@DU?$char_traits@D@std@@V?$allocator@D@2@@std@@0@Z PROC NEAR ; YL_DirInfo::ClearDir

; 241  : {

  00c60	55		 push	 ebp
  00c61	8b ec		 mov	 ebp, esp
  00c63	6a ff		 push	 -1
  00c65	68 00 00 00 00	 push	 __ehhandler$?ClearDir@YL_DirInfo@@SA_NABV?$basic_string@DU?$char_traits@D@std@@V?$allocator@D@2@@std@@0@Z
  00c6a	64 a1 00 00 00
	00		 mov	 eax, DWORD PTR fs:__except_list
  00c70	50		 push	 eax
  00c71	64 89 25 00 00
	00 00		 mov	 DWORD PTR fs:__except_list, esp
  00c78	81 ec dc 01 00
	00		 sub	 esp, 476		; 000001dcH
  00c7e	a1 00 00 00 00	 mov	 eax, DWORD PTR ___security_cookie
  00c83	89 45 f0	 mov	 DWORD PTR __$ArrayPad$[ebp], eax
  00c86	56		 push	 esi

; 242  : 	WIN32_FIND_DATA FindFileData;
; 243  : 	HANDLE hFind = INVALID_HANDLE_VALUE;

  00c87	c7 85 8c fe ff
	ff ff ff ff ff	 mov	 DWORD PTR _hFind$[ebp], -1

; 244  : 	string dir;

  00c91	8d 8d 90 fe ff
	ff		 lea	 ecx, DWORD PTR _dir$[ebp]
  00c97	ff 15 00 00 00
	00		 call	 DWORD PTR __imp_??0?$basic_string@DU?$char_traits@D@std@@V?$allocator@D@2@@std@@QAE@XZ
  00c9d	c7 45 fc 00 00
	00 00		 mov	 DWORD PTR __$EHRec$[ebp+8], 0

; 245  : 	
; 246  : 	dir = strDirName + "\\*";	

  00ca4	68 00 00 00 00	 push	 OFFSET FLAT:$SG83395
  00ca9	8b 45 08	 mov	 eax, DWORD PTR _strDirName$[ebp]
  00cac	50		 push	 eax
  00cad	8d 8d 4c fe ff
	ff		 lea	 ecx, DWORD PTR $T88224[ebp]
  00cb3	51		 push	 ecx
  00cb4	e8 00 00 00 00	 call	 ??$?HDU?$char_traits@D@std@@V?$allocator@D@1@@std@@YA?AV?$basic_string@DU?$char_traits@D@std@@V?$allocator@D@2@@0@ABV10@PBD@Z ; std::operator+<char,std::char_traits<char>,std::allocator<char> >
  00cb9	83 c4 0c	 add	 esp, 12			; 0000000cH
  00cbc	89 85 24 fe ff
	ff		 mov	 DWORD PTR tv65[ebp], eax
  00cc2	8b 95 24 fe ff
	ff		 mov	 edx, DWORD PTR tv65[ebp]
  00cc8	89 95 20 fe ff
	ff		 mov	 DWORD PTR tv185[ebp], edx
  00cce	c6 45 fc 01	 mov	 BYTE PTR __$EHRec$[ebp+8], 1
  00cd2	8b 85 20 fe ff
	ff		 mov	 eax, DWORD PTR tv185[ebp]
  00cd8	50		 push	 eax
  00cd9	8d 8d 90 fe ff
	ff		 lea	 ecx, DWORD PTR _dir$[ebp]
  00cdf	ff 15 00 00 00
	00		 call	 DWORD PTR __imp_??4?$basic_string@DU?$char_traits@D@std@@V?$allocator@D@2@@std@@QAEAAV01@ABV01@@Z
  00ce5	c6 45 fc 00	 mov	 BYTE PTR __$EHRec$[ebp+8], 0
  00ce9	8d 8d 4c fe ff
	ff		 lea	 ecx, DWORD PTR $T88224[ebp]
  00cef	ff 15 00 00 00
	00		 call	 DWORD PTR __imp_??1?$basic_string@DU?$char_traits@D@std@@V?$allocator@D@2@@std@@QAE@XZ

; 247  : 
; 248  : 	hFind = FindFirstFile(dir.c_str(), &FindFileData);

  00cf5	8d 8d ac fe ff
	ff		 lea	 ecx, DWORD PTR _FindFileData$[ebp]
  00cfb	51		 push	 ecx
  00cfc	8d 8d 90 fe ff
	ff		 lea	 ecx, DWORD PTR _dir$[ebp]
  00d02	ff 15 00 00 00
	00		 call	 DWORD PTR __imp_?c_str@?$basic_string@DU?$char_traits@D@std@@V?$allocator@D@2@@std@@QBEPBDXZ
  00d08	50		 push	 eax
  00d09	ff 15 00 00 00
	00		 call	 DWORD PTR __imp__FindFirstFileA@8
  00d0f	89 85 8c fe ff
	ff		 mov	 DWORD PTR _hFind$[ebp], eax

; 249  : 
; 250  : 	if(hFind == INVALID_HANDLE_VALUE)

  00d15	83 bd 8c fe ff
	ff ff		 cmp	 DWORD PTR _hFind$[ebp], -1
  00d1c	75 25		 jne	 SHORT $L83400

; 251  : 	{
; 252  : 		return false;

  00d1e	c6 85 4b fe ff
	ff 00		 mov	 BYTE PTR $T88225[ebp], 0
  00d25	c7 45 fc ff ff
	ff ff		 mov	 DWORD PTR __$EHRec$[ebp+8], -1
  00d2c	8d 8d 90 fe ff
	ff		 lea	 ecx, DWORD PTR _dir$[ebp]
  00d32	ff 15 00 00 00
	00		 call	 DWORD PTR __imp_??1?$basic_string@DU?$char_traits@D@std@@V?$allocator@D@2@@std@@QAE@XZ
  00d38	8a 85 4b fe ff
	ff		 mov	 al, BYTE PTR $T88225[ebp]
  00d3e	e9 9f 02 00 00	 jmp	 $L83388
$L83400:

; 253  : 	}
; 254  : 
; 255  : 	do{
; 256  : 		if(strcmp(FindFileData.cFileName, ".") != 0 &&	strcmp(FindFileData.cFileName, "..") != 0 )

  00d43	68 00 00 00 00	 push	 OFFSET FLAT:$SG83404
  00d48	8d 95 d8 fe ff
	ff		 lea	 edx, DWORD PTR _FindFileData$[ebp+44]
  00d4e	52		 push	 edx
  00d4f	e8 00 00 00 00	 call	 _strcmp
  00d54	83 c4 08	 add	 esp, 8
  00d57	85 c0		 test	 eax, eax
  00d59	0f 84 04 02 00
	00		 je	 $L83401
  00d5f	68 00 00 00 00	 push	 OFFSET FLAT:$SG83405
  00d64	8d 85 d8 fe ff
	ff		 lea	 eax, DWORD PTR _FindFileData$[ebp+44]
  00d6a	50		 push	 eax
  00d6b	e8 00 00 00 00	 call	 _strcmp
  00d70	83 c4 08	 add	 esp, 8
  00d73	85 c0		 test	 eax, eax
  00d75	0f 84 e8 01 00
	00		 je	 $L83401

; 257  : 		{
; 258  : 			if(FindFileData.dwFileAttributes & FILE_ATTRIBUTE_DIRECTORY)

  00d7b	8b 8d ac fe ff
	ff		 mov	 ecx, DWORD PTR _FindFileData$[ebp]
  00d81	83 e1 10	 and	 ecx, 16			; 00000010H
  00d84	74 05		 je	 SHORT $L83406

; 259  : 			{
; 260  : 				continue;

  00d86	e9 d8 01 00 00	 jmp	 $L83401
$L83406:

; 261  : 			}
; 262  : 
; 263  : 			string strFileName = strDirName + "\\" + FindFileData.cFileName;

  00d8b	68 00 00 00 00	 push	 OFFSET FLAT:$SG83410
  00d90	8b 55 08	 mov	 edx, DWORD PTR _strDirName$[ebp]
  00d93	52		 push	 edx
  00d94	8d 85 2c fe ff
	ff		 lea	 eax, DWORD PTR $T88226[ebp]
  00d9a	50		 push	 eax
  00d9b	e8 00 00 00 00	 call	 ??$?HDU?$char_traits@D@std@@V?$allocator@D@1@@std@@YA?AV?$basic_string@DU?$char_traits@D@std@@V?$allocator@D@2@@0@ABV10@PBD@Z ; std::operator+<char,std::char_traits<char>,std::allocator<char> >
  00da0	83 c4 0c	 add	 esp, 12			; 0000000cH
  00da3	89 85 1c fe ff
	ff		 mov	 DWORD PTR tv196[ebp], eax
  00da9	8b 8d 1c fe ff
	ff		 mov	 ecx, DWORD PTR tv196[ebp]
  00daf	89 8d 18 fe ff
	ff		 mov	 DWORD PTR tv188[ebp], ecx
  00db5	c6 45 fc 02	 mov	 BYTE PTR __$EHRec$[ebp+8], 2
  00db9	8d 95 d8 fe ff
	ff		 lea	 edx, DWORD PTR _FindFileData$[ebp+44]
  00dbf	52		 push	 edx
  00dc0	8b 85 18 fe ff
	ff		 mov	 eax, DWORD PTR tv188[ebp]
  00dc6	50		 push	 eax
  00dc7	8d 8d 6c fe ff
	ff		 lea	 ecx, DWORD PTR _strFileName$83407[ebp]
  00dcd	51		 push	 ecx
  00dce	e8 00 00 00 00	 call	 ??$?HDU?$char_traits@D@std@@V?$allocator@D@1@@std@@YA?AV?$basic_string@DU?$char_traits@D@std@@V?$allocator@D@2@@0@ABV10@PBD@Z ; std::operator+<char,std::char_traits<char>,std::allocator<char> >
  00dd3	83 c4 0c	 add	 esp, 12			; 0000000cH
  00dd6	c6 45 fc 04	 mov	 BYTE PTR __$EHRec$[ebp+8], 4
  00dda	8d 8d 2c fe ff
	ff		 lea	 ecx, DWORD PTR $T88226[ebp]
  00de0	ff 15 00 00 00
	00		 call	 DWORD PTR __imp_??1?$basic_string@DU?$char_traits@D@std@@V?$allocator@D@2@@std@@QAE@XZ

; 264  : 
; 265  : 			DWORD dwFlags = GetFileAttributes (strFileName.c_str ());

  00de6	8d 8d 6c fe ff
	ff		 lea	 ecx, DWORD PTR _strFileName$83407[ebp]
  00dec	ff 15 00 00 00
	00		 call	 DWORD PTR __imp_?c_str@?$basic_string@DU?$char_traits@D@std@@V?$allocator@D@2@@std@@QBEPBDXZ
  00df2	50		 push	 eax
  00df3	ff 15 00 00 00
	00		 call	 DWORD PTR __imp__GetFileAttributesA@4
  00df9	89 85 88 fe ff
	ff		 mov	 DWORD PTR _dwFlags$83411[ebp], eax

; 266  : 			dwFlags &= ~FILE_ATTRIBUTE_READONLY;

  00dff	8b 95 88 fe ff
	ff		 mov	 edx, DWORD PTR _dwFlags$83411[ebp]
  00e05	83 e2 fe	 and	 edx, -2			; fffffffeH
  00e08	89 95 88 fe ff
	ff		 mov	 DWORD PTR _dwFlags$83411[ebp], edx

; 267  : 			SetFileAttributes (strFileName.c_str (), dwFlags);

  00e0e	8b 85 88 fe ff
	ff		 mov	 eax, DWORD PTR _dwFlags$83411[ebp]
  00e14	50		 push	 eax
  00e15	8d 8d 6c fe ff
	ff		 lea	 ecx, DWORD PTR _strFileName$83407[ebp]
  00e1b	ff 15 00 00 00
	00		 call	 DWORD PTR __imp_?c_str@?$basic_string@DU?$char_traits@D@std@@V?$allocator@D@2@@std@@QBEPBDXZ
  00e21	50		 push	 eax
  00e22	ff 15 00 00 00
	00		 call	 DWORD PTR __imp__SetFileAttributesA@8

; 268  : 
; 269  : 			if( strExe == "")

  00e28	68 00 00 00 00	 push	 OFFSET FLAT:$SG83413
  00e2d	8b 4d 0c	 mov	 ecx, DWORD PTR _strExe$[ebp]
  00e30	51		 push	 ecx
  00e31	ff 15 00 00 00
	00		 call	 DWORD PTR __imp_??$?8DU?$char_traits@D@std@@V?$allocator@D@1@@std@@YA_NABV?$basic_string@DU?$char_traits@D@std@@V?$allocator@D@2@@0@PBD@Z
  00e37	83 c4 08	 add	 esp, 8
  00e3a	0f b6 d0	 movzx	 edx, al
  00e3d	85 d2		 test	 edx, edx
  00e3f	74 5e		 je	 SHORT $L83412

; 270  : 			{
; 271  : 				if( ::DeleteFile(strFileName.c_str()) == 0 )

  00e41	8d 8d 6c fe ff
	ff		 lea	 ecx, DWORD PTR _strFileName$83407[ebp]
  00e47	ff 15 00 00 00
	00		 call	 DWORD PTR __imp_?c_str@?$basic_string@DU?$char_traits@D@std@@V?$allocator@D@2@@std@@QBEPBDXZ
  00e4d	50		 push	 eax
  00e4e	ff 15 00 00 00
	00		 call	 DWORD PTR __imp__DeleteFileA@4
  00e54	85 c0		 test	 eax, eax
  00e56	75 42		 jne	 SHORT $L83414

; 272  : 				{
; 273  : 					FindClose( hFind );

  00e58	8b 85 8c fe ff
	ff		 mov	 eax, DWORD PTR _hFind$[ebp]
  00e5e	50		 push	 eax
  00e5f	ff 15 00 00 00
	00		 call	 DWORD PTR __imp__FindClose@4

; 274  : 					return false;

  00e65	c6 85 2b fe ff
	ff 00		 mov	 BYTE PTR $T88227[ebp], 0
  00e6c	c6 45 fc 00	 mov	 BYTE PTR __$EHRec$[ebp+8], 0
  00e70	8d 8d 6c fe ff
	ff		 lea	 ecx, DWORD PTR _strFileName$83407[ebp]
  00e76	ff 15 00 00 00
	00		 call	 DWORD PTR __imp_??1?$basic_string@DU?$char_traits@D@std@@V?$allocator@D@2@@std@@QAE@XZ
  00e7c	c7 45 fc ff ff
	ff ff		 mov	 DWORD PTR __$EHRec$[ebp+8], -1
  00e83	8d 8d 90 fe ff
	ff		 lea	 ecx, DWORD PTR _dir$[ebp]
  00e89	ff 15 00 00 00
	00		 call	 DWORD PTR __imp_??1?$basic_string@DU?$char_traits@D@std@@V?$allocator@D@2@@std@@QAE@XZ
  00e8f	8a 85 2b fe ff
	ff		 mov	 al, BYTE PTR $T88227[ebp]
  00e95	e9 48 01 00 00	 jmp	 $L83388
$L83414:

; 275  : 				}
; 276  : 			}
; 277  : 			else 

  00e9a	e9 b4 00 00 00	 jmp	 $L83416
$L83412:

; 278  : 			{
; 279  : 				char* pTmp = strstr(FindFileData.cFileName,strExe.c_str());

  00e9f	8b 4d 0c	 mov	 ecx, DWORD PTR _strExe$[ebp]
  00ea2	ff 15 00 00 00
	00		 call	 DWORD PTR __imp_?c_str@?$basic_string@DU?$char_traits@D@std@@V?$allocator@D@2@@std@@QBEPBDXZ
  00ea8	50		 push	 eax
  00ea9	8d 8d d8 fe ff
	ff		 lea	 ecx, DWORD PTR _FindFileData$[ebp+44]
  00eaf	51		 push	 ecx
  00eb0	ff 15 00 00 00
	00		 call	 DWORD PTR __imp__strstr
  00eb6	83 c4 08	 add	 esp, 8
  00eb9	89 85 68 fe ff
	ff		 mov	 DWORD PTR _pTmp$83417[ebp], eax

; 280  : 				if( pTmp != NULL && 
; 281  : 					( strlen( FindFileData.cFileName) - (pTmp - FindFileData.cFileName) ) == strExe.length() )

  00ebf	83 bd 68 fe ff
	ff 00		 cmp	 DWORD PTR _pTmp$83417[ebp], 0
  00ec6	0f 84 87 00 00
	00		 je	 $L83416
  00ecc	8d 95 d8 fe ff
	ff		 lea	 edx, DWORD PTR _FindFileData$[ebp+44]
  00ed2	52		 push	 edx
  00ed3	e8 00 00 00 00	 call	 _strlen
  00ed8	83 c4 04	 add	 esp, 4
  00edb	8b f0		 mov	 esi, eax
  00edd	8b 85 68 fe ff
	ff		 mov	 eax, DWORD PTR _pTmp$83417[ebp]
  00ee3	8d 8d d8 fe ff
	ff		 lea	 ecx, DWORD PTR _FindFileData$[ebp+44]
  00ee9	2b c1		 sub	 eax, ecx
  00eeb	2b f0		 sub	 esi, eax
  00eed	8b 4d 0c	 mov	 ecx, DWORD PTR _strExe$[ebp]
  00ef0	ff 15 00 00 00
	00		 call	 DWORD PTR __imp_?length@?$basic_string@DU?$char_traits@D@std@@V?$allocator@D@2@@std@@QBEIXZ
  00ef6	3b f0		 cmp	 esi, eax
  00ef8	75 59		 jne	 SHORT $L83416

; 282  : 				{
; 283  : 					if( ::DeleteFile(strFileName.c_str()) == 0 )

  00efa	8d 8d 6c fe ff
	ff		 lea	 ecx, DWORD PTR _strFileName$83407[ebp]
  00f00	ff 15 00 00 00
	00		 call	 DWORD PTR __imp_?c_str@?$basic_string@DU?$char_traits@D@std@@V?$allocator@D@2@@std@@QBEPBDXZ
  00f06	50		 push	 eax
  00f07	ff 15 00 00 00
	00		 call	 DWORD PTR __imp__DeleteFileA@4
  00f0d	85 c0		 test	 eax, eax
  00f0f	75 42		 jne	 SHORT $L83416

; 284  : 					{
; 285  : 						FindClose( hFind );

  00f11	8b 95 8c fe ff
	ff		 mov	 edx, DWORD PTR _hFind$[ebp]
  00f17	52		 push	 edx
  00f18	ff 15 00 00 00
	00		 call	 DWORD PTR __imp__FindClose@4

; 286  : 						return false;

  00f1e	c6 85 2a fe ff
	ff 00		 mov	 BYTE PTR $T88228[ebp], 0
  00f25	c6 45 fc 00	 mov	 BYTE PTR __$EHRec$[ebp+8], 0
  00f29	8d 8d 6c fe ff
	ff		 lea	 ecx, DWORD PTR _strFileName$83407[ebp]
  00f2f	ff 15 00 00 00
	00		 call	 DWORD PTR __imp_??1?$basic_string@DU?$char_traits@D@std@@V?$allocator@D@2@@std@@QAE@XZ
  00f35	c7 45 fc ff ff
	ff ff		 mov	 DWORD PTR __$EHRec$[ebp+8], -1
  00f3c	8d 8d 90 fe ff
	ff		 lea	 ecx, DWORD PTR _dir$[ebp]
  00f42	ff 15 00 00 00
	00		 call	 DWORD PTR __imp_??1?$basic_string@DU?$char_traits@D@std@@V?$allocator@D@2@@std@@QAE@XZ
  00f48	8a 85 2a fe ff
	ff		 mov	 al, BYTE PTR $T88228[ebp]
  00f4e	e9 8f 00 00 00	 jmp	 $L83388
$L83416:

; 287  : 					}
; 288  : 				}
; 289  : 			}
; 290  : 			
; 291  : 		}

  00f53	c6 45 fc 00	 mov	 BYTE PTR __$EHRec$[ebp+8], 0
  00f57	8d 8d 6c fe ff
	ff		 lea	 ecx, DWORD PTR _strFileName$83407[ebp]
  00f5d	ff 15 00 00 00
	00		 call	 DWORD PTR __imp_??1?$basic_string@DU?$char_traits@D@std@@V?$allocator@D@2@@std@@QAE@XZ
$L83401:

; 292  : 	}while(FindNextFile(hFind, &FindFileData));

  00f63	8d 85 ac fe ff
	ff		 lea	 eax, DWORD PTR _FindFileData$[ebp]
  00f69	50		 push	 eax
  00f6a	8b 8d 8c fe ff
	ff		 mov	 ecx, DWORD PTR _hFind$[ebp]
  00f70	51		 push	 ecx
  00f71	ff 15 00 00 00
	00		 call	 DWORD PTR __imp__FindNextFileA@8
  00f77	85 c0		 test	 eax, eax
  00f79	0f 85 c4 fd ff
	ff		 jne	 $L83400

; 293  : 	
; 294  : 	FindClose( hFind );	

  00f7f	8b 95 8c fe ff
	ff		 mov	 edx, DWORD PTR _hFind$[ebp]
  00f85	52		 push	 edx
  00f86	ff 15 00 00 00
	00		 call	 DWORD PTR __imp__FindClose@4

; 295  : 
; 296  : 	if(::RemoveDirectory(strDirName.c_str()) == FALSE)

  00f8c	8b 4d 08	 mov	 ecx, DWORD PTR _strDirName$[ebp]
  00f8f	ff 15 00 00 00
	00		 call	 DWORD PTR __imp_?c_str@?$basic_string@DU?$char_traits@D@std@@V?$allocator@D@2@@std@@QBEPBDXZ
  00f95	50		 push	 eax
  00f96	ff 15 00 00 00
	00		 call	 DWORD PTR __imp__RemoveDirectoryA@4
  00f9c	85 c0		 test	 eax, eax
  00f9e	75 22		 jne	 SHORT $L83421

; 297  : 	{
; 298  : 		return false;

  00fa0	c6 85 29 fe ff
	ff 00		 mov	 BYTE PTR $T88229[ebp], 0
  00fa7	c7 45 fc ff ff
	ff ff		 mov	 DWORD PTR __$EHRec$[ebp+8], -1
  00fae	8d 8d 90 fe ff
	ff		 lea	 ecx, DWORD PTR _dir$[ebp]
  00fb4	ff 15 00 00 00
	00		 call	 DWORD PTR __imp_??1?$basic_string@DU?$char_traits@D@std@@V?$allocator@D@2@@std@@QAE@XZ
  00fba	8a 85 29 fe ff
	ff		 mov	 al, BYTE PTR $T88229[ebp]
  00fc0	eb 20		 jmp	 SHORT $L83388
$L83421:

; 299  : 	}
; 300  : 	return true;

  00fc2	c6 85 28 fe ff
	ff 01		 mov	 BYTE PTR $T88230[ebp], 1
  00fc9	c7 45 fc ff ff
	ff ff		 mov	 DWORD PTR __$EHRec$[ebp+8], -1
  00fd0	8d 8d 90 fe ff
	ff		 lea	 ecx, DWORD PTR _dir$[ebp]
  00fd6	ff 15 00 00 00
	00		 call	 DWORD PTR __imp_??1?$basic_string@DU?$char_traits@D@std@@V?$allocator@D@2@@std@@QAE@XZ
  00fdc	8a 85 28 fe ff
	ff		 mov	 al, BYTE PTR $T88230[ebp]
$L83388:

; 301  : }

  00fe2	8b 4d f4	 mov	 ecx, DWORD PTR __$EHRec$[ebp]
  00fe5	64 89 0d 00 00
	00 00		 mov	 DWORD PTR fs:__except_list, ecx
  00fec	8b 4d f0	 mov	 ecx, DWORD PTR __$ArrayPad$[ebp]
  00fef	e8 00 00 00 00	 call	 @__security_check_cookie@4
  00ff4	5e		 pop	 esi
  00ff5	8b e5		 mov	 esp, ebp
  00ff7	5d		 pop	 ebp
  00ff8	c3		 ret	 0
_TEXT	ENDS
text$x	SEGMENT
$L88231:
  0010f	8d 8d 90 fe ff
	ff		 lea	 ecx, DWORD PTR _dir$[ebp]
  00115	ff 25 00 00 00
	00		 jmp	 DWORD PTR __imp_??1?$basic_string@DU?$char_traits@D@std@@V?$allocator@D@2@@std@@QAE@XZ
$L88232:
  0011b	8d 8d 4c fe ff
	ff		 lea	 ecx, DWORD PTR $T88224[ebp]
  00121	ff 25 00 00 00
	00		 jmp	 DWORD PTR __imp_??1?$basic_string@DU?$char_traits@D@std@@V?$allocator@D@2@@std@@QAE@XZ
$L88233:
  00127	8d 8d 2c fe ff
	ff		 lea	 ecx, DWORD PTR $T88226[ebp]
  0012d	ff 25 00 00 00
	00		 jmp	 DWORD PTR __imp_??1?$basic_string@DU?$char_traits@D@std@@V?$allocator@D@2@@std@@QAE@XZ
$L88234:
  00133	8d 8d 6c fe ff
	ff		 lea	 ecx, DWORD PTR _strFileName$83407[ebp]
  00139	ff 25 00 00 00
	00		 jmp	 DWORD PTR __imp_??1?$basic_string@DU?$char_traits@D@std@@V?$allocator@D@2@@std@@QAE@XZ
__ehhandler$?ClearDir@YL_DirInfo@@SA_NABV?$basic_string@DU?$char_traits@D@std@@V?$allocator@D@2@@std@@0@Z:
  0013f	b8 00 00 00 00	 mov	 eax, OFFSET FLAT:$T88236
  00144	e9 00 00 00 00	 jmp	 ___CxxFrameHandler
text$x	ENDS
?ClearDir@YL_DirInfo@@SA_NABV?$basic_string@DU?$char_traits@D@std@@V?$allocator@D@2@@std@@0@Z ENDP ; YL_DirInfo::ClearDir
PUBLIC	??A?$vector@V?$basic_string@DU?$char_traits@D@std@@V?$allocator@D@2@@std@@V?$allocator@V?$basic_string@DU?$char_traits@D@std@@V?$allocator@D@2@@std@@@2@@std@@QBEABV?$basic_string@DU?$char_traits@D@std@@V?$allocator@D@2@@1@I@Z ; std::vector<std::basic_string<char,std::char_traits<char>,std::allocator<char> >,std::allocator<std::basic_string<char,std::char_traits<char>,std::allocator<char> > > >::operator[]
EXTRN	?Str2Lower@YL_StringUtil@@SAXAAV?$basic_string@DU?$char_traits@D@std@@V?$allocator@D@2@@std@@@Z:NEAR ; YL_StringUtil::Str2Lower
EXTRN	__imp_??0?$basic_string@DU?$char_traits@D@std@@V?$allocator@D@2@@std@@QAE@ABV01@@Z:NEAR
xdata$x	SEGMENT
$T88272	DD	0ffffffffH
	DD	FLAT:$L88255
	DD	00H
	DD	FLAT:$L88256
	DD	00H
	DD	FLAT:$L88257
	DD	00H
	DD	FLAT:$L88258
	DD	03H
	DD	FLAT:$L88259
	DD	00H
	DD	FLAT:$L88260
	DD	05H
	DD	FLAT:$L88261
	DD	06H
	DD	FLAT:$L88262
	DD	07H
	DD	FLAT:$L88263
	DD	00H
	DD	FLAT:$L88264
	DD	09H
	DD	FLAT:$L88265
	DD	00H
	DD	FLAT:$L88266
	DD	0bH
	DD	FLAT:$L88267
$T88269	DD	019930520H
	DD	0dH
	DD	FLAT:$T88272
	DD	2 DUP(00H)
	DD	2 DUP(00H)
; Function compile flags: /Odt
xdata$x	ENDS
_TEXT	SEGMENT
tv277 = -804						; size = 4
tv285 = -800						; size = 4
tv275 = -796						; size = 4
tv284 = -792						; size = 4
tv273 = -788						; size = 4
tv283 = -784						; size = 4
tv271 = -780						; size = 4
tv282 = -776						; size = 4
tv269 = -772						; size = 4
tv151 = -768						; size = 4
tv267 = -764						; size = 4
tv156 = -760						; size = 4
tv263 = -756						; size = 4
tv281 = -752						; size = 4
tv261 = -748						; size = 4
tv280 = -744						; size = 4
tv258 = -740						; size = 4
tv279 = -736						; size = 4
tv256 = -732						; size = 4
tv65 = -728						; size = 4
$T88254 = -721						; size = 1
$T88253 = -720						; size = 28
$T88252 = -692						; size = 28
$T88251 = -661						; size = 1
$T88250 = -660						; size = 28
$T88249 = -632						; size = 28
$T88248 = -604						; size = 28
$T88247 = -576						; size = 28
$T88246 = -548						; size = 28
$T88245 = -520						; size = 28
$T88244 = -489						; size = 1
$T88243 = -488						; size = 28
$T88242 = -460						; size = 28
_pTmp$83463 = -432					; size = 4
_idx$83459 = -428					; size = 4
_strName$83457 = -424					; size = 28
_strExe$83458 = -396					; size = 28
_hFind$ = -368						; size = 4
_FindFileData$ = -364					; size = 320
_strDirName$ = -44					; size = 28
__$ArrayPad$ = -16					; size = 4
__$EHRec$ = -12						; size = 12
__$ReturnAddr$ = 4					; size = 4
_strDirNameSrc$ = 8					; size = 4
_pvecDir$ = 12						; size = 4
_pvecFile$ = 16						; size = 4
_bRecursion$ = 20					; size = 1
_vFileExe$ = 24						; size = 4
?FindFileAndDir@YL_DirInfo@@SA_NABV?$basic_string@DU?$char_traits@D@std@@V?$allocator@D@2@@std@@PAV?$vector@V?$basic_string@DU?$char_traits@D@std@@V?$allocator@D@2@@std@@V?$allocator@V?$basic_string@DU?$char_traits@D@std@@V?$allocator@D@2@@std@@@2@@3@1_NPBV43@@Z PROC NEAR ; YL_DirInfo::FindFileAndDir

; 304  : {

  01000	55		 push	 ebp
  01001	8b ec		 mov	 ebp, esp
  01003	6a ff		 push	 -1
  01005	68 00 00 00 00	 push	 __ehhandler$?FindFileAndDir@YL_DirInfo@@SA_NABV?$basic_string@DU?$char_traits@D@std@@V?$allocator@D@2@@std@@PAV?$vector@V?$basic_string@DU?$char_traits@D@std@@V?$allocator@D@2@@std@@V?$allocator@V?$basic_string@DU?$char_traits@D@std@@V?$allocator@D@2@@std@@@2@@3@1_NPBV43@@Z
  0100a	64 a1 00 00 00
	00		 mov	 eax, DWORD PTR fs:__except_list
  01010	50		 push	 eax
  01011	64 89 25 00 00
	00 00		 mov	 DWORD PTR fs:__except_list, esp
  01018	81 ec 18 03 00
	00		 sub	 esp, 792		; 00000318H
  0101e	a1 00 00 00 00	 mov	 eax, DWORD PTR ___security_cookie
  01023	89 45 f0	 mov	 DWORD PTR __$ArrayPad$[ebp], eax
  01026	56		 push	 esi

; 305  : 	WIN32_FIND_DATA FindFileData;
; 306  : 	HANDLE hFind = INVALID_HANDLE_VALUE;

  01027	c7 85 90 fe ff
	ff ff ff ff ff	 mov	 DWORD PTR _hFind$[ebp], -1

; 307  : 	string strDirName = strDirNameSrc;

  01031	8b 45 08	 mov	 eax, DWORD PTR _strDirNameSrc$[ebp]
  01034	50		 push	 eax
  01035	8d 4d d4	 lea	 ecx, DWORD PTR _strDirName$[ebp]
  01038	ff 15 00 00 00
	00		 call	 DWORD PTR __imp_??0?$basic_string@DU?$char_traits@D@std@@V?$allocator@D@2@@std@@QAE@ABV01@@Z
  0103e	c7 45 fc 00 00
	00 00		 mov	 DWORD PTR __$EHRec$[ebp+8], 0

; 308  : 	if( strDirName.find_last_of("\\") == strDirName.length()-1)

  01045	8b 0d 00 00 00
	00		 mov	 ecx, DWORD PTR __imp_?npos@?$basic_string@DU?$char_traits@D@std@@V?$allocator@D@2@@std@@2IB
  0104b	8b 11		 mov	 edx, DWORD PTR [ecx]
  0104d	52		 push	 edx
  0104e	68 00 00 00 00	 push	 OFFSET FLAT:$SG83440
  01053	8d 4d d4	 lea	 ecx, DWORD PTR _strDirName$[ebp]
  01056	ff 15 00 00 00
	00		 call	 DWORD PTR __imp_?find_last_of@?$basic_string@DU?$char_traits@D@std@@V?$allocator@D@2@@std@@QBEIPBDI@Z
  0105c	8b f0		 mov	 esi, eax
  0105e	8d 4d d4	 lea	 ecx, DWORD PTR _strDirName$[ebp]
  01061	ff 15 00 00 00
	00		 call	 DWORD PTR __imp_?length@?$basic_string@DU?$char_traits@D@std@@V?$allocator@D@2@@std@@QBEIXZ
  01067	83 e8 01	 sub	 eax, 1
  0106a	3b f0		 cmp	 esi, eax
  0106c	75 55		 jne	 SHORT $L83439

; 309  : 	{
; 310  : 		strDirName = strDirName.substr(0,strDirName.length()-1);

  0106e	8d 4d d4	 lea	 ecx, DWORD PTR _strDirName$[ebp]
  01071	ff 15 00 00 00
	00		 call	 DWORD PTR __imp_?length@?$basic_string@DU?$char_traits@D@std@@V?$allocator@D@2@@std@@QBEIXZ
  01077	83 e8 01	 sub	 eax, 1
  0107a	50		 push	 eax
  0107b	6a 00		 push	 0
  0107d	8d 85 34 fe ff
	ff		 lea	 eax, DWORD PTR $T88242[ebp]
  01083	50		 push	 eax
  01084	8d 4d d4	 lea	 ecx, DWORD PTR _strDirName$[ebp]
  01087	ff 15 00 00 00
	00		 call	 DWORD PTR __imp_?substr@?$basic_string@DU?$char_traits@D@std@@V?$allocator@D@2@@std@@QBE?AV12@II@Z
  0108d	89 85 28 fd ff
	ff		 mov	 DWORD PTR tv65[ebp], eax
  01093	8b 8d 28 fd ff
	ff		 mov	 ecx, DWORD PTR tv65[ebp]
  01099	89 8d 24 fd ff
	ff		 mov	 DWORD PTR tv256[ebp], ecx
  0109f	c6 45 fc 01	 mov	 BYTE PTR __$EHRec$[ebp+8], 1
  010a3	8b 95 24 fd ff
	ff		 mov	 edx, DWORD PTR tv256[ebp]
  010a9	52		 push	 edx
  010aa	8d 4d d4	 lea	 ecx, DWORD PTR _strDirName$[ebp]
  010ad	ff 15 00 00 00
	00		 call	 DWORD PTR __imp_??4?$basic_string@DU?$char_traits@D@std@@V?$allocator@D@2@@std@@QAEAAV01@ABV01@@Z
  010b3	c6 45 fc 00	 mov	 BYTE PTR __$EHRec$[ebp+8], 0
  010b7	8d 8d 34 fe ff
	ff		 lea	 ecx, DWORD PTR $T88242[ebp]
  010bd	ff 15 00 00 00
	00		 call	 DWORD PTR __imp_??1?$basic_string@DU?$char_traits@D@std@@V?$allocator@D@2@@std@@QAE@XZ
$L83439:

; 311  : 	}
; 312  : 
; 313  : 	//find a file	
; 314  : 	hFind = FindFirstFile((strDirName + "\\*").c_str(), &FindFileData);	

  010c3	68 00 00 00 00	 push	 OFFSET FLAT:$SG83443
  010c8	8d 45 d4	 lea	 eax, DWORD PTR _strDirName$[ebp]
  010cb	50		 push	 eax
  010cc	8d 8d 18 fe ff
	ff		 lea	 ecx, DWORD PTR $T88243[ebp]
  010d2	51		 push	 ecx
  010d3	e8 00 00 00 00	 call	 ??$?HDU?$char_traits@D@std@@V?$allocator@D@1@@std@@YA?AV?$basic_string@DU?$char_traits@D@std@@V?$allocator@D@2@@0@ABV10@PBD@Z ; std::operator+<char,std::char_traits<char>,std::allocator<char> >
  010d8	83 c4 0c	 add	 esp, 12			; 0000000cH
  010db	89 85 20 fd ff
	ff		 mov	 DWORD PTR tv279[ebp], eax
  010e1	8b 95 20 fd ff
	ff		 mov	 edx, DWORD PTR tv279[ebp]
  010e7	89 95 1c fd ff
	ff		 mov	 DWORD PTR tv258[ebp], edx
  010ed	c6 45 fc 02	 mov	 BYTE PTR __$EHRec$[ebp+8], 2
  010f1	8d 85 94 fe ff
	ff		 lea	 eax, DWORD PTR _FindFileData$[ebp]
  010f7	50		 push	 eax
  010f8	8b 8d 1c fd ff
	ff		 mov	 ecx, DWORD PTR tv258[ebp]
  010fe	ff 15 00 00 00
	00		 call	 DWORD PTR __imp_?c_str@?$basic_string@DU?$char_traits@D@std@@V?$allocator@D@2@@std@@QBEPBDXZ
  01104	50		 push	 eax
  01105	ff 15 00 00 00
	00		 call	 DWORD PTR __imp__FindFirstFileA@8
  0110b	89 85 90 fe ff
	ff		 mov	 DWORD PTR _hFind$[ebp], eax
  01111	c6 45 fc 00	 mov	 BYTE PTR __$EHRec$[ebp+8], 0
  01115	8d 8d 18 fe ff
	ff		 lea	 ecx, DWORD PTR $T88243[ebp]
  0111b	ff 15 00 00 00
	00		 call	 DWORD PTR __imp_??1?$basic_string@DU?$char_traits@D@std@@V?$allocator@D@2@@std@@QAE@XZ

; 315  : 
; 316  : 	if(hFind == INVALID_HANDLE_VALUE)

  01121	83 bd 90 fe ff
	ff ff		 cmp	 DWORD PTR _hFind$[ebp], -1
  01128	75 22		 jne	 SHORT $L83448

; 317  : 	{
; 318  : 		return false;

  0112a	c6 85 17 fe ff
	ff 00		 mov	 BYTE PTR $T88244[ebp], 0
  01131	c7 45 fc ff ff
	ff ff		 mov	 DWORD PTR __$EHRec$[ebp+8], -1
  01138	8d 4d d4	 lea	 ecx, DWORD PTR _strDirName$[ebp]
  0113b	ff 15 00 00 00
	00		 call	 DWORD PTR __imp_??1?$basic_string@DU?$char_traits@D@std@@V?$allocator@D@2@@std@@QAE@XZ
  01141	8a 85 17 fe ff
	ff		 mov	 al, BYTE PTR $T88244[ebp]
  01147	e9 46 04 00 00	 jmp	 $L83433
$L83448:

; 319  : 	}
; 320  : 	//find all files and dirs
; 321  : 	do{
; 322  : 		if (!(FindFileData.dwFileAttributes & FILE_ATTRIBUTE_DIRECTORY) && pvecFile  )

  0114c	8b 8d 94 fe ff
	ff		 mov	 ecx, DWORD PTR _FindFileData$[ebp]
  01152	83 e1 10	 and	 ecx, 16			; 00000010H
  01155	0f 85 55 02 00
	00		 jne	 $L83451
  0115b	83 7d 10 00	 cmp	 DWORD PTR _pvecFile$[ebp], 0
  0115f	0f 84 4b 02 00
	00		 je	 $L83451

; 323  : 		{
; 324  : 			if( vFileExe == NULL )

  01165	83 7d 18 00	 cmp	 DWORD PTR _vFileExe$[ebp], 0
  01169	0f 85 95 00 00
	00		 jne	 $L83452

; 325  : 			{
; 326  : 				(*pvecFile).push_back(strDirName + "\\" + FindFileData.cFileName);

  0116f	68 00 00 00 00	 push	 OFFSET FLAT:$SG83455
  01174	8d 55 d4	 lea	 edx, DWORD PTR _strDirName$[ebp]
  01177	52		 push	 edx
  01178	8d 85 f8 fd ff
	ff		 lea	 eax, DWORD PTR $T88245[ebp]
  0117e	50		 push	 eax
  0117f	e8 00 00 00 00	 call	 ??$?HDU?$char_traits@D@std@@V?$allocator@D@1@@std@@YA?AV?$basic_string@DU?$char_traits@D@std@@V?$allocator@D@2@@0@ABV10@PBD@Z ; std::operator+<char,std::char_traits<char>,std::allocator<char> >
  01184	83 c4 0c	 add	 esp, 12			; 0000000cH
  01187	89 85 18 fd ff
	ff		 mov	 DWORD PTR tv280[ebp], eax
  0118d	8b 8d 18 fd ff
	ff		 mov	 ecx, DWORD PTR tv280[ebp]
  01193	89 8d 14 fd ff
	ff		 mov	 DWORD PTR tv261[ebp], ecx
  01199	c6 45 fc 03	 mov	 BYTE PTR __$EHRec$[ebp+8], 3
  0119d	8d 95 c0 fe ff
	ff		 lea	 edx, DWORD PTR _FindFileData$[ebp+44]
  011a3	52		 push	 edx
  011a4	8b 85 14 fd ff
	ff		 mov	 eax, DWORD PTR tv261[ebp]
  011aa	50		 push	 eax
  011ab	8d 8d dc fd ff
	ff		 lea	 ecx, DWORD PTR $T88246[ebp]
  011b1	51		 push	 ecx
  011b2	e8 00 00 00 00	 call	 ??$?HDU?$char_traits@D@std@@V?$allocator@D@1@@std@@YA?AV?$basic_string@DU?$char_traits@D@std@@V?$allocator@D@2@@0@ABV10@PBD@Z ; std::operator+<char,std::char_traits<char>,std::allocator<char> >
  011b7	83 c4 0c	 add	 esp, 12			; 0000000cH
  011ba	89 85 10 fd ff
	ff		 mov	 DWORD PTR tv281[ebp], eax
  011c0	8b 95 10 fd ff
	ff		 mov	 edx, DWORD PTR tv281[ebp]
  011c6	89 95 0c fd ff
	ff		 mov	 DWORD PTR tv263[ebp], edx
  011cc	c6 45 fc 04	 mov	 BYTE PTR __$EHRec$[ebp+8], 4
  011d0	8b 85 0c fd ff
	ff		 mov	 eax, DWORD PTR tv263[ebp]
  011d6	50		 push	 eax
  011d7	8b 4d 10	 mov	 ecx, DWORD PTR _pvecFile$[ebp]
  011da	e8 00 00 00 00	 call	 ?push_back@?$vector@V?$basic_string@DU?$char_traits@D@std@@V?$allocator@D@2@@std@@V?$allocator@V?$basic_string@DU?$char_traits@D@std@@V?$allocator@D@2@@std@@@2@@std@@QAEXABV?$basic_string@DU?$char_traits@D@std@@V?$allocator@D@2@@2@@Z ; std::vector<std::basic_string<char,std::char_traits<char>,std::allocator<char> >,std::allocator<std::basic_string<char,std::char_traits<char>,std::allocator<char> > > >::push_back
  011df	c6 45 fc 03	 mov	 BYTE PTR __$EHRec$[ebp+8], 3
  011e3	8d 8d dc fd ff
	ff		 lea	 ecx, DWORD PTR $T88246[ebp]
  011e9	ff 15 00 00 00
	00		 call	 DWORD PTR __imp_??1?$basic_string@DU?$char_traits@D@std@@V?$allocator@D@2@@std@@QAE@XZ
  011ef	c6 45 fc 00	 mov	 BYTE PTR __$EHRec$[ebp+8], 0
  011f3	8d 8d f8 fd ff
	ff		 lea	 ecx, DWORD PTR $T88245[ebp]
  011f9	ff 15 00 00 00
	00		 call	 DWORD PTR __imp_??1?$basic_string@DU?$char_traits@D@std@@V?$allocator@D@2@@std@@QAE@XZ

; 327  : 			}
; 328  : 			else 

  011ff	e9 a7 01 00 00	 jmp	 $L83456
$L83452:

; 329  : 			{
; 330  : 				string strName = FindFileData.cFileName;

  01204	8d 8d c0 fe ff
	ff		 lea	 ecx, DWORD PTR _FindFileData$[ebp+44]
  0120a	51		 push	 ecx
  0120b	8d 8d 58 fe ff
	ff		 lea	 ecx, DWORD PTR _strName$83457[ebp]
  01211	ff 15 00 00 00
	00		 call	 DWORD PTR __imp_??0?$basic_string@DU?$char_traits@D@std@@V?$allocator@D@2@@std@@QAE@PBD@Z
  01217	c6 45 fc 05	 mov	 BYTE PTR __$EHRec$[ebp+8], 5

; 331  : 				YL_StringUtil::Str2Lower( strName );

  0121b	8d 95 58 fe ff
	ff		 lea	 edx, DWORD PTR _strName$83457[ebp]
  01221	52		 push	 edx
  01222	e8 00 00 00 00	 call	 ?Str2Lower@YL_StringUtil@@SAXAAV?$basic_string@DU?$char_traits@D@std@@V?$allocator@D@2@@std@@@Z ; YL_StringUtil::Str2Lower
  01227	83 c4 04	 add	 esp, 4

; 332  : 				string strExe;

  0122a	8d 8d 74 fe ff
	ff		 lea	 ecx, DWORD PTR _strExe$83458[ebp]
  01230	ff 15 00 00 00
	00		 call	 DWORD PTR __imp_??0?$basic_string@DU?$char_traits@D@std@@V?$allocator@D@2@@std@@QAE@XZ
  01236	c6 45 fc 06	 mov	 BYTE PTR __$EHRec$[ebp+8], 6

; 333  : 
; 334  : 				for(size_t idx = 0;idx < vFileExe->size();idx++ )

  0123a	c7 85 54 fe ff
	ff 00 00 00 00	 mov	 DWORD PTR _idx$83459[ebp], 0
  01244	eb 0f		 jmp	 SHORT $L83460
$L83461:
  01246	8b 85 54 fe ff
	ff		 mov	 eax, DWORD PTR _idx$83459[ebp]
  0124c	83 c0 01	 add	 eax, 1
  0124f	89 85 54 fe ff
	ff		 mov	 DWORD PTR _idx$83459[ebp], eax
$L83460:
  01255	8b 4d 18	 mov	 ecx, DWORD PTR _vFileExe$[ebp]
  01258	e8 00 00 00 00	 call	 ?size@?$vector@V?$basic_string@DU?$char_traits@D@std@@V?$allocator@D@2@@std@@V?$allocator@V?$basic_string@DU?$char_traits@D@std@@V?$allocator@D@2@@std@@@2@@std@@QBEIXZ ; std::vector<std::basic_string<char,std::char_traits<char>,std::allocator<char> >,std::allocator<std::basic_string<char,std::char_traits<char>,std::allocator<char> > > >::size
  0125d	39 85 54 fe ff
	ff		 cmp	 DWORD PTR _idx$83459[ebp], eax
  01263	0f 83 22 01 00
	00		 jae	 $L83462

; 335  : 				{
; 336  : 					strExe = (*vFileExe)[idx];

  01269	8b 8d 54 fe ff
	ff		 mov	 ecx, DWORD PTR _idx$83459[ebp]
  0126f	51		 push	 ecx
  01270	8b 4d 18	 mov	 ecx, DWORD PTR _vFileExe$[ebp]
  01273	e8 00 00 00 00	 call	 ??A?$vector@V?$basic_string@DU?$char_traits@D@std@@V?$allocator@D@2@@std@@V?$allocator@V?$basic_string@DU?$char_traits@D@std@@V?$allocator@D@2@@std@@@2@@std@@QBEABV?$basic_string@DU?$char_traits@D@std@@V?$allocator@D@2@@1@I@Z ; std::vector<std::basic_string<char,std::char_traits<char>,std::allocator<char> >,std::allocator<std::basic_string<char,std::char_traits<char>,std::allocator<char> > > >::operator[]
  01278	50		 push	 eax
  01279	8d 8d 74 fe ff
	ff		 lea	 ecx, DWORD PTR _strExe$83458[ebp]
  0127f	ff 15 00 00 00
	00		 call	 DWORD PTR __imp_??4?$basic_string@DU?$char_traits@D@std@@V?$allocator@D@2@@std@@QAEAAV01@ABV01@@Z

; 337  : 					char* pTmp = (char*)strstr( strName.c_str(),strExe.c_str());

  01285	8d 8d 74 fe ff
	ff		 lea	 ecx, DWORD PTR _strExe$83458[ebp]
  0128b	ff 15 00 00 00
	00		 call	 DWORD PTR __imp_?c_str@?$basic_string@DU?$char_traits@D@std@@V?$allocator@D@2@@std@@QBEPBDXZ
  01291	50		 push	 eax
  01292	8d 8d 58 fe ff
	ff		 lea	 ecx, DWORD PTR _strName$83457[ebp]
  01298	ff 15 00 00 00
	00		 call	 DWORD PTR __imp_?c_str@?$basic_string@DU?$char_traits@D@std@@V?$allocator@D@2@@std@@QBEPBDXZ
  0129e	50		 push	 eax
  0129f	ff 15 00 00 00
	00		 call	 DWORD PTR __imp__strstr
  012a5	83 c4 08	 add	 esp, 8
  012a8	89 85 50 fe ff
	ff		 mov	 DWORD PTR _pTmp$83463[ebp], eax

; 338  : 					if( pTmp != NULL && 
; 339  : 						( strlen( FindFileData.cFileName) - (pTmp - strName.c_str()) ) == strExe.length() )

  012ae	83 bd 50 fe ff
	ff 00		 cmp	 DWORD PTR _pTmp$83463[ebp], 0
  012b5	0f 84 cb 00 00
	00		 je	 $L83465
  012bb	8d 95 c0 fe ff
	ff		 lea	 edx, DWORD PTR _FindFileData$[ebp+44]
  012c1	52		 push	 edx
  012c2	e8 00 00 00 00	 call	 _strlen
  012c7	83 c4 04	 add	 esp, 4
  012ca	8b f0		 mov	 esi, eax
  012cc	8d 8d 58 fe ff
	ff		 lea	 ecx, DWORD PTR _strName$83457[ebp]
  012d2	ff 15 00 00 00
	00		 call	 DWORD PTR __imp_?c_str@?$basic_string@DU?$char_traits@D@std@@V?$allocator@D@2@@std@@QBEPBDXZ
  012d8	8b 8d 50 fe ff
	ff		 mov	 ecx, DWORD PTR _pTmp$83463[ebp]
  012de	2b c8		 sub	 ecx, eax
  012e0	2b f1		 sub	 esi, ecx
  012e2	8d 8d 74 fe ff
	ff		 lea	 ecx, DWORD PTR _strExe$83458[ebp]
  012e8	ff 15 00 00 00
	00		 call	 DWORD PTR __imp_?length@?$basic_string@DU?$char_traits@D@std@@V?$allocator@D@2@@std@@QBEIXZ
  012ee	3b f0		 cmp	 esi, eax
  012f0	0f 85 90 00 00
	00		 jne	 $L83465

; 340  : 					{
; 341  : 						(*pvecFile).push_back(strDirName + "\\" + FindFileData.cFileName);

  012f6	68 00 00 00 00	 push	 OFFSET FLAT:$SG83468
  012fb	8d 55 d4	 lea	 edx, DWORD PTR _strDirName$[ebp]
  012fe	52		 push	 edx
  012ff	8d 85 c0 fd ff
	ff		 lea	 eax, DWORD PTR $T88247[ebp]
  01305	50		 push	 eax
  01306	e8 00 00 00 00	 call	 ??$?HDU?$char_traits@D@std@@V?$allocator@D@1@@std@@YA?AV?$basic_string@DU?$char_traits@D@std@@V?$allocator@D@2@@0@ABV10@PBD@Z ; std::operator+<char,std::char_traits<char>,std::allocator<char> >
  0130b	83 c4 0c	 add	 esp, 12			; 0000000cH
  0130e	89 85 08 fd ff
	ff		 mov	 DWORD PTR tv156[ebp], eax
  01314	8b 8d 08 fd ff
	ff		 mov	 ecx, DWORD PTR tv156[ebp]
  0131a	89 8d 04 fd ff
	ff		 mov	 DWORD PTR tv267[ebp], ecx
  01320	c6 45 fc 07	 mov	 BYTE PTR __$EHRec$[ebp+8], 7
  01324	8d 95 c0 fe ff
	ff		 lea	 edx, DWORD PTR _FindFileData$[ebp+44]
  0132a	52		 push	 edx
  0132b	8b 85 04 fd ff
	ff		 mov	 eax, DWORD PTR tv267[ebp]
  01331	50		 push	 eax
  01332	8d 8d a4 fd ff
	ff		 lea	 ecx, DWORD PTR $T88248[ebp]
  01338	51		 push	 ecx
  01339	e8 00 00 00 00	 call	 ??$?HDU?$char_traits@D@std@@V?$allocator@D@1@@std@@YA?AV?$basic_string@DU?$char_traits@D@std@@V?$allocator@D@2@@0@ABV10@PBD@Z ; std::operator+<char,std::char_traits<char>,std::allocator<char> >
  0133e	83 c4 0c	 add	 esp, 12			; 0000000cH
  01341	89 85 00 fd ff
	ff		 mov	 DWORD PTR tv151[ebp], eax
  01347	8b 95 00 fd ff
	ff		 mov	 edx, DWORD PTR tv151[ebp]
  0134d	89 95 fc fc ff
	ff		 mov	 DWORD PTR tv269[ebp], edx
  01353	c6 45 fc 08	 mov	 BYTE PTR __$EHRec$[ebp+8], 8
  01357	8b 85 fc fc ff
	ff		 mov	 eax, DWORD PTR tv269[ebp]
  0135d	50		 push	 eax
  0135e	8b 4d 10	 mov	 ecx, DWORD PTR _pvecFile$[ebp]
  01361	e8 00 00 00 00	 call	 ?push_back@?$vector@V?$basic_string@DU?$char_traits@D@std@@V?$allocator@D@2@@std@@V?$allocator@V?$basic_string@DU?$char_traits@D@std@@V?$allocator@D@2@@std@@@2@@std@@QAEXABV?$basic_string@DU?$char_traits@D@std@@V?$allocator@D@2@@2@@Z ; std::vector<std::basic_string<char,std::char_traits<char>,std::allocator<char> >,std::allocator<std::basic_string<char,std::char_traits<char>,std::allocator<char> > > >::push_back
  01366	c6 45 fc 07	 mov	 BYTE PTR __$EHRec$[ebp+8], 7
  0136a	8d 8d a4 fd ff
	ff		 lea	 ecx, DWORD PTR $T88248[ebp]
  01370	ff 15 00 00 00
	00		 call	 DWORD PTR __imp_??1?$basic_string@DU?$char_traits@D@std@@V?$allocator@D@2@@std@@QAE@XZ
  01376	c6 45 fc 06	 mov	 BYTE PTR __$EHRec$[ebp+8], 6
  0137a	8d 8d c0 fd ff
	ff		 lea	 ecx, DWORD PTR $T88247[ebp]
  01380	ff 15 00 00 00
	00		 call	 DWORD PTR __imp_??1?$basic_string@DU?$char_traits@D@std@@V?$allocator@D@2@@std@@QAE@XZ
$L83465:

; 342  : 					}
; 343  : 				}

  01386	e9 bb fe ff ff	 jmp	 $L83461
$L83462:

; 344  : 			}

  0138b	c6 45 fc 05	 mov	 BYTE PTR __$EHRec$[ebp+8], 5
  0138f	8d 8d 74 fe ff
	ff		 lea	 ecx, DWORD PTR _strExe$83458[ebp]
  01395	ff 15 00 00 00
	00		 call	 DWORD PTR __imp_??1?$basic_string@DU?$char_traits@D@std@@V?$allocator@D@2@@std@@QAE@XZ
  0139b	c6 45 fc 00	 mov	 BYTE PTR __$EHRec$[ebp+8], 0
  0139f	8d 8d 58 fe ff
	ff		 lea	 ecx, DWORD PTR _strName$83457[ebp]
  013a5	ff 15 00 00 00
	00		 call	 DWORD PTR __imp_??1?$basic_string@DU?$char_traits@D@std@@V?$allocator@D@2@@std@@QAE@XZ
$L83456:

; 345  : 		}
; 346  : 		else

  013ab	e9 9b 01 00 00	 jmp	 $L83449
$L83451:

; 347  : 		{
; 348  : 			if (strcmp(FindFileData.cFileName,".") != 0 && strcmp(FindFileData.cFileName,"..") != 0 && FindFileData.dwFileAttributes & FILE_ATTRIBUTE_DIRECTORY )			

  013b0	68 00 00 00 00	 push	 OFFSET FLAT:$SG83471
  013b5	8d 8d c0 fe ff
	ff		 lea	 ecx, DWORD PTR _FindFileData$[ebp+44]
  013bb	51		 push	 ecx
  013bc	e8 00 00 00 00	 call	 _strcmp
  013c1	83 c4 08	 add	 esp, 8
  013c4	85 c0		 test	 eax, eax
  013c6	0f 84 7f 01 00
	00		 je	 $L83449
  013cc	68 00 00 00 00	 push	 OFFSET FLAT:$SG83472
  013d1	8d 95 c0 fe ff
	ff		 lea	 edx, DWORD PTR _FindFileData$[ebp+44]
  013d7	52		 push	 edx
  013d8	e8 00 00 00 00	 call	 _strcmp
  013dd	83 c4 08	 add	 esp, 8
  013e0	85 c0		 test	 eax, eax
  013e2	0f 84 63 01 00
	00		 je	 $L83449
  013e8	8b 85 94 fe ff
	ff		 mov	 eax, DWORD PTR _FindFileData$[ebp]
  013ee	83 e0 10	 and	 eax, 16			; 00000010H
  013f1	0f 84 54 01 00
	00		 je	 $L83449

; 349  : 			{
; 350  : 				if( pvecDir )

  013f7	83 7d 0c 00	 cmp	 DWORD PTR _pvecDir$[ebp], 0
  013fb	0f 84 90 00 00
	00		 je	 $L83473

; 351  : 				{
; 352  : 					(*pvecDir).push_back(strDirName + "\\" + FindFileData.cFileName);				

  01401	68 00 00 00 00	 push	 OFFSET FLAT:$SG83476
  01406	8d 4d d4	 lea	 ecx, DWORD PTR _strDirName$[ebp]
  01409	51		 push	 ecx
  0140a	8d 95 88 fd ff
	ff		 lea	 edx, DWORD PTR $T88249[ebp]
  01410	52		 push	 edx
  01411	e8 00 00 00 00	 call	 ??$?HDU?$char_traits@D@std@@V?$allocator@D@1@@std@@YA?AV?$basic_string@DU?$char_traits@D@std@@V?$allocator@D@2@@0@ABV10@PBD@Z ; std::operator+<char,std::char_traits<char>,std::allocator<char> >
  01416	83 c4 0c	 add	 esp, 12			; 0000000cH
  01419	89 85 f8 fc ff
	ff		 mov	 DWORD PTR tv282[ebp], eax
  0141f	8b 85 f8 fc ff
	ff		 mov	 eax, DWORD PTR tv282[ebp]
  01425	89 85 f4 fc ff
	ff		 mov	 DWORD PTR tv271[ebp], eax
  0142b	c6 45 fc 09	 mov	 BYTE PTR __$EHRec$[ebp+8], 9
  0142f	8d 8d c0 fe ff
	ff		 lea	 ecx, DWORD PTR _FindFileData$[ebp+44]
  01435	51		 push	 ecx
  01436	8b 95 f4 fc ff
	ff		 mov	 edx, DWORD PTR tv271[ebp]
  0143c	52		 push	 edx
  0143d	8d 85 6c fd ff
	ff		 lea	 eax, DWORD PTR $T88250[ebp]
  01443	50		 push	 eax
  01444	e8 00 00 00 00	 call	 ??$?HDU?$char_traits@D@std@@V?$allocator@D@1@@std@@YA?AV?$basic_string@DU?$char_traits@D@std@@V?$allocator@D@2@@0@ABV10@PBD@Z ; std::operator+<char,std::char_traits<char>,std::allocator<char> >
  01449	83 c4 0c	 add	 esp, 12			; 0000000cH
  0144c	89 85 f0 fc ff
	ff		 mov	 DWORD PTR tv283[ebp], eax
  01452	8b 8d f0 fc ff
	ff		 mov	 ecx, DWORD PTR tv283[ebp]
  01458	89 8d ec fc ff
	ff		 mov	 DWORD PTR tv273[ebp], ecx
  0145e	c6 45 fc 0a	 mov	 BYTE PTR __$EHRec$[ebp+8], 10 ; 0000000aH
  01462	8b 95 ec fc ff
	ff		 mov	 edx, DWORD PTR tv273[ebp]
  01468	52		 push	 edx
  01469	8b 4d 0c	 mov	 ecx, DWORD PTR _pvecDir$[ebp]
  0146c	e8 00 00 00 00	 call	 ?push_back@?$vector@V?$basic_string@DU?$char_traits@D@std@@V?$allocator@D@2@@std@@V?$allocator@V?$basic_string@DU?$char_traits@D@std@@V?$allocator@D@2@@std@@@2@@std@@QAEXABV?$basic_string@DU?$char_traits@D@std@@V?$allocator@D@2@@2@@Z ; std::vector<std::basic_string<char,std::char_traits<char>,std::allocator<char> >,std::allocator<std::basic_string<char,std::char_traits<char>,std::allocator<char> > > >::push_back
  01471	c6 45 fc 09	 mov	 BYTE PTR __$EHRec$[ebp+8], 9
  01475	8d 8d 6c fd ff
	ff		 lea	 ecx, DWORD PTR $T88250[ebp]
  0147b	ff 15 00 00 00
	00		 call	 DWORD PTR __imp_??1?$basic_string@DU?$char_traits@D@std@@V?$allocator@D@2@@std@@QAE@XZ
  01481	c6 45 fc 00	 mov	 BYTE PTR __$EHRec$[ebp+8], 0
  01485	8d 8d 88 fd ff
	ff		 lea	 ecx, DWORD PTR $T88249[ebp]
  0148b	ff 15 00 00 00
	00		 call	 DWORD PTR __imp_??1?$basic_string@DU?$char_traits@D@std@@V?$allocator@D@2@@std@@QAE@XZ
$L83473:

; 353  : 				}
; 354  : 
; 355  : 				if(bRecursion)

  01491	0f b6 45 14	 movzx	 eax, BYTE PTR _bRecursion$[ebp]
  01495	85 c0		 test	 eax, eax
  01497	0f 84 ae 00 00
	00		 je	 $L83449

; 356  : 				{
; 357  : 					if( !FindFileAndDir(strDirName + "\\" + FindFileData.cFileName, pvecDir,pvecFile, bRecursion, vFileExe) )

  0149d	68 00 00 00 00	 push	 OFFSET FLAT:$SG83482
  014a2	8d 4d d4	 lea	 ecx, DWORD PTR _strDirName$[ebp]
  014a5	51		 push	 ecx
  014a6	8d 95 4c fd ff
	ff		 lea	 edx, DWORD PTR $T88252[ebp]
  014ac	52		 push	 edx
  014ad	e8 00 00 00 00	 call	 ??$?HDU?$char_traits@D@std@@V?$allocator@D@1@@std@@YA?AV?$basic_string@DU?$char_traits@D@std@@V?$allocator@D@2@@0@ABV10@PBD@Z ; std::operator+<char,std::char_traits<char>,std::allocator<char> >
  014b2	83 c4 0c	 add	 esp, 12			; 0000000cH
  014b5	89 85 e8 fc ff
	ff		 mov	 DWORD PTR tv284[ebp], eax
  014bb	8b 85 e8 fc ff
	ff		 mov	 eax, DWORD PTR tv284[ebp]
  014c1	89 85 e4 fc ff
	ff		 mov	 DWORD PTR tv275[ebp], eax
  014c7	c6 45 fc 0b	 mov	 BYTE PTR __$EHRec$[ebp+8], 11 ; 0000000bH
  014cb	8d 8d c0 fe ff
	ff		 lea	 ecx, DWORD PTR _FindFileData$[ebp+44]
  014d1	51		 push	 ecx
  014d2	8b 95 e4 fc ff
	ff		 mov	 edx, DWORD PTR tv275[ebp]
  014d8	52		 push	 edx
  014d9	8d 85 30 fd ff
	ff		 lea	 eax, DWORD PTR $T88253[ebp]
  014df	50		 push	 eax
  014e0	e8 00 00 00 00	 call	 ??$?HDU?$char_traits@D@std@@V?$allocator@D@1@@std@@YA?AV?$basic_string@DU?$char_traits@D@std@@V?$allocator@D@2@@0@ABV10@PBD@Z ; std::operator+<char,std::char_traits<char>,std::allocator<char> >
  014e5	83 c4 0c	 add	 esp, 12			; 0000000cH
  014e8	89 85 e0 fc ff
	ff		 mov	 DWORD PTR tv285[ebp], eax
  014ee	8b 8d e0 fc ff
	ff		 mov	 ecx, DWORD PTR tv285[ebp]
  014f4	89 8d dc fc ff
	ff		 mov	 DWORD PTR tv277[ebp], ecx
  014fa	c6 45 fc 0c	 mov	 BYTE PTR __$EHRec$[ebp+8], 12 ; 0000000cH
  014fe	8b 55 18	 mov	 edx, DWORD PTR _vFileExe$[ebp]
  01501	52		 push	 edx
  01502	8a 45 14	 mov	 al, BYTE PTR _bRecursion$[ebp]
  01505	50		 push	 eax
  01506	8b 4d 10	 mov	 ecx, DWORD PTR _pvecFile$[ebp]
  01509	51		 push	 ecx
  0150a	8b 55 0c	 mov	 edx, DWORD PTR _pvecDir$[ebp]
  0150d	52		 push	 edx
  0150e	8b 85 dc fc ff
	ff		 mov	 eax, DWORD PTR tv277[ebp]
  01514	50		 push	 eax
  01515	e8 00 00 00 00	 call	 ?FindFileAndDir@YL_DirInfo@@SA_NABV?$basic_string@DU?$char_traits@D@std@@V?$allocator@D@2@@std@@PAV?$vector@V?$basic_string@DU?$char_traits@D@std@@V?$allocator@D@2@@std@@V?$allocator@V?$basic_string@DU?$char_traits@D@std@@V?$allocator@D@2@@std@@@2@@3@1_NPBV43@@Z ; YL_DirInfo::FindFileAndDir
  0151a	83 c4 14	 add	 esp, 20			; 00000014H
  0151d	0f b6 c8	 movzx	 ecx, al
  01520	f7 d9		 neg	 ecx
  01522	1b c9		 sbb	 ecx, ecx
  01524	41		 inc	 ecx
  01525	88 8d 6b fd ff
	ff		 mov	 BYTE PTR $T88251[ebp], cl
  0152b	c6 45 fc 0b	 mov	 BYTE PTR __$EHRec$[ebp+8], 11 ; 0000000bH
  0152f	8d 8d 30 fd ff
	ff		 lea	 ecx, DWORD PTR $T88253[ebp]
  01535	ff 15 00 00 00
	00		 call	 DWORD PTR __imp_??1?$basic_string@DU?$char_traits@D@std@@V?$allocator@D@2@@std@@QAE@XZ
  0153b	c6 45 fc 00	 mov	 BYTE PTR __$EHRec$[ebp+8], 0
  0153f	8d 8d 4c fd ff
	ff		 lea	 ecx, DWORD PTR $T88252[ebp]
  01545	ff 15 00 00 00
	00		 call	 DWORD PTR __imp_??1?$basic_string@DU?$char_traits@D@std@@V?$allocator@D@2@@std@@QAE@XZ
$L83449:

; 358  : 					{
; 359  : //						FindClose( hFind );
; 360  : //						return false;
; 361  : 					}
; 362  : 				}
; 363  : 			}
; 364  : 		}
; 365  : 	}while( FindNextFile(hFind, &FindFileData) == TRUE);

  0154b	8d 85 94 fe ff
	ff		 lea	 eax, DWORD PTR _FindFileData$[ebp]
  01551	50		 push	 eax
  01552	8b 8d 90 fe ff
	ff		 mov	 ecx, DWORD PTR _hFind$[ebp]
  01558	51		 push	 ecx
  01559	ff 15 00 00 00
	00		 call	 DWORD PTR __imp__FindNextFileA@8
  0155f	83 f8 01	 cmp	 eax, 1
  01562	0f 84 e4 fb ff
	ff		 je	 $L83448

; 366  : 
; 367  : 	FindClose( hFind );

  01568	8b 95 90 fe ff
	ff		 mov	 edx, DWORD PTR _hFind$[ebp]
  0156e	52		 push	 edx
  0156f	ff 15 00 00 00
	00		 call	 DWORD PTR __imp__FindClose@4

; 368  : 	return true;

  01575	c6 85 2f fd ff
	ff 01		 mov	 BYTE PTR $T88254[ebp], 1
  0157c	c7 45 fc ff ff
	ff ff		 mov	 DWORD PTR __$EHRec$[ebp+8], -1
  01583	8d 4d d4	 lea	 ecx, DWORD PTR _strDirName$[ebp]
  01586	ff 15 00 00 00
	00		 call	 DWORD PTR __imp_??1?$basic_string@DU?$char_traits@D@std@@V?$allocator@D@2@@std@@QAE@XZ
  0158c	8a 85 2f fd ff
	ff		 mov	 al, BYTE PTR $T88254[ebp]
$L83433:

; 369  : }

  01592	8b 4d f4	 mov	 ecx, DWORD PTR __$EHRec$[ebp]
  01595	64 89 0d 00 00
	00 00		 mov	 DWORD PTR fs:__except_list, ecx
  0159c	8b 4d f0	 mov	 ecx, DWORD PTR __$ArrayPad$[ebp]
  0159f	e8 00 00 00 00	 call	 @__security_check_cookie@4
  015a4	5e		 pop	 esi
  015a5	8b e5		 mov	 esp, ebp
  015a7	5d		 pop	 ebp
  015a8	c3		 ret	 0
_TEXT	ENDS
text$x	SEGMENT
$L88255:
  00149	8d 4d d4	 lea	 ecx, DWORD PTR _strDirName$[ebp]
  0014c	ff 25 00 00 00
	00		 jmp	 DWORD PTR __imp_??1?$basic_string@DU?$char_traits@D@std@@V?$allocator@D@2@@std@@QAE@XZ
$L88256:
  00152	8d 8d 34 fe ff
	ff		 lea	 ecx, DWORD PTR $T88242[ebp]
  00158	ff 25 00 00 00
	00		 jmp	 DWORD PTR __imp_??1?$basic_string@DU?$char_traits@D@std@@V?$allocator@D@2@@std@@QAE@XZ
$L88257:
  0015e	8d 8d 18 fe ff
	ff		 lea	 ecx, DWORD PTR $T88243[ebp]
  00164	ff 25 00 00 00
	00		 jmp	 DWORD PTR __imp_??1?$basic_string@DU?$char_traits@D@std@@V?$allocator@D@2@@std@@QAE@XZ
$L88258:
  0016a	8d 8d f8 fd ff
	ff		 lea	 ecx, DWORD PTR $T88245[ebp]
  00170	ff 25 00 00 00
	00		 jmp	 DWORD PTR __imp_??1?$basic_string@DU?$char_traits@D@std@@V?$allocator@D@2@@std@@QAE@XZ
$L88259:
  00176	8d 8d dc fd ff
	ff		 lea	 ecx, DWORD PTR $T88246[ebp]
  0017c	ff 25 00 00 00
	00		 jmp	 DWORD PTR __imp_??1?$basic_string@DU?$char_traits@D@std@@V?$allocator@D@2@@std@@QAE@XZ
$L88260:
  00182	8d 8d 58 fe ff
	ff		 lea	 ecx, DWORD PTR _strName$83457[ebp]
  00188	ff 25 00 00 00
	00		 jmp	 DWORD PTR __imp_??1?$basic_string@DU?$char_traits@D@std@@V?$allocator@D@2@@std@@QAE@XZ
$L88261:
  0018e	8d 8d 74 fe ff
	ff		 lea	 ecx, DWORD PTR _strExe$83458[ebp]
  00194	ff 25 00 00 00
	00		 jmp	 DWORD PTR __imp_??1?$basic_string@DU?$char_traits@D@std@@V?$allocator@D@2@@std@@QAE@XZ
$L88262:
  0019a	8d 8d c0 fd ff
	ff		 lea	 ecx, DWORD PTR $T88247[ebp]
  001a0	ff 25 00 00 00
	00		 jmp	 DWORD PTR __imp_??1?$basic_string@DU?$char_traits@D@std@@V?$allocator@D@2@@std@@QAE@XZ
$L88263:
  001a6	8d 8d a4 fd ff
	ff		 lea	 ecx, DWORD PTR $T88248[ebp]
  001ac	ff 25 00 00 00
	00		 jmp	 DWORD PTR __imp_??1?$basic_string@DU?$char_traits@D@std@@V?$allocator@D@2@@std@@QAE@XZ
$L88264:
  001b2	8d 8d 88 fd ff
	ff		 lea	 ecx, DWORD PTR $T88249[ebp]
  001b8	ff 25 00 00 00
	00		 jmp	 DWORD PTR __imp_??1?$basic_string@DU?$char_traits@D@std@@V?$allocator@D@2@@std@@QAE@XZ
$L88265:
  001be	8d 8d 6c fd ff
	ff		 lea	 ecx, DWORD PTR $T88250[ebp]
  001c4	ff 25 00 00 00
	00		 jmp	 DWORD PTR __imp_??1?$basic_string@DU?$char_traits@D@std@@V?$allocator@D@2@@std@@QAE@XZ
$L88266:
  001ca	8d 8d 4c fd ff
	ff		 lea	 ecx, DWORD PTR $T88252[ebp]
  001d0	ff 25 00 00 00
	00		 jmp	 DWORD PTR __imp_??1?$basic_string@DU?$char_traits@D@std@@V?$allocator@D@2@@std@@QAE@XZ
$L88267:
  001d6	8d 8d 30 fd ff
	ff		 lea	 ecx, DWORD PTR $T88253[ebp]
  001dc	ff 25 00 00 00
	00		 jmp	 DWORD PTR __imp_??1?$basic_string@DU?$char_traits@D@std@@V?$allocator@D@2@@std@@QAE@XZ
__ehhandler$?FindFileAndDir@YL_DirInfo@@SA_NABV?$basic_string@DU?$char_traits@D@std@@V?$allocator@D@2@@std@@PAV?$vector@V?$basic_string@DU?$char_traits@D@std@@V?$allocator@D@2@@std@@V?$allocator@V?$basic_string@DU?$char_traits@D@std@@V?$allocator@D@2@@std@@@2@@3@1_NPBV43@@Z:
  001e2	b8 00 00 00 00	 mov	 eax, OFFSET FLAT:$T88269
  001e7	e9 00 00 00 00	 jmp	 ___CxxFrameHandler
text$x	ENDS
?FindFileAndDir@YL_DirInfo@@SA_NABV?$basic_string@DU?$char_traits@D@std@@V?$allocator@D@2@@std@@PAV?$vector@V?$basic_string@DU?$char_traits@D@std@@V?$allocator@D@2@@std@@V?$allocator@V?$basic_string@DU?$char_traits@D@std@@V?$allocator@D@2@@std@@@2@@3@1_NPBV43@@Z ENDP ; YL_DirInfo::FindFileAndDir
PUBLIC	?GetSubDirNames@YL_DirInfo@@SAXABV?$basic_string@DU?$char_traits@D@std@@V?$allocator@D@2@@std@@AAV?$vector@V?$basic_string@DU?$char_traits@D@std@@V?$allocator@D@2@@std@@V?$allocator@V?$basic_string@DU?$char_traits@D@std@@V?$allocator@D@2@@std@@@2@@3@@Z ; YL_DirInfo::GetSubDirNames
xdata$x	SEGMENT
$T88283	DD	0ffffffffH
	DD	FLAT:$L88277
	DD	0ffffffffH
	DD	FLAT:$L88278
$T88280	DD	019930520H
	DD	02H
	DD	FLAT:$T88283
	DD	2 DUP(00H)
	DD	2 DUP(00H)
; Function compile flags: /Odt
xdata$x	ENDS
_TEXT	SEGMENT
tv130 = -408						; size = 4
tv132 = -404						; size = 4
$T88276 = -400						; size = 28
$T88275 = -372						; size = 28
_hFind$ = -344						; size = 4
_FindFileData$ = -340					; size = 320
__$ArrayPad$ = -16					; size = 4
__$EHRec$ = -12						; size = 12
__$ReturnAddr$ = 4					; size = 4
_dir$ = 8						; size = 4
_f$ = 12						; size = 4
?GetSubDirNames@YL_DirInfo@@SAXABV?$basic_string@DU?$char_traits@D@std@@V?$allocator@D@2@@std@@AAV?$vector@V?$basic_string@DU?$char_traits@D@std@@V?$allocator@D@2@@std@@V?$allocator@V?$basic_string@DU?$char_traits@D@std@@V?$allocator@D@2@@std@@@2@@3@@Z PROC NEAR ; YL_DirInfo::GetSubDirNames

; 372  : {

  015b0	55		 push	 ebp
  015b1	8b ec		 mov	 ebp, esp
  015b3	6a ff		 push	 -1
  015b5	68 00 00 00 00	 push	 __ehhandler$?GetSubDirNames@YL_DirInfo@@SAXABV?$basic_string@DU?$char_traits@D@std@@V?$allocator@D@2@@std@@AAV?$vector@V?$basic_string@DU?$char_traits@D@std@@V?$allocator@D@2@@std@@V?$allocator@V?$basic_string@DU?$char_traits@D@std@@V?$allocator@D@2@@std@@@2@@3@@Z
  015ba	64 a1 00 00 00
	00		 mov	 eax, DWORD PTR fs:__except_list
  015c0	50		 push	 eax
  015c1	64 89 25 00 00
	00 00		 mov	 DWORD PTR fs:__except_list, esp
  015c8	81 ec 8c 01 00
	00		 sub	 esp, 396		; 0000018cH
  015ce	a1 00 00 00 00	 mov	 eax, DWORD PTR ___security_cookie
  015d3	89 45 f0	 mov	 DWORD PTR __$ArrayPad$[ebp], eax

; 373  : 	WIN32_FIND_DATA FindFileData;
; 374  : 	HANDLE hFind = INVALID_HANDLE_VALUE;

  015d6	c7 85 a8 fe ff
	ff ff ff ff ff	 mov	 DWORD PTR _hFind$[ebp], -1

; 375  : 
; 376  : 	//find a file
; 377  : 	hFind = FindFirstFile((dir + "\\*").c_str(), &FindFileData);

  015e0	68 00 00 00 00	 push	 OFFSET FLAT:$SG83494
  015e5	8b 45 08	 mov	 eax, DWORD PTR _dir$[ebp]
  015e8	50		 push	 eax
  015e9	8d 8d 8c fe ff
	ff		 lea	 ecx, DWORD PTR $T88275[ebp]
  015ef	51		 push	 ecx
  015f0	e8 00 00 00 00	 call	 ??$?HDU?$char_traits@D@std@@V?$allocator@D@1@@std@@YA?AV?$basic_string@DU?$char_traits@D@std@@V?$allocator@D@2@@0@ABV10@PBD@Z ; std::operator+<char,std::char_traits<char>,std::allocator<char> >
  015f5	83 c4 0c	 add	 esp, 12			; 0000000cH
  015f8	89 85 6c fe ff
	ff		 mov	 DWORD PTR tv132[ebp], eax
  015fe	8b 95 6c fe ff
	ff		 mov	 edx, DWORD PTR tv132[ebp]
  01604	89 95 68 fe ff
	ff		 mov	 DWORD PTR tv130[ebp], edx
  0160a	c7 45 fc 00 00
	00 00		 mov	 DWORD PTR __$EHRec$[ebp+8], 0
  01611	8d 85 ac fe ff
	ff		 lea	 eax, DWORD PTR _FindFileData$[ebp]
  01617	50		 push	 eax
  01618	8b 8d 68 fe ff
	ff		 mov	 ecx, DWORD PTR tv130[ebp]
  0161e	ff 15 00 00 00
	00		 call	 DWORD PTR __imp_?c_str@?$basic_string@DU?$char_traits@D@std@@V?$allocator@D@2@@std@@QBEPBDXZ
  01624	50		 push	 eax
  01625	ff 15 00 00 00
	00		 call	 DWORD PTR __imp__FindFirstFileA@8
  0162b	89 85 a8 fe ff
	ff		 mov	 DWORD PTR _hFind$[ebp], eax
  01631	c7 45 fc ff ff
	ff ff		 mov	 DWORD PTR __$EHRec$[ebp+8], -1
  01638	8d 8d 8c fe ff
	ff		 lea	 ecx, DWORD PTR $T88275[ebp]
  0163e	ff 15 00 00 00
	00		 call	 DWORD PTR __imp_??1?$basic_string@DU?$char_traits@D@std@@V?$allocator@D@2@@std@@QAE@XZ

; 378  : 	if(hFind == INVALID_HANDLE_VALUE)

  01644	83 bd a8 fe ff
	ff ff		 cmp	 DWORD PTR _hFind$[ebp], -1
  0164b	75 05		 jne	 SHORT $L83498

; 379  : 	{
; 380  : 		return;

  0164d	e9 a1 00 00 00	 jmp	 $L83488
$L83498:

; 381  : 	}
; 382  : 	//find all files and dirs
; 383  : 	do{
; 384  : 		if (FindFileData.dwFileAttributes & FILE_ATTRIBUTE_DIRECTORY)

  01652	8b 8d ac fe ff
	ff		 mov	 ecx, DWORD PTR _FindFileData$[ebp]
  01658	83 e1 10	 and	 ecx, 16			; 00000010H
  0165b	74 6c		 je	 SHORT $L83499

; 385  : 		{
; 386  : 			if (strcmp(FindFileData.cFileName,".") != 0 && strcmp(FindFileData.cFileName,"..") != 0)			

  0165d	68 00 00 00 00	 push	 OFFSET FLAT:$SG83503
  01662	8d 95 d8 fe ff
	ff		 lea	 edx, DWORD PTR _FindFileData$[ebp+44]
  01668	52		 push	 edx
  01669	e8 00 00 00 00	 call	 _strcmp
  0166e	83 c4 08	 add	 esp, 8
  01671	85 c0		 test	 eax, eax
  01673	74 54		 je	 SHORT $L83499
  01675	68 00 00 00 00	 push	 OFFSET FLAT:$SG83504
  0167a	8d 85 d8 fe ff
	ff		 lea	 eax, DWORD PTR _FindFileData$[ebp+44]
  01680	50		 push	 eax
  01681	e8 00 00 00 00	 call	 _strcmp
  01686	83 c4 08	 add	 esp, 8
  01689	85 c0		 test	 eax, eax
  0168b	74 3c		 je	 SHORT $L83499

; 387  : 			{
; 388  : 				f.push_back(FindFileData.cFileName);

  0168d	8d 8d d8 fe ff
	ff		 lea	 ecx, DWORD PTR _FindFileData$[ebp+44]
  01693	51		 push	 ecx
  01694	8d 8d 70 fe ff
	ff		 lea	 ecx, DWORD PTR $T88276[ebp]
  0169a	ff 15 00 00 00
	00		 call	 DWORD PTR __imp_??0?$basic_string@DU?$char_traits@D@std@@V?$allocator@D@2@@std@@QAE@PBD@Z
  016a0	c7 45 fc 01 00
	00 00		 mov	 DWORD PTR __$EHRec$[ebp+8], 1
  016a7	8d 95 70 fe ff
	ff		 lea	 edx, DWORD PTR $T88276[ebp]
  016ad	52		 push	 edx
  016ae	8b 4d 0c	 mov	 ecx, DWORD PTR _f$[ebp]
  016b1	e8 00 00 00 00	 call	 ?push_back@?$vector@V?$basic_string@DU?$char_traits@D@std@@V?$allocator@D@2@@std@@V?$allocator@V?$basic_string@DU?$char_traits@D@std@@V?$allocator@D@2@@std@@@2@@std@@QAEXABV?$basic_string@DU?$char_traits@D@std@@V?$allocator@D@2@@2@@Z ; std::vector<std::basic_string<char,std::char_traits<char>,std::allocator<char> >,std::allocator<std::basic_string<char,std::char_traits<char>,std::allocator<char> > > >::push_back
  016b6	c7 45 fc ff ff
	ff ff		 mov	 DWORD PTR __$EHRec$[ebp+8], -1
  016bd	8d 8d 70 fe ff
	ff		 lea	 ecx, DWORD PTR $T88276[ebp]
  016c3	ff 15 00 00 00
	00		 call	 DWORD PTR __imp_??1?$basic_string@DU?$char_traits@D@std@@V?$allocator@D@2@@std@@QAE@XZ
$L83499:

; 389  : 			}
; 390  : 		}
; 391  : 	}while(FindNextFile(hFind, &FindFileData) == TRUE);

  016c9	8d 85 ac fe ff
	ff		 lea	 eax, DWORD PTR _FindFileData$[ebp]
  016cf	50		 push	 eax
  016d0	8b 8d a8 fe ff
	ff		 mov	 ecx, DWORD PTR _hFind$[ebp]
  016d6	51		 push	 ecx
  016d7	ff 15 00 00 00
	00		 call	 DWORD PTR __imp__FindNextFileA@8
  016dd	83 f8 01	 cmp	 eax, 1
  016e0	0f 84 6c ff ff
	ff		 je	 $L83498

; 392  : 
; 393  : 	FindClose(hFind);

  016e6	8b 95 a8 fe ff
	ff		 mov	 edx, DWORD PTR _hFind$[ebp]
  016ec	52		 push	 edx
  016ed	ff 15 00 00 00
	00		 call	 DWORD PTR __imp__FindClose@4
$L83488:

; 394  : }

  016f3	8b 4d f4	 mov	 ecx, DWORD PTR __$EHRec$[ebp]
  016f6	64 89 0d 00 00
	00 00		 mov	 DWORD PTR fs:__except_list, ecx
  016fd	8b 4d f0	 mov	 ecx, DWORD PTR __$ArrayPad$[ebp]
  01700	e8 00 00 00 00	 call	 @__security_check_cookie@4
  01705	8b e5		 mov	 esp, ebp
  01707	5d		 pop	 ebp
  01708	c3		 ret	 0
_TEXT	ENDS
text$x	SEGMENT
$L88277:
  001ec	8d 8d 8c fe ff
	ff		 lea	 ecx, DWORD PTR $T88275[ebp]
  001f2	ff 25 00 00 00
	00		 jmp	 DWORD PTR __imp_??1?$basic_string@DU?$char_traits@D@std@@V?$allocator@D@2@@std@@QAE@XZ
$L88278:
  001f8	8d 8d 70 fe ff
	ff		 lea	 ecx, DWORD PTR $T88276[ebp]
  001fe	ff 25 00 00 00
	00		 jmp	 DWORD PTR __imp_??1?$basic_string@DU?$char_traits@D@std@@V?$allocator@D@2@@std@@QAE@XZ
__ehhandler$?GetSubDirNames@YL_DirInfo@@SAXABV?$basic_string@DU?$char_traits@D@std@@V?$allocator@D@2@@std@@AAV?$vector@V?$basic_string@DU?$char_traits@D@std@@V?$allocator@D@2@@std@@V?$allocator@V?$basic_string@DU?$char_traits@D@std@@V?$allocator@D@2@@std@@@2@@3@@Z:
  00204	b8 00 00 00 00	 mov	 eax, OFFSET FLAT:$T88280
  00209	e9 00 00 00 00	 jmp	 ___CxxFrameHandler
text$x	ENDS
?GetSubDirNames@YL_DirInfo@@SAXABV?$basic_string@DU?$char_traits@D@std@@V?$allocator@D@2@@std@@AAV?$vector@V?$basic_string@DU?$char_traits@D@std@@V?$allocator@D@2@@std@@V?$allocator@V?$basic_string@DU?$char_traits@D@std@@V?$allocator@D@2@@std@@@2@@3@@Z ENDP ; YL_DirInfo::GetSubDirNames
PUBLIC	?GetDiskNames@YL_DirInfo@@SA_NAAV?$vector@V?$basic_string@DU?$char_traits@D@std@@V?$allocator@D@2@@std@@V?$allocator@V?$basic_string@DU?$char_traits@D@std@@V?$allocator@D@2@@std@@@2@@std@@@Z ; YL_DirInfo::GetDiskNames
EXTRN	??3@YAXPAX@Z:NEAR				; operator delete
EXTRN	__imp__GetLogicalDriveStringsA@8:NEAR
EXTRN	??_U@YAPAXI@Z:NEAR				; operator new[]
EXTRN	__imp__GetDriveTypeA@4:NEAR
xdata$x	SEGMENT
$T88292	DD	0ffffffffH
	DD	FLAT:$L88288
$T88290	DD	019930520H
	DD	01H
	DD	FLAT:$T88292
	DD	2 DUP(00H)
	DD	2 DUP(00H)
; Function compile flags: /Odt
xdata$x	ENDS
_TEXT	SEGMENT
$T88287 = -72						; size = 4
$T88286 = -68						; size = 28
$T88285 = -40						; size = 4
_dir$83520 = -36					; size = 4
_DType$83521 = -32					; size = 4
_i$83516 = -28						; size = 4
_DStr$ = -24						; size = 4
_si$ = -20						; size = 4
_DSLength$ = -16					; size = 4
__$EHRec$ = -12						; size = 12
_vDisk$ = 8						; size = 4
?GetDiskNames@YL_DirInfo@@SA_NAAV?$vector@V?$basic_string@DU?$char_traits@D@std@@V?$allocator@D@2@@std@@V?$allocator@V?$basic_string@DU?$char_traits@D@std@@V?$allocator@D@2@@std@@@2@@std@@@Z PROC NEAR ; YL_DirInfo::GetDiskNames

; 397  : {

  01710	55		 push	 ebp
  01711	8b ec		 mov	 ebp, esp
  01713	6a ff		 push	 -1
  01715	68 00 00 00 00	 push	 __ehhandler$?GetDiskNames@YL_DirInfo@@SA_NAAV?$vector@V?$basic_string@DU?$char_traits@D@std@@V?$allocator@D@2@@std@@V?$allocator@V?$basic_string@DU?$char_traits@D@std@@V?$allocator@D@2@@std@@@2@@std@@@Z
  0171a	64 a1 00 00 00
	00		 mov	 eax, DWORD PTR fs:__except_list
  01720	50		 push	 eax
  01721	64 89 25 00 00
	00 00		 mov	 DWORD PTR fs:__except_list, esp
  01728	83 ec 3c	 sub	 esp, 60			; 0000003cH

; 398  :     int DSLength = GetLogicalDriveStrings(0, NULL);

  0172b	6a 00		 push	 0
  0172d	6a 00		 push	 0
  0172f	ff 15 00 00 00
	00		 call	 DWORD PTR __imp__GetLogicalDriveStringsA@8
  01735	89 45 f0	 mov	 DWORD PTR _DSLength$[ebp], eax

; 399  :     //GetLogicalDriveStrings()
; 400  : 
; 401  :     char* DStr = new char[DSLength];//c

  01738	8b 45 f0	 mov	 eax, DWORD PTR _DSLength$[ebp]
  0173b	50		 push	 eax
  0173c	e8 00 00 00 00	 call	 ??_U@YAPAXI@Z		; operator new[]
  01741	83 c4 04	 add	 esp, 4
  01744	89 45 d8	 mov	 DWORD PTR $T88285[ebp], eax
  01747	8b 4d d8	 mov	 ecx, DWORD PTR $T88285[ebp]
  0174a	89 4d e8	 mov	 DWORD PTR _DStr$[ebp], ecx

; 402  :     GetLogicalDriveStrings(DSLength, (LPTSTR)DStr);

  0174d	8b 55 e8	 mov	 edx, DWORD PTR _DStr$[ebp]
  01750	52		 push	 edx
  01751	8b 45 f0	 mov	 eax, DWORD PTR _DSLength$[ebp]
  01754	50		 push	 eax
  01755	ff 15 00 00 00
	00		 call	 DWORD PTR __imp__GetLogicalDriveStringsA@8

; 403  :     //GetLogicalDriveStrings,
; 404  :     int si=0;

  0175b	c7 45 ec 00 00
	00 00		 mov	 DWORD PTR _si$[ebp], 0

; 405  :     for (int i = 0; i < DSLength/4; ++i)

  01762	c7 45 e4 00 00
	00 00		 mov	 DWORD PTR _i$83516[ebp], 0
  01769	eb 09		 jmp	 SHORT $L83517
$L83518:
  0176b	8b 4d e4	 mov	 ecx, DWORD PTR _i$83516[ebp]
  0176e	83 c1 01	 add	 ecx, 1
  01771	89 4d e4	 mov	 DWORD PTR _i$83516[ebp], ecx
$L83517:
  01774	8b 45 f0	 mov	 eax, DWORD PTR _DSLength$[ebp]
  01777	99		 cdq
  01778	83 e2 03	 and	 edx, 3
  0177b	03 c2		 add	 eax, edx
  0177d	c1 f8 02	 sar	 eax, 2
  01780	39 45 e4	 cmp	 DWORD PTR _i$83516[ebp], eax
  01783	7d 6e		 jge	 SHORT $L83519

; 406  :     //DStrA:\NULLB:\NULLC:\NULLDSLength/4
; 407  :     {
; 408  :         char dir[4]={DStr[si],':','\\','\0'};

  01785	8b 55 e8	 mov	 edx, DWORD PTR _DStr$[ebp]
  01788	03 55 ec	 add	 edx, DWORD PTR _si$[ebp]
  0178b	8a 02		 mov	 al, BYTE PTR [edx]
  0178d	88 45 dc	 mov	 BYTE PTR _dir$83520[ebp], al
  01790	c6 45 dd 3a	 mov	 BYTE PTR _dir$83520[ebp+1], 58 ; 0000003aH
  01794	c6 45 de 5c	 mov	 BYTE PTR _dir$83520[ebp+2], 92 ; 0000005cH
  01798	c6 45 df 00	 mov	 BYTE PTR _dir$83520[ebp+3], 0

; 409  :         int DType = GetDriveType(DStr+i*4);

  0179c	8b 4d e4	 mov	 ecx, DWORD PTR _i$83516[ebp]
  0179f	8b 55 e8	 mov	 edx, DWORD PTR _DStr$[ebp]
  017a2	8d 04 8a	 lea	 eax, DWORD PTR [edx+ecx*4]
  017a5	50		 push	 eax
  017a6	ff 15 00 00 00
	00		 call	 DWORD PTR __imp__GetDriveTypeA@4
  017ac	89 45 e0	 mov	 DWORD PTR _DType$83521[ebp], eax

; 410  :         //GetDriveType
; 411  :         if (DType == DRIVE_FIXED)//

  017af	83 7d e0 03	 cmp	 DWORD PTR _DType$83521[ebp], 3
  017b3	75 30		 jne	 SHORT $L83524

; 412  :         {
; 413  : 			vDisk.push_back(dir);

  017b5	8d 4d dc	 lea	 ecx, DWORD PTR _dir$83520[ebp]
  017b8	51		 push	 ecx
  017b9	8d 4d bc	 lea	 ecx, DWORD PTR $T88286[ebp]
  017bc	ff 15 00 00 00
	00		 call	 DWORD PTR __imp_??0?$basic_string@DU?$char_traits@D@std@@V?$allocator@D@2@@std@@QAE@PBD@Z
  017c2	c7 45 fc 00 00
	00 00		 mov	 DWORD PTR __$EHRec$[ebp+8], 0
  017c9	8d 55 bc	 lea	 edx, DWORD PTR $T88286[ebp]
  017cc	52		 push	 edx
  017cd	8b 4d 08	 mov	 ecx, DWORD PTR _vDisk$[ebp]
  017d0	e8 00 00 00 00	 call	 ?push_back@?$vector@V?$basic_string@DU?$char_traits@D@std@@V?$allocator@D@2@@std@@V?$allocator@V?$basic_string@DU?$char_traits@D@std@@V?$allocator@D@2@@std@@@2@@std@@QAEXABV?$basic_string@DU?$char_traits@D@std@@V?$allocator@D@2@@2@@Z ; std::vector<std::basic_string<char,std::char_traits<char>,std::allocator<char> >,std::allocator<std::basic_string<char,std::char_traits<char>,std::allocator<char> > > >::push_back
  017d5	c7 45 fc ff ff
	ff ff		 mov	 DWORD PTR __$EHRec$[ebp+8], -1
  017dc	8d 4d bc	 lea	 ecx, DWORD PTR $T88286[ebp]
  017df	ff 15 00 00 00
	00		 call	 DWORD PTR __imp_??1?$basic_string@DU?$char_traits@D@std@@V?$allocator@D@2@@std@@QAE@XZ
$L83524:

; 414  :         }
; 415  :         else if (DType == DRIVE_CDROM)//
; 416  :         {
; 417  :         }
; 418  :         else if (DType == DRIVE_REMOVABLE)//
; 419  :         {
; 420  :         }
; 421  :         else if (DType == DRIVE_REMOTE)//
; 422  :         {
; 423  :         }
; 424  :         else if (DType == DRIVE_RAMDISK)//RAM
; 425  :         {
; 426  :         }
; 427  :         else if (DType == DRIVE_UNKNOWN)//
; 428  :         {
; 429  :         }
; 430  :         si += 4;

  017e5	8b 45 ec	 mov	 eax, DWORD PTR _si$[ebp]
  017e8	83 c0 04	 add	 eax, 4
  017eb	89 45 ec	 mov	 DWORD PTR _si$[ebp], eax

; 431  :     }

  017ee	e9 78 ff ff ff	 jmp	 $L83518
$L83519:

; 432  : 	delete DStr;

  017f3	8b 4d e8	 mov	 ecx, DWORD PTR _DStr$[ebp]
  017f6	89 4d b8	 mov	 DWORD PTR $T88287[ebp], ecx
  017f9	8b 55 b8	 mov	 edx, DWORD PTR $T88287[ebp]
  017fc	52		 push	 edx
  017fd	e8 00 00 00 00	 call	 ??3@YAXPAX@Z		; operator delete
  01802	83 c4 04	 add	 esp, 4

; 433  : 	return true;

  01805	b0 01		 mov	 al, 1

; 434  : }

  01807	8b 4d f4	 mov	 ecx, DWORD PTR __$EHRec$[ebp]
  0180a	64 89 0d 00 00
	00 00		 mov	 DWORD PTR fs:__except_list, ecx
  01811	8b e5		 mov	 esp, ebp
  01813	5d		 pop	 ebp
  01814	c3		 ret	 0
_TEXT	ENDS
text$x	SEGMENT
$L88288:
  0020e	8d 4d bc	 lea	 ecx, DWORD PTR $T88286[ebp]
  00211	ff 25 00 00 00
	00		 jmp	 DWORD PTR __imp_??1?$basic_string@DU?$char_traits@D@std@@V?$allocator@D@2@@std@@QAE@XZ
__ehhandler$?GetDiskNames@YL_DirInfo@@SA_NAAV?$vector@V?$basic_string@DU?$char_traits@D@std@@V?$allocator@D@2@@std@@V?$allocator@V?$basic_string@DU?$char_traits@D@std@@V?$allocator@D@2@@std@@@2@@std@@@Z:
  00217	b8 00 00 00 00	 mov	 eax, OFFSET FLAT:$T88290
  0021c	e9 00 00 00 00	 jmp	 ___CxxFrameHandler
text$x	ENDS
?GetDiskNames@YL_DirInfo@@SA_NAAV?$vector@V?$basic_string@DU?$char_traits@D@std@@V?$allocator@D@2@@std@@V?$allocator@V?$basic_string@DU?$char_traits@D@std@@V?$allocator@D@2@@std@@@2@@std@@@Z ENDP ; YL_DirInfo::GetDiskNames
PUBLIC	?GetLargestFreeBytesDisk@YL_DirInfo@@SA_NAAV?$basic_string@DU?$char_traits@D@std@@V?$allocator@D@2@@std@@@Z ; YL_DirInfo::GetLargestFreeBytesDisk
PUBLIC	?begin@?$vector@V?$basic_string@DU?$char_traits@D@std@@V?$allocator@D@2@@std@@V?$allocator@V?$basic_string@DU?$char_traits@D@std@@V?$allocator@D@2@@std@@@2@@std@@QAE?AViterator@12@XZ ; std::vector<std::basic_string<char,std::char_traits<char>,std::allocator<char> >,std::allocator<std::basic_string<char,std::char_traits<char>,std::allocator<char> > > >::begin
PUBLIC	?end@?$vector@V?$basic_string@DU?$char_traits@D@std@@V?$allocator@D@2@@std@@V?$allocator@V?$basic_string@DU?$char_traits@D@std@@V?$allocator@D@2@@std@@@2@@std@@QAE?AViterator@12@XZ ; std::vector<std::basic_string<char,std::char_traits<char>,std::allocator<char> >,std::allocator<std::basic_string<char,std::char_traits<char>,std::allocator<char> > > >::end
PUBLIC	??9const_iterator@?$vector@V?$basic_string@DU?$char_traits@D@std@@V?$allocator@D@2@@std@@V?$allocator@V?$basic_string@DU?$char_traits@D@std@@V?$allocator@D@2@@std@@@2@@std@@QBE_NABV012@@Z ; std::vector<std::basic_string<char,std::char_traits<char>,std::allocator<char> >,std::allocator<std::basic_string<char,std::char_traits<char>,std::allocator<char> > > >::const_iterator::operator!=
PUBLIC	??Diterator@?$vector@V?$basic_string@DU?$char_traits@D@std@@V?$allocator@D@2@@std@@V?$allocator@V?$basic_string@DU?$char_traits@D@std@@V?$allocator@D@2@@std@@@2@@std@@QBEAAV?$basic_string@DU?$char_traits@D@std@@V?$allocator@D@2@@2@XZ ; std::vector<std::basic_string<char,std::char_traits<char>,std::allocator<char> >,std::allocator<std::basic_string<char,std::char_traits<char>,std::allocator<char> > > >::iterator::operator*
PUBLIC	??Citerator@?$vector@V?$basic_string@DU?$char_traits@D@std@@V?$allocator@D@2@@std@@V?$allocator@V?$basic_string@DU?$char_traits@D@std@@V?$allocator@D@2@@std@@@2@@std@@QBEPAV?$basic_string@DU?$char_traits@D@std@@V?$allocator@D@2@@2@XZ ; std::vector<std::basic_string<char,std::char_traits<char>,std::allocator<char> >,std::allocator<std::basic_string<char,std::char_traits<char>,std::allocator<char> > > >::iterator::operator->
PUBLIC	??Eiterator@?$vector@V?$basic_string@DU?$char_traits@D@std@@V?$allocator@D@2@@std@@V?$allocator@V?$basic_string@DU?$char_traits@D@std@@V?$allocator@D@2@@std@@@2@@std@@QAE?AV012@H@Z ; std::vector<std::basic_string<char,std::char_traits<char>,std::allocator<char> >,std::allocator<std::basic_string<char,std::char_traits<char>,std::allocator<char> > > >::iterator::operator++
EXTRN	__imp__GetDiskFreeSpaceExA@16:NEAR
xdata$x	SEGMENT
$T88304	DD	0ffffffffH
	DD	FLAT:$L88299
$T88301	DD	019930520H
	DD	01H
	DD	FLAT:$T88304
	DD	2 DUP(00H)
	DD	2 DUP(00H)
; Function compile flags: /Odt
xdata$x	ENDS
_TEXT	SEGMENT
$T88298 = -82						; size = 1
$T88297 = -81						; size = 1
$T88296 = -80						; size = 4
$T88295 = -76						; size = 4
$T88294 = -69						; size = 1
_i64FreeBytesToCaller$83667 = -68			; size = 8
_i64TotalBytes$83668 = -60				; size = 8
_i64FreeBytes$83669 = -52				; size = 8
_fResult$83670 = -44					; size = 4
_it1$83660 = -40					; size = 4
_i64LargestFreeBytes$ = -36				; size = 8
_vDisk$ = -28						; size = 16
__$EHRec$ = -12						; size = 12
_strDisk$ = 8						; size = 4
?GetLargestFreeBytesDisk@YL_DirInfo@@SA_NAAV?$basic_string@DU?$char_traits@D@std@@V?$allocator@D@2@@std@@@Z PROC NEAR ; YL_DirInfo::GetLargestFreeBytesDisk

; 437  : {

  01820	55		 push	 ebp
  01821	8b ec		 mov	 ebp, esp
  01823	6a ff		 push	 -1
  01825	68 00 00 00 00	 push	 __ehhandler$?GetLargestFreeBytesDisk@YL_DirInfo@@SA_NAAV?$basic_string@DU?$char_traits@D@std@@V?$allocator@D@2@@std@@@Z
  0182a	64 a1 00 00 00
	00		 mov	 eax, DWORD PTR fs:__except_list
  01830	50		 push	 eax
  01831	64 89 25 00 00
	00 00		 mov	 DWORD PTR fs:__except_list, esp
  01838	83 ec 48	 sub	 esp, 72			; 00000048H

; 438  : 	vector<string> vDisk;

  0183b	8d 4d e4	 lea	 ecx, DWORD PTR _vDisk$[ebp]
  0183e	e8 00 00 00 00	 call	 ??0?$vector@V?$basic_string@DU?$char_traits@D@std@@V?$allocator@D@2@@std@@V?$allocator@V?$basic_string@DU?$char_traits@D@std@@V?$allocator@D@2@@std@@@2@@std@@QAE@XZ ; std::vector<std::basic_string<char,std::char_traits<char>,std::allocator<char> >,std::allocator<std::basic_string<char,std::char_traits<char>,std::allocator<char> > > >::vector<std::basic_string<char,std::char_traits<char>,std::allocator<char> >,std::allocator<std::basic_string<char,std::char_traits<char>,std::allocator<char> > > >
  01843	c7 45 fc 00 00
	00 00		 mov	 DWORD PTR __$EHRec$[ebp+8], 0

; 439  : 	if( !GetDiskNames(vDisk) )

  0184a	8d 45 e4	 lea	 eax, DWORD PTR _vDisk$[ebp]
  0184d	50		 push	 eax
  0184e	e8 00 00 00 00	 call	 ?GetDiskNames@YL_DirInfo@@SA_NAAV?$vector@V?$basic_string@DU?$char_traits@D@std@@V?$allocator@D@2@@std@@V?$allocator@V?$basic_string@DU?$char_traits@D@std@@V?$allocator@D@2@@std@@@2@@std@@@Z ; YL_DirInfo::GetDiskNames
  01853	83 c4 04	 add	 esp, 4
  01856	0f b6 c8	 movzx	 ecx, al
  01859	85 c9		 test	 ecx, ecx
  0185b	75 1b		 jne	 SHORT $L83540

; 440  : 		return false;

  0185d	c6 45 bb 00	 mov	 BYTE PTR $T88294[ebp], 0
  01861	c7 45 fc ff ff
	ff ff		 mov	 DWORD PTR __$EHRec$[ebp+8], -1
  01868	8d 4d e4	 lea	 ecx, DWORD PTR _vDisk$[ebp]
  0186b	e8 00 00 00 00	 call	 ??1?$vector@V?$basic_string@DU?$char_traits@D@std@@V?$allocator@D@2@@std@@V?$allocator@V?$basic_string@DU?$char_traits@D@std@@V?$allocator@D@2@@std@@@2@@std@@QAE@XZ ; std::vector<std::basic_string<char,std::char_traits<char>,std::allocator<char> >,std::allocator<std::basic_string<char,std::char_traits<char>,std::allocator<char> > > >::~vector<std::basic_string<char,std::char_traits<char>,std::allocator<char> >,std::allocator<std::basic_string<char,std::char_traits<char>,std::allocator<char> > > >
  01870	8a 45 bb	 mov	 al, BYTE PTR $T88294[ebp]
  01873	e9 dd 00 00 00	 jmp	 $L83537
$L83540:

; 441  : 
; 442  : 	ULONGLONG i64LargestFreeBytes = 0;

  01878	c7 45 dc 00 00
	00 00		 mov	 DWORD PTR _i64LargestFreeBytes$[ebp], 0
  0187f	c7 45 e0 00 00
	00 00		 mov	 DWORD PTR _i64LargestFreeBytes$[ebp+4], 0

; 443  : 	for( vector<string>::iterator it1 = vDisk.begin(); it1 != vDisk.end(); it1++ )

  01886	8d 55 d8	 lea	 edx, DWORD PTR _it1$83660[ebp]
  01889	52		 push	 edx
  0188a	8d 4d e4	 lea	 ecx, DWORD PTR _vDisk$[ebp]
  0188d	e8 00 00 00 00	 call	 ?begin@?$vector@V?$basic_string@DU?$char_traits@D@std@@V?$allocator@D@2@@std@@V?$allocator@V?$basic_string@DU?$char_traits@D@std@@V?$allocator@D@2@@std@@@2@@std@@QAE?AViterator@12@XZ ; std::vector<std::basic_string<char,std::char_traits<char>,std::allocator<char> >,std::allocator<std::basic_string<char,std::char_traits<char>,std::allocator<char> > > >::begin
  01892	eb 0e		 jmp	 SHORT $L83664
$L83665:
  01894	6a 00		 push	 0
  01896	8d 45 b4	 lea	 eax, DWORD PTR $T88295[ebp]
  01899	50		 push	 eax
  0189a	8d 4d d8	 lea	 ecx, DWORD PTR _it1$83660[ebp]
  0189d	e8 00 00 00 00	 call	 ??Eiterator@?$vector@V?$basic_string@DU?$char_traits@D@std@@V?$allocator@D@2@@std@@V?$allocator@V?$basic_string@DU?$char_traits@D@std@@V?$allocator@D@2@@std@@@2@@std@@QAE?AV012@H@Z ; std::vector<std::basic_string<char,std::char_traits<char>,std::allocator<char> >,std::allocator<std::basic_string<char,std::char_traits<char>,std::allocator<char> > > >::iterator::operator++
$L83664:
  018a2	8d 4d b0	 lea	 ecx, DWORD PTR $T88296[ebp]
  018a5	51		 push	 ecx
  018a6	8d 4d e4	 lea	 ecx, DWORD PTR _vDisk$[ebp]
  018a9	e8 00 00 00 00	 call	 ?end@?$vector@V?$basic_string@DU?$char_traits@D@std@@V?$allocator@D@2@@std@@V?$allocator@V?$basic_string@DU?$char_traits@D@std@@V?$allocator@D@2@@std@@@2@@std@@QAE?AViterator@12@XZ ; std::vector<std::basic_string<char,std::char_traits<char>,std::allocator<char> >,std::allocator<std::basic_string<char,std::char_traits<char>,std::allocator<char> > > >::end
  018ae	50		 push	 eax
  018af	8d 4d d8	 lea	 ecx, DWORD PTR _it1$83660[ebp]
  018b2	e8 00 00 00 00	 call	 ??9const_iterator@?$vector@V?$basic_string@DU?$char_traits@D@std@@V?$allocator@D@2@@std@@V?$allocator@V?$basic_string@DU?$char_traits@D@std@@V?$allocator@D@2@@std@@@2@@std@@QBE_NABV012@@Z ; std::vector<std::basic_string<char,std::char_traits<char>,std::allocator<char> >,std::allocator<std::basic_string<char,std::char_traits<char>,std::allocator<char> > > >::const_iterator::operator!=
  018b7	0f b6 d0	 movzx	 edx, al
  018ba	85 d2		 test	 edx, edx
  018bc	74 61		 je	 SHORT $L83666

; 444  : 	{
; 445  : 		ULONGLONG i64FreeBytesToCaller, i64TotalBytes, i64FreeBytes;
; 446  : 		BOOL fResult = GetDiskFreeSpaceEx (
; 447  : 						it1->c_str(),
; 448  : 						(PULARGE_INTEGER)&i64FreeBytesToCaller,
; 449  : 						(PULARGE_INTEGER)&i64TotalBytes,
; 450  : 						(PULARGE_INTEGER)&i64FreeBytes);

  018be	8d 45 cc	 lea	 eax, DWORD PTR _i64FreeBytes$83669[ebp]
  018c1	50		 push	 eax
  018c2	8d 4d c4	 lea	 ecx, DWORD PTR _i64TotalBytes$83668[ebp]
  018c5	51		 push	 ecx
  018c6	8d 55 bc	 lea	 edx, DWORD PTR _i64FreeBytesToCaller$83667[ebp]
  018c9	52		 push	 edx
  018ca	8d 4d d8	 lea	 ecx, DWORD PTR _it1$83660[ebp]
  018cd	e8 00 00 00 00	 call	 ??Citerator@?$vector@V?$basic_string@DU?$char_traits@D@std@@V?$allocator@D@2@@std@@V?$allocator@V?$basic_string@DU?$char_traits@D@std@@V?$allocator@D@2@@std@@@2@@std@@QBEPAV?$basic_string@DU?$char_traits@D@std@@V?$allocator@D@2@@2@XZ ; std::vector<std::basic_string<char,std::char_traits<char>,std::allocator<char> >,std::allocator<std::basic_string<char,std::char_traits<char>,std::allocator<char> > > >::iterator::operator->
  018d2	8b c8		 mov	 ecx, eax
  018d4	ff 15 00 00 00
	00		 call	 DWORD PTR __imp_?c_str@?$basic_string@DU?$char_traits@D@std@@V?$allocator@D@2@@std@@QBEPBDXZ
  018da	50		 push	 eax
  018db	ff 15 00 00 00
	00		 call	 DWORD PTR __imp__GetDiskFreeSpaceExA@16
  018e1	89 45 d4	 mov	 DWORD PTR _fResult$83670[ebp], eax

; 451  : 		//GetDiskFreeSpaceEx,BOOL
; 452  : 		if (fResult)//BOOL

  018e4	83 7d d4 00	 cmp	 DWORD PTR _fResult$83670[ebp], 0
  018e8	74 30		 je	 SHORT $L83676

; 453  : 		{
; 454  : 			if( i64LargestFreeBytes < i64FreeBytes )

  018ea	8b 45 e0	 mov	 eax, DWORD PTR _i64LargestFreeBytes$[ebp+4]
  018ed	3b 45 d0	 cmp	 eax, DWORD PTR _i64FreeBytes$83669[ebp+4]
  018f0	77 28		 ja	 SHORT $L83676
  018f2	72 08		 jb	 SHORT $L88302
  018f4	8b 4d dc	 mov	 ecx, DWORD PTR _i64LargestFreeBytes$[ebp]
  018f7	3b 4d cc	 cmp	 ecx, DWORD PTR _i64FreeBytes$83669[ebp]
  018fa	73 1e		 jae	 SHORT $L83676
$L88302:

; 455  : 			{
; 456  : 				i64LargestFreeBytes = i64FreeBytes;

  018fc	8b 55 cc	 mov	 edx, DWORD PTR _i64FreeBytes$83669[ebp]
  018ff	89 55 dc	 mov	 DWORD PTR _i64LargestFreeBytes$[ebp], edx
  01902	8b 45 d0	 mov	 eax, DWORD PTR _i64FreeBytes$83669[ebp+4]
  01905	89 45 e0	 mov	 DWORD PTR _i64LargestFreeBytes$[ebp+4], eax

; 457  : 				strDisk = *it1;

  01908	8d 4d d8	 lea	 ecx, DWORD PTR _it1$83660[ebp]
  0190b	e8 00 00 00 00	 call	 ??Diterator@?$vector@V?$basic_string@DU?$char_traits@D@std@@V?$allocator@D@2@@std@@V?$allocator@V?$basic_string@DU?$char_traits@D@std@@V?$allocator@D@2@@std@@@2@@std@@QBEAAV?$basic_string@DU?$char_traits@D@std@@V?$allocator@D@2@@2@XZ ; std::vector<std::basic_string<char,std::char_traits<char>,std::allocator<char> >,std::allocator<std::basic_string<char,std::char_traits<char>,std::allocator<char> > > >::iterator::operator*
  01910	50		 push	 eax
  01911	8b 4d 08	 mov	 ecx, DWORD PTR _strDisk$[ebp]
  01914	ff 15 00 00 00
	00		 call	 DWORD PTR __imp_??4?$basic_string@DU?$char_traits@D@std@@V?$allocator@D@2@@std@@QAEAAV01@ABV01@@Z
$L83676:

; 458  : 			}
; 459  : 		}
; 460  : 		else
; 461  : 		{
; 462  : 			//
; 463  : 		}
; 464  : 	}

  0191a	e9 75 ff ff ff	 jmp	 $L83665
$L83666:

; 465  : 	if( i64LargestFreeBytes == 0 )

  0191f	8b 4d dc	 mov	 ecx, DWORD PTR _i64LargestFreeBytes$[ebp]
  01922	0b 4d e0	 or	 ecx, DWORD PTR _i64LargestFreeBytes$[ebp+4]
  01925	75 18		 jne	 SHORT $L83677

; 466  : 	{
; 467  : 		return false;

  01927	c6 45 af 00	 mov	 BYTE PTR $T88297[ebp], 0
  0192b	c7 45 fc ff ff
	ff ff		 mov	 DWORD PTR __$EHRec$[ebp+8], -1
  01932	8d 4d e4	 lea	 ecx, DWORD PTR _vDisk$[ebp]
  01935	e8 00 00 00 00	 call	 ??1?$vector@V?$basic_string@DU?$char_traits@D@std@@V?$allocator@D@2@@std@@V?$allocator@V?$basic_string@DU?$char_traits@D@std@@V?$allocator@D@2@@std@@@2@@std@@QAE@XZ ; std::vector<std::basic_string<char,std::char_traits<char>,std::allocator<char> >,std::allocator<std::basic_string<char,std::char_traits<char>,std::allocator<char> > > >::~vector<std::basic_string<char,std::char_traits<char>,std::allocator<char> >,std::allocator<std::basic_string<char,std::char_traits<char>,std::allocator<char> > > >
  0193a	8a 45 af	 mov	 al, BYTE PTR $T88297[ebp]
  0193d	eb 16		 jmp	 SHORT $L83537
$L83677:

; 468  : 	}else
; 469  : 	{
; 470  : 		return true;

  0193f	c6 45 ae 01	 mov	 BYTE PTR $T88298[ebp], 1
  01943	c7 45 fc ff ff
	ff ff		 mov	 DWORD PTR __$EHRec$[ebp+8], -1
  0194a	8d 4d e4	 lea	 ecx, DWORD PTR _vDisk$[ebp]
  0194d	e8 00 00 00 00	 call	 ??1?$vector@V?$basic_string@DU?$char_traits@D@std@@V?$allocator@D@2@@std@@V?$allocator@V?$basic_string@DU?$char_traits@D@std@@V?$allocator@D@2@@std@@@2@@std@@QAE@XZ ; std::vector<std::basic_string<char,std::char_traits<char>,std::allocator<char> >,std::allocator<std::basic_string<char,std::char_traits<char>,std::allocator<char> > > >::~vector<std::basic_string<char,std::char_traits<char>,std::allocator<char> >,std::allocator<std::basic_string<char,std::char_traits<char>,std::allocator<char> > > >
  01952	8a 45 ae	 mov	 al, BYTE PTR $T88298[ebp]
$L83537:

; 471  : 	}
; 472  : }

  01955	8b 4d f4	 mov	 ecx, DWORD PTR __$EHRec$[ebp]
  01958	64 89 0d 00 00
	00 00		 mov	 DWORD PTR fs:__except_list, ecx
  0195f	8b e5		 mov	 esp, ebp
  01961	5d		 pop	 ebp
  01962	c3		 ret	 0
_TEXT	ENDS
text$x	SEGMENT
$L88299:
  00221	8d 4d e4	 lea	 ecx, DWORD PTR _vDisk$[ebp]
  00224	e9 00 00 00 00	 jmp	 ??1?$vector@V?$basic_string@DU?$char_traits@D@std@@V?$allocator@D@2@@std@@V?$allocator@V?$basic_string@DU?$char_traits@D@std@@V?$allocator@D@2@@std@@@2@@std@@QAE@XZ ; std::vector<std::basic_string<char,std::char_traits<char>,std::allocator<char> >,std::allocator<std::basic_string<char,std::char_traits<char>,std::allocator<char> > > >::~vector<std::basic_string<char,std::char_traits<char>,std::allocator<char> >,std::allocator<std::basic_string<char,std::char_traits<char>,std::allocator<char> > > >
__ehhandler$?GetLargestFreeBytesDisk@YL_DirInfo@@SA_NAAV?$basic_string@DU?$char_traits@D@std@@V?$allocator@D@2@@std@@@Z:
  00229	b8 00 00 00 00	 mov	 eax, OFFSET FLAT:$T88301
  0022e	e9 00 00 00 00	 jmp	 ___CxxFrameHandler
text$x	ENDS
?GetLargestFreeBytesDisk@YL_DirInfo@@SA_NAAV?$basic_string@DU?$char_traits@D@std@@V?$allocator@D@2@@std@@@Z ENDP ; YL_DirInfo::GetLargestFreeBytesDisk
PUBLIC	??0?$_Vector_val@V?$basic_string@DU?$char_traits@D@std@@V?$allocator@D@2@@std@@V?$allocator@V?$basic_string@DU?$char_traits@D@std@@V?$allocator@D@2@@std@@@2@@std@@IAE@V?$allocator@V?$basic_string@DU?$char_traits@D@std@@V?$allocator@D@2@@std@@@1@@Z ; std::_Vector_val<std::basic_string<char,std::char_traits<char>,std::allocator<char> >,std::allocator<std::basic_string<char,std::char_traits<char>,std::allocator<char> > > >::_Vector_val<std::basic_string<char,std::char_traits<char>,std::allocator<char> >,std::allocator<std::basic_string<char,std::char_traits<char>,std::allocator<char> > > >
PUBLIC	??0?$allocator@V?$basic_string@DU?$char_traits@D@std@@V?$allocator@D@2@@std@@@std@@QAE@XZ ; std::allocator<std::basic_string<char,std::char_traits<char>,std::allocator<char> > >::allocator<std::basic_string<char,std::char_traits<char>,std::allocator<char> > >
PUBLIC	?_Buy@?$vector@V?$basic_string@DU?$char_traits@D@std@@V?$allocator@D@2@@std@@V?$allocator@V?$basic_string@DU?$char_traits@D@std@@V?$allocator@D@2@@std@@@2@@std@@IAE_NI@Z ; std::vector<std::basic_string<char,std::char_traits<char>,std::allocator<char> >,std::allocator<std::basic_string<char,std::char_traits<char>,std::allocator<char> > > >::_Buy
; Function compile flags: /Odt
; File d:\program files (x86)\microsoft visual studio .net 2003\vc7\include\vector
;	COMDAT ??0?$vector@V?$basic_string@DU?$char_traits@D@std@@V?$allocator@D@2@@std@@V?$allocator@V?$basic_string@DU?$char_traits@D@std@@V?$allocator@D@2@@std@@@2@@std@@QAE@XZ
_TEXT	SEGMENT
_this$ = -8						; size = 4
??0?$vector@V?$basic_string@DU?$char_traits@D@std@@V?$allocator@D@2@@std@@V?$allocator@V?$basic_string@DU?$char_traits@D@std@@V?$allocator@D@2@@std@@@2@@std@@QAE@XZ PROC NEAR ; std::vector<std::basic_string<char,std::char_traits<char>,std::allocator<char> >,std::allocator<std::basic_string<char,std::char_traits<char>,std::allocator<char> > > >::vector<std::basic_string<char,std::char_traits<char>,std::allocator<char> >,std::allocator<std::basic_string<char,std::char_traits<char>,std::allocator<char> > > >, COMDAT
; _this$ = ecx

; 299  : 		{	// construct empty vector

  00000	55		 push	 ebp
  00001	8b ec		 mov	 ebp, esp
  00003	83 ec 08	 sub	 esp, 8
  00006	89 4d f8	 mov	 DWORD PTR _this$[ebp], ecx
  00009	51		 push	 ecx
  0000a	8b cc		 mov	 ecx, esp
  0000c	e8 00 00 00 00	 call	 ??0?$allocator@V?$basic_string@DU?$char_traits@D@std@@V?$allocator@D@2@@std@@@std@@QAE@XZ ; std::allocator<std::basic_string<char,std::char_traits<char>,std::allocator<char> > >::allocator<std::basic_string<char,std::char_traits<char>,std::allocator<char> > >
  00011	8b 4d f8	 mov	 ecx, DWORD PTR _this$[ebp]
  00014	e8 00 00 00 00	 call	 ??0?$_Vector_val@V?$basic_string@DU?$char_traits@D@std@@V?$allocator@D@2@@std@@V?$allocator@V?$basic_string@DU?$char_traits@D@std@@V?$allocator@D@2@@std@@@2@@std@@IAE@V?$allocator@V?$basic_string@DU?$char_traits@D@std@@V?$allocator@D@2@@std@@@1@@Z ; std::_Vector_val<std::basic_string<char,std::char_traits<char>,std::allocator<char> >,std::allocator<std::basic_string<char,std::char_traits<char>,std::allocator<char> > > >::_Vector_val<std::basic_string<char,std::char_traits<char>,std::allocator<char> >,std::allocator<std::basic_string<char,std::char_traits<char>,std::allocator<char> > > >

; 300  : 		_Buy(0);

  00019	6a 00		 push	 0
  0001b	8b 4d f8	 mov	 ecx, DWORD PTR _this$[ebp]
  0001e	e8 00 00 00 00	 call	 ?_Buy@?$vector@V?$basic_string@DU?$char_traits@D@std@@V?$allocator@D@2@@std@@V?$allocator@V?$basic_string@DU?$char_traits@D@std@@V?$allocator@D@2@@std@@@2@@std@@IAE_NI@Z ; std::vector<std::basic_string<char,std::char_traits<char>,std::allocator<char> >,std::allocator<std::basic_string<char,std::char_traits<char>,std::allocator<char> > > >::_Buy

; 301  : 		}

  00023	8b 45 f8	 mov	 eax, DWORD PTR _this$[ebp]
  00026	8b e5		 mov	 esp, ebp
  00028	5d		 pop	 ebp
  00029	c3		 ret	 0
??0?$vector@V?$basic_string@DU?$char_traits@D@std@@V?$allocator@D@2@@std@@V?$allocator@V?$basic_string@DU?$char_traits@D@std@@V?$allocator@D@2@@std@@@2@@std@@QAE@XZ ENDP ; std::vector<std::basic_string<char,std::char_traits<char>,std::allocator<char> >,std::allocator<std::basic_string<char,std::char_traits<char>,std::allocator<char> > > >::vector<std::basic_string<char,std::char_traits<char>,std::allocator<char> >,std::allocator<std::basic_string<char,std::char_traits<char>,std::allocator<char> > > >
_TEXT	ENDS
PUBLIC	?_Tidy@?$vector@V?$basic_string@DU?$char_traits@D@std@@V?$allocator@D@2@@std@@V?$allocator@V?$basic_string@DU?$char_traits@D@std@@V?$allocator@D@2@@std@@@2@@std@@IAEXXZ ; std::vector<std::basic_string<char,std::char_traits<char>,std::allocator<char> >,std::allocator<std::basic_string<char,std::char_traits<char>,std::allocator<char> > > >::_Tidy
; Function compile flags: /Odt
;	COMDAT ??1?$vector@V?$basic_string@DU?$char_traits@D@std@@V?$allocator@D@2@@std@@V?$allocator@V?$basic_string@DU?$char_traits@D@std@@V?$allocator@D@2@@std@@@2@@std@@QAE@XZ
_TEXT	SEGMENT
_this$ = -4						; size = 4
??1?$vector@V?$basic_string@DU?$char_traits@D@std@@V?$allocator@D@2@@std@@V?$allocator@V?$basic_string@DU?$char_traits@D@std@@V?$allocator@D@2@@std@@@2@@std@@QAE@XZ PROC NEAR ; std::vector<std::basic_string<char,std::char_traits<char>,std::allocator<char> >,std::allocator<std::basic_string<char,std::char_traits<char>,std::allocator<char> > > >::~vector<std::basic_string<char,std::char_traits<char>,std::allocator<char> >,std::allocator<std::basic_string<char,std::char_traits<char>,std::allocator<char> > > >, COMDAT
; _this$ = ecx

; 387  : 		{	// destroy the object

  00000	55		 push	 ebp
  00001	8b ec		 mov	 ebp, esp
  00003	51		 push	 ecx
  00004	89 4d fc	 mov	 DWORD PTR _this$[ebp], ecx

; 388  : 		_Tidy();

  00007	8b 4d fc	 mov	 ecx, DWORD PTR _this$[ebp]
  0000a	e8 00 00 00 00	 call	 ?_Tidy@?$vector@V?$basic_string@DU?$char_traits@D@std@@V?$allocator@D@2@@std@@V?$allocator@V?$basic_string@DU?$char_traits@D@std@@V?$allocator@D@2@@std@@@2@@std@@IAEXXZ ; std::vector<std::basic_string<char,std::char_traits<char>,std::allocator<char> >,std::allocator<std::basic_string<char,std::char_traits<char>,std::allocator<char> > > >::_Tidy

; 389  : 		}

  0000f	8b e5		 mov	 esp, ebp
  00011	5d		 pop	 ebp
  00012	c3		 ret	 0
??1?$vector@V?$basic_string@DU?$char_traits@D@std@@V?$allocator@D@2@@std@@V?$allocator@V?$basic_string@DU?$char_traits@D@std@@V?$allocator@D@2@@std@@@2@@std@@QAE@XZ ENDP ; std::vector<std::basic_string<char,std::char_traits<char>,std::allocator<char> >,std::allocator<std::basic_string<char,std::char_traits<char>,std::allocator<char> > > >::~vector<std::basic_string<char,std::char_traits<char>,std::allocator<char> >,std::allocator<std::basic_string<char,std::char_traits<char>,std::allocator<char> > > >
_TEXT	ENDS
PUBLIC	??0iterator@?$vector@V?$basic_string@DU?$char_traits@D@std@@V?$allocator@D@2@@std@@V?$allocator@V?$basic_string@DU?$char_traits@D@std@@V?$allocator@D@2@@std@@@2@@std@@QAE@PAV?$basic_string@DU?$char_traits@D@std@@V?$allocator@D@2@@2@@Z ; std::vector<std::basic_string<char,std::char_traits<char>,std::allocator<char> >,std::allocator<std::basic_string<char,std::char_traits<char>,std::allocator<char> > > >::iterator::iterator
; Function compile flags: /Odt
;	COMDAT ?begin@?$vector@V?$basic_string@DU?$char_traits@D@std@@V?$allocator@D@2@@std@@V?$allocator@V?$basic_string@DU?$char_traits@D@std@@V?$allocator@D@2@@std@@@2@@std@@QAE?AViterator@12@XZ
_TEXT	SEGMENT
_this$ = -4						; size = 4
___$ReturnUdt$ = 8					; size = 4
?begin@?$vector@V?$basic_string@DU?$char_traits@D@std@@V?$allocator@D@2@@std@@V?$allocator@V?$basic_string@DU?$char_traits@D@std@@V?$allocator@D@2@@std@@@2@@std@@QAE?AViterator@12@XZ PROC NEAR ; std::vector<std::basic_string<char,std::char_traits<char>,std::allocator<char> >,std::allocator<std::basic_string<char,std::char_traits<char>,std::allocator<char> > > >::begin, COMDAT
; _this$ = ecx

; 462  : 		{	// return iterator for beginning of mutable sequence

  00000	55		 push	 ebp
  00001	8b ec		 mov	 ebp, esp
  00003	51		 push	 ecx
  00004	89 4d fc	 mov	 DWORD PTR _this$[ebp], ecx

; 463  : 		return (iterator(_Myfirst));

  00007	8b 45 fc	 mov	 eax, DWORD PTR _this$[ebp]
  0000a	8b 48 04	 mov	 ecx, DWORD PTR [eax+4]
  0000d	51		 push	 ecx
  0000e	8b 4d 08	 mov	 ecx, DWORD PTR ___$ReturnUdt$[ebp]
  00011	e8 00 00 00 00	 call	 ??0iterator@?$vector@V?$basic_string@DU?$char_traits@D@std@@V?$allocator@D@2@@std@@V?$allocator@V?$basic_string@DU?$char_traits@D@std@@V?$allocator@D@2@@std@@@2@@std@@QAE@PAV?$basic_string@DU?$char_traits@D@std@@V?$allocator@D@2@@2@@Z ; std::vector<std::basic_string<char,std::char_traits<char>,std::allocator<char> >,std::allocator<std::basic_string<char,std::char_traits<char>,std::allocator<char> > > >::iterator::iterator
  00016	8b 45 08	 mov	 eax, DWORD PTR ___$ReturnUdt$[ebp]

; 464  : 		}

  00019	8b e5		 mov	 esp, ebp
  0001b	5d		 pop	 ebp
  0001c	c2 04 00	 ret	 4
?begin@?$vector@V?$basic_string@DU?$char_traits@D@std@@V?$allocator@D@2@@std@@V?$allocator@V?$basic_string@DU?$char_traits@D@std@@V?$allocator@D@2@@std@@@2@@std@@QAE?AViterator@12@XZ ENDP ; std::vector<std::basic_string<char,std::char_traits<char>,std::allocator<char> >,std::allocator<std::basic_string<char,std::char_traits<char>,std::allocator<char> > > >::begin
; Function compile flags: /Odt
_TEXT	ENDS
;	COMDAT ?end@?$vector@V?$basic_string@DU?$char_traits@D@std@@V?$allocator@D@2@@std@@V?$allocator@V?$basic_string@DU?$char_traits@D@std@@V?$allocator@D@2@@std@@@2@@std@@QAE?AViterator@12@XZ
_TEXT	SEGMENT
_this$ = -4						; size = 4
___$ReturnUdt$ = 8					; size = 4
?end@?$vector@V?$basic_string@DU?$char_traits@D@std@@V?$allocator@D@2@@std@@V?$allocator@V?$basic_string@DU?$char_traits@D@std@@V?$allocator@D@2@@std@@@2@@std@@QAE?AViterator@12@XZ PROC NEAR ; std::vector<std::basic_string<char,std::char_traits<char>,std::allocator<char> >,std::allocator<std::basic_string<char,std::char_traits<char>,std::allocator<char> > > >::end, COMDAT
; _this$ = ecx

; 472  : 		{	// return iterator for end of mutable sequence

  00000	55		 push	 ebp
  00001	8b ec		 mov	 ebp, esp
  00003	51		 push	 ecx
  00004	89 4d fc	 mov	 DWORD PTR _this$[ebp], ecx

; 473  : 		return (iterator(_Mylast));

  00007	8b 45 fc	 mov	 eax, DWORD PTR _this$[ebp]
  0000a	8b 48 08	 mov	 ecx, DWORD PTR [eax+8]
  0000d	51		 push	 ecx
  0000e	8b 4d 08	 mov	 ecx, DWORD PTR ___$ReturnUdt$[ebp]
  00011	e8 00 00 00 00	 call	 ??0iterator@?$vector@V?$basic_string@DU?$char_traits@D@std@@V?$allocator@D@2@@std@@V?$allocator@V?$basic_string@DU?$char_traits@D@std@@V?$allocator@D@2@@std@@@2@@std@@QAE@PAV?$basic_string@DU?$char_traits@D@std@@V?$allocator@D@2@@2@@Z ; std::vector<std::basic_string<char,std::char_traits<char>,std::allocator<char> >,std::allocator<std::basic_string<char,std::char_traits<char>,std::allocator<char> > > >::iterator::iterator
  00016	8b 45 08	 mov	 eax, DWORD PTR ___$ReturnUdt$[ebp]

; 474  : 		}

  00019	8b e5		 mov	 esp, ebp
  0001b	5d		 pop	 ebp
  0001c	c2 04 00	 ret	 4
?end@?$vector@V?$basic_string@DU?$char_traits@D@std@@V?$allocator@D@2@@std@@V?$allocator@V?$basic_string@DU?$char_traits@D@std@@V?$allocator@D@2@@std@@@2@@std@@QAE?AViterator@12@XZ ENDP ; std::vector<std::basic_string<char,std::char_traits<char>,std::allocator<char> >,std::allocator<std::basic_string<char,std::char_traits<char>,std::allocator<char> > > >::end
; Function compile flags: /Odt
_TEXT	ENDS
;	COMDAT ?size@?$vector@V?$basic_string@DU?$char_traits@D@std@@V?$allocator@D@2@@std@@V?$allocator@V?$basic_string@DU?$char_traits@D@std@@V?$allocator@D@2@@std@@@2@@std@@QBEIXZ
_TEXT	SEGMENT
tv70 = -8						; size = 4
_this$ = -4						; size = 4
?size@?$vector@V?$basic_string@DU?$char_traits@D@std@@V?$allocator@D@2@@std@@V?$allocator@V?$basic_string@DU?$char_traits@D@std@@V?$allocator@D@2@@std@@@2@@std@@QBEIXZ PROC NEAR ; std::vector<std::basic_string<char,std::char_traits<char>,std::allocator<char> >,std::allocator<std::basic_string<char,std::char_traits<char>,std::allocator<char> > > >::size, COMDAT
; _this$ = ecx

; 515  : 		{	// return length of sequence

  00000	55		 push	 ebp
  00001	8b ec		 mov	 ebp, esp
  00003	83 ec 08	 sub	 esp, 8
  00006	89 4d fc	 mov	 DWORD PTR _this$[ebp], ecx

; 516  : 		return (_Myfirst == 0 ? 0 : _Mylast - _Myfirst);

  00009	8b 45 fc	 mov	 eax, DWORD PTR _this$[ebp]
  0000c	83 78 04 00	 cmp	 DWORD PTR [eax+4], 0
  00010	75 09		 jne	 SHORT $L88315
  00012	c7 45 f8 00 00
	00 00		 mov	 DWORD PTR tv70[ebp], 0
  00019	eb 17		 jmp	 SHORT $L88316
$L88315:
  0001b	8b 4d fc	 mov	 ecx, DWORD PTR _this$[ebp]
  0001e	8b 55 fc	 mov	 edx, DWORD PTR _this$[ebp]
  00021	8b 41 08	 mov	 eax, DWORD PTR [ecx+8]
  00024	2b 42 04	 sub	 eax, DWORD PTR [edx+4]
  00027	99		 cdq
  00028	b9 1c 00 00 00	 mov	 ecx, 28			; 0000001cH
  0002d	f7 f9		 idiv	 ecx
  0002f	89 45 f8	 mov	 DWORD PTR tv70[ebp], eax
$L88316:
  00032	8b 45 f8	 mov	 eax, DWORD PTR tv70[ebp]

; 517  : 		}

  00035	8b e5		 mov	 esp, ebp
  00037	5d		 pop	 ebp
  00038	c3		 ret	 0
?size@?$vector@V?$basic_string@DU?$char_traits@D@std@@V?$allocator@D@2@@std@@V?$allocator@V?$basic_string@DU?$char_traits@D@std@@V?$allocator@D@2@@std@@@2@@std@@QBEIXZ ENDP ; std::vector<std::basic_string<char,std::char_traits<char>,std::allocator<char> >,std::allocator<std::basic_string<char,std::char_traits<char>,std::allocator<char> > > >::size
_TEXT	ENDS
PUBLIC	?begin@?$vector@V?$basic_string@DU?$char_traits@D@std@@V?$allocator@D@2@@std@@V?$allocator@V?$basic_string@DU?$char_traits@D@std@@V?$allocator@D@2@@std@@@2@@std@@QBE?AVconst_iterator@12@XZ ; std::vector<std::basic_string<char,std::char_traits<char>,std::allocator<char> >,std::allocator<std::basic_string<char,std::char_traits<char>,std::allocator<char> > > >::begin
PUBLIC	??Dconst_iterator@?$vector@V?$basic_string@DU?$char_traits@D@std@@V?$allocator@D@2@@std@@V?$allocator@V?$basic_string@DU?$char_traits@D@std@@V?$allocator@D@2@@std@@@2@@std@@QBEABV?$basic_string@DU?$char_traits@D@std@@V?$allocator@D@2@@2@XZ ; std::vector<std::basic_string<char,std::char_traits<char>,std::allocator<char> >,std::allocator<std::basic_string<char,std::char_traits<char>,std::allocator<char> > > >::const_iterator::operator*
PUBLIC	??Hconst_iterator@?$vector@V?$basic_string@DU?$char_traits@D@std@@V?$allocator@D@2@@std@@V?$allocator@V?$basic_string@DU?$char_traits@D@std@@V?$allocator@D@2@@std@@@2@@std@@QBE?AV012@H@Z ; std::vector<std::basic_string<char,std::char_traits<char>,std::allocator<char> >,std::allocator<std::basic_string<char,std::char_traits<char>,std::allocator<char> > > >::const_iterator::operator+
; Function compile flags: /Odt
;	COMDAT ??A?$vector@V?$basic_string@DU?$char_traits@D@std@@V?$allocator@D@2@@std@@V?$allocator@V?$basic_string@DU?$char_traits@D@std@@V?$allocator@D@2@@std@@@2@@std@@QBEABV?$basic_string@DU?$char_traits@D@std@@V?$allocator@D@2@@1@I@Z
_TEXT	SEGMENT
_this$ = -12						; size = 4
$T88320 = -8						; size = 4
$T88319 = -4						; size = 4
__Pos$ = 8						; size = 4
??A?$vector@V?$basic_string@DU?$char_traits@D@std@@V?$allocator@D@2@@std@@V?$allocator@V?$basic_string@DU?$char_traits@D@std@@V?$allocator@D@2@@std@@@2@@std@@QBEABV?$basic_string@DU?$char_traits@D@std@@V?$allocator@D@2@@1@I@Z PROC NEAR ; std::vector<std::basic_string<char,std::char_traits<char>,std::allocator<char> >,std::allocator<std::basic_string<char,std::char_traits<char>,std::allocator<char> > > >::operator[], COMDAT
; _this$ = ecx

; 549  : 		{	// subscript nonmutable sequence

  00000	55		 push	 ebp
  00001	8b ec		 mov	 ebp, esp
  00003	83 ec 0c	 sub	 esp, 12			; 0000000cH
  00006	89 4d f4	 mov	 DWORD PTR _this$[ebp], ecx

; 550  : 		return (*(begin() + _Pos));

  00009	8b 45 08	 mov	 eax, DWORD PTR __Pos$[ebp]
  0000c	50		 push	 eax
  0000d	8d 4d f8	 lea	 ecx, DWORD PTR $T88320[ebp]
  00010	51		 push	 ecx
  00011	8d 55 fc	 lea	 edx, DWORD PTR $T88319[ebp]
  00014	52		 push	 edx
  00015	8b 4d f4	 mov	 ecx, DWORD PTR _this$[ebp]
  00018	e8 00 00 00 00	 call	 ?begin@?$vector@V?$basic_string@DU?$char_traits@D@std@@V?$allocator@D@2@@std@@V?$allocator@V?$basic_string@DU?$char_traits@D@std@@V?$allocator@D@2@@std@@@2@@std@@QBE?AVconst_iterator@12@XZ ; std::vector<std::basic_string<char,std::char_traits<char>,std::allocator<char> >,std::allocator<std::basic_string<char,std::char_traits<char>,std::allocator<char> > > >::begin
  0001d	8b c8		 mov	 ecx, eax
  0001f	e8 00 00 00 00	 call	 ??Hconst_iterator@?$vector@V?$basic_string@DU?$char_traits@D@std@@V?$allocator@D@2@@std@@V?$allocator@V?$basic_string@DU?$char_traits@D@std@@V?$allocator@D@2@@std@@@2@@std@@QBE?AV012@H@Z ; std::vector<std::basic_string<char,std::char_traits<char>,std::allocator<char> >,std::allocator<std::basic_string<char,std::char_traits<char>,std::allocator<char> > > >::const_iterator::operator+
  00024	8b c8		 mov	 ecx, eax
  00026	e8 00 00 00 00	 call	 ??Dconst_iterator@?$vector@V?$basic_string@DU?$char_traits@D@std@@V?$allocator@D@2@@std@@V?$allocator@V?$basic_string@DU?$char_traits@D@std@@V?$allocator@D@2@@std@@@2@@std@@QBEABV?$basic_string@DU?$char_traits@D@std@@V?$allocator@D@2@@2@XZ ; std::vector<std::basic_string<char,std::char_traits<char>,std::allocator<char> >,std::allocator<std::basic_string<char,std::char_traits<char>,std::allocator<char> > > >::const_iterator::operator*

; 551  : 		}

  0002b	8b e5		 mov	 esp, ebp
  0002d	5d		 pop	 ebp
  0002e	c2 04 00	 ret	 4
??A?$vector@V?$basic_string@DU?$char_traits@D@std@@V?$allocator@D@2@@std@@V?$allocator@V?$basic_string@DU?$char_traits@D@std@@V?$allocator@D@2@@std@@@2@@std@@QBEABV?$basic_string@DU?$char_traits@D@std@@V?$allocator@D@2@@1@I@Z ENDP ; std::vector<std::basic_string<char,std::char_traits<char>,std::allocator<char> >,std::allocator<std::basic_string<char,std::char_traits<char>,std::allocator<char> > > >::operator[]
_TEXT	ENDS
PUBLIC	??Hiterator@?$vector@V?$basic_string@DU?$char_traits@D@std@@V?$allocator@D@2@@std@@V?$allocator@V?$basic_string@DU?$char_traits@D@std@@V?$allocator@D@2@@std@@@2@@std@@QBE?AV012@H@Z ; std::vector<std::basic_string<char,std::char_traits<char>,std::allocator<char> >,std::allocator<std::basic_string<char,std::char_traits<char>,std::allocator<char> > > >::iterator::operator+
; Function compile flags: /Odt
;	COMDAT ??A?$vector@V?$basic_string@DU?$char_traits@D@std@@V?$allocator@D@2@@std@@V?$allocator@V?$basic_string@DU?$char_traits@D@std@@V?$allocator@D@2@@std@@@2@@std@@QAEAAV?$basic_string@DU?$char_traits@D@std@@V?$allocator@D@2@@1@I@Z
_TEXT	SEGMENT
_this$ = -12						; size = 4
$T88324 = -8						; size = 4
$T88323 = -4						; size = 4
__Pos$ = 8						; size = 4
??A?$vector@V?$basic_string@DU?$char_traits@D@std@@V?$allocator@D@2@@std@@V?$allocator@V?$basic_string@DU?$char_traits@D@std@@V?$allocator@D@2@@std@@@2@@std@@QAEAAV?$basic_string@DU?$char_traits@D@std@@V?$allocator@D@2@@1@I@Z PROC NEAR ; std::vector<std::basic_string<char,std::char_traits<char>,std::allocator<char> >,std::allocator<std::basic_string<char,std::char_traits<char>,std::allocator<char> > > >::operator[], COMDAT
; _this$ = ecx

; 554  : 		{	// subscript mutable sequence

  00000	55		 push	 ebp
  00001	8b ec		 mov	 ebp, esp
  00003	83 ec 0c	 sub	 esp, 12			; 0000000cH
  00006	89 4d f4	 mov	 DWORD PTR _this$[ebp], ecx

; 555  : 		return (*(begin() + _Pos));

  00009	8b 45 08	 mov	 eax, DWORD PTR __Pos$[ebp]
  0000c	50		 push	 eax
  0000d	8d 4d f8	 lea	 ecx, DWORD PTR $T88324[ebp]
  00010	51		 push	 ecx
  00011	8d 55 fc	 lea	 edx, DWORD PTR $T88323[ebp]
  00014	52		 push	 edx
  00015	8b 4d f4	 mov	 ecx, DWORD PTR _this$[ebp]
  00018	e8 00 00 00 00	 call	 ?begin@?$vector@V?$basic_string@DU?$char_traits@D@std@@V?$allocator@D@2@@std@@V?$allocator@V?$basic_string@DU?$char_traits@D@std@@V?$allocator@D@2@@std@@@2@@std@@QAE?AViterator@12@XZ ; std::vector<std::basic_string<char,std::char_traits<char>,std::allocator<char> >,std::allocator<std::basic_string<char,std::char_traits<char>,std::allocator<char> > > >::begin
  0001d	8b c8		 mov	 ecx, eax
  0001f	e8 00 00 00 00	 call	 ??Hiterator@?$vector@V?$basic_string@DU?$char_traits@D@std@@V?$allocator@D@2@@std@@V?$allocator@V?$basic_string@DU?$char_traits@D@std@@V?$allocator@D@2@@std@@@2@@std@@QBE?AV012@H@Z ; std::vector<std::basic_string<char,std::char_traits<char>,std::allocator<char> >,std::allocator<std::basic_string<char,std::char_traits<char>,std::allocator<char> > > >::iterator::operator+
  00024	8b c8		 mov	 ecx, eax
  00026	e8 00 00 00 00	 call	 ??Diterator@?$vector@V?$basic_string@DU?$char_traits@D@std@@V?$allocator@D@2@@std@@V?$allocator@V?$basic_string@DU?$char_traits@D@std@@V?$allocator@D@2@@std@@@2@@std@@QBEAAV?$basic_string@DU?$char_traits@D@std@@V?$allocator@D@2@@2@XZ ; std::vector<std::basic_string<char,std::char_traits<char>,std::allocator<char> >,std::allocator<std::basic_string<char,std::char_traits<char>,std::allocator<char> > > >::iterator::operator*

; 556  : 		}

  0002b	8b e5		 mov	 esp, ebp
  0002d	5d		 pop	 ebp
  0002e	c2 04 00	 ret	 4
??A?$vector@V?$basic_string@DU?$char_traits@D@std@@V?$allocator@D@2@@std@@V?$allocator@V?$basic_string@DU?$char_traits@D@std@@V?$allocator@D@2@@std@@@2@@std@@QAEAAV?$basic_string@DU?$char_traits@D@std@@V?$allocator@D@2@@1@I@Z ENDP ; std::vector<std::basic_string<char,std::char_traits<char>,std::allocator<char> >,std::allocator<std::basic_string<char,std::char_traits<char>,std::allocator<char> > > >::operator[]
_TEXT	ENDS
PUBLIC	?capacity@?$vector@V?$basic_string@DU?$char_traits@D@std@@V?$allocator@D@2@@std@@V?$allocator@V?$basic_string@DU?$char_traits@D@std@@V?$allocator@D@2@@std@@@2@@std@@QBEIXZ ; std::vector<std::basic_string<char,std::char_traits<char>,std::allocator<char> >,std::allocator<std::basic_string<char,std::char_traits<char>,std::allocator<char> > > >::capacity
PUBLIC	?insert@?$vector@V?$basic_string@DU?$char_traits@D@std@@V?$allocator@D@2@@std@@V?$allocator@V?$basic_string@DU?$char_traits@D@std@@V?$allocator@D@2@@std@@@2@@std@@QAE?AViterator@12@V312@ABV?$basic_string@DU?$char_traits@D@std@@V?$allocator@D@2@@2@@Z ; std::vector<std::basic_string<char,std::char_traits<char>,std::allocator<char> >,std::allocator<std::basic_string<char,std::char_traits<char>,std::allocator<char> > > >::insert
PUBLIC	?_Ufill@?$vector@V?$basic_string@DU?$char_traits@D@std@@V?$allocator@D@2@@std@@V?$allocator@V?$basic_string@DU?$char_traits@D@std@@V?$allocator@D@2@@std@@@2@@std@@IAEPAV?$basic_string@DU?$char_traits@D@std@@V?$allocator@D@2@@2@PAV32@IABV32@@Z ; std::vector<std::basic_string<char,std::char_traits<char>,std::allocator<char> >,std::allocator<std::basic_string<char,std::char_traits<char>,std::allocator<char> > > >::_Ufill
; Function compile flags: /Odt
;	COMDAT ?push_back@?$vector@V?$basic_string@DU?$char_traits@D@std@@V?$allocator@D@2@@std@@V?$allocator@V?$basic_string@DU?$char_traits@D@std@@V?$allocator@D@2@@std@@@2@@std@@QAEXABV?$basic_string@DU?$char_traits@D@std@@V?$allocator@D@2@@2@@Z
_TEXT	SEGMENT
_this$ = -12						; size = 4
$T88328 = -8						; size = 4
$T88327 = -4						; size = 4
__Val$ = 8						; size = 4
?push_back@?$vector@V?$basic_string@DU?$char_traits@D@std@@V?$allocator@D@2@@std@@V?$allocator@V?$basic_string@DU?$char_traits@D@std@@V?$allocator@D@2@@std@@@2@@std@@QAEXABV?$basic_string@DU?$char_traits@D@std@@V?$allocator@D@2@@2@@Z PROC NEAR ; std::vector<std::basic_string<char,std::char_traits<char>,std::allocator<char> >,std::allocator<std::basic_string<char,std::char_traits<char>,std::allocator<char> > > >::push_back, COMDAT
; _this$ = ecx

; 579  : 		{	// insert element at end

  00000	55		 push	 ebp
  00001	8b ec		 mov	 ebp, esp
  00003	83 ec 0c	 sub	 esp, 12			; 0000000cH
  00006	56		 push	 esi
  00007	89 4d f4	 mov	 DWORD PTR _this$[ebp], ecx

; 580  : 		if (size() < capacity())

  0000a	8b 4d f4	 mov	 ecx, DWORD PTR _this$[ebp]
  0000d	e8 00 00 00 00	 call	 ?size@?$vector@V?$basic_string@DU?$char_traits@D@std@@V?$allocator@D@2@@std@@V?$allocator@V?$basic_string@DU?$char_traits@D@std@@V?$allocator@D@2@@std@@@2@@std@@QBEIXZ ; std::vector<std::basic_string<char,std::char_traits<char>,std::allocator<char> >,std::allocator<std::basic_string<char,std::char_traits<char>,std::allocator<char> > > >::size
  00012	8b f0		 mov	 esi, eax
  00014	8b 4d f4	 mov	 ecx, DWORD PTR _this$[ebp]
  00017	e8 00 00 00 00	 call	 ?capacity@?$vector@V?$basic_string@DU?$char_traits@D@std@@V?$allocator@D@2@@std@@V?$allocator@V?$basic_string@DU?$char_traits@D@std@@V?$allocator@D@2@@std@@@2@@std@@QBEIXZ ; std::vector<std::basic_string<char,std::char_traits<char>,std::allocator<char> >,std::allocator<std::basic_string<char,std::char_traits<char>,std::allocator<char> > > >::capacity
  0001c	3b f0		 cmp	 esi, eax
  0001e	73 1d		 jae	 SHORT $L84931

; 581  : 			_Mylast = _Ufill(_Mylast, 1, _Val);

  00020	8b 45 08	 mov	 eax, DWORD PTR __Val$[ebp]
  00023	50		 push	 eax
  00024	6a 01		 push	 1
  00026	8b 4d f4	 mov	 ecx, DWORD PTR _this$[ebp]
  00029	8b 51 08	 mov	 edx, DWORD PTR [ecx+8]
  0002c	52		 push	 edx
  0002d	8b 4d f4	 mov	 ecx, DWORD PTR _this$[ebp]
  00030	e8 00 00 00 00	 call	 ?_Ufill@?$vector@V?$basic_string@DU?$char_traits@D@std@@V?$allocator@D@2@@std@@V?$allocator@V?$basic_string@DU?$char_traits@D@std@@V?$allocator@D@2@@std@@@2@@std@@IAEPAV?$basic_string@DU?$char_traits@D@std@@V?$allocator@D@2@@2@PAV32@IABV32@@Z ; std::vector<std::basic_string<char,std::char_traits<char>,std::allocator<char> >,std::allocator<std::basic_string<char,std::char_traits<char>,std::allocator<char> > > >::_Ufill
  00035	8b 4d f4	 mov	 ecx, DWORD PTR _this$[ebp]
  00038	89 41 08	 mov	 DWORD PTR [ecx+8], eax

; 582  : 		else

  0003b	eb 1f		 jmp	 SHORT $L84930
$L84931:

; 583  : 			insert(end(), _Val);

  0003d	8b 55 08	 mov	 edx, DWORD PTR __Val$[ebp]
  00040	52		 push	 edx
  00041	8d 45 fc	 lea	 eax, DWORD PTR $T88327[ebp]
  00044	50		 push	 eax
  00045	8b 4d f4	 mov	 ecx, DWORD PTR _this$[ebp]
  00048	e8 00 00 00 00	 call	 ?end@?$vector@V?$basic_string@DU?$char_traits@D@std@@V?$allocator@D@2@@std@@V?$allocator@V?$basic_string@DU?$char_traits@D@std@@V?$allocator@D@2@@std@@@2@@std@@QAE?AViterator@12@XZ ; std::vector<std::basic_string<char,std::char_traits<char>,std::allocator<char> >,std::allocator<std::basic_string<char,std::char_traits<char>,std::allocator<char> > > >::end
  0004d	8b 08		 mov	 ecx, DWORD PTR [eax]
  0004f	51		 push	 ecx
  00050	8d 55 f8	 lea	 edx, DWORD PTR $T88328[ebp]
  00053	52		 push	 edx
  00054	8b 4d f4	 mov	 ecx, DWORD PTR _this$[ebp]
  00057	e8 00 00 00 00	 call	 ?insert@?$vector@V?$basic_string@DU?$char_traits@D@std@@V?$allocator@D@2@@std@@V?$allocator@V?$basic_string@DU?$char_traits@D@std@@V?$allocator@D@2@@std@@@2@@std@@QAE?AViterator@12@V312@ABV?$basic_string@DU?$char_traits@D@std@@V?$allocator@D@2@@2@@Z ; std::vector<std::basic_string<char,std::char_traits<char>,std::allocator<char> >,std::allocator<std::basic_string<char,std::char_traits<char>,std::allocator<char> > > >::insert
$L84930:

; 584  : 		}

  0005c	5e		 pop	 esi
  0005d	8b e5		 mov	 esp, ebp
  0005f	5d		 pop	 ebp
  00060	c2 04 00	 ret	 4
?push_back@?$vector@V?$basic_string@DU?$char_traits@D@std@@V?$allocator@D@2@@std@@V?$allocator@V?$basic_string@DU?$char_traits@D@std@@V?$allocator@D@2@@std@@@2@@std@@QAEXABV?$basic_string@DU?$char_traits@D@std@@V?$allocator@D@2@@2@@Z ENDP ; std::vector<std::basic_string<char,std::char_traits<char>,std::allocator<char> >,std::allocator<std::basic_string<char,std::char_traits<char>,std::allocator<char> > > >::push_back
; Function compile flags: /Odt
_TEXT	ENDS
;	COMDAT ??Diterator@?$vector@V?$basic_string@DU?$char_traits@D@std@@V?$allocator@D@2@@std@@V?$allocator@V?$basic_string@DU?$char_traits@D@std@@V?$allocator@D@2@@std@@@2@@std@@QBEAAV?$basic_string@DU?$char_traits@D@std@@V?$allocator@D@2@@2@XZ
_TEXT	SEGMENT
_this$ = -4						; size = 4
??Diterator@?$vector@V?$basic_string@DU?$char_traits@D@std@@V?$allocator@D@2@@std@@V?$allocator@V?$basic_string@DU?$char_traits@D@std@@V?$allocator@D@2@@std@@@2@@std@@QBEAAV?$basic_string@DU?$char_traits@D@std@@V?$allocator@D@2@@2@XZ PROC NEAR ; std::vector<std::basic_string<char,std::char_traits<char>,std::allocator<char> >,std::allocator<std::basic_string<char,std::char_traits<char>,std::allocator<char> > > >::iterator::operator*, COMDAT
; _this$ = ecx

; 219  : 			{	// return designated object

  00000	55		 push	 ebp
  00001	8b ec		 mov	 ebp, esp
  00003	51		 push	 ecx
  00004	89 4d fc	 mov	 DWORD PTR _this$[ebp], ecx

; 220  : 			return ((reference)**(const_iterator *)this);

  00007	8b 4d fc	 mov	 ecx, DWORD PTR _this$[ebp]
  0000a	e8 00 00 00 00	 call	 ??Dconst_iterator@?$vector@V?$basic_string@DU?$char_traits@D@std@@V?$allocator@D@2@@std@@V?$allocator@V?$basic_string@DU?$char_traits@D@std@@V?$allocator@D@2@@std@@@2@@std@@QBEABV?$basic_string@DU?$char_traits@D@std@@V?$allocator@D@2@@2@XZ ; std::vector<std::basic_string<char,std::char_traits<char>,std::allocator<char> >,std::allocator<std::basic_string<char,std::char_traits<char>,std::allocator<char> > > >::const_iterator::operator*

; 221  : 			}

  0000f	8b e5		 mov	 esp, ebp
  00011	5d		 pop	 ebp
  00012	c3		 ret	 0
??Diterator@?$vector@V?$basic_string@DU?$char_traits@D@std@@V?$allocator@D@2@@std@@V?$allocator@V?$basic_string@DU?$char_traits@D@std@@V?$allocator@D@2@@std@@@2@@std@@QBEAAV?$basic_string@DU?$char_traits@D@std@@V?$allocator@D@2@@2@XZ ENDP ; std::vector<std::basic_string<char,std::char_traits<char>,std::allocator<char> >,std::allocator<std::basic_string<char,std::char_traits<char>,std::allocator<char> > > >::iterator::operator*
; Function compile flags: /Odt
_TEXT	ENDS
;	COMDAT ??Citerator@?$vector@V?$basic_string@DU?$char_traits@D@std@@V?$allocator@D@2@@std@@V?$allocator@V?$basic_string@DU?$char_traits@D@std@@V?$allocator@D@2@@std@@@2@@std@@QBEPAV?$basic_string@DU?$char_traits@D@std@@V?$allocator@D@2@@2@XZ
_TEXT	SEGMENT
_this$ = -4						; size = 4
??Citerator@?$vector@V?$basic_string@DU?$char_traits@D@std@@V?$allocator@D@2@@std@@V?$allocator@V?$basic_string@DU?$char_traits@D@std@@V?$allocator@D@2@@std@@@2@@std@@QBEPAV?$basic_string@DU?$char_traits@D@std@@V?$allocator@D@2@@2@XZ PROC NEAR ; std::vector<std::basic_string<char,std::char_traits<char>,std::allocator<char> >,std::allocator<std::basic_string<char,std::char_traits<char>,std::allocator<char> > > >::iterator::operator->, COMDAT
; _this$ = ecx

; 224  : 			{	// return pointer to class object

  00000	55		 push	 ebp
  00001	8b ec		 mov	 ebp, esp
  00003	51		 push	 ecx
  00004	89 4d fc	 mov	 DWORD PTR _this$[ebp], ecx

; 225  : 			return (&**this);

  00007	8b 4d fc	 mov	 ecx, DWORD PTR _this$[ebp]
  0000a	e8 00 00 00 00	 call	 ??Diterator@?$vector@V?$basic_string@DU?$char_traits@D@std@@V?$allocator@D@2@@std@@V?$allocator@V?$basic_string@DU?$char_traits@D@std@@V?$allocator@D@2@@std@@@2@@std@@QBEAAV?$basic_string@DU?$char_traits@D@std@@V?$allocator@D@2@@2@XZ ; std::vector<std::basic_string<char,std::char_traits<char>,std::allocator<char> >,std::allocator<std::basic_string<char,std::char_traits<char>,std::allocator<char> > > >::iterator::operator*

; 226  : 			}

  0000f	8b e5		 mov	 esp, ebp
  00011	5d		 pop	 ebp
  00012	c3		 ret	 0
??Citerator@?$vector@V?$basic_string@DU?$char_traits@D@std@@V?$allocator@D@2@@std@@V?$allocator@V?$basic_string@DU?$char_traits@D@std@@V?$allocator@D@2@@std@@@2@@std@@QBEPAV?$basic_string@DU?$char_traits@D@std@@V?$allocator@D@2@@2@XZ ENDP ; std::vector<std::basic_string<char,std::char_traits<char>,std::allocator<char> >,std::allocator<std::basic_string<char,std::char_traits<char>,std::allocator<char> > > >::iterator::operator->
_TEXT	ENDS
PUBLIC	??Eiterator@?$vector@V?$basic_string@DU?$char_traits@D@std@@V?$allocator@D@2@@std@@V?$allocator@V?$basic_string@DU?$char_traits@D@std@@V?$allocator@D@2@@std@@@2@@std@@QAEAAV012@XZ ; std::vector<std::basic_string<char,std::char_traits<char>,std::allocator<char> >,std::allocator<std::basic_string<char,std::char_traits<char>,std::allocator<char> > > >::iterator::operator++
; Function compile flags: /Odt
;	COMDAT ??Eiterator@?$vector@V?$basic_string@DU?$char_traits@D@std@@V?$allocator@D@2@@std@@V?$allocator@V?$basic_string@DU?$char_traits@D@std@@V?$allocator@D@2@@std@@@2@@std@@QAE?AV012@H@Z
_TEXT	SEGMENT
_this$ = -8						; size = 4
__Tmp$ = -4						; size = 4
___$ReturnUdt$ = 8					; size = 4
___formal$ = 12						; size = 4
??Eiterator@?$vector@V?$basic_string@DU?$char_traits@D@std@@V?$allocator@D@2@@std@@V?$allocator@V?$basic_string@DU?$char_traits@D@std@@V?$allocator@D@2@@std@@@2@@std@@QAE?AV012@H@Z PROC NEAR ; std::vector<std::basic_string<char,std::char_traits<char>,std::allocator<char> >,std::allocator<std::basic_string<char,std::char_traits<char>,std::allocator<char> > > >::iterator::operator++, COMDAT
; _this$ = ecx

; 235  : 			{	// postincrement

  00000	55		 push	 ebp
  00001	8b ec		 mov	 ebp, esp
  00003	83 ec 08	 sub	 esp, 8
  00006	89 4d f8	 mov	 DWORD PTR _this$[ebp], ecx

; 236  : 			iterator _Tmp = *this;

  00009	8b 45 f8	 mov	 eax, DWORD PTR _this$[ebp]
  0000c	8b 08		 mov	 ecx, DWORD PTR [eax]
  0000e	89 4d fc	 mov	 DWORD PTR __Tmp$[ebp], ecx

; 237  : 			++*this;

  00011	8b 4d f8	 mov	 ecx, DWORD PTR _this$[ebp]
  00014	e8 00 00 00 00	 call	 ??Eiterator@?$vector@V?$basic_string@DU?$char_traits@D@std@@V?$allocator@D@2@@std@@V?$allocator@V?$basic_string@DU?$char_traits@D@std@@V?$allocator@D@2@@std@@@2@@std@@QAEAAV012@XZ ; std::vector<std::basic_string<char,std::char_traits<char>,std::allocator<char> >,std::allocator<std::basic_string<char,std::char_traits<char>,std::allocator<char> > > >::iterator::operator++

; 238  : 			return (_Tmp);

  00019	8b 55 08	 mov	 edx, DWORD PTR ___$ReturnUdt$[ebp]
  0001c	8b 45 fc	 mov	 eax, DWORD PTR __Tmp$[ebp]
  0001f	89 02		 mov	 DWORD PTR [edx], eax
  00021	8b 45 08	 mov	 eax, DWORD PTR ___$ReturnUdt$[ebp]

; 239  : 			}

  00024	8b e5		 mov	 esp, ebp
  00026	5d		 pop	 ebp
  00027	c2 08 00	 ret	 8
??Eiterator@?$vector@V?$basic_string@DU?$char_traits@D@std@@V?$allocator@D@2@@std@@V?$allocator@V?$basic_string@DU?$char_traits@D@std@@V?$allocator@D@2@@std@@@2@@std@@QAE?AV012@H@Z ENDP ; std::vector<std::basic_string<char,std::char_traits<char>,std::allocator<char> >,std::allocator<std::basic_string<char,std::char_traits<char>,std::allocator<char> > > >::iterator::operator++
_TEXT	ENDS
PUBLIC	??8const_iterator@?$vector@V?$basic_string@DU?$char_traits@D@std@@V?$allocator@D@2@@std@@V?$allocator@V?$basic_string@DU?$char_traits@D@std@@V?$allocator@D@2@@std@@@2@@std@@QBE_NABV012@@Z ; std::vector<std::basic_string<char,std::char_traits<char>,std::allocator<char> >,std::allocator<std::basic_string<char,std::char_traits<char>,std::allocator<char> > > >::const_iterator::operator==
; Function compile flags: /Odt
;	COMDAT ??9const_iterator@?$vector@V?$basic_string@DU?$char_traits@D@std@@V?$allocator@D@2@@std@@V?$allocator@V?$basic_string@DU?$char_traits@D@std@@V?$allocator@D@2@@std@@@2@@std@@QBE_NABV012@@Z
_TEXT	SEGMENT
_this$ = -4						; size = 4
__Right$ = 8						; size = 4
??9const_iterator@?$vector@V?$basic_string@DU?$char_traits@D@std@@V?$allocator@D@2@@std@@V?$allocator@V?$basic_string@DU?$char_traits@D@std@@V?$allocator@D@2@@std@@@2@@std@@QBE_NABV012@@Z PROC NEAR ; std::vector<std::basic_string<char,std::char_traits<char>,std::allocator<char> >,std::allocator<std::basic_string<char,std::char_traits<char>,std::allocator<char> > > >::const_iterator::operator!=, COMDAT
; _this$ = ecx

; 159  : 			{	// test for iterator inequality

  00000	55		 push	 ebp
  00001	8b ec		 mov	 ebp, esp
  00003	51		 push	 ecx
  00004	89 4d fc	 mov	 DWORD PTR _this$[ebp], ecx

; 160  : 			return (!(*this == _Right));

  00007	8b 45 08	 mov	 eax, DWORD PTR __Right$[ebp]
  0000a	50		 push	 eax
  0000b	8b 4d fc	 mov	 ecx, DWORD PTR _this$[ebp]
  0000e	e8 00 00 00 00	 call	 ??8const_iterator@?$vector@V?$basic_string@DU?$char_traits@D@std@@V?$allocator@D@2@@std@@V?$allocator@V?$basic_string@DU?$char_traits@D@std@@V?$allocator@D@2@@std@@@2@@std@@QBE_NABV012@@Z ; std::vector<std::basic_string<char,std::char_traits<char>,std::allocator<char> >,std::allocator<std::basic_string<char,std::char_traits<char>,std::allocator<char> > > >::const_iterator::operator==
  00013	0f b6 c0	 movzx	 eax, al
  00016	f7 d8		 neg	 eax
  00018	1b c0		 sbb	 eax, eax
  0001a	40		 inc	 eax

; 161  : 			}

  0001b	8b e5		 mov	 esp, ebp
  0001d	5d		 pop	 ebp
  0001e	c2 04 00	 ret	 4
??9const_iterator@?$vector@V?$basic_string@DU?$char_traits@D@std@@V?$allocator@D@2@@std@@V?$allocator@V?$basic_string@DU?$char_traits@D@std@@V?$allocator@D@2@@std@@@2@@std@@QBE_NABV012@@Z ENDP ; std::vector<std::basic_string<char,std::char_traits<char>,std::allocator<char> >,std::allocator<std::basic_string<char,std::char_traits<char>,std::allocator<char> > > >::const_iterator::operator!=
; Function compile flags: /Odt
_TEXT	ENDS
;	COMDAT ?capacity@?$vector@V?$basic_string@DU?$char_traits@D@std@@V?$allocator@D@2@@std@@V?$allocator@V?$basic_string@DU?$char_traits@D@std@@V?$allocator@D@2@@std@@@2@@std@@QBEIXZ
_TEXT	SEGMENT
tv70 = -8						; size = 4
_this$ = -4						; size = 4
?capacity@?$vector@V?$basic_string@DU?$char_traits@D@std@@V?$allocator@D@2@@std@@V?$allocator@V?$basic_string@DU?$char_traits@D@std@@V?$allocator@D@2@@std@@@2@@std@@QBEIXZ PROC NEAR ; std::vector<std::basic_string<char,std::char_traits<char>,std::allocator<char> >,std::allocator<std::basic_string<char,std::char_traits<char>,std::allocator<char> > > >::capacity, COMDAT
; _this$ = ecx

; 457  : 		{	// return current length of allocated storage

  00000	55		 push	 ebp
  00001	8b ec		 mov	 ebp, esp
  00003	83 ec 08	 sub	 esp, 8
  00006	89 4d fc	 mov	 DWORD PTR _this$[ebp], ecx

; 458  : 		return (_Myfirst == 0 ? 0 : _Myend - _Myfirst);

  00009	8b 45 fc	 mov	 eax, DWORD PTR _this$[ebp]
  0000c	83 78 04 00	 cmp	 DWORD PTR [eax+4], 0
  00010	75 09		 jne	 SHORT $L88339
  00012	c7 45 f8 00 00
	00 00		 mov	 DWORD PTR tv70[ebp], 0
  00019	eb 17		 jmp	 SHORT $L88340
$L88339:
  0001b	8b 4d fc	 mov	 ecx, DWORD PTR _this$[ebp]
  0001e	8b 55 fc	 mov	 edx, DWORD PTR _this$[ebp]
  00021	8b 41 0c	 mov	 eax, DWORD PTR [ecx+12]
  00024	2b 42 04	 sub	 eax, DWORD PTR [edx+4]
  00027	99		 cdq
  00028	b9 1c 00 00 00	 mov	 ecx, 28			; 0000001cH
  0002d	f7 f9		 idiv	 ecx
  0002f	89 45 f8	 mov	 DWORD PTR tv70[ebp], eax
$L88340:
  00032	8b 45 f8	 mov	 eax, DWORD PTR tv70[ebp]

; 459  : 		}

  00035	8b e5		 mov	 esp, ebp
  00037	5d		 pop	 ebp
  00038	c3		 ret	 0
?capacity@?$vector@V?$basic_string@DU?$char_traits@D@std@@V?$allocator@D@2@@std@@V?$allocator@V?$basic_string@DU?$char_traits@D@std@@V?$allocator@D@2@@std@@@2@@std@@QBEIXZ ENDP ; std::vector<std::basic_string<char,std::char_traits<char>,std::allocator<char> >,std::allocator<std::basic_string<char,std::char_traits<char>,std::allocator<char> > > >::capacity
_TEXT	ENDS
PUBLIC	??0const_iterator@?$vector@V?$basic_string@DU?$char_traits@D@std@@V?$allocator@D@2@@std@@V?$allocator@V?$basic_string@DU?$char_traits@D@std@@V?$allocator@D@2@@std@@@2@@std@@QAE@PAV?$basic_string@DU?$char_traits@D@std@@V?$allocator@D@2@@2@@Z ; std::vector<std::basic_string<char,std::char_traits<char>,std::allocator<char> >,std::allocator<std::basic_string<char,std::char_traits<char>,std::allocator<char> > > >::const_iterator::const_iterator
; Function compile flags: /Odt
;	COMDAT ?begin@?$vector@V?$basic_string@DU?$char_traits@D@std@@V?$allocator@D@2@@std@@V?$allocator@V?$basic_string@DU?$char_traits@D@std@@V?$allocator@D@2@@std@@@2@@std@@QBE?AVconst_iterator@12@XZ
_TEXT	SEGMENT
_this$ = -4						; size = 4
___$ReturnUdt$ = 8					; size = 4
?begin@?$vector@V?$basic_string@DU?$char_traits@D@std@@V?$allocator@D@2@@std@@V?$allocator@V?$basic_string@DU?$char_traits@D@std@@V?$allocator@D@2@@std@@@2@@std@@QBE?AVconst_iterator@12@XZ PROC NEAR ; std::vector<std::basic_string<char,std::char_traits<char>,std::allocator<char> >,std::allocator<std::basic_string<char,std::char_traits<char>,std::allocator<char> > > >::begin, COMDAT
; _this$ = ecx

; 467  : 		{	// return iterator for beginning of nonmutable sequence

  00000	55		 push	 ebp
  00001	8b ec		 mov	 ebp, esp
  00003	51		 push	 ecx
  00004	89 4d fc	 mov	 DWORD PTR _this$[ebp], ecx

; 468  : 		return (const_iterator(_Myfirst));

  00007	8b 45 fc	 mov	 eax, DWORD PTR _this$[ebp]
  0000a	8b 48 04	 mov	 ecx, DWORD PTR [eax+4]
  0000d	51		 push	 ecx
  0000e	8b 4d 08	 mov	 ecx, DWORD PTR ___$ReturnUdt$[ebp]
  00011	e8 00 00 00 00	 call	 ??0const_iterator@?$vector@V?$basic_string@DU?$char_traits@D@std@@V?$allocator@D@2@@std@@V?$allocator@V?$basic_string@DU?$char_traits@D@std@@V?$allocator@D@2@@std@@@2@@std@@QAE@PAV?$basic_string@DU?$char_traits@D@std@@V?$allocator@D@2@@2@@Z ; std::vector<std::basic_string<char,std::char_traits<char>,std::allocator<char> >,std::allocator<std::basic_string<char,std::char_traits<char>,std::allocator<char> > > >::const_iterator::const_iterator
  00016	8b 45 08	 mov	 eax, DWORD PTR ___$ReturnUdt$[ebp]

; 469  : 		}

  00019	8b e5		 mov	 esp, ebp
  0001b	5d		 pop	 ebp
  0001c	c2 04 00	 ret	 4
?begin@?$vector@V?$basic_string@DU?$char_traits@D@std@@V?$allocator@D@2@@std@@V?$allocator@V?$basic_string@DU?$char_traits@D@std@@V?$allocator@D@2@@std@@@2@@std@@QBE?AVconst_iterator@12@XZ ENDP ; std::vector<std::basic_string<char,std::char_traits<char>,std::allocator<char> >,std::allocator<std::basic_string<char,std::char_traits<char>,std::allocator<char> > > >::begin
_TEXT	ENDS
PUBLIC	?_Insert_n@?$vector@V?$basic_string@DU?$char_traits@D@std@@V?$allocator@D@2@@std@@V?$allocator@V?$basic_string@DU?$char_traits@D@std@@V?$allocator@D@2@@std@@@2@@std@@IAEXViterator@12@IABV?$basic_string@DU?$char_traits@D@std@@V?$allocator@D@2@@2@@Z ; std::vector<std::basic_string<char,std::char_traits<char>,std::allocator<char> >,std::allocator<std::basic_string<char,std::char_traits<char>,std::allocator<char> > > >::_Insert_n
PUBLIC	??Giterator@?$vector@V?$basic_string@DU?$char_traits@D@std@@V?$allocator@D@2@@std@@V?$allocator@V?$basic_string@DU?$char_traits@D@std@@V?$allocator@D@2@@std@@@2@@std@@QBEHABVconst_iterator@12@@Z ; std::vector<std::basic_string<char,std::char_traits<char>,std::allocator<char> >,std::allocator<std::basic_string<char,std::char_traits<char>,std::allocator<char> > > >::iterator::operator-
; Function compile flags: /Odt
;	COMDAT ?insert@?$vector@V?$basic_string@DU?$char_traits@D@std@@V?$allocator@D@2@@std@@V?$allocator@V?$basic_string@DU?$char_traits@D@std@@V?$allocator@D@2@@std@@@2@@std@@QAE?AViterator@12@V312@ABV?$basic_string@DU?$char_traits@D@std@@V?$allocator@D@2@@2@@Z
_TEXT	SEGMENT
tv73 = -20						; size = 4
_this$ = -16						; size = 4
$T88348 = -12						; size = 4
$T88345 = -8						; size = 4
__Off$ = -4						; size = 4
___$ReturnUdt$ = 8					; size = 4
__Where$ = 12						; size = 4
__Val$ = 16						; size = 4
?insert@?$vector@V?$basic_string@DU?$char_traits@D@std@@V?$allocator@D@2@@std@@V?$allocator@V?$basic_string@DU?$char_traits@D@std@@V?$allocator@D@2@@std@@@2@@std@@QAE?AViterator@12@V312@ABV?$basic_string@DU?$char_traits@D@std@@V?$allocator@D@2@@2@@Z PROC NEAR ; std::vector<std::basic_string<char,std::char_traits<char>,std::allocator<char> >,std::allocator<std::basic_string<char,std::char_traits<char>,std::allocator<char> > > >::insert, COMDAT
; _this$ = ecx

; 620  : 		{	// insert _Val at _Where

  00000	55		 push	 ebp
  00001	8b ec		 mov	 ebp, esp
  00003	83 ec 14	 sub	 esp, 20			; 00000014H
  00006	89 4d f0	 mov	 DWORD PTR _this$[ebp], ecx

; 621  : 		size_type _Off = size() == 0 ? 0 : _Where - begin();

  00009	8b 4d f0	 mov	 ecx, DWORD PTR _this$[ebp]
  0000c	e8 00 00 00 00	 call	 ?size@?$vector@V?$basic_string@DU?$char_traits@D@std@@V?$allocator@D@2@@std@@V?$allocator@V?$basic_string@DU?$char_traits@D@std@@V?$allocator@D@2@@std@@@2@@std@@QBEIXZ ; std::vector<std::basic_string<char,std::char_traits<char>,std::allocator<char> >,std::allocator<std::basic_string<char,std::char_traits<char>,std::allocator<char> > > >::size
  00011	85 c0		 test	 eax, eax
  00013	75 09		 jne	 SHORT $L88346
  00015	c7 45 ec 00 00
	00 00		 mov	 DWORD PTR tv73[ebp], 0
  0001c	eb 18		 jmp	 SHORT $L88347
$L88346:
  0001e	8d 45 f8	 lea	 eax, DWORD PTR $T88345[ebp]
  00021	50		 push	 eax
  00022	8b 4d f0	 mov	 ecx, DWORD PTR _this$[ebp]
  00025	e8 00 00 00 00	 call	 ?begin@?$vector@V?$basic_string@DU?$char_traits@D@std@@V?$allocator@D@2@@std@@V?$allocator@V?$basic_string@DU?$char_traits@D@std@@V?$allocator@D@2@@std@@@2@@std@@QAE?AViterator@12@XZ ; std::vector<std::basic_string<char,std::char_traits<char>,std::allocator<char> >,std::allocator<std::basic_string<char,std::char_traits<char>,std::allocator<char> > > >::begin
  0002a	50		 push	 eax
  0002b	8d 4d 0c	 lea	 ecx, DWORD PTR __Where$[ebp]
  0002e	e8 00 00 00 00	 call	 ??Giterator@?$vector@V?$basic_string@DU?$char_traits@D@std@@V?$allocator@D@2@@std@@V?$allocator@V?$basic_string@DU?$char_traits@D@std@@V?$allocator@D@2@@std@@@2@@std@@QBEHABVconst_iterator@12@@Z ; std::vector<std::basic_string<char,std::char_traits<char>,std::allocator<char> >,std::allocator<std::basic_string<char,std::char_traits<char>,std::allocator<char> > > >::iterator::operator-
  00033	89 45 ec	 mov	 DWORD PTR tv73[ebp], eax
$L88347:
  00036	8b 4d ec	 mov	 ecx, DWORD PTR tv73[ebp]
  00039	89 4d fc	 mov	 DWORD PTR __Off$[ebp], ecx

; 622  : 		_Insert_n(_Where, (size_type)1, _Val);

  0003c	8b 55 10	 mov	 edx, DWORD PTR __Val$[ebp]
  0003f	52		 push	 edx
  00040	6a 01		 push	 1
  00042	8b 45 0c	 mov	 eax, DWORD PTR __Where$[ebp]
  00045	50		 push	 eax
  00046	8b 4d f0	 mov	 ecx, DWORD PTR _this$[ebp]
  00049	e8 00 00 00 00	 call	 ?_Insert_n@?$vector@V?$basic_string@DU?$char_traits@D@std@@V?$allocator@D@2@@std@@V?$allocator@V?$basic_string@DU?$char_traits@D@std@@V?$allocator@D@2@@std@@@2@@std@@IAEXViterator@12@IABV?$basic_string@DU?$char_traits@D@std@@V?$allocator@D@2@@2@@Z ; std::vector<std::basic_string<char,std::char_traits<char>,std::allocator<char> >,std::allocator<std::basic_string<char,std::char_traits<char>,std::allocator<char> > > >::_Insert_n

; 623  : 		return (begin() + _Off);

  0004e	8b 4d fc	 mov	 ecx, DWORD PTR __Off$[ebp]
  00051	51		 push	 ecx
  00052	8b 55 08	 mov	 edx, DWORD PTR ___$ReturnUdt$[ebp]
  00055	52		 push	 edx
  00056	8d 45 f4	 lea	 eax, DWORD PTR $T88348[ebp]
  00059	50		 push	 eax
  0005a	8b 4d f0	 mov	 ecx, DWORD PTR _this$[ebp]
  0005d	e8 00 00 00 00	 call	 ?begin@?$vector@V?$basic_string@DU?$char_traits@D@std@@V?$allocator@D@2@@std@@V?$allocator@V?$basic_string@DU?$char_traits@D@std@@V?$allocator@D@2@@std@@@2@@std@@QAE?AViterator@12@XZ ; std::vector<std::basic_string<char,std::char_traits<char>,std::allocator<char> >,std::allocator<std::basic_string<char,std::char_traits<char>,std::allocator<char> > > >::begin
  00062	8b c8		 mov	 ecx, eax
  00064	e8 00 00 00 00	 call	 ??Hiterator@?$vector@V?$basic_string@DU?$char_traits@D@std@@V?$allocator@D@2@@std@@V?$allocator@V?$basic_string@DU?$char_traits@D@std@@V?$allocator@D@2@@std@@@2@@std@@QBE?AV012@H@Z ; std::vector<std::basic_string<char,std::char_traits<char>,std::allocator<char> >,std::allocator<std::basic_string<char,std::char_traits<char>,std::allocator<char> > > >::iterator::operator+
  00069	8b 45 08	 mov	 eax, DWORD PTR ___$ReturnUdt$[ebp]

; 624  : 		}

  0006c	8b e5		 mov	 esp, ebp
  0006e	5d		 pop	 ebp
  0006f	c2 0c 00	 ret	 12			; 0000000cH
?insert@?$vector@V?$basic_string@DU?$char_traits@D@std@@V?$allocator@D@2@@std@@V?$allocator@V?$basic_string@DU?$char_traits@D@std@@V?$allocator@D@2@@std@@@2@@std@@QAE?AViterator@12@V312@ABV?$basic_string@DU?$char_traits@D@std@@V?$allocator@D@2@@2@@Z ENDP ; std::vector<std::basic_string<char,std::char_traits<char>,std::allocator<char> >,std::allocator<std::basic_string<char,std::char_traits<char>,std::allocator<char> > > >::insert
_TEXT	ENDS
PUBLIC	?allocate@?$allocator@V?$basic_string@DU?$char_traits@D@std@@V?$allocator@D@2@@std@@@std@@QAEPAV?$basic_string@DU?$char_traits@D@std@@V?$allocator@D@2@@2@I@Z ; std::allocator<std::basic_string<char,std::char_traits<char>,std::allocator<char> > >::allocate
PUBLIC	?max_size@?$vector@V?$basic_string@DU?$char_traits@D@std@@V?$allocator@D@2@@std@@V?$allocator@V?$basic_string@DU?$char_traits@D@std@@V?$allocator@D@2@@std@@@2@@std@@QBEIXZ ; std::vector<std::basic_string<char,std::char_traits<char>,std::allocator<char> >,std::allocator<std::basic_string<char,std::char_traits<char>,std::allocator<char> > > >::max_size
PUBLIC	?_Xlen@?$vector@V?$basic_string@DU?$char_traits@D@std@@V?$allocator@D@2@@std@@V?$allocator@V?$basic_string@DU?$char_traits@D@std@@V?$allocator@D@2@@std@@@2@@std@@IBEXXZ ; std::vector<std::basic_string<char,std::char_traits<char>,std::allocator<char> >,std::allocator<std::basic_string<char,std::char_traits<char>,std::allocator<char> > > >::_Xlen
; Function compile flags: /Odt
;	COMDAT ?_Buy@?$vector@V?$basic_string@DU?$char_traits@D@std@@V?$allocator@D@2@@std@@V?$allocator@V?$basic_string@DU?$char_traits@D@std@@V?$allocator@D@2@@std@@@2@@std@@IAE_NI@Z
_TEXT	SEGMENT
_this$ = -4						; size = 4
__Capacity$ = 8						; size = 4
?_Buy@?$vector@V?$basic_string@DU?$char_traits@D@std@@V?$allocator@D@2@@std@@V?$allocator@V?$basic_string@DU?$char_traits@D@std@@V?$allocator@D@2@@std@@@2@@std@@IAE_NI@Z PROC NEAR ; std::vector<std::basic_string<char,std::char_traits<char>,std::allocator<char> >,std::allocator<std::basic_string<char,std::char_traits<char>,std::allocator<char> > > >::_Buy, COMDAT
; _this$ = ecx

; 770  : 		{	// allocate array with _Capacity elements

  00000	55		 push	 ebp
  00001	8b ec		 mov	 ebp, esp
  00003	51		 push	 ecx
  00004	89 4d fc	 mov	 DWORD PTR _this$[ebp], ecx

; 771  : 		_Myfirst = 0, _Mylast = 0, _Myend = 0;

  00007	8b 45 fc	 mov	 eax, DWORD PTR _this$[ebp]
  0000a	c7 40 04 00 00
	00 00		 mov	 DWORD PTR [eax+4], 0
  00011	8b 4d fc	 mov	 ecx, DWORD PTR _this$[ebp]
  00014	c7 41 08 00 00
	00 00		 mov	 DWORD PTR [ecx+8], 0
  0001b	8b 55 fc	 mov	 edx, DWORD PTR _this$[ebp]
  0001e	c7 42 0c 00 00
	00 00		 mov	 DWORD PTR [edx+12], 0

; 772  : 		if (_Capacity == 0)

  00025	83 7d 08 00	 cmp	 DWORD PTR __Capacity$[ebp], 0
  00029	75 04		 jne	 SHORT $L85861

; 773  : 			return (false);

  0002b	32 c0		 xor	 al, al
  0002d	eb 49		 jmp	 SHORT $L85860
$L85861:

; 774  : 		else if (max_size() < _Capacity)

  0002f	8b 4d fc	 mov	 ecx, DWORD PTR _this$[ebp]
  00032	e8 00 00 00 00	 call	 ?max_size@?$vector@V?$basic_string@DU?$char_traits@D@std@@V?$allocator@D@2@@std@@V?$allocator@V?$basic_string@DU?$char_traits@D@std@@V?$allocator@D@2@@std@@@2@@std@@QBEIXZ ; std::vector<std::basic_string<char,std::char_traits<char>,std::allocator<char> >,std::allocator<std::basic_string<char,std::char_traits<char>,std::allocator<char> > > >::max_size
  00037	3b 45 08	 cmp	 eax, DWORD PTR __Capacity$[ebp]
  0003a	73 0a		 jae	 SHORT $L85863

; 775  : 			_Xlen();	// result too long

  0003c	8b 4d fc	 mov	 ecx, DWORD PTR _this$[ebp]
  0003f	e8 00 00 00 00	 call	 ?_Xlen@?$vector@V?$basic_string@DU?$char_traits@D@std@@V?$allocator@D@2@@std@@V?$allocator@V?$basic_string@DU?$char_traits@D@std@@V?$allocator@D@2@@std@@@2@@std@@IBEXXZ ; std::vector<std::basic_string<char,std::char_traits<char>,std::allocator<char> >,std::allocator<std::basic_string<char,std::char_traits<char>,std::allocator<char> > > >::_Xlen

; 776  : 		else

  00044	eb 30		 jmp	 SHORT $L85862
$L85863:

; 777  : 			{	// nonempty array, allocate storage
; 778  : 			_Myfirst = this->_Alval.allocate(_Capacity);

  00046	8b 45 08	 mov	 eax, DWORD PTR __Capacity$[ebp]
  00049	50		 push	 eax
  0004a	8b 4d fc	 mov	 ecx, DWORD PTR _this$[ebp]
  0004d	e8 00 00 00 00	 call	 ?allocate@?$allocator@V?$basic_string@DU?$char_traits@D@std@@V?$allocator@D@2@@std@@@std@@QAEPAV?$basic_string@DU?$char_traits@D@std@@V?$allocator@D@2@@2@I@Z ; std::allocator<std::basic_string<char,std::char_traits<char>,std::allocator<char> > >::allocate
  00052	8b 4d fc	 mov	 ecx, DWORD PTR _this$[ebp]
  00055	89 41 04	 mov	 DWORD PTR [ecx+4], eax

; 779  : 			_Mylast = _Myfirst;

  00058	8b 55 fc	 mov	 edx, DWORD PTR _this$[ebp]
  0005b	8b 45 fc	 mov	 eax, DWORD PTR _this$[ebp]
  0005e	8b 48 04	 mov	 ecx, DWORD PTR [eax+4]
  00061	89 4a 08	 mov	 DWORD PTR [edx+8], ecx

; 780  : 			_Myend = _Myfirst + _Capacity;

  00064	8b 55 08	 mov	 edx, DWORD PTR __Capacity$[ebp]
  00067	6b d2 1c	 imul	 edx, 28			; 0000001cH
  0006a	8b 45 fc	 mov	 eax, DWORD PTR _this$[ebp]
  0006d	03 50 04	 add	 edx, DWORD PTR [eax+4]
  00070	8b 4d fc	 mov	 ecx, DWORD PTR _this$[ebp]
  00073	89 51 0c	 mov	 DWORD PTR [ecx+12], edx
$L85862:

; 781  : 			}
; 782  : 		return (true);

  00076	b0 01		 mov	 al, 1
$L85860:

; 783  : 		}

  00078	8b e5		 mov	 esp, ebp
  0007a	5d		 pop	 ebp
  0007b	c2 04 00	 ret	 4
?_Buy@?$vector@V?$basic_string@DU?$char_traits@D@std@@V?$allocator@D@2@@std@@V?$allocator@V?$basic_string@DU?$char_traits@D@std@@V?$allocator@D@2@@std@@@2@@std@@IAE_NI@Z ENDP ; std::vector<std::basic_string<char,std::char_traits<char>,std::allocator<char> >,std::allocator<std::basic_string<char,std::char_traits<char>,std::allocator<char> > > >::_Buy
_TEXT	ENDS
PUBLIC	?deallocate@?$allocator@V?$basic_string@DU?$char_traits@D@std@@V?$allocator@D@2@@std@@@std@@QAEXPAV?$basic_string@DU?$char_traits@D@std@@V?$allocator@D@2@@2@I@Z ; std::allocator<std::basic_string<char,std::char_traits<char>,std::allocator<char> > >::deallocate
PUBLIC	?_Destroy@?$vector@V?$basic_string@DU?$char_traits@D@std@@V?$allocator@D@2@@std@@V?$allocator@V?$basic_string@DU?$char_traits@D@std@@V?$allocator@D@2@@std@@@2@@std@@IAEXPAV?$basic_string@DU?$char_traits@D@std@@V?$allocator@D@2@@2@0@Z ; std::vector<std::basic_string<char,std::char_traits<char>,std::allocator<char> >,std::allocator<std::basic_string<char,std::char_traits<char>,std::allocator<char> > > >::_Destroy
; Function compile flags: /Odt
;	COMDAT ?_Tidy@?$vector@V?$basic_string@DU?$char_traits@D@std@@V?$allocator@D@2@@std@@V?$allocator@V?$basic_string@DU?$char_traits@D@std@@V?$allocator@D@2@@std@@@2@@std@@IAEXXZ
_TEXT	SEGMENT
_this$ = -4						; size = 4
?_Tidy@?$vector@V?$basic_string@DU?$char_traits@D@std@@V?$allocator@D@2@@std@@V?$allocator@V?$basic_string@DU?$char_traits@D@std@@V?$allocator@D@2@@std@@@2@@std@@IAEXXZ PROC NEAR ; std::vector<std::basic_string<char,std::char_traits<char>,std::allocator<char> >,std::allocator<std::basic_string<char,std::char_traits<char>,std::allocator<char> > > >::_Tidy, COMDAT
; _this$ = ecx

; 791  : 		{	// free all storage

  00000	55		 push	 ebp
  00001	8b ec		 mov	 ebp, esp
  00003	51		 push	 ecx
  00004	89 4d fc	 mov	 DWORD PTR _this$[ebp], ecx

; 792  : 		if (_Myfirst != 0)

  00007	8b 45 fc	 mov	 eax, DWORD PTR _this$[ebp]
  0000a	83 78 04 00	 cmp	 DWORD PTR [eax+4], 0
  0000e	74 3c		 je	 SHORT $L85867

; 793  : 			{	// something to free, destroy and deallocate it
; 794  : 			_Destroy(_Myfirst, _Mylast);

  00010	8b 4d fc	 mov	 ecx, DWORD PTR _this$[ebp]
  00013	8b 51 08	 mov	 edx, DWORD PTR [ecx+8]
  00016	52		 push	 edx
  00017	8b 45 fc	 mov	 eax, DWORD PTR _this$[ebp]
  0001a	8b 48 04	 mov	 ecx, DWORD PTR [eax+4]
  0001d	51		 push	 ecx
  0001e	8b 4d fc	 mov	 ecx, DWORD PTR _this$[ebp]
  00021	e8 00 00 00 00	 call	 ?_Destroy@?$vector@V?$basic_string@DU?$char_traits@D@std@@V?$allocator@D@2@@std@@V?$allocator@V?$basic_string@DU?$char_traits@D@std@@V?$allocator@D@2@@std@@@2@@std@@IAEXPAV?$basic_string@DU?$char_traits@D@std@@V?$allocator@D@2@@2@0@Z ; std::vector<std::basic_string<char,std::char_traits<char>,std::allocator<char> >,std::allocator<std::basic_string<char,std::char_traits<char>,std::allocator<char> > > >::_Destroy

; 795  : 			this->_Alval.deallocate(_Myfirst, _Myend - _Myfirst);

  00026	8b 55 fc	 mov	 edx, DWORD PTR _this$[ebp]
  00029	8b 45 fc	 mov	 eax, DWORD PTR _this$[ebp]
  0002c	8b 4a 0c	 mov	 ecx, DWORD PTR [edx+12]
  0002f	2b 48 04	 sub	 ecx, DWORD PTR [eax+4]
  00032	8b c1		 mov	 eax, ecx
  00034	99		 cdq
  00035	b9 1c 00 00 00	 mov	 ecx, 28			; 0000001cH
  0003a	f7 f9		 idiv	 ecx
  0003c	50		 push	 eax
  0003d	8b 55 fc	 mov	 edx, DWORD PTR _this$[ebp]
  00040	8b 42 04	 mov	 eax, DWORD PTR [edx+4]
  00043	50		 push	 eax
  00044	8b 4d fc	 mov	 ecx, DWORD PTR _this$[ebp]
  00047	e8 00 00 00 00	 call	 ?deallocate@?$allocator@V?$basic_string@DU?$char_traits@D@std@@V?$allocator@D@2@@std@@@std@@QAEXPAV?$basic_string@DU?$char_traits@D@std@@V?$allocator@D@2@@2@I@Z ; std::allocator<std::basic_string<char,std::char_traits<char>,std::allocator<char> > >::deallocate
$L85867:

; 796  : 			}
; 797  : 		_Myfirst = 0, _Mylast = 0, _Myend = 0;

  0004c	8b 4d fc	 mov	 ecx, DWORD PTR _this$[ebp]
  0004f	c7 41 04 00 00
	00 00		 mov	 DWORD PTR [ecx+4], 0
  00056	8b 55 fc	 mov	 edx, DWORD PTR _this$[ebp]
  00059	c7 42 08 00 00
	00 00		 mov	 DWORD PTR [edx+8], 0
  00060	8b 45 fc	 mov	 eax, DWORD PTR _this$[ebp]
  00063	c7 40 0c 00 00
	00 00		 mov	 DWORD PTR [eax+12], 0

; 798  : 		}

  0006a	8b e5		 mov	 esp, ebp
  0006c	5d		 pop	 ebp
  0006d	c3		 ret	 0
?_Tidy@?$vector@V?$basic_string@DU?$char_traits@D@std@@V?$allocator@D@2@@std@@V?$allocator@V?$basic_string@DU?$char_traits@D@std@@V?$allocator@D@2@@std@@@2@@std@@IAEXXZ ENDP ; std::vector<std::basic_string<char,std::char_traits<char>,std::allocator<char> >,std::allocator<std::basic_string<char,std::char_traits<char>,std::allocator<char> > > >::_Tidy
_TEXT	ENDS
PUBLIC	??$_Uninitialized_fill_n@PAV?$basic_string@DU?$char_traits@D@std@@V?$allocator@D@2@@std@@IV12@V?$allocator@V?$basic_string@DU?$char_traits@D@std@@V?$allocator@D@2@@std@@@2@@std@@YAXPAV?$basic_string@DU?$char_traits@D@std@@V?$allocator@D@2@@0@IABV10@AAV?$allocator@V?$basic_string@DU?$char_traits@D@std@@V?$allocator@D@2@@std@@@0@@Z ; std::_Uninitialized_fill_n<std::basic_string<char,std::char_traits<char>,std::allocator<char> > *,unsigned int,std::basic_string<char,std::char_traits<char>,std::allocator<char> >,std::allocator<std::basic_string<char,std::char_traits<char>,std::allocator<char> > > >
; Function compile flags: /Odt
;	COMDAT ?_Ufill@?$vector@V?$basic_string@DU?$char_traits@D@std@@V?$allocator@D@2@@std@@V?$allocator@V?$basic_string@DU?$char_traits@D@std@@V?$allocator@D@2@@std@@@2@@std@@IAEPAV?$basic_string@DU?$char_traits@D@std@@V?$allocator@D@2@@2@PAV32@IABV32@@Z
_TEXT	SEGMENT
_this$ = -4						; size = 4
__Ptr$ = 8						; size = 4
__Count$ = 12						; size = 4
__Val$ = 16						; size = 4
?_Ufill@?$vector@V?$basic_string@DU?$char_traits@D@std@@V?$allocator@D@2@@std@@V?$allocator@V?$basic_string@DU?$char_traits@D@std@@V?$allocator@D@2@@std@@@2@@std@@IAEPAV?$basic_string@DU?$char_traits@D@std@@V?$allocator@D@2@@2@PAV32@IABV32@@Z PROC NEAR ; std::vector<std::basic_string<char,std::char_traits<char>,std::allocator<char> >,std::allocator<std::basic_string<char,std::char_traits<char>,std::allocator<char> > > >::_Ufill, COMDAT
; _this$ = ecx

; 877  : 		{	// copy initializing _Count * _Val, using allocator

  00000	55		 push	 ebp
  00001	8b ec		 mov	 ebp, esp
  00003	51		 push	 ecx
  00004	89 4d fc	 mov	 DWORD PTR _this$[ebp], ecx

; 878  : 		_Uninitialized_fill_n(_Ptr, _Count, _Val, this->_Alval);

  00007	8b 45 fc	 mov	 eax, DWORD PTR _this$[ebp]
  0000a	50		 push	 eax
  0000b	8b 4d 10	 mov	 ecx, DWORD PTR __Val$[ebp]
  0000e	51		 push	 ecx
  0000f	8b 55 0c	 mov	 edx, DWORD PTR __Count$[ebp]
  00012	52		 push	 edx
  00013	8b 45 08	 mov	 eax, DWORD PTR __Ptr$[ebp]
  00016	50		 push	 eax
  00017	e8 00 00 00 00	 call	 ??$_Uninitialized_fill_n@PAV?$basic_string@DU?$char_traits@D@std@@V?$allocator@D@2@@std@@IV12@V?$allocator@V?$basic_string@DU?$char_traits@D@std@@V?$allocator@D@2@@std@@@2@@std@@YAXPAV?$basic_string@DU?$char_traits@D@std@@V?$allocator@D@2@@0@IABV10@AAV?$allocator@V?$basic_string@DU?$char_traits@D@std@@V?$allocator@D@2@@std@@@0@@Z ; std::_Uninitialized_fill_n<std::basic_string<char,std::char_traits<char>,std::allocator<char> > *,unsigned int,std::basic_string<char,std::char_traits<char>,std::allocator<char> >,std::allocator<std::basic_string<char,std::char_traits<char>,std::allocator<char> > > >
  0001c	83 c4 10	 add	 esp, 16			; 00000010H

; 879  : 		return (_Ptr + _Count);

  0001f	8b 45 0c	 mov	 eax, DWORD PTR __Count$[ebp]
  00022	6b c0 1c	 imul	 eax, 28			; 0000001cH
  00025	03 45 08	 add	 eax, DWORD PTR __Ptr$[ebp]

; 880  : 		}

  00028	8b e5		 mov	 esp, ebp
  0002a	5d		 pop	 ebp
  0002b	c2 0c 00	 ret	 12			; 0000000cH
?_Ufill@?$vector@V?$basic_string@DU?$char_traits@D@std@@V?$allocator@D@2@@std@@V?$allocator@V?$basic_string@DU?$char_traits@D@std@@V?$allocator@D@2@@std@@@2@@std@@IAEPAV?$basic_string@DU?$char_traits@D@std@@V?$allocator@D@2@@2@PAV32@IABV32@@Z ENDP ; std::vector<std::basic_string<char,std::char_traits<char>,std::allocator<char> >,std::allocator<std::basic_string<char,std::char_traits<char>,std::allocator<char> > > >::_Ufill
_TEXT	ENDS
PUBLIC	??0?$allocator@V?$basic_string@DU?$char_traits@D@std@@V?$allocator@D@2@@std@@@std@@QAE@ABV01@@Z ; std::allocator<std::basic_string<char,std::char_traits<char>,std::allocator<char> > >::allocator<std::basic_string<char,std::char_traits<char>,std::allocator<char> > >
; Function compile flags: /Odt
;	COMDAT ??0?$_Vector_val@V?$basic_string@DU?$char_traits@D@std@@V?$allocator@D@2@@std@@V?$allocator@V?$basic_string@DU?$char_traits@D@std@@V?$allocator@D@2@@std@@@2@@std@@IAE@V?$allocator@V?$basic_string@DU?$char_traits@D@std@@V?$allocator@D@2@@std@@@1@@Z
_TEXT	SEGMENT
_this$ = -4						; size = 4
__Al$ = 8						; size = 1
??0?$_Vector_val@V?$basic_string@DU?$char_traits@D@std@@V?$allocator@D@2@@std@@V?$allocator@V?$basic_string@DU?$char_traits@D@std@@V?$allocator@D@2@@std@@@2@@std@@IAE@V?$allocator@V?$basic_string@DU?$char_traits@D@std@@V?$allocator@D@2@@std@@@1@@Z PROC NEAR ; std::_Vector_val<std::basic_string<char,std::char_traits<char>,std::allocator<char> >,std::allocator<std::basic_string<char,std::char_traits<char>,std::allocator<char> > > >::_Vector_val<std::basic_string<char,std::char_traits<char>,std::allocator<char> >,std::allocator<std::basic_string<char,std::char_traits<char>,std::allocator<char> > > >, COMDAT
; _this$ = ecx

; 21   : 		{	// construct allocator from _Al

  00000	55		 push	 ebp
  00001	8b ec		 mov	 ebp, esp
  00003	51		 push	 ecx
  00004	89 4d fc	 mov	 DWORD PTR _this$[ebp], ecx
  00007	8d 45 08	 lea	 eax, DWORD PTR __Al$[ebp]
  0000a	50		 push	 eax
  0000b	8b 4d fc	 mov	 ecx, DWORD PTR _this$[ebp]
  0000e	e8 00 00 00 00	 call	 ??0?$allocator@V?$basic_string@DU?$char_traits@D@std@@V?$allocator@D@2@@std@@@std@@QAE@ABV01@@Z ; std::allocator<std::basic_string<char,std::char_traits<char>,std::allocator<char> > >::allocator<std::basic_string<char,std::char_traits<char>,std::allocator<char> > >

; 22   : 		}

  00013	8b 45 fc	 mov	 eax, DWORD PTR _this$[ebp]
  00016	8b e5		 mov	 esp, ebp
  00018	5d		 pop	 ebp
  00019	c2 04 00	 ret	 4
??0?$_Vector_val@V?$basic_string@DU?$char_traits@D@std@@V?$allocator@D@2@@std@@V?$allocator@V?$basic_string@DU?$char_traits@D@std@@V?$allocator@D@2@@std@@@2@@std@@IAE@V?$allocator@V?$basic_string@DU?$char_traits@D@std@@V?$allocator@D@2@@std@@@1@@Z ENDP ; std::_Vector_val<std::basic_string<char,std::char_traits<char>,std::allocator<char> >,std::allocator<std::basic_string<char,std::char_traits<char>,std::allocator<char> > > >::_Vector_val<std::basic_string<char,std::char_traits<char>,std::allocator<char> >,std::allocator<std::basic_string<char,std::char_traits<char>,std::allocator<char> > > >
; Function compile flags: /Odt
; File d:\program files (x86)\microsoft visual studio .net 2003\vc7\include\xmemory
_TEXT	ENDS
;	COMDAT ??0?$allocator@V?$basic_string@DU?$char_traits@D@std@@V?$allocator@D@2@@std@@@std@@QAE@XZ
_TEXT	SEGMENT
_this$ = -4						; size = 4
??0?$allocator@V?$basic_string@DU?$char_traits@D@std@@V?$allocator@D@2@@std@@@std@@QAE@XZ PROC NEAR ; std::allocator<std::basic_string<char,std::char_traits<char>,std::allocator<char> > >::allocator<std::basic_string<char,std::char_traits<char>,std::allocator<char> > >, COMDAT
; _this$ = ecx

; 111  : 	allocator()

  00000	55		 push	 ebp
  00001	8b ec		 mov	 ebp, esp
  00003	51		 push	 ecx
  00004	89 4d fc	 mov	 DWORD PTR _this$[ebp], ecx

; 112  : 		{	// construct default allocator (do nothing)
; 113  : 		}

  00007	8b 45 fc	 mov	 eax, DWORD PTR _this$[ebp]
  0000a	8b e5		 mov	 esp, ebp
  0000c	5d		 pop	 ebp
  0000d	c3		 ret	 0
??0?$allocator@V?$basic_string@DU?$char_traits@D@std@@V?$allocator@D@2@@std@@@std@@QAE@XZ ENDP ; std::allocator<std::basic_string<char,std::char_traits<char>,std::allocator<char> > >::allocator<std::basic_string<char,std::char_traits<char>,std::allocator<char> > >
; Function compile flags: /Odt
; File d:\program files (x86)\microsoft visual studio .net 2003\vc7\include\vector
_TEXT	ENDS
;	COMDAT ??0iterator@?$vector@V?$basic_string@DU?$char_traits@D@std@@V?$allocator@D@2@@std@@V?$allocator@V?$basic_string@DU?$char_traits@D@std@@V?$allocator@D@2@@std@@@2@@std@@QAE@PAV?$basic_string@DU?$char_traits@D@std@@V?$allocator@D@2@@2@@Z
_TEXT	SEGMENT
_this$ = -4						; size = 4
__Ptr$ = 8						; size = 4
??0iterator@?$vector@V?$basic_string@DU?$char_traits@D@std@@V?$allocator@D@2@@std@@V?$allocator@V?$basic_string@DU?$char_traits@D@std@@V?$allocator@D@2@@std@@@2@@std@@QAE@PAV?$basic_string@DU?$char_traits@D@std@@V?$allocator@D@2@@2@@Z PROC NEAR ; std::vector<std::basic_string<char,std::char_traits<char>,std::allocator<char> >,std::allocator<std::basic_string<char,std::char_traits<char>,std::allocator<char> > > >::iterator::iterator, COMDAT
; _this$ = ecx

; 215  : 			{	// construct with pointer _Ptr

  00000	55		 push	 ebp
  00001	8b ec		 mov	 ebp, esp
  00003	51		 push	 ecx
  00004	89 4d fc	 mov	 DWORD PTR _this$[ebp], ecx
  00007	8b 45 08	 mov	 eax, DWORD PTR __Ptr$[ebp]
  0000a	50		 push	 eax
  0000b	8b 4d fc	 mov	 ecx, DWORD PTR _this$[ebp]
  0000e	e8 00 00 00 00	 call	 ??0const_iterator@?$vector@V?$basic_string@DU?$char_traits@D@std@@V?$allocator@D@2@@std@@V?$allocator@V?$basic_string@DU?$char_traits@D@std@@V?$allocator@D@2@@std@@@2@@std@@QAE@PAV?$basic_string@DU?$char_traits@D@std@@V?$allocator@D@2@@2@@Z ; std::vector<std::basic_string<char,std::char_traits<char>,std::allocator<char> >,std::allocator<std::basic_string<char,std::char_traits<char>,std::allocator<char> > > >::const_iterator::const_iterator

; 216  : 			}

  00013	8b 45 fc	 mov	 eax, DWORD PTR _this$[ebp]
  00016	8b e5		 mov	 esp, ebp
  00018	5d		 pop	 ebp
  00019	c2 04 00	 ret	 4
??0iterator@?$vector@V?$basic_string@DU?$char_traits@D@std@@V?$allocator@D@2@@std@@V?$allocator@V?$basic_string@DU?$char_traits@D@std@@V?$allocator@D@2@@std@@@2@@std@@QAE@PAV?$basic_string@DU?$char_traits@D@std@@V?$allocator@D@2@@2@@Z ENDP ; std::vector<std::basic_string<char,std::char_traits<char>,std::allocator<char> >,std::allocator<std::basic_string<char,std::char_traits<char>,std::allocator<char> > > >::iterator::iterator
; Function compile flags: /Odt
_TEXT	ENDS
;	COMDAT ??Eiterator@?$vector@V?$basic_string@DU?$char_traits@D@std@@V?$allocator@D@2@@std@@V?$allocator@V?$basic_string@DU?$char_traits@D@std@@V?$allocator@D@2@@std@@@2@@std@@QAEAAV012@XZ
_TEXT	SEGMENT
_this$ = -4						; size = 4
??Eiterator@?$vector@V?$basic_string@DU?$char_traits@D@std@@V?$allocator@D@2@@std@@V?$allocator@V?$basic_string@DU?$char_traits@D@std@@V?$allocator@D@2@@std@@@2@@std@@QAEAAV012@XZ PROC NEAR ; std::vector<std::basic_string<char,std::char_traits<char>,std::allocator<char> >,std::allocator<std::basic_string<char,std::char_traits<char>,std::allocator<char> > > >::iterator::operator++, COMDAT
; _this$ = ecx

; 229  : 			{	// preincrement

  00000	55		 push	 ebp
  00001	8b ec		 mov	 ebp, esp
  00003	51		 push	 ecx
  00004	89 4d fc	 mov	 DWORD PTR _this$[ebp], ecx

; 230  : 			++this->_Myptr;

  00007	8b 45 fc	 mov	 eax, DWORD PTR _this$[ebp]
  0000a	8b 08		 mov	 ecx, DWORD PTR [eax]
  0000c	83 c1 1c	 add	 ecx, 28			; 0000001cH
  0000f	8b 55 fc	 mov	 edx, DWORD PTR _this$[ebp]
  00012	89 0a		 mov	 DWORD PTR [edx], ecx

; 231  : 			return (*this);

  00014	8b 45 fc	 mov	 eax, DWORD PTR _this$[ebp]

; 232  : 			}

  00017	8b e5		 mov	 esp, ebp
  00019	5d		 pop	 ebp
  0001a	c3		 ret	 0
??Eiterator@?$vector@V?$basic_string@DU?$char_traits@D@std@@V?$allocator@D@2@@std@@V?$allocator@V?$basic_string@DU?$char_traits@D@std@@V?$allocator@D@2@@std@@@2@@std@@QAEAAV012@XZ ENDP ; std::vector<std::basic_string<char,std::char_traits<char>,std::allocator<char> >,std::allocator<std::basic_string<char,std::char_traits<char>,std::allocator<char> > > >::iterator::operator++
_TEXT	ENDS
PUBLIC	??Yiterator@?$vector@V?$basic_string@DU?$char_traits@D@std@@V?$allocator@D@2@@std@@V?$allocator@V?$basic_string@DU?$char_traits@D@std@@V?$allocator@D@2@@std@@@2@@std@@QAEAAV012@H@Z ; std::vector<std::basic_string<char,std::char_traits<char>,std::allocator<char> >,std::allocator<std::basic_string<char,std::char_traits<char>,std::allocator<char> > > >::iterator::operator+=
; Function compile flags: /Odt
;	COMDAT ??Hiterator@?$vector@V?$basic_string@DU?$char_traits@D@std@@V?$allocator@D@2@@std@@V?$allocator@V?$basic_string@DU?$char_traits@D@std@@V?$allocator@D@2@@std@@@2@@std@@QBE?AV012@H@Z
_TEXT	SEGMENT
_this$ = -8						; size = 4
__Tmp$ = -4						; size = 4
___$ReturnUdt$ = 8					; size = 4
__Off$ = 12						; size = 4
??Hiterator@?$vector@V?$basic_string@DU?$char_traits@D@std@@V?$allocator@D@2@@std@@V?$allocator@V?$basic_string@DU?$char_traits@D@std@@V?$allocator@D@2@@std@@@2@@std@@QBE?AV012@H@Z PROC NEAR ; std::vector<std::basic_string<char,std::char_traits<char>,std::allocator<char> >,std::allocator<std::basic_string<char,std::char_traits<char>,std::allocator<char> > > >::iterator::operator+, COMDAT
; _this$ = ecx

; 261  : 			{	// return this + integer

  00000	55		 push	 ebp
  00001	8b ec		 mov	 ebp, esp
  00003	83 ec 08	 sub	 esp, 8
  00006	89 4d f8	 mov	 DWORD PTR _this$[ebp], ecx

; 262  : 			iterator _Tmp = *this;

  00009	8b 45 f8	 mov	 eax, DWORD PTR _this$[ebp]
  0000c	8b 08		 mov	 ecx, DWORD PTR [eax]
  0000e	89 4d fc	 mov	 DWORD PTR __Tmp$[ebp], ecx

; 263  : 			return (_Tmp += _Off);

  00011	8b 55 0c	 mov	 edx, DWORD PTR __Off$[ebp]
  00014	52		 push	 edx
  00015	8d 4d fc	 lea	 ecx, DWORD PTR __Tmp$[ebp]
  00018	e8 00 00 00 00	 call	 ??Yiterator@?$vector@V?$basic_string@DU?$char_traits@D@std@@V?$allocator@D@2@@std@@V?$allocator@V?$basic_string@DU?$char_traits@D@std@@V?$allocator@D@2@@std@@@2@@std@@QAEAAV012@H@Z ; std::vector<std::basic_string<char,std::char_traits<char>,std::allocator<char> >,std::allocator<std::basic_string<char,std::char_traits<char>,std::allocator<char> > > >::iterator::operator+=
  0001d	8b 00		 mov	 eax, DWORD PTR [eax]
  0001f	8b 4d 08	 mov	 ecx, DWORD PTR ___$ReturnUdt$[ebp]
  00022	89 01		 mov	 DWORD PTR [ecx], eax
  00024	8b 45 08	 mov	 eax, DWORD PTR ___$ReturnUdt$[ebp]

; 264  : 			}

  00027	8b e5		 mov	 esp, ebp
  00029	5d		 pop	 ebp
  0002a	c2 08 00	 ret	 8
??Hiterator@?$vector@V?$basic_string@DU?$char_traits@D@std@@V?$allocator@D@2@@std@@V?$allocator@V?$basic_string@DU?$char_traits@D@std@@V?$allocator@D@2@@std@@@2@@std@@QBE?AV012@H@Z ENDP ; std::vector<std::basic_string<char,std::char_traits<char>,std::allocator<char> >,std::allocator<std::basic_string<char,std::char_traits<char>,std::allocator<char> > > >::iterator::operator+
; Function compile flags: /Odt
_TEXT	ENDS
;	COMDAT ??Dconst_iterator@?$vector@V?$basic_string@DU?$char_traits@D@std@@V?$allocator@D@2@@std@@V?$allocator@V?$basic_string@DU?$char_traits@D@std@@V?$allocator@D@2@@std@@@2@@std@@QBEABV?$basic_string@DU?$char_traits@D@std@@V?$allocator@D@2@@2@XZ
_TEXT	SEGMENT
_this$ = -4						; size = 4
??Dconst_iterator@?$vector@V?$basic_string@DU?$char_traits@D@std@@V?$allocator@D@2@@std@@V?$allocator@V?$basic_string@DU?$char_traits@D@std@@V?$allocator@D@2@@std@@@2@@std@@QBEABV?$basic_string@DU?$char_traits@D@std@@V?$allocator@D@2@@2@XZ PROC NEAR ; std::vector<std::basic_string<char,std::char_traits<char>,std::allocator<char> >,std::allocator<std::basic_string<char,std::char_traits<char>,std::allocator<char> > > >::const_iterator::operator*, COMDAT
; _this$ = ecx

; 79   : 			{	// return designated object

  00000	55		 push	 ebp
  00001	8b ec		 mov	 ebp, esp
  00003	51		 push	 ecx
  00004	89 4d fc	 mov	 DWORD PTR _this$[ebp], ecx

; 80   : 
; 81   : 
; 82   : 			return (*_Myptr);

  00007	8b 45 fc	 mov	 eax, DWORD PTR _this$[ebp]
  0000a	8b 00		 mov	 eax, DWORD PTR [eax]

; 83   : 			}

  0000c	8b e5		 mov	 esp, ebp
  0000e	5d		 pop	 ebp
  0000f	c3		 ret	 0
??Dconst_iterator@?$vector@V?$basic_string@DU?$char_traits@D@std@@V?$allocator@D@2@@std@@V?$allocator@V?$basic_string@DU?$char_traits@D@std@@V?$allocator@D@2@@std@@@2@@std@@QBEABV?$basic_string@DU?$char_traits@D@std@@V?$allocator@D@2@@2@XZ ENDP ; std::vector<std::basic_string<char,std::char_traits<char>,std::allocator<char> >,std::allocator<std::basic_string<char,std::char_traits<char>,std::allocator<char> > > >::const_iterator::operator*
_TEXT	ENDS
PUBLIC	??Yconst_iterator@?$vector@V?$basic_string@DU?$char_traits@D@std@@V?$allocator@D@2@@std@@V?$allocator@V?$basic_string@DU?$char_traits@D@std@@V?$allocator@D@2@@std@@@2@@std@@QAEAAV012@H@Z ; std::vector<std::basic_string<char,std::char_traits<char>,std::allocator<char> >,std::allocator<std::basic_string<char,std::char_traits<char>,std::allocator<char> > > >::const_iterator::operator+=
; Function compile flags: /Odt
;	COMDAT ??Hconst_iterator@?$vector@V?$basic_string@DU?$char_traits@D@std@@V?$allocator@D@2@@std@@V?$allocator@V?$basic_string@DU?$char_traits@D@std@@V?$allocator@D@2@@std@@@2@@std@@QBE?AV012@H@Z
_TEXT	SEGMENT
_this$ = -8						; size = 4
__Tmp$ = -4						; size = 4
___$ReturnUdt$ = 8					; size = 4
__Off$ = 12						; size = 4
??Hconst_iterator@?$vector@V?$basic_string@DU?$char_traits@D@std@@V?$allocator@D@2@@std@@V?$allocator@V?$basic_string@DU?$char_traits@D@std@@V?$allocator@D@2@@std@@@2@@std@@QBE?AV012@H@Z PROC NEAR ; std::vector<std::basic_string<char,std::char_traits<char>,std::allocator<char> >,std::allocator<std::basic_string<char,std::char_traits<char>,std::allocator<char> > > >::const_iterator::operator+, COMDAT
; _this$ = ecx

; 123  : 			{	// return this + integer

  00000	55		 push	 ebp
  00001	8b ec		 mov	 ebp, esp
  00003	83 ec 08	 sub	 esp, 8
  00006	89 4d f8	 mov	 DWORD PTR _this$[ebp], ecx

; 124  : 			const_iterator _Tmp = *this;

  00009	8b 45 f8	 mov	 eax, DWORD PTR _this$[ebp]
  0000c	8b 08		 mov	 ecx, DWORD PTR [eax]
  0000e	89 4d fc	 mov	 DWORD PTR __Tmp$[ebp], ecx

; 125  : 			return (_Tmp += _Off);

  00011	8b 55 0c	 mov	 edx, DWORD PTR __Off$[ebp]
  00014	52		 push	 edx
  00015	8d 4d fc	 lea	 ecx, DWORD PTR __Tmp$[ebp]
  00018	e8 00 00 00 00	 call	 ??Yconst_iterator@?$vector@V?$basic_string@DU?$char_traits@D@std@@V?$allocator@D@2@@std@@V?$allocator@V?$basic_string@DU?$char_traits@D@std@@V?$allocator@D@2@@std@@@2@@std@@QAEAAV012@H@Z ; std::vector<std::basic_string<char,std::char_traits<char>,std::allocator<char> >,std::allocator<std::basic_string<char,std::char_traits<char>,std::allocator<char> > > >::const_iterator::operator+=
  0001d	8b 00		 mov	 eax, DWORD PTR [eax]
  0001f	8b 4d 08	 mov	 ecx, DWORD PTR ___$ReturnUdt$[ebp]
  00022	89 01		 mov	 DWORD PTR [ecx], eax
  00024	8b 45 08	 mov	 eax, DWORD PTR ___$ReturnUdt$[ebp]

; 126  : 			}

  00027	8b e5		 mov	 esp, ebp
  00029	5d		 pop	 ebp
  0002a	c2 08 00	 ret	 8
??Hconst_iterator@?$vector@V?$basic_string@DU?$char_traits@D@std@@V?$allocator@D@2@@std@@V?$allocator@V?$basic_string@DU?$char_traits@D@std@@V?$allocator@D@2@@std@@@2@@std@@QBE?AV012@H@Z ENDP ; std::vector<std::basic_string<char,std::char_traits<char>,std::allocator<char> >,std::allocator<std::basic_string<char,std::char_traits<char>,std::allocator<char> > > >::const_iterator::operator+
; Function compile flags: /Odt
_TEXT	ENDS
;	COMDAT ??8const_iterator@?$vector@V?$basic_string@DU?$char_traits@D@std@@V?$allocator@D@2@@std@@V?$allocator@V?$basic_string@DU?$char_traits@D@std@@V?$allocator@D@2@@std@@@2@@std@@QBE_NABV012@@Z
_TEXT	SEGMENT
_this$ = -4						; size = 4
__Right$ = 8						; size = 4
??8const_iterator@?$vector@V?$basic_string@DU?$char_traits@D@std@@V?$allocator@D@2@@std@@V?$allocator@V?$basic_string@DU?$char_traits@D@std@@V?$allocator@D@2@@std@@@2@@std@@QBE_NABV012@@Z PROC NEAR ; std::vector<std::basic_string<char,std::char_traits<char>,std::allocator<char> >,std::allocator<std::basic_string<char,std::char_traits<char>,std::allocator<char> > > >::const_iterator::operator==, COMDAT
; _this$ = ecx

; 152  : 			{	// test for iterator equality

  00000	55		 push	 ebp
  00001	8b ec		 mov	 ebp, esp
  00003	51		 push	 ecx
  00004	89 4d fc	 mov	 DWORD PTR _this$[ebp], ecx

; 153  : 
; 154  : 
; 155  : 			return (_Myptr == _Right._Myptr);

  00007	8b 45 fc	 mov	 eax, DWORD PTR _this$[ebp]
  0000a	8b 4d 08	 mov	 ecx, DWORD PTR __Right$[ebp]
  0000d	8b 00		 mov	 eax, DWORD PTR [eax]
  0000f	2b 01		 sub	 eax, DWORD PTR [ecx]
  00011	f7 d8		 neg	 eax
  00013	1b c0		 sbb	 eax, eax
  00015	40		 inc	 eax

; 156  : 			}

  00016	8b e5		 mov	 esp, ebp
  00018	5d		 pop	 ebp
  00019	c2 04 00	 ret	 4
??8const_iterator@?$vector@V?$basic_string@DU?$char_traits@D@std@@V?$allocator@D@2@@std@@V?$allocator@V?$basic_string@DU?$char_traits@D@std@@V?$allocator@D@2@@std@@@2@@std@@QBE_NABV012@@Z ENDP ; std::vector<std::basic_string<char,std::char_traits<char>,std::allocator<char> >,std::allocator<std::basic_string<char,std::char_traits<char>,std::allocator<char> > > >::const_iterator::operator==
_TEXT	ENDS
PUBLIC	?max_size@?$allocator@V?$basic_string@DU?$char_traits@D@std@@V?$allocator@D@2@@std@@@std@@QBEIXZ ; std::allocator<std::basic_string<char,std::char_traits<char>,std::allocator<char> > >::max_size
; Function compile flags: /Odt
;	COMDAT ?max_size@?$vector@V?$basic_string@DU?$char_traits@D@std@@V?$allocator@D@2@@std@@V?$allocator@V?$basic_string@DU?$char_traits@D@std@@V?$allocator@D@2@@std@@@2@@std@@QBEIXZ
_TEXT	SEGMENT
_this$ = -4						; size = 4
?max_size@?$vector@V?$basic_string@DU?$char_traits@D@std@@V?$allocator@D@2@@std@@V?$allocator@V?$basic_string@DU?$char_traits@D@std@@V?$allocator@D@2@@std@@@2@@std@@QBEIXZ PROC NEAR ; std::vector<std::basic_string<char,std::char_traits<char>,std::allocator<char> >,std::allocator<std::basic_string<char,std::char_traits<char>,std::allocator<char> > > >::max_size, COMDAT
; _this$ = ecx

; 520  : 		{	// return maximum possible length of sequence

  00000	55		 push	 ebp
  00001	8b ec		 mov	 ebp, esp
  00003	51		 push	 ecx
  00004	89 4d fc	 mov	 DWORD PTR _this$[ebp], ecx

; 521  : 		return (this->_Alval.max_size());

  00007	8b 4d fc	 mov	 ecx, DWORD PTR _this$[ebp]
  0000a	e8 00 00 00 00	 call	 ?max_size@?$allocator@V?$basic_string@DU?$char_traits@D@std@@V?$allocator@D@2@@std@@@std@@QBEIXZ ; std::allocator<std::basic_string<char,std::char_traits<char>,std::allocator<char> > >::max_size

; 522  : 		}

  0000f	8b e5		 mov	 esp, ebp
  00011	5d		 pop	 ebp
  00012	c3		 ret	 0
?max_size@?$vector@V?$basic_string@DU?$char_traits@D@std@@V?$allocator@D@2@@std@@V?$allocator@V?$basic_string@DU?$char_traits@D@std@@V?$allocator@D@2@@std@@@2@@std@@QBEIXZ ENDP ; std::vector<std::basic_string<char,std::char_traits<char>,std::allocator<char> >,std::allocator<std::basic_string<char,std::char_traits<char>,std::allocator<char> > > >::max_size
_TEXT	ENDS
PUBLIC	??$_Destroy_range@V?$basic_string@DU?$char_traits@D@std@@V?$allocator@D@2@@std@@V?$allocator@V?$basic_string@DU?$char_traits@D@std@@V?$allocator@D@2@@std@@@2@@std@@YAXPAV?$basic_string@DU?$char_traits@D@std@@V?$allocator@D@2@@0@0AAV?$allocator@V?$basic_string@DU?$char_traits@D@std@@V?$allocator@D@2@@std@@@0@@Z ; std::_Destroy_range<std::basic_string<char,std::char_traits<char>,std::allocator<char> >,std::allocator<std::basic_string<char,std::char_traits<char>,std::allocator<char> > > >
; Function compile flags: /Odt
;	COMDAT ?_Destroy@?$vector@V?$basic_string@DU?$char_traits@D@std@@V?$allocator@D@2@@std@@V?$allocator@V?$basic_string@DU?$char_traits@D@std@@V?$allocator@D@2@@std@@@2@@std@@IAEXPAV?$basic_string@DU?$char_traits@D@std@@V?$allocator@D@2@@2@0@Z
_TEXT	SEGMENT
_this$ = -4						; size = 4
__First$ = 8						; size = 4
__Last$ = 12						; size = 4
?_Destroy@?$vector@V?$basic_string@DU?$char_traits@D@std@@V?$allocator@D@2@@std@@V?$allocator@V?$basic_string@DU?$char_traits@D@std@@V?$allocator@D@2@@std@@@2@@std@@IAEXPAV?$basic_string@DU?$char_traits@D@std@@V?$allocator@D@2@@2@0@Z PROC NEAR ; std::vector<std::basic_string<char,std::char_traits<char>,std::allocator<char> >,std::allocator<std::basic_string<char,std::char_traits<char>,std::allocator<char> > > >::_Destroy, COMDAT
; _this$ = ecx

; 786  : 		{	// destroy [_First, _Last) using allocator

  00000	55		 push	 ebp
  00001	8b ec		 mov	 ebp, esp
  00003	51		 push	 ecx
  00004	89 4d fc	 mov	 DWORD PTR _this$[ebp], ecx

; 787  : 		_Destroy_range(_First, _Last, this->_Alval);

  00007	8b 45 fc	 mov	 eax, DWORD PTR _this$[ebp]
  0000a	50		 push	 eax
  0000b	8b 4d 0c	 mov	 ecx, DWORD PTR __Last$[ebp]
  0000e	51		 push	 ecx
  0000f	8b 55 08	 mov	 edx, DWORD PTR __First$[ebp]
  00012	52		 push	 edx
  00013	e8 00 00 00 00	 call	 ??$_Destroy_range@V?$basic_string@DU?$char_traits@D@std@@V?$allocator@D@2@@std@@V?$allocator@V?$basic_string@DU?$char_traits@D@std@@V?$allocator@D@2@@std@@@2@@std@@YAXPAV?$basic_string@DU?$char_traits@D@std@@V?$allocator@D@2@@0@0AAV?$allocator@V?$basic_string@DU?$char_traits@D@std@@V?$allocator@D@2@@std@@@0@@Z ; std::_Destroy_range<std::basic_string<char,std::char_traits<char>,std::allocator<char> >,std::allocator<std::basic_string<char,std::char_traits<char>,std::allocator<char> > > >
  00018	83 c4 0c	 add	 esp, 12			; 0000000cH

; 788  : 		}

  0001b	8b e5		 mov	 esp, ebp
  0001d	5d		 pop	 ebp
  0001e	c2 08 00	 ret	 8
?_Destroy@?$vector@V?$basic_string@DU?$char_traits@D@std@@V?$allocator@D@2@@std@@V?$allocator@V?$basic_string@DU?$char_traits@D@std@@V?$allocator@D@2@@std@@@2@@std@@IAEXPAV?$basic_string@DU?$char_traits@D@std@@V?$allocator@D@2@@2@0@Z ENDP ; std::vector<std::basic_string<char,std::char_traits<char>,std::allocator<char> >,std::allocator<std::basic_string<char,std::char_traits<char>,std::allocator<char> > > >::_Destroy
_TEXT	ENDS
PUBLIC	??$_Ucopy@PAV?$basic_string@DU?$char_traits@D@std@@V?$allocator@D@2@@std@@@?$vector@V?$basic_string@DU?$char_traits@D@std@@V?$allocator@D@2@@std@@V?$allocator@V?$basic_string@DU?$char_traits@D@std@@V?$allocator@D@2@@std@@@2@@std@@IAEPAV?$basic_string@DU?$char_traits@D@std@@V?$allocator@D@2@@1@PAV21@00@Z ; std::vector<std::basic_string<char,std::char_traits<char>,std::allocator<char> >,std::allocator<std::basic_string<char,std::char_traits<char>,std::allocator<char> > > >::_Ucopy<std::basic_string<char,std::char_traits<char>,std::allocator<char> > *>
PUBLIC	??$fill@PAV?$basic_string@DU?$char_traits@D@std@@V?$allocator@D@2@@std@@V12@@std@@YAXPAV?$basic_string@DU?$char_traits@D@std@@V?$allocator@D@2@@0@0ABV10@@Z ; std::fill<std::basic_string<char,std::char_traits<char>,std::allocator<char> > *,std::basic_string<char,std::char_traits<char>,std::allocator<char> > >
PUBLIC	??$copy_backward@PAV?$basic_string@DU?$char_traits@D@std@@V?$allocator@D@2@@std@@PAV12@@std@@YAPAV?$basic_string@DU?$char_traits@D@std@@V?$allocator@D@2@@0@PAV10@00@Z ; std::copy_backward<std::basic_string<char,std::char_traits<char>,std::allocator<char> > *,std::basic_string<char,std::char_traits<char>,std::allocator<char> > *>
EXTRN	__CxxThrowException@8:NEAR
;	COMDAT xdata$x
xdata$x	SEGMENT
$T88390	DD	0ffffffffH
	DD	FLAT:$L88385
	DD	00H
	DD	00H
	DD	00H
	DD	00H
	DD	00H
	DD	00H
	DD	00H
	DD	00H
$T88392	DD	00H
	DD	00H
	DD	00H
	DD	FLAT:$L88382
$T88393	DD	00H
	DD	00H
	DD	00H
	DD	FLAT:$L88384
$T88391	DD	01H
	DD	01H
	DD	02H
	DD	01H
	DD	FLAT:$T88392
	DD	03H
	DD	03H
	DD	04H
	DD	01H
	DD	FLAT:$T88393
$T88387	DD	019930520H
	DD	05H
	DD	FLAT:$T88390
	DD	02H
	DD	FLAT:$T88391
	DD	2 DUP(00H)
; Function compile flags: /Odt
xdata$x	ENDS
;	COMDAT ?_Insert_n@?$vector@V?$basic_string@DU?$char_traits@D@std@@V?$allocator@D@2@@std@@V?$allocator@V?$basic_string@DU?$char_traits@D@std@@V?$allocator@D@2@@std@@@2@@std@@IAEXViterator@12@IABV?$basic_string@DU?$char_traits@D@std@@V?$allocator@D@2@@2@@Z
_TEXT	SEGMENT
tv244 = -80						; size = 4
tv65 = -76						; size = 4
tv89 = -72						; size = 4
_this$ = -68						; size = 4
__Oldend$86145 = -64					; size = 4
__Newvec$86124 = -60					; size = 4
__Ptr$86125 = -56					; size = 4
__Capacity$ = -52					; size = 4
__Tmp$ = -48						; size = 28
__$ArrayPad$ = -20					; size = 4
__$EHRec$ = -16						; size = 16
__$ReturnAddr$ = 4					; size = 4
__Where$ = 8						; size = 4
__Count$ = 12						; size = 4
__Val$ = 16						; size = 4
?_Insert_n@?$vector@V?$basic_string@DU?$char_traits@D@std@@V?$allocator@D@2@@std@@V?$allocator@V?$basic_string@DU?$char_traits@D@std@@V?$allocator@D@2@@std@@@2@@std@@IAEXViterator@12@IABV?$basic_string@DU?$char_traits@D@std@@V?$allocator@D@2@@2@@Z PROC NEAR ; std::vector<std::basic_string<char,std::char_traits<char>,std::allocator<char> >,std::allocator<std::basic_string<char,std::char_traits<char>,std::allocator<char> > > >::_Insert_n, COMDAT
; _this$ = ecx

; 809  : 		{	// insert _Count * _Val at _Where

  00000	55		 push	 ebp
  00001	8b ec		 mov	 ebp, esp
  00003	6a ff		 push	 -1
  00005	68 00 00 00 00	 push	 __ehhandler$?_Insert_n@?$vector@V?$basic_string@DU?$char_traits@D@std@@V?$allocator@D@2@@std@@V?$allocator@V?$basic_string@DU?$char_traits@D@std@@V?$allocator@D@2@@std@@@2@@std@@IAEXViterator@12@IABV?$basic_string@DU?$char_traits@D@std@@V?$allocator@D@2@@2@@Z
  0000a	64 a1 00 00 00
	00		 mov	 eax, DWORD PTR fs:__except_list
  00010	50		 push	 eax
  00011	64 89 25 00 00
	00 00		 mov	 DWORD PTR fs:__except_list, esp
  00018	51		 push	 ecx
  00019	83 ec 40	 sub	 esp, 64			; 00000040H
  0001c	a1 00 00 00 00	 mov	 eax, DWORD PTR ___security_cookie
  00021	89 45 ec	 mov	 DWORD PTR __$ArrayPad$[ebp], eax
  00024	53		 push	 ebx
  00025	56		 push	 esi
  00026	57		 push	 edi
  00027	89 65 f0	 mov	 DWORD PTR __$EHRec$[ebp], esp
  0002a	89 4d bc	 mov	 DWORD PTR _this$[ebp], ecx

; 810  : 		_Ty _Tmp = _Val;	// in case _Val is in sequence

  0002d	8b 45 10	 mov	 eax, DWORD PTR __Val$[ebp]
  00030	50		 push	 eax
  00031	8d 4d d0	 lea	 ecx, DWORD PTR __Tmp$[ebp]
  00034	ff 15 00 00 00
	00		 call	 DWORD PTR __imp_??0?$basic_string@DU?$char_traits@D@std@@V?$allocator@D@2@@std@@QAE@ABV01@@Z
  0003a	c7 45 fc 00 00
	00 00		 mov	 DWORD PTR __$EHRec$[ebp+12], 0

; 811  : 		size_type _Capacity = capacity();

  00041	8b 4d bc	 mov	 ecx, DWORD PTR _this$[ebp]
  00044	e8 00 00 00 00	 call	 ?capacity@?$vector@V?$basic_string@DU?$char_traits@D@std@@V?$allocator@D@2@@std@@V?$allocator@V?$basic_string@DU?$char_traits@D@std@@V?$allocator@D@2@@std@@@2@@std@@QBEIXZ ; std::vector<std::basic_string<char,std::char_traits<char>,std::allocator<char> >,std::allocator<std::basic_string<char,std::char_traits<char>,std::allocator<char> > > >::capacity
  00049	89 45 cc	 mov	 DWORD PTR __Capacity$[ebp], eax

; 812  : 
; 813  : 		if (_Count == 0)

  0004c	83 7d 0c 00	 cmp	 DWORD PTR __Count$[ebp], 0
  00050	75 05		 jne	 SHORT $L86118

; 814  : 			;
; 815  : 		else if (max_size() - size() < _Count)

  00052	e9 cf 02 00 00	 jmp	 $L86119
$L86118:
  00057	8b 4d bc	 mov	 ecx, DWORD PTR _this$[ebp]
  0005a	e8 00 00 00 00	 call	 ?size@?$vector@V?$basic_string@DU?$char_traits@D@std@@V?$allocator@D@2@@std@@V?$allocator@V?$basic_string@DU?$char_traits@D@std@@V?$allocator@D@2@@std@@@2@@std@@QBEIXZ ; std::vector<std::basic_string<char,std::char_traits<char>,std::allocator<char> >,std::allocator<std::basic_string<char,std::char_traits<char>,std::allocator<char> > > >::size
  0005f	8b f0		 mov	 esi, eax
  00061	8b 4d bc	 mov	 ecx, DWORD PTR _this$[ebp]
  00064	e8 00 00 00 00	 call	 ?max_size@?$vector@V?$basic_string@DU?$char_traits@D@std@@V?$allocator@D@2@@std@@V?$allocator@V?$basic_string@DU?$char_traits@D@std@@V?$allocator@D@2@@std@@@2@@std@@QBEIXZ ; std::vector<std::basic_string<char,std::char_traits<char>,std::allocator<char> >,std::allocator<std::basic_string<char,std::char_traits<char>,std::allocator<char> > > >::max_size
  00069	2b c6		 sub	 eax, esi
  0006b	3b 45 0c	 cmp	 eax, DWORD PTR __Count$[ebp]
  0006e	73 0d		 jae	 SHORT $L86120

; 816  : 			_Xlen();	// result too long

  00070	8b 4d bc	 mov	 ecx, DWORD PTR _this$[ebp]
  00073	e8 00 00 00 00	 call	 ?_Xlen@?$vector@V?$basic_string@DU?$char_traits@D@std@@V?$allocator@D@2@@std@@V?$allocator@V?$basic_string@DU?$char_traits@D@std@@V?$allocator@D@2@@std@@@2@@std@@IBEXXZ ; std::vector<std::basic_string<char,std::char_traits<char>,std::allocator<char> >,std::allocator<std::basic_string<char,std::char_traits<char>,std::allocator<char> > > >::_Xlen

; 817  : 		else if (_Capacity < size() + _Count)

  00078	e9 a9 02 00 00	 jmp	 $L86119
$L86120:
  0007d	8b 4d bc	 mov	 ecx, DWORD PTR _this$[ebp]
  00080	e8 00 00 00 00	 call	 ?size@?$vector@V?$basic_string@DU?$char_traits@D@std@@V?$allocator@D@2@@std@@V?$allocator@V?$basic_string@DU?$char_traits@D@std@@V?$allocator@D@2@@std@@@2@@std@@QBEIXZ ; std::vector<std::basic_string<char,std::char_traits<char>,std::allocator<char> >,std::allocator<std::basic_string<char,std::char_traits<char>,std::allocator<char> > > >::size
  00085	03 45 0c	 add	 eax, DWORD PTR __Count$[ebp]
  00088	39 45 cc	 cmp	 DWORD PTR __Capacity$[ebp], eax
  0008b	0f 83 68 01 00
	00		 jae	 $L86122

; 818  : 			{	// not enough room, reallocate
; 819  : 			_Capacity = max_size() - _Capacity / 2 < _Capacity
; 820  : 				? 0 : _Capacity + _Capacity / 2;	// try to grow by 50%

  00091	8b 75 cc	 mov	 esi, DWORD PTR __Capacity$[ebp]
  00094	d1 ee		 shr	 esi, 1
  00096	8b 4d bc	 mov	 ecx, DWORD PTR _this$[ebp]
  00099	e8 00 00 00 00	 call	 ?max_size@?$vector@V?$basic_string@DU?$char_traits@D@std@@V?$allocator@D@2@@std@@V?$allocator@V?$basic_string@DU?$char_traits@D@std@@V?$allocator@D@2@@std@@@2@@std@@QBEIXZ ; std::vector<std::basic_string<char,std::char_traits<char>,std::allocator<char> >,std::allocator<std::basic_string<char,std::char_traits<char>,std::allocator<char> > > >::max_size
  0009e	2b c6		 sub	 eax, esi
  000a0	3b 45 cc	 cmp	 eax, DWORD PTR __Capacity$[ebp]
  000a3	73 09		 jae	 SHORT $L88378
  000a5	c7 45 b8 00 00
	00 00		 mov	 DWORD PTR tv89[ebp], 0
  000ac	eb 0b		 jmp	 SHORT $L88379
$L88378:
  000ae	8b 4d cc	 mov	 ecx, DWORD PTR __Capacity$[ebp]
  000b1	d1 e9		 shr	 ecx, 1
  000b3	03 4d cc	 add	 ecx, DWORD PTR __Capacity$[ebp]
  000b6	89 4d b8	 mov	 DWORD PTR tv89[ebp], ecx
$L88379:
  000b9	8b 55 b8	 mov	 edx, DWORD PTR tv89[ebp]
  000bc	89 55 cc	 mov	 DWORD PTR __Capacity$[ebp], edx

; 821  : 			if (_Capacity < size() + _Count)

  000bf	8b 4d bc	 mov	 ecx, DWORD PTR _this$[ebp]
  000c2	e8 00 00 00 00	 call	 ?size@?$vector@V?$basic_string@DU?$char_traits@D@std@@V?$allocator@D@2@@std@@V?$allocator@V?$basic_string@DU?$char_traits@D@std@@V?$allocator@D@2@@std@@@2@@std@@QBEIXZ ; std::vector<std::basic_string<char,std::char_traits<char>,std::allocator<char> >,std::allocator<std::basic_string<char,std::char_traits<char>,std::allocator<char> > > >::size
  000c7	03 45 0c	 add	 eax, DWORD PTR __Count$[ebp]
  000ca	39 45 cc	 cmp	 DWORD PTR __Capacity$[ebp], eax
  000cd	73 0e		 jae	 SHORT $L86123

; 822  : 				_Capacity = size() + _Count;

  000cf	8b 4d bc	 mov	 ecx, DWORD PTR _this$[ebp]
  000d2	e8 00 00 00 00	 call	 ?size@?$vector@V?$basic_string@DU?$char_traits@D@std@@V?$allocator@D@2@@std@@V?$allocator@V?$basic_string@DU?$char_traits@D@std@@V?$allocator@D@2@@std@@@2@@std@@QBEIXZ ; std::vector<std::basic_string<char,std::char_traits<char>,std::allocator<char> >,std::allocator<std::basic_string<char,std::char_traits<char>,std::allocator<char> > > >::size
  000d7	03 45 0c	 add	 eax, DWORD PTR __Count$[ebp]
  000da	89 45 cc	 mov	 DWORD PTR __Capacity$[ebp], eax
$L86123:

; 823  : 			pointer _Newvec = this->_Alval.allocate(_Capacity);

  000dd	8b 45 cc	 mov	 eax, DWORD PTR __Capacity$[ebp]
  000e0	50		 push	 eax
  000e1	8b 4d bc	 mov	 ecx, DWORD PTR _this$[ebp]
  000e4	e8 00 00 00 00	 call	 ?allocate@?$allocator@V?$basic_string@DU?$char_traits@D@std@@V?$allocator@D@2@@std@@@std@@QAEPAV?$basic_string@DU?$char_traits@D@std@@V?$allocator@D@2@@2@I@Z ; std::allocator<std::basic_string<char,std::char_traits<char>,std::allocator<char> > >::allocate
  000e9	89 45 c4	 mov	 DWORD PTR __Newvec$86124[ebp], eax

; 824  : 			pointer _Ptr = _Newvec;

  000ec	8b 4d c4	 mov	 ecx, DWORD PTR __Newvec$86124[ebp]
  000ef	89 4d c8	 mov	 DWORD PTR __Ptr$86125[ebp], ecx

; 825  : 
; 826  : 			_TRY_BEGIN

  000f2	c6 45 fc 01	 mov	 BYTE PTR __$EHRec$[ebp+12], 1

; 827  : 			_Ptr = _Ucopy(_Myfirst, _ITER_BASE(_Where),
; 828  : 				_Newvec);	// copy prefix

  000f6	8b 55 c4	 mov	 edx, DWORD PTR __Newvec$86124[ebp]
  000f9	52		 push	 edx
  000fa	8b 45 08	 mov	 eax, DWORD PTR __Where$[ebp]
  000fd	50		 push	 eax
  000fe	8b 4d bc	 mov	 ecx, DWORD PTR _this$[ebp]
  00101	8b 51 04	 mov	 edx, DWORD PTR [ecx+4]
  00104	52		 push	 edx
  00105	8b 4d bc	 mov	 ecx, DWORD PTR _this$[ebp]
  00108	e8 00 00 00 00	 call	 ??$_Ucopy@PAV?$basic_string@DU?$char_traits@D@std@@V?$allocator@D@2@@std@@@?$vector@V?$basic_string@DU?$char_traits@D@std@@V?$allocator@D@2@@std@@V?$allocator@V?$basic_string@DU?$char_traits@D@std@@V?$allocator@D@2@@std@@@2@@std@@IAEPAV?$basic_string@DU?$char_traits@D@std@@V?$allocator@D@2@@1@PAV21@00@Z ; std::vector<std::basic_string<char,std::char_traits<char>,std::allocator<char> >,std::allocator<std::basic_string<char,std::char_traits<char>,std::allocator<char> > > >::_Ucopy<std::basic_string<char,std::char_traits<char>,std::allocator<char> > *>
  0010d	89 45 b4	 mov	 DWORD PTR tv65[ebp], eax
  00110	8b 45 b4	 mov	 eax, DWORD PTR tv65[ebp]
  00113	89 45 c8	 mov	 DWORD PTR __Ptr$86125[ebp], eax

; 829  : 			_Ptr = _Ufill(_Ptr, _Count, _Tmp);	// add new stuff

  00116	8d 4d d0	 lea	 ecx, DWORD PTR __Tmp$[ebp]
  00119	51		 push	 ecx
  0011a	8b 55 0c	 mov	 edx, DWORD PTR __Count$[ebp]
  0011d	52		 push	 edx
  0011e	8b 45 c8	 mov	 eax, DWORD PTR __Ptr$86125[ebp]
  00121	50		 push	 eax
  00122	8b 4d bc	 mov	 ecx, DWORD PTR _this$[ebp]
  00125	e8 00 00 00 00	 call	 ?_Ufill@?$vector@V?$basic_string@DU?$char_traits@D@std@@V?$allocator@D@2@@std@@V?$allocator@V?$basic_string@DU?$char_traits@D@std@@V?$allocator@D@2@@std@@@2@@std@@IAEPAV?$basic_string@DU?$char_traits@D@std@@V?$allocator@D@2@@2@PAV32@IABV32@@Z ; std::vector<std::basic_string<char,std::char_traits<char>,std::allocator<char> >,std::allocator<std::basic_string<char,std::char_traits<char>,std::allocator<char> > > >::_Ufill
  0012a	89 45 b0	 mov	 DWORD PTR tv244[ebp], eax
  0012d	8b 4d b0	 mov	 ecx, DWORD PTR tv244[ebp]
  00130	89 4d c8	 mov	 DWORD PTR __Ptr$86125[ebp], ecx

; 830  : 			_Ucopy(_ITER_BASE(_Where), _Mylast, _Ptr);	// copy suffix

  00133	8b 55 c8	 mov	 edx, DWORD PTR __Ptr$86125[ebp]
  00136	52		 push	 edx
  00137	8b 45 bc	 mov	 eax, DWORD PTR _this$[ebp]
  0013a	8b 48 08	 mov	 ecx, DWORD PTR [eax+8]
  0013d	51		 push	 ecx
  0013e	8b 55 08	 mov	 edx, DWORD PTR __Where$[ebp]
  00141	52		 push	 edx
  00142	8b 4d bc	 mov	 ecx, DWORD PTR _this$[ebp]
  00145	e8 00 00 00 00	 call	 ??$_Ucopy@PAV?$basic_string@DU?$char_traits@D@std@@V?$allocator@D@2@@std@@@?$vector@V?$basic_string@DU?$char_traits@D@std@@V?$allocator@D@2@@std@@V?$allocator@V?$basic_string@DU?$char_traits@D@std@@V?$allocator@D@2@@std@@@2@@std@@IAEPAV?$basic_string@DU?$char_traits@D@std@@V?$allocator@D@2@@1@PAV21@00@Z ; std::vector<std::basic_string<char,std::char_traits<char>,std::allocator<char> >,std::allocator<std::basic_string<char,std::char_traits<char>,std::allocator<char> > > >::_Ucopy<std::basic_string<char,std::char_traits<char>,std::allocator<char> > *>
  0014a	eb 29		 jmp	 SHORT $L88381
$L88382:

; 831  : 			_CATCH_ALL
; 832  : 			_Destroy(_Newvec, _Ptr);

  0014c	8b 45 c8	 mov	 eax, DWORD PTR __Ptr$86125[ebp]
  0014f	50		 push	 eax
  00150	8b 4d c4	 mov	 ecx, DWORD PTR __Newvec$86124[ebp]
  00153	51		 push	 ecx
  00154	8b 4d bc	 mov	 ecx, DWORD PTR _this$[ebp]
  00157	e8 00 00 00 00	 call	 ?_Destroy@?$vector@V?$basic_string@DU?$char_traits@D@std@@V?$allocator@D@2@@std@@V?$allocator@V?$basic_string@DU?$char_traits@D@std@@V?$allocator@D@2@@std@@@2@@std@@IAEXPAV?$basic_string@DU?$char_traits@D@std@@V?$allocator@D@2@@2@0@Z ; std::vector<std::basic_string<char,std::char_traits<char>,std::allocator<char> >,std::allocator<std::basic_string<char,std::char_traits<char>,std::allocator<char> > > >::_Destroy

; 833  : 			this->_Alval.deallocate(_Newvec, _Capacity);

  0015c	8b 55 cc	 mov	 edx, DWORD PTR __Capacity$[ebp]
  0015f	52		 push	 edx
  00160	8b 45 c4	 mov	 eax, DWORD PTR __Newvec$86124[ebp]
  00163	50		 push	 eax
  00164	8b 4d bc	 mov	 ecx, DWORD PTR _this$[ebp]
  00167	e8 00 00 00 00	 call	 ?deallocate@?$allocator@V?$basic_string@DU?$char_traits@D@std@@V?$allocator@D@2@@std@@@std@@QAEXPAV?$basic_string@DU?$char_traits@D@std@@V?$allocator@D@2@@2@I@Z ; std::allocator<std::basic_string<char,std::char_traits<char>,std::allocator<char> > >::deallocate

; 834  : 			_RERAISE;

  0016c	6a 00		 push	 0
  0016e	6a 00		 push	 0
  00170	e8 00 00 00 00	 call	 __CxxThrowException@8
$L88381:

; 835  : 			_CATCH_END

  00175	c7 45 fc 00 00
	00 00		 mov	 DWORD PTR __$EHRec$[ebp+12], 0

; 836  : 
; 837  : 			_Count += size();

  0017c	8b 4d bc	 mov	 ecx, DWORD PTR _this$[ebp]
  0017f	e8 00 00 00 00	 call	 ?size@?$vector@V?$basic_string@DU?$char_traits@D@std@@V?$allocator@D@2@@std@@V?$allocator@V?$basic_string@DU?$char_traits@D@std@@V?$allocator@D@2@@std@@@2@@std@@QBEIXZ ; std::vector<std::basic_string<char,std::char_traits<char>,std::allocator<char> >,std::allocator<std::basic_string<char,std::char_traits<char>,std::allocator<char> > > >::size
  00184	03 45 0c	 add	 eax, DWORD PTR __Count$[ebp]
  00187	89 45 0c	 mov	 DWORD PTR __Count$[ebp], eax

; 838  : 			if (_Myfirst != 0)

  0018a	8b 4d bc	 mov	 ecx, DWORD PTR _this$[ebp]
  0018d	83 79 04 00	 cmp	 DWORD PTR [ecx+4], 0
  00191	74 3a		 je	 SHORT $L86132

; 839  : 				{	// destroy and deallocate old array
; 840  : 				_Destroy(_Myfirst, _Mylast);

  00193	8b 55 bc	 mov	 edx, DWORD PTR _this$[ebp]
  00196	8b 42 08	 mov	 eax, DWORD PTR [edx+8]
  00199	50		 push	 eax
  0019a	8b 4d bc	 mov	 ecx, DWORD PTR _this$[ebp]
  0019d	8b 51 04	 mov	 edx, DWORD PTR [ecx+4]
  001a0	52		 push	 edx
  001a1	8b 4d bc	 mov	 ecx, DWORD PTR _this$[ebp]
  001a4	e8 00 00 00 00	 call	 ?_Destroy@?$vector@V?$basic_string@DU?$char_traits@D@std@@V?$allocator@D@2@@std@@V?$allocator@V?$basic_string@DU?$char_traits@D@std@@V?$allocator@D@2@@std@@@2@@std@@IAEXPAV?$basic_string@DU?$char_traits@D@std@@V?$allocator@D@2@@2@0@Z ; std::vector<std::basic_string<char,std::char_traits<char>,std::allocator<char> >,std::allocator<std::basic_string<char,std::char_traits<char>,std::allocator<char> > > >::_Destroy

; 841  : 				this->_Alval.deallocate(_Myfirst, _Myend - _Myfirst);

  001a9	8b 45 bc	 mov	 eax, DWORD PTR _this$[ebp]
  001ac	8b 4d bc	 mov	 ecx, DWORD PTR _this$[ebp]
  001af	8b 40 0c	 mov	 eax, DWORD PTR [eax+12]
  001b2	2b 41 04	 sub	 eax, DWORD PTR [ecx+4]
  001b5	99		 cdq
  001b6	b9 1c 00 00 00	 mov	 ecx, 28			; 0000001cH
  001bb	f7 f9		 idiv	 ecx
  001bd	50		 push	 eax
  001be	8b 55 bc	 mov	 edx, DWORD PTR _this$[ebp]
  001c1	8b 42 04	 mov	 eax, DWORD PTR [edx+4]
  001c4	50		 push	 eax
  001c5	8b 4d bc	 mov	 ecx, DWORD PTR _this$[ebp]
  001c8	e8 00 00 00 00	 call	 ?deallocate@?$allocator@V?$basic_string@DU?$char_traits@D@std@@V?$allocator@D@2@@std@@@std@@QAEXPAV?$basic_string@DU?$char_traits@D@std@@V?$allocator@D@2@@2@I@Z ; std::allocator<std::basic_string<char,std::char_traits<char>,std::allocator<char> > >::deallocate
$L86132:

; 842  : 				}
; 843  : 			_Myend = _Newvec + _Capacity;

  001cd	8b 4d cc	 mov	 ecx, DWORD PTR __Capacity$[ebp]
  001d0	6b c9 1c	 imul	 ecx, 28			; 0000001cH
  001d3	03 4d c4	 add	 ecx, DWORD PTR __Newvec$86124[ebp]
  001d6	8b 55 bc	 mov	 edx, DWORD PTR _this$[ebp]
  001d9	89 4a 0c	 mov	 DWORD PTR [edx+12], ecx

; 844  : 			_Mylast = _Newvec + _Count;

  001dc	8b 45 0c	 mov	 eax, DWORD PTR __Count$[ebp]
  001df	6b c0 1c	 imul	 eax, 28			; 0000001cH
  001e2	03 45 c4	 add	 eax, DWORD PTR __Newvec$86124[ebp]
  001e5	8b 4d bc	 mov	 ecx, DWORD PTR _this$[ebp]
  001e8	89 41 08	 mov	 DWORD PTR [ecx+8], eax

; 845  : 			_Myfirst = _Newvec;

  001eb	8b 55 bc	 mov	 edx, DWORD PTR _this$[ebp]
  001ee	8b 45 c4	 mov	 eax, DWORD PTR __Newvec$86124[ebp]
  001f1	89 42 04	 mov	 DWORD PTR [edx+4], eax

; 846  : 			}
; 847  : 		else if ((size_type)(_Mylast - _ITER_BASE(_Where)) < _Count)

  001f4	e9 2d 01 00 00	 jmp	 $L86119
$L86122:
  001f9	8b 4d bc	 mov	 ecx, DWORD PTR _this$[ebp]
  001fc	8b 41 08	 mov	 eax, DWORD PTR [ecx+8]
  001ff	2b 45 08	 sub	 eax, DWORD PTR __Where$[ebp]
  00202	99		 cdq
  00203	b9 1c 00 00 00	 mov	 ecx, 28			; 0000001cH
  00208	f7 f9		 idiv	 ecx
  0020a	3b 45 0c	 cmp	 eax, DWORD PTR __Count$[ebp]
  0020d	0f 83 af 00 00
	00		 jae	 $L86135

; 848  : 			{	// new stuff spills off end
; 849  : 			_Ucopy(_ITER_BASE(_Where), _Mylast,
; 850  : 				_ITER_BASE(_Where) + _Count);	// copy suffix

  00213	8b 55 0c	 mov	 edx, DWORD PTR __Count$[ebp]
  00216	6b d2 1c	 imul	 edx, 28			; 0000001cH
  00219	03 55 08	 add	 edx, DWORD PTR __Where$[ebp]
  0021c	52		 push	 edx
  0021d	8b 45 bc	 mov	 eax, DWORD PTR _this$[ebp]
  00220	8b 48 08	 mov	 ecx, DWORD PTR [eax+8]
  00223	51		 push	 ecx
  00224	8b 55 08	 mov	 edx, DWORD PTR __Where$[ebp]
  00227	52		 push	 edx
  00228	8b 4d bc	 mov	 ecx, DWORD PTR _this$[ebp]
  0022b	e8 00 00 00 00	 call	 ??$_Ucopy@PAV?$basic_string@DU?$char_traits@D@std@@V?$allocator@D@2@@std@@@?$vector@V?$basic_string@DU?$char_traits@D@std@@V?$allocator@D@2@@std@@V?$allocator@V?$basic_string@DU?$char_traits@D@std@@V?$allocator@D@2@@std@@@2@@std@@IAEPAV?$basic_string@DU?$char_traits@D@std@@V?$allocator@D@2@@1@PAV21@00@Z ; std::vector<std::basic_string<char,std::char_traits<char>,std::allocator<char> >,std::allocator<std::basic_string<char,std::char_traits<char>,std::allocator<char> > > >::_Ucopy<std::basic_string<char,std::char_traits<char>,std::allocator<char> > *>

; 851  : 
; 852  : 			_TRY_BEGIN

  00230	c6 45 fc 03	 mov	 BYTE PTR __$EHRec$[ebp+12], 3

; 853  : 			_Ufill(_Mylast, _Count - (_Mylast - _ITER_BASE(_Where)),
; 854  : 				_Tmp);	// insert new stuff off end

  00234	8d 45 d0	 lea	 eax, DWORD PTR __Tmp$[ebp]
  00237	50		 push	 eax
  00238	8b 4d bc	 mov	 ecx, DWORD PTR _this$[ebp]
  0023b	8b 41 08	 mov	 eax, DWORD PTR [ecx+8]
  0023e	2b 45 08	 sub	 eax, DWORD PTR __Where$[ebp]
  00241	99		 cdq
  00242	b9 1c 00 00 00	 mov	 ecx, 28			; 0000001cH
  00247	f7 f9		 idiv	 ecx
  00249	8b 55 0c	 mov	 edx, DWORD PTR __Count$[ebp]
  0024c	2b d0		 sub	 edx, eax
  0024e	52		 push	 edx
  0024f	8b 45 bc	 mov	 eax, DWORD PTR _this$[ebp]
  00252	8b 48 08	 mov	 ecx, DWORD PTR [eax+8]
  00255	51		 push	 ecx
  00256	8b 4d bc	 mov	 ecx, DWORD PTR _this$[ebp]
  00259	e8 00 00 00 00	 call	 ?_Ufill@?$vector@V?$basic_string@DU?$char_traits@D@std@@V?$allocator@D@2@@std@@V?$allocator@V?$basic_string@DU?$char_traits@D@std@@V?$allocator@D@2@@std@@@2@@std@@IAEPAV?$basic_string@DU?$char_traits@D@std@@V?$allocator@D@2@@2@PAV32@IABV32@@Z ; std::vector<std::basic_string<char,std::char_traits<char>,std::allocator<char> >,std::allocator<std::basic_string<char,std::char_traits<char>,std::allocator<char> > > >::_Ufill
  0025e	eb 28		 jmp	 SHORT $L88383
$L88384:

; 855  : 			_CATCH_ALL
; 856  : 			_Destroy(_ITER_BASE(_Where) + _Count, _Mylast + _Count);

  00260	8b 55 0c	 mov	 edx, DWORD PTR __Count$[ebp]
  00263	6b d2 1c	 imul	 edx, 28			; 0000001cH
  00266	8b 45 bc	 mov	 eax, DWORD PTR _this$[ebp]
  00269	03 50 08	 add	 edx, DWORD PTR [eax+8]
  0026c	52		 push	 edx
  0026d	8b 4d 0c	 mov	 ecx, DWORD PTR __Count$[ebp]
  00270	6b c9 1c	 imul	 ecx, 28			; 0000001cH
  00273	03 4d 08	 add	 ecx, DWORD PTR __Where$[ebp]
  00276	51		 push	 ecx
  00277	8b 4d bc	 mov	 ecx, DWORD PTR _this$[ebp]
  0027a	e8 00 00 00 00	 call	 ?_Destroy@?$vector@V?$basic_string@DU?$char_traits@D@std@@V?$allocator@D@2@@std@@V?$allocator@V?$basic_string@DU?$char_traits@D@std@@V?$allocator@D@2@@std@@@2@@std@@IAEXPAV?$basic_string@DU?$char_traits@D@std@@V?$allocator@D@2@@2@0@Z ; std::vector<std::basic_string<char,std::char_traits<char>,std::allocator<char> >,std::allocator<std::basic_string<char,std::char_traits<char>,std::allocator<char> > > >::_Destroy

; 857  : 			_RERAISE;

  0027f	6a 00		 push	 0
  00281	6a 00		 push	 0
  00283	e8 00 00 00 00	 call	 __CxxThrowException@8
$L88383:

; 858  : 			_CATCH_END

  00288	c7 45 fc 00 00
	00 00		 mov	 DWORD PTR __$EHRec$[ebp+12], 0

; 859  : 
; 860  : 			_Mylast += _Count;

  0028f	8b 55 0c	 mov	 edx, DWORD PTR __Count$[ebp]
  00292	6b d2 1c	 imul	 edx, 28			; 0000001cH
  00295	8b 45 bc	 mov	 eax, DWORD PTR _this$[ebp]
  00298	03 50 08	 add	 edx, DWORD PTR [eax+8]
  0029b	8b 4d bc	 mov	 ecx, DWORD PTR _this$[ebp]
  0029e	89 51 08	 mov	 DWORD PTR [ecx+8], edx

; 861  : 			fill(_ITER_BASE(_Where), _Mylast - _Count,
; 862  : 				_Tmp);	// insert up to old end

  002a1	8d 55 d0	 lea	 edx, DWORD PTR __Tmp$[ebp]
  002a4	52		 push	 edx
  002a5	8b 45 0c	 mov	 eax, DWORD PTR __Count$[ebp]
  002a8	6b c0 1c	 imul	 eax, 28			; 0000001cH
  002ab	8b 4d bc	 mov	 ecx, DWORD PTR _this$[ebp]
  002ae	8b 51 08	 mov	 edx, DWORD PTR [ecx+8]
  002b1	2b d0		 sub	 edx, eax
  002b3	52		 push	 edx
  002b4	8b 45 08	 mov	 eax, DWORD PTR __Where$[ebp]
  002b7	50		 push	 eax
  002b8	e8 00 00 00 00	 call	 ??$fill@PAV?$basic_string@DU?$char_traits@D@std@@V?$allocator@D@2@@std@@V12@@std@@YAXPAV?$basic_string@DU?$char_traits@D@std@@V?$allocator@D@2@@0@0ABV10@@Z ; std::fill<std::basic_string<char,std::char_traits<char>,std::allocator<char> > *,std::basic_string<char,std::char_traits<char>,std::allocator<char> > >
  002bd	83 c4 0c	 add	 esp, 12			; 0000000cH

; 863  : 			}
; 864  : 		else

  002c0	eb 64		 jmp	 SHORT $L86119
$L86135:

; 865  : 			{	// new stuff can all be assigned
; 866  : 			pointer _Oldend = _Mylast;

  002c2	8b 4d bc	 mov	 ecx, DWORD PTR _this$[ebp]
  002c5	8b 51 08	 mov	 edx, DWORD PTR [ecx+8]
  002c8	89 55 c0	 mov	 DWORD PTR __Oldend$86145[ebp], edx

; 867  : 			_Mylast = _Ucopy(_Oldend - _Count, _Oldend,
; 868  : 				_Mylast);	// copy suffix

  002cb	8b 45 bc	 mov	 eax, DWORD PTR _this$[ebp]
  002ce	8b 48 08	 mov	 ecx, DWORD PTR [eax+8]
  002d1	51		 push	 ecx
  002d2	8b 55 c0	 mov	 edx, DWORD PTR __Oldend$86145[ebp]
  002d5	52		 push	 edx
  002d6	8b 45 0c	 mov	 eax, DWORD PTR __Count$[ebp]
  002d9	6b c0 1c	 imul	 eax, 28			; 0000001cH
  002dc	8b 4d c0	 mov	 ecx, DWORD PTR __Oldend$86145[ebp]
  002df	2b c8		 sub	 ecx, eax
  002e1	51		 push	 ecx
  002e2	8b 4d bc	 mov	 ecx, DWORD PTR _this$[ebp]
  002e5	e8 00 00 00 00	 call	 ??$_Ucopy@PAV?$basic_string@DU?$char_traits@D@std@@V?$allocator@D@2@@std@@@?$vector@V?$basic_string@DU?$char_traits@D@std@@V?$allocator@D@2@@std@@V?$allocator@V?$basic_string@DU?$char_traits@D@std@@V?$allocator@D@2@@std@@@2@@std@@IAEPAV?$basic_string@DU?$char_traits@D@std@@V?$allocator@D@2@@1@PAV21@00@Z ; std::vector<std::basic_string<char,std::char_traits<char>,std::allocator<char> >,std::allocator<std::basic_string<char,std::char_traits<char>,std::allocator<char> > > >::_Ucopy<std::basic_string<char,std::char_traits<char>,std::allocator<char> > *>
  002ea	8b 55 bc	 mov	 edx, DWORD PTR _this$[ebp]
  002ed	89 42 08	 mov	 DWORD PTR [edx+8], eax

; 869  : 			copy_backward(_ITER_BASE(_Where), _Oldend - _Count,
; 870  : 				_Oldend);	// copy hole

  002f0	8b 45 c0	 mov	 eax, DWORD PTR __Oldend$86145[ebp]
  002f3	50		 push	 eax
  002f4	8b 4d 0c	 mov	 ecx, DWORD PTR __Count$[ebp]
  002f7	6b c9 1c	 imul	 ecx, 28			; 0000001cH
  002fa	8b 55 c0	 mov	 edx, DWORD PTR __Oldend$86145[ebp]
  002fd	2b d1		 sub	 edx, ecx
  002ff	52		 push	 edx
  00300	8b 45 08	 mov	 eax, DWORD PTR __Where$[ebp]
  00303	50		 push	 eax
  00304	e8 00 00 00 00	 call	 ??$copy_backward@PAV?$basic_string@DU?$char_traits@D@std@@V?$allocator@D@2@@std@@PAV12@@std@@YAPAV?$basic_string@DU?$char_traits@D@std@@V?$allocator@D@2@@0@PAV10@00@Z ; std::copy_backward<std::basic_string<char,std::char_traits<char>,std::allocator<char> > *,std::basic_string<char,std::char_traits<char>,std::allocator<char> > *>
  00309	83 c4 0c	 add	 esp, 12			; 0000000cH

; 871  : 			fill(_ITER_BASE(_Where), _ITER_BASE(_Where) + _Count,
; 872  : 				_Tmp);	// insert into hole

  0030c	8d 4d d0	 lea	 ecx, DWORD PTR __Tmp$[ebp]
  0030f	51		 push	 ecx
  00310	8b 55 0c	 mov	 edx, DWORD PTR __Count$[ebp]
  00313	6b d2 1c	 imul	 edx, 28			; 0000001cH
  00316	03 55 08	 add	 edx, DWORD PTR __Where$[ebp]
  00319	52		 push	 edx
  0031a	8b 45 08	 mov	 eax, DWORD PTR __Where$[ebp]
  0031d	50		 push	 eax
  0031e	e8 00 00 00 00	 call	 ??$fill@PAV?$basic_string@DU?$char_traits@D@std@@V?$allocator@D@2@@std@@V12@@std@@YAXPAV?$basic_string@DU?$char_traits@D@std@@V?$allocator@D@2@@0@0ABV10@@Z ; std::fill<std::basic_string<char,std::char_traits<char>,std::allocator<char> > *,std::basic_string<char,std::char_traits<char>,std::allocator<char> > >
  00323	83 c4 0c	 add	 esp, 12			; 0000000cH
$L86119:

; 873  : 			}
; 874  : 		}

  00326	c7 45 fc ff ff
	ff ff		 mov	 DWORD PTR __$EHRec$[ebp+12], -1
  0032d	8d 4d d0	 lea	 ecx, DWORD PTR __Tmp$[ebp]
  00330	ff 15 00 00 00
	00		 call	 DWORD PTR __imp_??1?$basic_string@DU?$char_traits@D@std@@V?$allocator@D@2@@std@@QAE@XZ
$L88377:
  00336	8b 4d f4	 mov	 ecx, DWORD PTR __$EHRec$[ebp+4]
  00339	64 89 0d 00 00
	00 00		 mov	 DWORD PTR fs:__except_list, ecx
  00340	8b 4d ec	 mov	 ecx, DWORD PTR __$ArrayPad$[ebp]
  00343	e8 00 00 00 00	 call	 @__security_check_cookie@4
  00348	5f		 pop	 edi
  00349	5e		 pop	 esi
  0034a	5b		 pop	 ebx
  0034b	8b e5		 mov	 esp, ebp
  0034d	5d		 pop	 ebp
  0034e	c2 0c 00	 ret	 12			; 0000000cH
_TEXT	ENDS
;	COMDAT text$x
text$x	SEGMENT
$L88385:
  00000	8d 4d d0	 lea	 ecx, DWORD PTR __Tmp$[ebp]
  00003	ff 25 00 00 00
	00		 jmp	 DWORD PTR __imp_??1?$basic_string@DU?$char_traits@D@std@@V?$allocator@D@2@@std@@QAE@XZ
__ehhandler$?_Insert_n@?$vector@V?$basic_string@DU?$char_traits@D@std@@V?$allocator@D@2@@std@@V?$allocator@V?$basic_string@DU?$char_traits@D@std@@V?$allocator@D@2@@std@@@2@@std@@IAEXViterator@12@IABV?$basic_string@DU?$char_traits@D@std@@V?$allocator@D@2@@2@@Z:
  00009	b8 00 00 00 00	 mov	 eax, OFFSET FLAT:$T88387
  0000e	e9 00 00 00 00	 jmp	 ___CxxFrameHandler
text$x	ENDS
?_Insert_n@?$vector@V?$basic_string@DU?$char_traits@D@std@@V?$allocator@D@2@@std@@V?$allocator@V?$basic_string@DU?$char_traits@D@std@@V?$allocator@D@2@@std@@@2@@std@@IAEXViterator@12@IABV?$basic_string@DU?$char_traits@D@std@@V?$allocator@D@2@@2@@Z ENDP ; std::vector<std::basic_string<char,std::char_traits<char>,std::allocator<char> >,std::allocator<std::basic_string<char,std::char_traits<char>,std::allocator<char> > > >::_Insert_n
PUBLIC	??0length_error@std@@QAE@ABV?$basic_string@DU?$char_traits@D@std@@V?$allocator@D@2@@1@@Z ; std::length_error::length_error
PUBLIC	??1length_error@std@@UAE@XZ			; std::length_error::~length_error
PUBLIC	??0length_error@std@@QAE@ABV01@@Z		; std::length_error::length_error
PUBLIC	__TI3?AVlength_error@std@@
PUBLIC	__CTA3?AVlength_error@std@@
PUBLIC	??_R0?AVlength_error@std@@@8			; std::length_error `RTTI Type Descriptor'
PUBLIC	__CT??_R0?AVlength_error@std@@@8??0length_error@std@@QAE@ABV01@@Z40
PUBLIC	??_R0?AVlogic_error@std@@@8			; std::logic_error `RTTI Type Descriptor'
PUBLIC	__CT??_R0?AVlogic_error@std@@@8??0logic_error@std@@QAE@ABV01@@Z40
PUBLIC	??_R0?AVexception@@@8				; exception `RTTI Type Descriptor'
PUBLIC	__CT??_R0?AVexception@@@8??0exception@@QAE@ABV0@@Z12
PUBLIC	??_C@_0BD@OLBABOEK@vector?$DMT?$DO?5too?5long?$AA@ ; `string'
PUBLIC	??0logic_error@std@@QAE@ABV01@@Z		; std::logic_error::logic_error
EXTRN	??_7type_info@@6B@:QWORD			; type_info::`vftable'
EXTRN	??0exception@@QAE@ABV0@@Z:NEAR			; exception::exception
;	COMDAT xdata$x
xdata$x	SEGMENT
$T88404	DD	0ffffffffH
	DD	FLAT:$L88400
$T88402	DD	019930520H
	DD	01H
	DD	FLAT:$T88404
	DD	2 DUP(00H)
	DD	2 DUP(00H)
xdata$x	ENDS
;	COMDAT ??_C@_0BD@OLBABOEK@vector?$DMT?$DO?5too?5long?$AA@
CONST	SEGMENT
??_C@_0BD@OLBABOEK@vector?$DMT?$DO?5too?5long?$AA@ DB 'vector<T> too long'
	DB	00H						; `string'
CONST	ENDS
;	COMDAT __TI3?AVlength_error@std@@
xdata$x	SEGMENT
__TI3?AVlength_error@std@@ DD 00H
	DD	FLAT:??1length_error@std@@UAE@XZ
	DD	00H
	DD	FLAT:__CTA3?AVlength_error@std@@
xdata$x	ENDS
;	COMDAT __CTA3?AVlength_error@std@@
xdata$x	SEGMENT
__CTA3?AVlength_error@std@@ DD 03H
	DD	FLAT:__CT??_R0?AVlength_error@std@@@8??0length_error@std@@QAE@ABV01@@Z40
	DD	FLAT:__CT??_R0?AVlogic_error@std@@@8??0logic_error@std@@QAE@ABV01@@Z40
	DD	FLAT:__CT??_R0?AVexception@@@8??0exception@@QAE@ABV0@@Z12
xdata$x	ENDS
;	COMDAT __CT??_R0?AVlength_error@std@@@8??0length_error@std@@QAE@ABV01@@Z40
xdata$x	SEGMENT
__CT??_R0?AVlength_error@std@@@8??0length_error@std@@QAE@ABV01@@Z40 DD 00H
	DD	FLAT:??_R0?AVlength_error@std@@@8
	DD	00H
	DD	0ffffffffH
	ORG $+4
	DD	028H
	DD	FLAT:??0length_error@std@@QAE@ABV01@@Z
xdata$x	ENDS
;	COMDAT ??_R0?AVlength_error@std@@@8
_DATA	SEGMENT
??_R0?AVlength_error@std@@@8 DD FLAT:??_7type_info@@6B@	; std::length_error `RTTI Type Descriptor'
	DD	00H
	DB	'.?AVlength_error@std@@', 00H
_DATA	ENDS
;	COMDAT __CT??_R0?AVlogic_error@std@@@8??0logic_error@std@@QAE@ABV01@@Z40
xdata$x	SEGMENT
__CT??_R0?AVlogic_error@std@@@8??0logic_error@std@@QAE@ABV01@@Z40 DD 00H
	DD	FLAT:??_R0?AVlogic_error@std@@@8
	DD	00H
	DD	0ffffffffH
	ORG $+4
	DD	028H
	DD	FLAT:??0logic_error@std@@QAE@ABV01@@Z
xdata$x	ENDS
;	COMDAT ??_R0?AVlogic_error@std@@@8
_DATA	SEGMENT
??_R0?AVlogic_error@std@@@8 DD FLAT:??_7type_info@@6B@	; std::logic_error `RTTI Type Descriptor'
	DD	00H
	DB	'.?AVlogic_error@std@@', 00H
_DATA	ENDS
;	COMDAT __CT??_R0?AVexception@@@8??0exception@@QAE@ABV0@@Z12
xdata$x	SEGMENT
__CT??_R0?AVexception@@@8??0exception@@QAE@ABV0@@Z12 DD 00H
	DD	FLAT:??_R0?AVexception@@@8
	DD	00H
	DD	0ffffffffH
	ORG $+4
	DD	0cH
	DD	FLAT:??0exception@@QAE@ABV0@@Z
xdata$x	ENDS
;	COMDAT ??_R0?AVexception@@@8
_DATA	SEGMENT
??_R0?AVexception@@@8 DD FLAT:??_7type_info@@6B@	; exception `RTTI Type Descriptor'
	DD	00H
	DB	'.?AVexception@@', 00H
; Function compile flags: /Odt
_DATA	ENDS
;	COMDAT ?_Xlen@?$vector@V?$basic_string@DU?$char_traits@D@std@@V?$allocator@D@2@@std@@V?$allocator@V?$basic_string@DU?$char_traits@D@std@@V?$allocator@D@2@@std@@@2@@std@@IBEXXZ
_TEXT	SEGMENT
_this$ = -84						; size = 4
$T88399 = -80						; size = 28
$T88398 = -52						; size = 40
__$EHRec$ = -12						; size = 12
?_Xlen@?$vector@V?$basic_string@DU?$char_traits@D@std@@V?$allocator@D@2@@std@@V?$allocator@V?$basic_string@DU?$char_traits@D@std@@V?$allocator@D@2@@std@@@2@@std@@IBEXXZ PROC NEAR ; std::vector<std::basic_string<char,std::char_traits<char>,std::allocator<char> >,std::allocator<std::basic_string<char,std::char_traits<char>,std::allocator<char> > > >::_Xlen, COMDAT
; _this$ = ecx

; 883  : 		{	// report a length_error

  00000	55		 push	 ebp
  00001	8b ec		 mov	 ebp, esp
  00003	6a ff		 push	 -1
  00005	68 00 00 00 00	 push	 __ehhandler$?_Xlen@?$vector@V?$basic_string@DU?$char_traits@D@std@@V?$allocator@D@2@@std@@V?$allocator@V?$basic_string@DU?$char_traits@D@std@@V?$allocator@D@2@@std@@@2@@std@@IBEXXZ
  0000a	64 a1 00 00 00
	00		 mov	 eax, DWORD PTR fs:__except_list
  00010	50		 push	 eax
  00011	64 89 25 00 00
	00 00		 mov	 DWORD PTR fs:__except_list, esp
  00018	83 ec 48	 sub	 esp, 72			; 00000048H
  0001b	89 4d ac	 mov	 DWORD PTR _this$[ebp], ecx

; 884  : 		_THROW(length_error, "vector<T> too long");

  0001e	68 00 00 00 00	 push	 OFFSET FLAT:??_C@_0BD@OLBABOEK@vector?$DMT?$DO?5too?5long?$AA@
  00023	8d 4d b0	 lea	 ecx, DWORD PTR $T88399[ebp]
  00026	ff 15 00 00 00
	00		 call	 DWORD PTR __imp_??0?$basic_string@DU?$char_traits@D@std@@V?$allocator@D@2@@std@@QAE@PBD@Z
  0002c	c7 45 fc 00 00
	00 00		 mov	 DWORD PTR __$EHRec$[ebp+8], 0
  00033	8d 45 b0	 lea	 eax, DWORD PTR $T88399[ebp]
  00036	50		 push	 eax
  00037	8d 4d cc	 lea	 ecx, DWORD PTR $T88398[ebp]
  0003a	e8 00 00 00 00	 call	 ??0length_error@std@@QAE@ABV?$basic_string@DU?$char_traits@D@std@@V?$allocator@D@2@@1@@Z ; std::length_error::length_error
  0003f	68 00 00 00 00	 push	 OFFSET FLAT:__TI3?AVlength_error@std@@
  00044	8d 4d cc	 lea	 ecx, DWORD PTR $T88398[ebp]
  00047	51		 push	 ecx
  00048	e8 00 00 00 00	 call	 __CxxThrowException@8
$L88397:

; 885  : 		}

  0004d	8b 4d f4	 mov	 ecx, DWORD PTR __$EHRec$[ebp]
  00050	64 89 0d 00 00
	00 00		 mov	 DWORD PTR fs:__except_list, ecx
  00057	8b e5		 mov	 esp, ebp
  00059	5d		 pop	 ebp
  0005a	c3		 ret	 0
_TEXT	ENDS
;	COMDAT text$x
text$x	SEGMENT
$L88400:
  00000	8d 4d b0	 lea	 ecx, DWORD PTR $T88399[ebp]
  00003	ff 25 00 00 00
	00		 jmp	 DWORD PTR __imp_??1?$basic_string@DU?$char_traits@D@std@@V?$allocator@D@2@@std@@QAE@XZ
__ehhandler$?_Xlen@?$vector@V?$basic_string@DU?$char_traits@D@std@@V?$allocator@D@2@@std@@V?$allocator@V?$basic_string@DU?$char_traits@D@std@@V?$allocator@D@2@@std@@@2@@std@@IBEXXZ:
  00009	b8 00 00 00 00	 mov	 eax, OFFSET FLAT:$T88402
  0000e	e9 00 00 00 00	 jmp	 ___CxxFrameHandler
text$x	ENDS
?_Xlen@?$vector@V?$basic_string@DU?$char_traits@D@std@@V?$allocator@D@2@@std@@V?$allocator@V?$basic_string@DU?$char_traits@D@std@@V?$allocator@D@2@@std@@@2@@std@@IBEXXZ ENDP ; std::vector<std::basic_string<char,std::char_traits<char>,std::allocator<char> >,std::allocator<std::basic_string<char,std::char_traits<char>,std::allocator<char> > > >::_Xlen
PUBLIC	??_7length_error@std@@6B@			; std::length_error::`vftable'
PUBLIC	??_Glength_error@std@@UAEPAXI@Z			; std::length_error::`scalar deleting destructor'
PUBLIC	??_R1A@?0A@A@exception@@8			; exception::`RTTI Base Class Descriptor at (0,-1,0,0)'
PUBLIC	??_R1A@?0A@A@logic_error@std@@8			; std::logic_error::`RTTI Base Class Descriptor at (0,-1,0,0)'
PUBLIC	??_R4length_error@std@@6B@			; std::length_error::`RTTI Complete Object Locator'
PUBLIC	??_R3length_error@std@@8			; std::length_error::`RTTI Class Hierarchy Descriptor'
PUBLIC	??_R2length_error@std@@8			; std::length_error::`RTTI Base Class Array'
PUBLIC	??_R1A@?0A@A@length_error@std@@8		; std::length_error::`RTTI Base Class Descriptor at (0,-1,0,0)'
PUBLIC	??0logic_error@std@@QAE@ABV?$basic_string@DU?$char_traits@D@std@@V?$allocator@D@2@@1@@Z ; std::logic_error::logic_error
PUBLIC	?what@logic_error@std@@UBEPBDXZ			; std::logic_error::what
EXTRN	??_Elength_error@std@@UAEPAXI@Z:NEAR		; std::length_error::`vector deleting destructor'
;	COMDAT ??_7length_error@std@@6B@
; File d:\program files (x86)\microsoft visual studio .net 2003\vc7\include\stdexcept
CONST	SEGMENT
??_7length_error@std@@6B@ DD FLAT:??_R4length_error@std@@6B@ ; std::length_error::`vftable'
	DD	FLAT:??_Elength_error@std@@UAEPAXI@Z
	DD	FLAT:?what@logic_error@std@@UBEPBDXZ
CONST	ENDS
;	COMDAT ??_R4length_error@std@@6B@
rdata$r	SEGMENT
??_R4length_error@std@@6B@ DD 00H			; std::length_error::`RTTI Complete Object Locator'
	DD	00H
	DD	00H
	DD	FLAT:??_R0?AVlength_error@std@@@8
	DD	FLAT:??_R3length_error@std@@8
rdata$r	ENDS
;	COMDAT ??_R3length_error@std@@8
rdata$r	SEGMENT
??_R3length_error@std@@8 DD 00H				; std::length_error::`RTTI Class Hierarchy Descriptor'
	DD	00H
	DD	03H
	DD	FLAT:??_R2length_error@std@@8
rdata$r	ENDS
;	COMDAT ??_R2length_error@std@@8
rdata$r	SEGMENT
??_R2length_error@std@@8 DD FLAT:??_R1A@?0A@A@length_error@std@@8 ; std::length_error::`RTTI Base Class Array'
	DD	FLAT:??_R1A@?0A@A@logic_error@std@@8
	DD	FLAT:??_R1A@?0A@A@exception@@8
rdata$r	ENDS
;	COMDAT ??_R1A@?0A@A@length_error@std@@8
rdata$r	SEGMENT
??_R1A@?0A@A@length_error@std@@8 DD FLAT:??_R0?AVlength_error@std@@@8 ; std::length_error::`RTTI Base Class Descriptor at (0,-1,0,0)'
	DD	02H
	DD	00H
	DD	0ffffffffH
	DD	00H
	DD	00H
rdata$r	ENDS
;	COMDAT ??_R1A@?0A@A@logic_error@std@@8
rdata$r	SEGMENT
??_R1A@?0A@A@logic_error@std@@8 DD FLAT:??_R0?AVlogic_error@std@@@8 ; std::logic_error::`RTTI Base Class Descriptor at (0,-1,0,0)'
	DD	01H
	DD	00H
	DD	0ffffffffH
	DD	00H
	DD	00H
rdata$r	ENDS
;	COMDAT ??_R1A@?0A@A@exception@@8
rdata$r	SEGMENT
??_R1A@?0A@A@exception@@8 DD FLAT:??_R0?AVexception@@@8	; exception::`RTTI Base Class Descriptor at (0,-1,0,0)'
	DD	00H
	DD	00H
	DD	0ffffffffH
	DD	00H
	DD	00H
; Function compile flags: /Odt
rdata$r	ENDS
;	COMDAT ??0length_error@std@@QAE@ABV?$basic_string@DU?$char_traits@D@std@@V?$allocator@D@2@@1@@Z
_TEXT	SEGMENT
_this$ = -4						; size = 4
__Message$ = 8						; size = 4
??0length_error@std@@QAE@ABV?$basic_string@DU?$char_traits@D@std@@V?$allocator@D@2@@1@@Z PROC NEAR ; std::length_error::length_error, COMDAT
; _this$ = ecx

; 95   : 		{	// construct from message string

  00000	55		 push	 ebp
  00001	8b ec		 mov	 ebp, esp
  00003	51		 push	 ecx
  00004	89 4d fc	 mov	 DWORD PTR _this$[ebp], ecx
  00007	8b 45 08	 mov	 eax, DWORD PTR __Message$[ebp]
  0000a	50		 push	 eax
  0000b	8b 4d fc	 mov	 ecx, DWORD PTR _this$[ebp]
  0000e	e8 00 00 00 00	 call	 ??0logic_error@std@@QAE@ABV?$basic_string@DU?$char_traits@D@std@@V?$allocator@D@2@@1@@Z ; std::logic_error::logic_error
  00013	8b 4d fc	 mov	 ecx, DWORD PTR _this$[ebp]
  00016	c7 01 00 00 00
	00		 mov	 DWORD PTR [ecx], OFFSET FLAT:??_7length_error@std@@6B@

; 96   : 		}

  0001c	8b 45 fc	 mov	 eax, DWORD PTR _this$[ebp]
  0001f	8b e5		 mov	 esp, ebp
  00021	5d		 pop	 ebp
  00022	c2 04 00	 ret	 4
??0length_error@std@@QAE@ABV?$basic_string@DU?$char_traits@D@std@@V?$allocator@D@2@@1@@Z ENDP ; std::length_error::length_error
_TEXT	ENDS
PUBLIC	??_Glogic_error@std@@UAEPAXI@Z			; std::logic_error::`scalar deleting destructor'
PUBLIC	??_R4logic_error@std@@6B@			; std::logic_error::`RTTI Complete Object Locator'
PUBLIC	??_R3logic_error@std@@8				; std::logic_error::`RTTI Class Hierarchy Descriptor'
PUBLIC	??_R2logic_error@std@@8				; std::logic_error::`RTTI Base Class Array'
PUBLIC	??_7logic_error@std@@6B@			; std::logic_error::`vftable'
EXTRN	??_Elogic_error@std@@UAEPAXI@Z:NEAR		; std::logic_error::`vector deleting destructor'
EXTRN	__imp_??0exception@@QAE@XZ:NEAR
EXTRN	__imp_??1exception@@UAE@XZ:NEAR
;	COMDAT xdata$x
xdata$x	SEGMENT
$T88417	DD	0ffffffffH
	DD	FLAT:$L88412
$T88415	DD	019930520H
	DD	01H
	DD	FLAT:$T88417
	DD	2 DUP(00H)
	DD	2 DUP(00H)
xdata$x	ENDS
;	COMDAT ??_7logic_error@std@@6B@
CONST	SEGMENT
??_7logic_error@std@@6B@ DD FLAT:??_R4logic_error@std@@6B@ ; std::logic_error::`vftable'
	DD	FLAT:??_Elogic_error@std@@UAEPAXI@Z
	DD	FLAT:?what@logic_error@std@@UBEPBDXZ
CONST	ENDS
;	COMDAT ??_R4logic_error@std@@6B@
rdata$r	SEGMENT
??_R4logic_error@std@@6B@ DD 00H			; std::logic_error::`RTTI Complete Object Locator'
	DD	00H
	DD	00H
	DD	FLAT:??_R0?AVlogic_error@std@@@8
	DD	FLAT:??_R3logic_error@std@@8
rdata$r	ENDS
;	COMDAT ??_R3logic_error@std@@8
rdata$r	SEGMENT
??_R3logic_error@std@@8 DD 00H				; std::logic_error::`RTTI Class Hierarchy Descriptor'
	DD	00H
	DD	02H
	DD	FLAT:??_R2logic_error@std@@8
rdata$r	ENDS
;	COMDAT ??_R2logic_error@std@@8
rdata$r	SEGMENT
??_R2logic_error@std@@8 DD FLAT:??_R1A@?0A@A@logic_error@std@@8 ; std::logic_error::`RTTI Base Class Array'
	DD	FLAT:??_R1A@?0A@A@exception@@8
; Function compile flags: /Odt
rdata$r	ENDS
;	COMDAT ??0logic_error@std@@QAE@ABV?$basic_string@DU?$char_traits@D@std@@V?$allocator@D@2@@1@@Z
_TEXT	SEGMENT
_this$ = -16						; size = 4
__$EHRec$ = -12						; size = 12
__Message$ = 8						; size = 4
??0logic_error@std@@QAE@ABV?$basic_string@DU?$char_traits@D@std@@V?$allocator@D@2@@1@@Z PROC NEAR ; std::logic_error::logic_error, COMDAT
; _this$ = ecx

; 19   : 		{	// construct from message string

  00000	55		 push	 ebp
  00001	8b ec		 mov	 ebp, esp
  00003	6a ff		 push	 -1
  00005	68 00 00 00 00	 push	 __ehhandler$??0logic_error@std@@QAE@ABV?$basic_string@DU?$char_traits@D@std@@V?$allocator@D@2@@1@@Z
  0000a	64 a1 00 00 00
	00		 mov	 eax, DWORD PTR fs:__except_list
  00010	50		 push	 eax
  00011	64 89 25 00 00
	00 00		 mov	 DWORD PTR fs:__except_list, esp
  00018	51		 push	 ecx
  00019	89 4d f0	 mov	 DWORD PTR _this$[ebp], ecx
  0001c	8b 4d f0	 mov	 ecx, DWORD PTR _this$[ebp]
  0001f	ff 15 00 00 00
	00		 call	 DWORD PTR __imp_??0exception@@QAE@XZ
  00025	c7 45 fc 00 00
	00 00		 mov	 DWORD PTR __$EHRec$[ebp+8], 0
  0002c	8b 45 f0	 mov	 eax, DWORD PTR _this$[ebp]
  0002f	c7 00 00 00 00
	00		 mov	 DWORD PTR [eax], OFFSET FLAT:??_7logic_error@std@@6B@
  00035	8b 4d 08	 mov	 ecx, DWORD PTR __Message$[ebp]
  00038	51		 push	 ecx
  00039	8b 4d f0	 mov	 ecx, DWORD PTR _this$[ebp]
  0003c	83 c1 0c	 add	 ecx, 12			; 0000000cH
  0003f	ff 15 00 00 00
	00		 call	 DWORD PTR __imp_??0?$basic_string@DU?$char_traits@D@std@@V?$allocator@D@2@@std@@QAE@ABV01@@Z

; 20   : 		}

  00045	c7 45 fc ff ff
	ff ff		 mov	 DWORD PTR __$EHRec$[ebp+8], -1
  0004c	8b 45 f0	 mov	 eax, DWORD PTR _this$[ebp]
  0004f	8b 4d f4	 mov	 ecx, DWORD PTR __$EHRec$[ebp]
  00052	64 89 0d 00 00
	00 00		 mov	 DWORD PTR fs:__except_list, ecx
  00059	8b e5		 mov	 esp, ebp
  0005b	5d		 pop	 ebp
  0005c	c2 04 00	 ret	 4
_TEXT	ENDS
;	COMDAT text$x
text$x	SEGMENT
$L88412:
  00000	8b 4d f0	 mov	 ecx, DWORD PTR _this$[ebp]
  00003	ff 25 00 00 00
	00		 jmp	 DWORD PTR __imp_??1exception@@UAE@XZ
__ehhandler$??0logic_error@std@@QAE@ABV?$basic_string@DU?$char_traits@D@std@@V?$allocator@D@2@@1@@Z:
  00009	b8 00 00 00 00	 mov	 eax, OFFSET FLAT:$T88415
  0000e	e9 00 00 00 00	 jmp	 ___CxxFrameHandler
text$x	ENDS
??0logic_error@std@@QAE@ABV?$basic_string@DU?$char_traits@D@std@@V?$allocator@D@2@@1@@Z ENDP ; std::logic_error::logic_error
; Function compile flags: /Odt
;	COMDAT ?what@logic_error@std@@UBEPBDXZ
_TEXT	SEGMENT
_this$ = -4						; size = 4
?what@logic_error@std@@UBEPBDXZ PROC NEAR		; std::logic_error::what, COMDAT
; _this$ = ecx

; 26   : 		{	// return pointer to message string

  00000	55		 push	 ebp
  00001	8b ec		 mov	 ebp, esp
  00003	51		 push	 ecx
  00004	89 4d fc	 mov	 DWORD PTR _this$[ebp], ecx

; 27   : 		return (_Str.c_str());

  00007	8b 4d fc	 mov	 ecx, DWORD PTR _this$[ebp]
  0000a	83 c1 0c	 add	 ecx, 12			; 0000000cH
  0000d	ff 15 00 00 00
	00		 call	 DWORD PTR __imp_?c_str@?$basic_string@DU?$char_traits@D@std@@V?$allocator@D@2@@std@@QBEPBDXZ

; 28   : 		}

  00013	8b e5		 mov	 esp, ebp
  00015	5d		 pop	 ebp
  00016	c3		 ret	 0
?what@logic_error@std@@UBEPBDXZ ENDP			; std::logic_error::what
_TEXT	ENDS
PUBLIC	??1logic_error@std@@UAE@XZ			; std::logic_error::~logic_error
; Function compile flags: /Odt
;	COMDAT ??_Glogic_error@std@@UAEPAXI@Z
_TEXT	SEGMENT
_this$ = -4						; size = 4
___flags$ = 8						; size = 4
??_Glogic_error@std@@UAEPAXI@Z PROC NEAR		; std::logic_error::`scalar deleting destructor', COMDAT
; _this$ = ecx
  00000	55		 push	 ebp
  00001	8b ec		 mov	 ebp, esp
  00003	51		 push	 ecx
  00004	89 4d fc	 mov	 DWORD PTR _this$[ebp], ecx
  00007	8b 4d fc	 mov	 ecx, DWORD PTR _this$[ebp]
  0000a	e8 00 00 00 00	 call	 ??1logic_error@std@@UAE@XZ ; std::logic_error::~logic_error
  0000f	8b 45 08	 mov	 eax, DWORD PTR ___flags$[ebp]
  00012	83 e0 01	 and	 eax, 1
  00015	74 0c		 je	 SHORT $L76812
  00017	8b 4d fc	 mov	 ecx, DWORD PTR _this$[ebp]
  0001a	51		 push	 ecx
  0001b	e8 00 00 00 00	 call	 ??3@YAXPAX@Z		; operator delete
  00020	83 c4 04	 add	 esp, 4
$L76812:
  00023	8b 45 fc	 mov	 eax, DWORD PTR _this$[ebp]
  00026	8b e5		 mov	 esp, ebp
  00028	5d		 pop	 ebp
  00029	c2 04 00	 ret	 4
??_Glogic_error@std@@UAEPAXI@Z ENDP			; std::logic_error::`scalar deleting destructor'
_TEXT	ENDS
;	COMDAT xdata$x
xdata$x	SEGMENT
$T88431	DD	0ffffffffH
	DD	FLAT:$L88426
$T88429	DD	019930520H
	DD	01H
	DD	FLAT:$T88431
	DD	2 DUP(00H)
	DD	2 DUP(00H)
; Function compile flags: /Odt
xdata$x	ENDS
;	COMDAT ??1logic_error@std@@UAE@XZ
_TEXT	SEGMENT
_this$ = -16						; size = 4
__$EHRec$ = -12						; size = 12
??1logic_error@std@@UAE@XZ PROC NEAR			; std::logic_error::~logic_error, COMDAT
; _this$ = ecx

; 23   : 		{}	// destroy the object

  00000	55		 push	 ebp
  00001	8b ec		 mov	 ebp, esp
  00003	6a ff		 push	 -1
  00005	68 00 00 00 00	 push	 __ehhandler$??1logic_error@std@@UAE@XZ
  0000a	64 a1 00 00 00
	00		 mov	 eax, DWORD PTR fs:__except_list
  00010	50		 push	 eax
  00011	64 89 25 00 00
	00 00		 mov	 DWORD PTR fs:__except_list, esp
  00018	51		 push	 ecx
  00019	89 4d f0	 mov	 DWORD PTR _this$[ebp], ecx
  0001c	8b 45 f0	 mov	 eax, DWORD PTR _this$[ebp]
  0001f	c7 00 00 00 00
	00		 mov	 DWORD PTR [eax], OFFSET FLAT:??_7logic_error@std@@6B@
  00025	c7 45 fc 00 00
	00 00		 mov	 DWORD PTR __$EHRec$[ebp+8], 0
  0002c	8b 4d f0	 mov	 ecx, DWORD PTR _this$[ebp]
  0002f	83 c1 0c	 add	 ecx, 12			; 0000000cH
  00032	ff 15 00 00 00
	00		 call	 DWORD PTR __imp_??1?$basic_string@DU?$char_traits@D@std@@V?$allocator@D@2@@std@@QAE@XZ
  00038	c7 45 fc ff ff
	ff ff		 mov	 DWORD PTR __$EHRec$[ebp+8], -1
  0003f	8b 4d f0	 mov	 ecx, DWORD PTR _this$[ebp]
  00042	ff 15 00 00 00
	00		 call	 DWORD PTR __imp_??1exception@@UAE@XZ
  00048	8b 4d f4	 mov	 ecx, DWORD PTR __$EHRec$[ebp]
  0004b	64 89 0d 00 00
	00 00		 mov	 DWORD PTR fs:__except_list, ecx
  00052	8b e5		 mov	 esp, ebp
  00054	5d		 pop	 ebp
  00055	c3		 ret	 0
_TEXT	ENDS
;	COMDAT text$x
text$x	SEGMENT
$L88426:
  00000	8b 4d f0	 mov	 ecx, DWORD PTR _this$[ebp]
  00003	ff 25 00 00 00
	00		 jmp	 DWORD PTR __imp_??1exception@@UAE@XZ
__ehhandler$??1logic_error@std@@UAE@XZ:
  00009	b8 00 00 00 00	 mov	 eax, OFFSET FLAT:$T88429
  0000e	e9 00 00 00 00	 jmp	 ___CxxFrameHandler
text$x	ENDS
??1logic_error@std@@UAE@XZ ENDP				; std::logic_error::~logic_error
; Function compile flags: /Odt
;	COMDAT ??1length_error@std@@UAE@XZ
_TEXT	SEGMENT
_this$ = -4						; size = 4
??1length_error@std@@UAE@XZ PROC NEAR			; std::length_error::~length_error, COMDAT
; _this$ = ecx

; 99   : 		{}	// destroy the object

  00000	55		 push	 ebp
  00001	8b ec		 mov	 ebp, esp
  00003	51		 push	 ecx
  00004	89 4d fc	 mov	 DWORD PTR _this$[ebp], ecx
  00007	8b 45 fc	 mov	 eax, DWORD PTR _this$[ebp]
  0000a	c7 00 00 00 00
	00		 mov	 DWORD PTR [eax], OFFSET FLAT:??_7length_error@std@@6B@
  00010	8b 4d fc	 mov	 ecx, DWORD PTR _this$[ebp]
  00013	e8 00 00 00 00	 call	 ??1logic_error@std@@UAE@XZ ; std::logic_error::~logic_error
  00018	8b e5		 mov	 esp, ebp
  0001a	5d		 pop	 ebp
  0001b	c3		 ret	 0
??1length_error@std@@UAE@XZ ENDP			; std::length_error::~length_error
; Function compile flags: /Odt
_TEXT	ENDS
;	COMDAT ??_Glength_error@std@@UAEPAXI@Z
_TEXT	SEGMENT
_this$ = -4						; size = 4
___flags$ = 8						; size = 4
??_Glength_error@std@@UAEPAXI@Z PROC NEAR		; std::length_error::`scalar deleting destructor', COMDAT
; _this$ = ecx
  00000	55		 push	 ebp
  00001	8b ec		 mov	 ebp, esp
  00003	51		 push	 ecx
  00004	89 4d fc	 mov	 DWORD PTR _this$[ebp], ecx
  00007	8b 4d fc	 mov	 ecx, DWORD PTR _this$[ebp]
  0000a	e8 00 00 00 00	 call	 ??1length_error@std@@UAE@XZ ; std::length_error::~length_error
  0000f	8b 45 08	 mov	 eax, DWORD PTR ___flags$[ebp]
  00012	83 e0 01	 and	 eax, 1
  00015	74 0c		 je	 SHORT $L76878
  00017	8b 4d fc	 mov	 ecx, DWORD PTR _this$[ebp]
  0001a	51		 push	 ecx
  0001b	e8 00 00 00 00	 call	 ??3@YAXPAX@Z		; operator delete
  00020	83 c4 04	 add	 esp, 4
$L76878:
  00023	8b 45 fc	 mov	 eax, DWORD PTR _this$[ebp]
  00026	8b e5		 mov	 esp, ebp
  00028	5d		 pop	 ebp
  00029	c2 04 00	 ret	 4
??_Glength_error@std@@UAEPAXI@Z ENDP			; std::length_error::`scalar deleting destructor'
; Function compile flags: /Odt
; File d:\program files (x86)\microsoft visual studio .net 2003\vc7\include\xmemory
_TEXT	ENDS
;	COMDAT ??0?$allocator@V?$basic_string@DU?$char_traits@D@std@@V?$allocator@D@2@@std@@@std@@QAE@ABV01@@Z
_TEXT	SEGMENT
_this$ = -4						; size = 4
___formal$ = 8						; size = 4
??0?$allocator@V?$basic_string@DU?$char_traits@D@std@@V?$allocator@D@2@@std@@@std@@QAE@ABV01@@Z PROC NEAR ; std::allocator<std::basic_string<char,std::char_traits<char>,std::allocator<char> > >::allocator<std::basic_string<char,std::char_traits<char>,std::allocator<char> > >, COMDAT
; _this$ = ecx

; 115  : 	allocator(const allocator<_Ty>&)

  00000	55		 push	 ebp
  00001	8b ec		 mov	 ebp, esp
  00003	51		 push	 ecx
  00004	89 4d fc	 mov	 DWORD PTR _this$[ebp], ecx

; 116  : 		{	// construct by copying (do nothing)
; 117  : 		}

  00007	8b 45 fc	 mov	 eax, DWORD PTR _this$[ebp]
  0000a	8b e5		 mov	 esp, ebp
  0000c	5d		 pop	 ebp
  0000d	c2 04 00	 ret	 4
??0?$allocator@V?$basic_string@DU?$char_traits@D@std@@V?$allocator@D@2@@std@@@std@@QAE@ABV01@@Z ENDP ; std::allocator<std::basic_string<char,std::char_traits<char>,std::allocator<char> > >::allocator<std::basic_string<char,std::char_traits<char>,std::allocator<char> > >
; Function compile flags: /Odt
_TEXT	ENDS
;	COMDAT ?deallocate@?$allocator@V?$basic_string@DU?$char_traits@D@std@@V?$allocator@D@2@@std@@@std@@QAEXPAV?$basic_string@DU?$char_traits@D@std@@V?$allocator@D@2@@2@I@Z
_TEXT	SEGMENT
_this$ = -4						; size = 4
__Ptr$ = 8						; size = 4
___formal$ = 12						; size = 4
?deallocate@?$allocator@V?$basic_string@DU?$char_traits@D@std@@V?$allocator@D@2@@std@@@std@@QAEXPAV?$basic_string@DU?$char_traits@D@std@@V?$allocator@D@2@@2@I@Z PROC NEAR ; std::allocator<std::basic_string<char,std::char_traits<char>,std::allocator<char> > >::deallocate, COMDAT
; _this$ = ecx

; 131  : 		{	// deallocate object at _Ptr, ignore size

  00000	55		 push	 ebp
  00001	8b ec		 mov	 ebp, esp
  00003	51		 push	 ecx
  00004	89 4d fc	 mov	 DWORD PTR _this$[ebp], ecx

; 132  : 		operator delete(_Ptr);

  00007	8b 45 08	 mov	 eax, DWORD PTR __Ptr$[ebp]
  0000a	50		 push	 eax
  0000b	e8 00 00 00 00	 call	 ??3@YAXPAX@Z		; operator delete
  00010	83 c4 04	 add	 esp, 4

; 133  : 		}

  00013	8b e5		 mov	 esp, ebp
  00015	5d		 pop	 ebp
  00016	c2 08 00	 ret	 8
?deallocate@?$allocator@V?$basic_string@DU?$char_traits@D@std@@V?$allocator@D@2@@std@@@std@@QAEXPAV?$basic_string@DU?$char_traits@D@std@@V?$allocator@D@2@@2@I@Z ENDP ; std::allocator<std::basic_string<char,std::char_traits<char>,std::allocator<char> > >::deallocate
_TEXT	ENDS
PUBLIC	??$_Allocate@V?$basic_string@DU?$char_traits@D@std@@V?$allocator@D@2@@std@@@std@@YAPAV?$basic_string@DU?$char_traits@D@std@@V?$allocator@D@2@@0@IPAV10@@Z ; std::_Allocate<std::basic_string<char,std::char_traits<char>,std::allocator<char> > >
; Function compile flags: /Odt
;	COMDAT ?allocate@?$allocator@V?$basic_string@DU?$char_traits@D@std@@V?$allocator@D@2@@std@@@std@@QAEPAV?$basic_string@DU?$char_traits@D@std@@V?$allocator@D@2@@2@I@Z
_TEXT	SEGMENT
_this$ = -4						; size = 4
__Count$ = 8						; size = 4
?allocate@?$allocator@V?$basic_string@DU?$char_traits@D@std@@V?$allocator@D@2@@std@@@std@@QAEPAV?$basic_string@DU?$char_traits@D@std@@V?$allocator@D@2@@2@I@Z PROC NEAR ; std::allocator<std::basic_string<char,std::char_traits<char>,std::allocator<char> > >::allocate, COMDAT
; _this$ = ecx

; 136  : 		{	// allocate array of _Count elements

  00000	55		 push	 ebp
  00001	8b ec		 mov	 ebp, esp
  00003	51		 push	 ecx
  00004	89 4d fc	 mov	 DWORD PTR _this$[ebp], ecx

; 137  : 		return (_Allocate(_Count, (pointer)0));

  00007	6a 00		 push	 0
  00009	8b 45 08	 mov	 eax, DWORD PTR __Count$[ebp]
  0000c	50		 push	 eax
  0000d	e8 00 00 00 00	 call	 ??$_Allocate@V?$basic_string@DU?$char_traits@D@std@@V?$allocator@D@2@@std@@@std@@YAPAV?$basic_string@DU?$char_traits@D@std@@V?$allocator@D@2@@0@IPAV10@@Z ; std::_Allocate<std::basic_string<char,std::char_traits<char>,std::allocator<char> > >
  00012	83 c4 08	 add	 esp, 8

; 138  : 		}

  00015	8b e5		 mov	 esp, ebp
  00017	5d		 pop	 ebp
  00018	c2 04 00	 ret	 4
?allocate@?$allocator@V?$basic_string@DU?$char_traits@D@std@@V?$allocator@D@2@@std@@@std@@QAEPAV?$basic_string@DU?$char_traits@D@std@@V?$allocator@D@2@@2@I@Z ENDP ; std::allocator<std::basic_string<char,std::char_traits<char>,std::allocator<char> > >::allocate
; Function compile flags: /Odt
; File d:\program files (x86)\microsoft visual studio .net 2003\vc7\include\vector
_TEXT	ENDS
;	COMDAT ??Yiterator@?$vector@V?$basic_string@DU?$char_traits@D@std@@V?$allocator@D@2@@std@@V?$allocator@V?$basic_string@DU?$char_traits@D@std@@V?$allocator@D@2@@std@@@2@@std@@QAEAAV012@H@Z
_TEXT	SEGMENT
_this$ = -4						; size = 4
__Off$ = 8						; size = 4
??Yiterator@?$vector@V?$basic_string@DU?$char_traits@D@std@@V?$allocator@D@2@@std@@V?$allocator@V?$basic_string@DU?$char_traits@D@std@@V?$allocator@D@2@@std@@@2@@std@@QAEAAV012@H@Z PROC NEAR ; std::vector<std::basic_string<char,std::char_traits<char>,std::allocator<char> >,std::allocator<std::basic_string<char,std::char_traits<char>,std::allocator<char> > > >::iterator::operator+=, COMDAT
; _this$ = ecx

; 255  : 			{	// increment by integer

  00000	55		 push	 ebp
  00001	8b ec		 mov	 ebp, esp
  00003	51		 push	 ecx
  00004	89 4d fc	 mov	 DWORD PTR _this$[ebp], ecx

; 256  : 			this->_Myptr += _Off;

  00007	8b 45 08	 mov	 eax, DWORD PTR __Off$[ebp]
  0000a	6b c0 1c	 imul	 eax, 28			; 0000001cH
  0000d	8b 4d fc	 mov	 ecx, DWORD PTR _this$[ebp]
  00010	03 01		 add	 eax, DWORD PTR [ecx]
  00012	8b 55 fc	 mov	 edx, DWORD PTR _this$[ebp]
  00015	89 02		 mov	 DWORD PTR [edx], eax

; 257  : 			return (*this);

  00017	8b 45 fc	 mov	 eax, DWORD PTR _this$[ebp]

; 258  : 			}

  0001a	8b e5		 mov	 esp, ebp
  0001c	5d		 pop	 ebp
  0001d	c2 04 00	 ret	 4
??Yiterator@?$vector@V?$basic_string@DU?$char_traits@D@std@@V?$allocator@D@2@@std@@V?$allocator@V?$basic_string@DU?$char_traits@D@std@@V?$allocator@D@2@@std@@@2@@std@@QAEAAV012@H@Z ENDP ; std::vector<std::basic_string<char,std::char_traits<char>,std::allocator<char> >,std::allocator<std::basic_string<char,std::char_traits<char>,std::allocator<char> > > >::iterator::operator+=
_TEXT	ENDS
PUBLIC	??Gconst_iterator@?$vector@V?$basic_string@DU?$char_traits@D@std@@V?$allocator@D@2@@std@@V?$allocator@V?$basic_string@DU?$char_traits@D@std@@V?$allocator@D@2@@std@@@2@@std@@QBEHABV012@@Z ; std::vector<std::basic_string<char,std::char_traits<char>,std::allocator<char> >,std::allocator<std::basic_string<char,std::char_traits<char>,std::allocator<char> > > >::const_iterator::operator-
; Function compile flags: /Odt
;	COMDAT ??Giterator@?$vector@V?$basic_string@DU?$char_traits@D@std@@V?$allocator@D@2@@std@@V?$allocator@V?$basic_string@DU?$char_traits@D@std@@V?$allocator@D@2@@std@@@2@@std@@QBEHABVconst_iterator@12@@Z
_TEXT	SEGMENT
_this$ = -8						; size = 4
$T88449 = -4						; size = 4
__Right$ = 8						; size = 4
??Giterator@?$vector@V?$basic_string@DU?$char_traits@D@std@@V?$allocator@D@2@@std@@V?$allocator@V?$basic_string@DU?$char_traits@D@std@@V?$allocator@D@2@@std@@@2@@std@@QBEHABVconst_iterator@12@@Z PROC NEAR ; std::vector<std::basic_string<char,std::char_traits<char>,std::allocator<char> >,std::allocator<std::basic_string<char,std::char_traits<char>,std::allocator<char> > > >::iterator::operator-, COMDAT
; _this$ = ecx

; 278  : 			{	// return difference of iterators

  00000	55		 push	 ebp
  00001	8b ec		 mov	 ebp, esp
  00003	83 ec 08	 sub	 esp, 8
  00006	89 4d f8	 mov	 DWORD PTR _this$[ebp], ecx

; 279  : 			return ((const_iterator)*this - _Right);

  00009	8b 45 f8	 mov	 eax, DWORD PTR _this$[ebp]
  0000c	8b 08		 mov	 ecx, DWORD PTR [eax]
  0000e	89 4d fc	 mov	 DWORD PTR $T88449[ebp], ecx
  00011	8b 55 08	 mov	 edx, DWORD PTR __Right$[ebp]
  00014	52		 push	 edx
  00015	8d 4d fc	 lea	 ecx, DWORD PTR $T88449[ebp]
  00018	e8 00 00 00 00	 call	 ??Gconst_iterator@?$vector@V?$basic_string@DU?$char_traits@D@std@@V?$allocator@D@2@@std@@V?$allocator@V?$basic_string@DU?$char_traits@D@std@@V?$allocator@D@2@@std@@@2@@std@@QBEHABV012@@Z ; std::vector<std::basic_string<char,std::char_traits<char>,std::allocator<char> >,std::allocator<std::basic_string<char,std::char_traits<char>,std::allocator<char> > > >::const_iterator::operator-

; 280  : 			}

  0001d	8b e5		 mov	 esp, ebp
  0001f	5d		 pop	 ebp
  00020	c2 04 00	 ret	 4
??Giterator@?$vector@V?$basic_string@DU?$char_traits@D@std@@V?$allocator@D@2@@std@@V?$allocator@V?$basic_string@DU?$char_traits@D@std@@V?$allocator@D@2@@std@@@2@@std@@QBEHABVconst_iterator@12@@Z ENDP ; std::vector<std::basic_string<char,std::char_traits<char>,std::allocator<char> >,std::allocator<std::basic_string<char,std::char_traits<char>,std::allocator<char> > > >::iterator::operator-
; Function compile flags: /Odt
_TEXT	ENDS
;	COMDAT ??0const_iterator@?$vector@V?$basic_string@DU?$char_traits@D@std@@V?$allocator@D@2@@std@@V?$allocator@V?$basic_string@DU?$char_traits@D@std@@V?$allocator@D@2@@std@@@2@@std@@QAE@PAV?$basic_string@DU?$char_traits@D@std@@V?$allocator@D@2@@2@@Z
_TEXT	SEGMENT
_this$ = -4						; size = 4
__Ptr$ = 8						; size = 4
??0const_iterator@?$vector@V?$basic_string@DU?$char_traits@D@std@@V?$allocator@D@2@@std@@V?$allocator@V?$basic_string@DU?$char_traits@D@std@@V?$allocator@D@2@@std@@@2@@std@@QAE@PAV?$basic_string@DU?$char_traits@D@std@@V?$allocator@D@2@@2@@Z PROC NEAR ; std::vector<std::basic_string<char,std::char_traits<char>,std::allocator<char> >,std::allocator<std::basic_string<char,std::char_traits<char>,std::allocator<char> > > >::const_iterator::const_iterator, COMDAT
; _this$ = ecx

; 73   : 		const_iterator(_Tptr _Ptr)

  00000	55		 push	 ebp
  00001	8b ec		 mov	 ebp, esp
  00003	51		 push	 ecx
  00004	89 4d fc	 mov	 DWORD PTR _this$[ebp], ecx

; 74   : 			{	// construct with pointer _Ptr
; 75   : 			_Myptr = _Ptr;

  00007	8b 45 fc	 mov	 eax, DWORD PTR _this$[ebp]
  0000a	8b 4d 08	 mov	 ecx, DWORD PTR __Ptr$[ebp]
  0000d	89 08		 mov	 DWORD PTR [eax], ecx

; 76   : 			}

  0000f	8b 45 fc	 mov	 eax, DWORD PTR _this$[ebp]
  00012	8b e5		 mov	 esp, ebp
  00014	5d		 pop	 ebp
  00015	c2 04 00	 ret	 4
??0const_iterator@?$vector@V?$basic_string@DU?$char_traits@D@std@@V?$allocator@D@2@@std@@V?$allocator@V?$basic_string@DU?$char_traits@D@std@@V?$allocator@D@2@@std@@@2@@std@@QAE@PAV?$basic_string@DU?$char_traits@D@std@@V?$allocator@D@2@@2@@Z ENDP ; std::vector<std::basic_string<char,std::char_traits<char>,std::allocator<char> >,std::allocator<std::basic_string<char,std::char_traits<char>,std::allocator<char> > > >::const_iterator::const_iterator
; Function compile flags: /Odt
_TEXT	ENDS
;	COMDAT ??Yconst_iterator@?$vector@V?$basic_string@DU?$char_traits@D@std@@V?$allocator@D@2@@std@@V?$allocator@V?$basic_string@DU?$char_traits@D@std@@V?$allocator@D@2@@std@@@2@@std@@QAEAAV012@H@Z
_TEXT	SEGMENT
_this$ = -4						; size = 4
__Off$ = 8						; size = 4
??Yconst_iterator@?$vector@V?$basic_string@DU?$char_traits@D@std@@V?$allocator@D@2@@std@@V?$allocator@V?$basic_string@DU?$char_traits@D@std@@V?$allocator@D@2@@std@@@2@@std@@QAEAAV012@H@Z PROC NEAR ; std::vector<std::basic_string<char,std::char_traits<char>,std::allocator<char> >,std::allocator<std::basic_string<char,std::char_traits<char>,std::allocator<char> > > >::const_iterator::operator+=, COMDAT
; _this$ = ecx

; 117  : 			{	// increment by integer

  00000	55		 push	 ebp
  00001	8b ec		 mov	 ebp, esp
  00003	51		 push	 ecx
  00004	89 4d fc	 mov	 DWORD PTR _this$[ebp], ecx

; 118  : 			_Myptr += _Off;

  00007	8b 45 08	 mov	 eax, DWORD PTR __Off$[ebp]
  0000a	6b c0 1c	 imul	 eax, 28			; 0000001cH
  0000d	8b 4d fc	 mov	 ecx, DWORD PTR _this$[ebp]
  00010	03 01		 add	 eax, DWORD PTR [ecx]
  00012	8b 55 fc	 mov	 edx, DWORD PTR _this$[ebp]
  00015	89 02		 mov	 DWORD PTR [edx], eax

; 119  : 			return (*this);

  00017	8b 45 fc	 mov	 eax, DWORD PTR _this$[ebp]

; 120  : 			}

  0001a	8b e5		 mov	 esp, ebp
  0001c	5d		 pop	 ebp
  0001d	c2 04 00	 ret	 4
??Yconst_iterator@?$vector@V?$basic_string@DU?$char_traits@D@std@@V?$allocator@D@2@@std@@V?$allocator@V?$basic_string@DU?$char_traits@D@std@@V?$allocator@D@2@@std@@@2@@std@@QAEAAV012@H@Z ENDP ; std::vector<std::basic_string<char,std::char_traits<char>,std::allocator<char> >,std::allocator<std::basic_string<char,std::char_traits<char>,std::allocator<char> > > >::const_iterator::operator+=
; Function compile flags: /Odt
_TEXT	ENDS
;	COMDAT ??0length_error@std@@QAE@ABV01@@Z
_TEXT	SEGMENT
_this$ = -4						; size = 4
___that$ = 8						; size = 4
??0length_error@std@@QAE@ABV01@@Z PROC NEAR		; std::length_error::length_error, COMDAT
; _this$ = ecx
  00000	55		 push	 ebp
  00001	8b ec		 mov	 ebp, esp
  00003	51		 push	 ecx
  00004	89 4d fc	 mov	 DWORD PTR _this$[ebp], ecx
  00007	8b 45 08	 mov	 eax, DWORD PTR ___that$[ebp]
  0000a	50		 push	 eax
  0000b	8b 4d fc	 mov	 ecx, DWORD PTR _this$[ebp]
  0000e	e8 00 00 00 00	 call	 ??0logic_error@std@@QAE@ABV01@@Z
  00013	8b 4d fc	 mov	 ecx, DWORD PTR _this$[ebp]
  00016	c7 01 00 00 00
	00		 mov	 DWORD PTR [ecx], OFFSET FLAT:??_7length_error@std@@6B@
  0001c	8b 45 fc	 mov	 eax, DWORD PTR _this$[ebp]
  0001f	8b e5		 mov	 esp, ebp
  00021	5d		 pop	 ebp
  00022	c2 04 00	 ret	 4
??0length_error@std@@QAE@ABV01@@Z ENDP			; std::length_error::length_error
_TEXT	ENDS
EXTRN	__imp_??0exception@@QAE@ABV0@@Z:NEAR
;	COMDAT xdata$x
xdata$x	SEGMENT
$T88464	DD	0ffffffffH
	DD	FLAT:$L88459
$T88462	DD	019930520H
	DD	01H
	DD	FLAT:$T88464
	DD	2 DUP(00H)
	DD	2 DUP(00H)
; Function compile flags: /Odt
xdata$x	ENDS
;	COMDAT ??0logic_error@std@@QAE@ABV01@@Z
_TEXT	SEGMENT
_this$ = -16						; size = 4
__$EHRec$ = -12						; size = 12
___that$ = 8						; size = 4
??0logic_error@std@@QAE@ABV01@@Z PROC NEAR		; std::logic_error::logic_error, COMDAT
; _this$ = ecx
  00000	55		 push	 ebp
  00001	8b ec		 mov	 ebp, esp
  00003	6a ff		 push	 -1
  00005	68 00 00 00 00	 push	 __ehhandler$??0logic_error@std@@QAE@ABV01@@Z
  0000a	64 a1 00 00 00
	00		 mov	 eax, DWORD PTR fs:__except_list
  00010	50		 push	 eax
  00011	64 89 25 00 00
	00 00		 mov	 DWORD PTR fs:__except_list, esp
  00018	51		 push	 ecx
  00019	89 4d f0	 mov	 DWORD PTR _this$[ebp], ecx
  0001c	8b 45 08	 mov	 eax, DWORD PTR ___that$[ebp]
  0001f	50		 push	 eax
  00020	8b 4d f0	 mov	 ecx, DWORD PTR _this$[ebp]
  00023	ff 15 00 00 00
	00		 call	 DWORD PTR __imp_??0exception@@QAE@ABV0@@Z
  00029	c7 45 fc 00 00
	00 00		 mov	 DWORD PTR __$EHRec$[ebp+8], 0
  00030	8b 4d f0	 mov	 ecx, DWORD PTR _this$[ebp]
  00033	c7 01 00 00 00
	00		 mov	 DWORD PTR [ecx], OFFSET FLAT:??_7logic_error@std@@6B@
  00039	8b 55 08	 mov	 edx, DWORD PTR ___that$[ebp]
  0003c	83 c2 0c	 add	 edx, 12			; 0000000cH
  0003f	52		 push	 edx
  00040	8b 4d f0	 mov	 ecx, DWORD PTR _this$[ebp]
  00043	83 c1 0c	 add	 ecx, 12			; 0000000cH
  00046	ff 15 00 00 00
	00		 call	 DWORD PTR __imp_??0?$basic_string@DU?$char_traits@D@std@@V?$allocator@D@2@@std@@QAE@ABV01@@Z
  0004c	c7 45 fc ff ff
	ff ff		 mov	 DWORD PTR __$EHRec$[ebp+8], -1
  00053	8b 45 f0	 mov	 eax, DWORD PTR _this$[ebp]
  00056	8b 4d f4	 mov	 ecx, DWORD PTR __$EHRec$[ebp]
  00059	64 89 0d 00 00
	00 00		 mov	 DWORD PTR fs:__except_list, ecx
  00060	8b e5		 mov	 esp, ebp
  00062	5d		 pop	 ebp
  00063	c2 04 00	 ret	 4
_TEXT	ENDS
;	COMDAT text$x
text$x	SEGMENT
$L88459:
  00000	8b 4d f0	 mov	 ecx, DWORD PTR _this$[ebp]
  00003	ff 25 00 00 00
	00		 jmp	 DWORD PTR __imp_??1exception@@UAE@XZ
__ehhandler$??0logic_error@std@@QAE@ABV01@@Z:
  00009	b8 00 00 00 00	 mov	 eax, OFFSET FLAT:$T88462
  0000e	e9 00 00 00 00	 jmp	 ___CxxFrameHandler
text$x	ENDS
??0logic_error@std@@QAE@ABV01@@Z ENDP			; std::logic_error::logic_error
; Function compile flags: /Odt
; File d:\program files (x86)\microsoft visual studio .net 2003\vc7\include\xmemory
;	COMDAT ?max_size@?$allocator@V?$basic_string@DU?$char_traits@D@std@@V?$allocator@D@2@@std@@@std@@QBEIXZ
_TEXT	SEGMENT
tv65 = -12						; size = 4
_this$ = -8						; size = 4
__Count$ = -4						; size = 4
?max_size@?$allocator@V?$basic_string@DU?$char_traits@D@std@@V?$allocator@D@2@@std@@@std@@QBEIXZ PROC NEAR ; std::allocator<std::basic_string<char,std::char_traits<char>,std::allocator<char> > >::max_size, COMDAT
; _this$ = ecx

; 156  : 		{	// estimate maximum array size

  00000	55		 push	 ebp
  00001	8b ec		 mov	 ebp, esp
  00003	83 ec 0c	 sub	 esp, 12			; 0000000cH
  00006	89 4d f8	 mov	 DWORD PTR _this$[ebp], ecx

; 157  : 		_SIZT _Count = (_SIZT)(-1) / sizeof (_Ty);

  00009	c7 45 fc 49 92
	24 09		 mov	 DWORD PTR __Count$[ebp], 153391689 ; 09249249H

; 158  : 		return (0 < _Count ? _Count : 1);

  00010	83 7d fc 00	 cmp	 DWORD PTR __Count$[ebp], 0
  00014	76 08		 jbe	 SHORT $L88469
  00016	8b 45 fc	 mov	 eax, DWORD PTR __Count$[ebp]
  00019	89 45 f4	 mov	 DWORD PTR tv65[ebp], eax
  0001c	eb 07		 jmp	 SHORT $L88470
$L88469:
  0001e	c7 45 f4 01 00
	00 00		 mov	 DWORD PTR tv65[ebp], 1
$L88470:
  00025	8b 45 f4	 mov	 eax, DWORD PTR tv65[ebp]

; 159  : 		}

  00028	8b e5		 mov	 esp, ebp
  0002a	5d		 pop	 ebp
  0002b	c3		 ret	 0
?max_size@?$allocator@V?$basic_string@DU?$char_traits@D@std@@V?$allocator@D@2@@std@@@std@@QBEIXZ ENDP ; std::allocator<std::basic_string<char,std::char_traits<char>,std::allocator<char> > >::max_size
; Function compile flags: /Odt
; File d:\program files (x86)\microsoft visual studio .net 2003\vc7\include\vector
_TEXT	ENDS
;	COMDAT ??Gconst_iterator@?$vector@V?$basic_string@DU?$char_traits@D@std@@V?$allocator@D@2@@std@@V?$allocator@V?$basic_string@DU?$char_traits@D@std@@V?$allocator@D@2@@std@@@2@@std@@QBEHABV012@@Z
_TEXT	SEGMENT
_this$ = -4						; size = 4
__Right$ = 8						; size = 4
??Gconst_iterator@?$vector@V?$basic_string@DU?$char_traits@D@std@@V?$allocator@D@2@@std@@V?$allocator@V?$basic_string@DU?$char_traits@D@std@@V?$allocator@D@2@@std@@@2@@std@@QBEHABV012@@Z PROC NEAR ; std::vector<std::basic_string<char,std::char_traits<char>,std::allocator<char> >,std::allocator<std::basic_string<char,std::char_traits<char>,std::allocator<char> > > >::const_iterator::operator-, COMDAT
; _this$ = ecx

; 140  : 			{	// return difference of iterators

  00000	55		 push	 ebp
  00001	8b ec		 mov	 ebp, esp
  00003	51		 push	 ecx
  00004	89 4d fc	 mov	 DWORD PTR _this$[ebp], ecx

; 141  : 
; 142  : 
; 143  : 			return (_Myptr - _Right._Myptr);

  00007	8b 45 fc	 mov	 eax, DWORD PTR _this$[ebp]
  0000a	8b 4d 08	 mov	 ecx, DWORD PTR __Right$[ebp]
  0000d	8b 00		 mov	 eax, DWORD PTR [eax]
  0000f	2b 01		 sub	 eax, DWORD PTR [ecx]
  00011	99		 cdq
  00012	b9 1c 00 00 00	 mov	 ecx, 28			; 0000001cH
  00017	f7 f9		 idiv	 ecx

; 144  : 			}

  00019	8b e5		 mov	 esp, ebp
  0001b	5d		 pop	 ebp
  0001c	c2 04 00	 ret	 4
??Gconst_iterator@?$vector@V?$basic_string@DU?$char_traits@D@std@@V?$allocator@D@2@@std@@V?$allocator@V?$basic_string@DU?$char_traits@D@std@@V?$allocator@D@2@@std@@@2@@std@@QBEHABV012@@Z ENDP ; std::vector<std::basic_string<char,std::char_traits<char>,std::allocator<char> >,std::allocator<std::basic_string<char,std::char_traits<char>,std::allocator<char> > > >::const_iterator::operator-
_TEXT	ENDS
PUBLIC	??$?HDU?$char_traits@D@std@@V?$allocator@D@1@@std@@YA?AV?$basic_string@DU?$char_traits@D@std@@V?$allocator@D@2@@0@ABV10@0@Z ; std::operator+<char,std::char_traits<char>,std::allocator<char> >
EXTRN	__imp_??Y?$basic_string@DU?$char_traits@D@std@@V?$allocator@D@2@@std@@QAEAAV01@ABV01@@Z:NEAR
;	COMDAT xdata$x
; File d:\program files (x86)\microsoft visual studio .net 2003\vc7\include\string
xdata$x	SEGMENT
$T88483	DD	0ffffffffH
	DD	FLAT:$L88477
	DD	00H
	DD	FLAT:$L88476
$T88481	DD	019930520H
	DD	02H
	DD	FLAT:$T88483
	DD	2 DUP(00H)
	DD	2 DUP(00H)
; Function compile flags: /Odt
xdata$x	ENDS
;	COMDAT ??$?HDU?$char_traits@D@std@@V?$allocator@D@1@@std@@YA?AV?$basic_string@DU?$char_traits@D@std@@V?$allocator@D@2@@0@ABV10@0@Z
_TEXT	SEGMENT
tv77 = -52						; size = 4
tv82 = -48						; size = 4
$T88478 = -44						; size = 4
$T88475 = -40						; size = 28
__$EHRec$ = -12						; size = 12
___$ReturnUdt$ = 8					; size = 4
__Left$ = 12						; size = 4
__Right$ = 16						; size = 4
??$?HDU?$char_traits@D@std@@V?$allocator@D@1@@std@@YA?AV?$basic_string@DU?$char_traits@D@std@@V?$allocator@D@2@@0@ABV10@0@Z PROC NEAR ; std::operator+<char,std::char_traits<char>,std::allocator<char> >, COMDAT

; 21   : 	{	// return string + string

  00000	55		 push	 ebp
  00001	8b ec		 mov	 ebp, esp
  00003	6a ff		 push	 -1
  00005	68 00 00 00 00	 push	 __ehhandler$??$?HDU?$char_traits@D@std@@V?$allocator@D@1@@std@@YA?AV?$basic_string@DU?$char_traits@D@std@@V?$allocator@D@2@@0@ABV10@0@Z
  0000a	64 a1 00 00 00
	00		 mov	 eax, DWORD PTR fs:__except_list
  00010	50		 push	 eax
  00011	64 89 25 00 00
	00 00		 mov	 DWORD PTR fs:__except_list, esp
  00018	83 ec 28	 sub	 esp, 40			; 00000028H
  0001b	c7 45 d4 00 00
	00 00		 mov	 DWORD PTR $T88478[ebp], 0

; 22   : 	return (basic_string<_Elem, _Traits, _Alloc>(_Left) += _Right);

  00022	8b 45 0c	 mov	 eax, DWORD PTR __Left$[ebp]
  00025	50		 push	 eax
  00026	8d 4d d8	 lea	 ecx, DWORD PTR $T88475[ebp]
  00029	ff 15 00 00 00
	00		 call	 DWORD PTR __imp_??0?$basic_string@DU?$char_traits@D@std@@V?$allocator@D@2@@std@@QAE@ABV01@@Z
  0002f	89 45 d0	 mov	 DWORD PTR tv82[ebp], eax
  00032	8b 4d d0	 mov	 ecx, DWORD PTR tv82[ebp]
  00035	89 4d cc	 mov	 DWORD PTR tv77[ebp], ecx
  00038	c7 45 fc 01 00
	00 00		 mov	 DWORD PTR __$EHRec$[ebp+8], 1
  0003f	8b 55 10	 mov	 edx, DWORD PTR __Right$[ebp]
  00042	52		 push	 edx
  00043	8b 4d cc	 mov	 ecx, DWORD PTR tv77[ebp]
  00046	ff 15 00 00 00
	00		 call	 DWORD PTR __imp_??Y?$basic_string@DU?$char_traits@D@std@@V?$allocator@D@2@@std@@QAEAAV01@ABV01@@Z
  0004c	50		 push	 eax
  0004d	8b 4d 08	 mov	 ecx, DWORD PTR ___$ReturnUdt$[ebp]
  00050	ff 15 00 00 00
	00		 call	 DWORD PTR __imp_??0?$basic_string@DU?$char_traits@D@std@@V?$allocator@D@2@@std@@QAE@ABV01@@Z
  00056	8b 45 d4	 mov	 eax, DWORD PTR $T88478[ebp]
  00059	83 c8 01	 or	 eax, 1
  0005c	89 45 d4	 mov	 DWORD PTR $T88478[ebp], eax
  0005f	c6 45 fc 00	 mov	 BYTE PTR __$EHRec$[ebp+8], 0
  00063	8d 4d d8	 lea	 ecx, DWORD PTR $T88475[ebp]
  00066	ff 15 00 00 00
	00		 call	 DWORD PTR __imp_??1?$basic_string@DU?$char_traits@D@std@@V?$allocator@D@2@@std@@QAE@XZ
  0006c	8b 45 08	 mov	 eax, DWORD PTR ___$ReturnUdt$[ebp]

; 23   : 	}

  0006f	8b 4d f4	 mov	 ecx, DWORD PTR __$EHRec$[ebp]
  00072	64 89 0d 00 00
	00 00		 mov	 DWORD PTR fs:__except_list, ecx
  00079	8b e5		 mov	 esp, ebp
  0007b	5d		 pop	 ebp
  0007c	c3		 ret	 0
_TEXT	ENDS
;	COMDAT text$x
text$x	SEGMENT
$L88476:
  00000	8d 4d d8	 lea	 ecx, DWORD PTR $T88475[ebp]
  00003	ff 25 00 00 00
	00		 jmp	 DWORD PTR __imp_??1?$basic_string@DU?$char_traits@D@std@@V?$allocator@D@2@@std@@QAE@XZ
$L88477:
  00009	8b 45 d4	 mov	 eax, DWORD PTR $T88478[ebp]
  0000c	83 e0 01	 and	 eax, 1
  0000f	0f 84 0d 00 00
	00		 je	 $L88479
  00015	83 65 d4 fe	 and	 DWORD PTR $T88478[ebp], -2 ; fffffffeH
  00019	8b 4d 08	 mov	 ecx, DWORD PTR ___$ReturnUdt$[ebp]
  0001c	ff 25 00 00 00
	00		 jmp	 DWORD PTR __imp_??1?$basic_string@DU?$char_traits@D@std@@V?$allocator@D@2@@std@@QAE@XZ
$L88479:
  00022	c3		 ret	 0
__ehhandler$??$?HDU?$char_traits@D@std@@V?$allocator@D@1@@std@@YA?AV?$basic_string@DU?$char_traits@D@std@@V?$allocator@D@2@@0@ABV10@0@Z:
  00023	b8 00 00 00 00	 mov	 eax, OFFSET FLAT:$T88481
  00028	e9 00 00 00 00	 jmp	 ___CxxFrameHandler
text$x	ENDS
??$?HDU?$char_traits@D@std@@V?$allocator@D@1@@std@@YA?AV?$basic_string@DU?$char_traits@D@std@@V?$allocator@D@2@@0@ABV10@0@Z ENDP ; std::operator+<char,std::char_traits<char>,std::allocator<char> >
PUBLIC	??$?HDU?$char_traits@D@std@@V?$allocator@D@1@@std@@YA?AV?$basic_string@DU?$char_traits@D@std@@V?$allocator@D@2@@0@PBDABV10@@Z ; std::operator+<char,std::char_traits<char>,std::allocator<char> >
;	COMDAT xdata$x
xdata$x	SEGMENT
$T88496	DD	0ffffffffH
	DD	FLAT:$L88490
	DD	00H
	DD	FLAT:$L88489
$T88494	DD	019930520H
	DD	02H
	DD	FLAT:$T88496
	DD	2 DUP(00H)
	DD	2 DUP(00H)
; Function compile flags: /Odt
xdata$x	ENDS
;	COMDAT ??$?HDU?$char_traits@D@std@@V?$allocator@D@1@@std@@YA?AV?$basic_string@DU?$char_traits@D@std@@V?$allocator@D@2@@0@PBDABV10@@Z
_TEXT	SEGMENT
tv77 = -52						; size = 4
tv82 = -48						; size = 4
$T88491 = -44						; size = 4
$T88488 = -40						; size = 28
__$EHRec$ = -12						; size = 12
___$ReturnUdt$ = 8					; size = 4
__Left$ = 12						; size = 4
__Right$ = 16						; size = 4
??$?HDU?$char_traits@D@std@@V?$allocator@D@1@@std@@YA?AV?$basic_string@DU?$char_traits@D@std@@V?$allocator@D@2@@0@PBDABV10@@Z PROC NEAR ; std::operator+<char,std::char_traits<char>,std::allocator<char> >, COMDAT

; 31   : 	{	// return NTCS + string

  00000	55		 push	 ebp
  00001	8b ec		 mov	 ebp, esp
  00003	6a ff		 push	 -1
  00005	68 00 00 00 00	 push	 __ehhandler$??$?HDU?$char_traits@D@std@@V?$allocator@D@1@@std@@YA?AV?$basic_string@DU?$char_traits@D@std@@V?$allocator@D@2@@0@PBDABV10@@Z
  0000a	64 a1 00 00 00
	00		 mov	 eax, DWORD PTR fs:__except_list
  00010	50		 push	 eax
  00011	64 89 25 00 00
	00 00		 mov	 DWORD PTR fs:__except_list, esp
  00018	83 ec 28	 sub	 esp, 40			; 00000028H
  0001b	c7 45 d4 00 00
	00 00		 mov	 DWORD PTR $T88491[ebp], 0

; 32   : 	return (basic_string<_Elem, _Traits, _Alloc>(_Left) += _Right);

  00022	8b 45 0c	 mov	 eax, DWORD PTR __Left$[ebp]
  00025	50		 push	 eax
  00026	8d 4d d8	 lea	 ecx, DWORD PTR $T88488[ebp]
  00029	ff 15 00 00 00
	00		 call	 DWORD PTR __imp_??0?$basic_string@DU?$char_traits@D@std@@V?$allocator@D@2@@std@@QAE@PBD@Z
  0002f	89 45 d0	 mov	 DWORD PTR tv82[ebp], eax
  00032	8b 4d d0	 mov	 ecx, DWORD PTR tv82[ebp]
  00035	89 4d cc	 mov	 DWORD PTR tv77[ebp], ecx
  00038	c7 45 fc 01 00
	00 00		 mov	 DWORD PTR __$EHRec$[ebp+8], 1
  0003f	8b 55 10	 mov	 edx, DWORD PTR __Right$[ebp]
  00042	52		 push	 edx
  00043	8b 4d cc	 mov	 ecx, DWORD PTR tv77[ebp]
  00046	ff 15 00 00 00
	00		 call	 DWORD PTR __imp_??Y?$basic_string@DU?$char_traits@D@std@@V?$allocator@D@2@@std@@QAEAAV01@ABV01@@Z
  0004c	50		 push	 eax
  0004d	8b 4d 08	 mov	 ecx, DWORD PTR ___$ReturnUdt$[ebp]
  00050	ff 15 00 00 00
	00		 call	 DWORD PTR __imp_??0?$basic_string@DU?$char_traits@D@std@@V?$allocator@D@2@@std@@QAE@ABV01@@Z
  00056	8b 45 d4	 mov	 eax, DWORD PTR $T88491[ebp]
  00059	83 c8 01	 or	 eax, 1
  0005c	89 45 d4	 mov	 DWORD PTR $T88491[ebp], eax
  0005f	c6 45 fc 00	 mov	 BYTE PTR __$EHRec$[ebp+8], 0
  00063	8d 4d d8	 lea	 ecx, DWORD PTR $T88488[ebp]
  00066	ff 15 00 00 00
	00		 call	 DWORD PTR __imp_??1?$basic_string@DU?$char_traits@D@std@@V?$allocator@D@2@@std@@QAE@XZ
  0006c	8b 45 08	 mov	 eax, DWORD PTR ___$ReturnUdt$[ebp]

; 33   : 	}

  0006f	8b 4d f4	 mov	 ecx, DWORD PTR __$EHRec$[ebp]
  00072	64 89 0d 00 00
	00 00		 mov	 DWORD PTR fs:__except_list, ecx
  00079	8b e5		 mov	 esp, ebp
  0007b	5d		 pop	 ebp
  0007c	c3		 ret	 0
_TEXT	ENDS
;	COMDAT text$x
text$x	SEGMENT
$L88489:
  00000	8d 4d d8	 lea	 ecx, DWORD PTR $T88488[ebp]
  00003	ff 25 00 00 00
	00		 jmp	 DWORD PTR __imp_??1?$basic_string@DU?$char_traits@D@std@@V?$allocator@D@2@@std@@QAE@XZ
$L88490:
  00009	8b 45 d4	 mov	 eax, DWORD PTR $T88491[ebp]
  0000c	83 e0 01	 and	 eax, 1
  0000f	0f 84 0d 00 00
	00		 je	 $L88492
  00015	83 65 d4 fe	 and	 DWORD PTR $T88491[ebp], -2 ; fffffffeH
  00019	8b 4d 08	 mov	 ecx, DWORD PTR ___$ReturnUdt$[ebp]
  0001c	ff 25 00 00 00
	00		 jmp	 DWORD PTR __imp_??1?$basic_string@DU?$char_traits@D@std@@V?$allocator@D@2@@std@@QAE@XZ
$L88492:
  00022	c3		 ret	 0
__ehhandler$??$?HDU?$char_traits@D@std@@V?$allocator@D@1@@std@@YA?AV?$basic_string@DU?$char_traits@D@std@@V?$allocator@D@2@@0@PBDABV10@@Z:
  00023	b8 00 00 00 00	 mov	 eax, OFFSET FLAT:$T88494
  00028	e9 00 00 00 00	 jmp	 ___CxxFrameHandler
text$x	ENDS
??$?HDU?$char_traits@D@std@@V?$allocator@D@1@@std@@YA?AV?$basic_string@DU?$char_traits@D@std@@V?$allocator@D@2@@0@PBDABV10@@Z ENDP ; std::operator+<char,std::char_traits<char>,std::allocator<char> >
PUBLIC	??$?HDU?$char_traits@D@std@@V?$allocator@D@1@@std@@YA?AV?$basic_string@DU?$char_traits@D@std@@V?$allocator@D@2@@0@DABV10@@Z ; std::operator+<char,std::char_traits<char>,std::allocator<char> >
EXTRN	__imp_??0?$basic_string@DU?$char_traits@D@std@@V?$allocator@D@2@@std@@QAE@ID@Z:NEAR
;	COMDAT xdata$x
xdata$x	SEGMENT
$T88509	DD	0ffffffffH
	DD	FLAT:$L88503
	DD	00H
	DD	FLAT:$L88502
$T88507	DD	019930520H
	DD	02H
	DD	FLAT:$T88509
	DD	2 DUP(00H)
	DD	2 DUP(00H)
; Function compile flags: /Odt
xdata$x	ENDS
;	COMDAT ??$?HDU?$char_traits@D@std@@V?$allocator@D@1@@std@@YA?AV?$basic_string@DU?$char_traits@D@std@@V?$allocator@D@2@@0@DABV10@@Z
_TEXT	SEGMENT
tv78 = -52						; size = 4
tv83 = -48						; size = 4
$T88504 = -44						; size = 4
$T88501 = -40						; size = 28
__$EHRec$ = -12						; size = 12
___$ReturnUdt$ = 8					; size = 4
__Left$ = 12						; size = 1
__Right$ = 16						; size = 4
??$?HDU?$char_traits@D@std@@V?$allocator@D@1@@std@@YA?AV?$basic_string@DU?$char_traits@D@std@@V?$allocator@D@2@@0@DABV10@@Z PROC NEAR ; std::operator+<char,std::char_traits<char>,std::allocator<char> >, COMDAT

; 41   : 	{	// return character + string

  00000	55		 push	 ebp
  00001	8b ec		 mov	 ebp, esp
  00003	6a ff		 push	 -1
  00005	68 00 00 00 00	 push	 __ehhandler$??$?HDU?$char_traits@D@std@@V?$allocator@D@1@@std@@YA?AV?$basic_string@DU?$char_traits@D@std@@V?$allocator@D@2@@0@DABV10@@Z
  0000a	64 a1 00 00 00
	00		 mov	 eax, DWORD PTR fs:__except_list
  00010	50		 push	 eax
  00011	64 89 25 00 00
	00 00		 mov	 DWORD PTR fs:__except_list, esp
  00018	83 ec 28	 sub	 esp, 40			; 00000028H
  0001b	c7 45 d4 00 00
	00 00		 mov	 DWORD PTR $T88504[ebp], 0

; 42   : 	return (basic_string<_Elem, _Traits, _Alloc>(1, _Left) += _Right);

  00022	8a 45 0c	 mov	 al, BYTE PTR __Left$[ebp]
  00025	50		 push	 eax
  00026	6a 01		 push	 1
  00028	8d 4d d8	 lea	 ecx, DWORD PTR $T88501[ebp]
  0002b	ff 15 00 00 00
	00		 call	 DWORD PTR __imp_??0?$basic_string@DU?$char_traits@D@std@@V?$allocator@D@2@@std@@QAE@ID@Z
  00031	89 45 d0	 mov	 DWORD PTR tv83[ebp], eax
  00034	8b 4d d0	 mov	 ecx, DWORD PTR tv83[ebp]
  00037	89 4d cc	 mov	 DWORD PTR tv78[ebp], ecx
  0003a	c7 45 fc 01 00
	00 00		 mov	 DWORD PTR __$EHRec$[ebp+8], 1
  00041	8b 55 10	 mov	 edx, DWORD PTR __Right$[ebp]
  00044	52		 push	 edx
  00045	8b 4d cc	 mov	 ecx, DWORD PTR tv78[ebp]
  00048	ff 15 00 00 00
	00		 call	 DWORD PTR __imp_??Y?$basic_string@DU?$char_traits@D@std@@V?$allocator@D@2@@std@@QAEAAV01@ABV01@@Z
  0004e	50		 push	 eax
  0004f	8b 4d 08	 mov	 ecx, DWORD PTR ___$ReturnUdt$[ebp]
  00052	ff 15 00 00 00
	00		 call	 DWORD PTR __imp_??0?$basic_string@DU?$char_traits@D@std@@V?$allocator@D@2@@std@@QAE@ABV01@@Z
  00058	8b 45 d4	 mov	 eax, DWORD PTR $T88504[ebp]
  0005b	83 c8 01	 or	 eax, 1
  0005e	89 45 d4	 mov	 DWORD PTR $T88504[ebp], eax
  00061	c6 45 fc 00	 mov	 BYTE PTR __$EHRec$[ebp+8], 0
  00065	8d 4d d8	 lea	 ecx, DWORD PTR $T88501[ebp]
  00068	ff 15 00 00 00
	00		 call	 DWORD PTR __imp_??1?$basic_string@DU?$char_traits@D@std@@V?$allocator@D@2@@std@@QAE@XZ
  0006e	8b 45 08	 mov	 eax, DWORD PTR ___$ReturnUdt$[ebp]

; 43   : 	}

  00071	8b 4d f4	 mov	 ecx, DWORD PTR __$EHRec$[ebp]
  00074	64 89 0d 00 00
	00 00		 mov	 DWORD PTR fs:__except_list, ecx
  0007b	8b e5		 mov	 esp, ebp
  0007d	5d		 pop	 ebp
  0007e	c3		 ret	 0
_TEXT	ENDS
;	COMDAT text$x
text$x	SEGMENT
$L88502:
  00000	8d 4d d8	 lea	 ecx, DWORD PTR $T88501[ebp]
  00003	ff 25 00 00 00
	00		 jmp	 DWORD PTR __imp_??1?$basic_string@DU?$char_traits@D@std@@V?$allocator@D@2@@std@@QAE@XZ
$L88503:
  00009	8b 45 d4	 mov	 eax, DWORD PTR $T88504[ebp]
  0000c	83 e0 01	 and	 eax, 1
  0000f	0f 84 0d 00 00
	00		 je	 $L88505
  00015	83 65 d4 fe	 and	 DWORD PTR $T88504[ebp], -2 ; fffffffeH
  00019	8b 4d 08	 mov	 ecx, DWORD PTR ___$ReturnUdt$[ebp]
  0001c	ff 25 00 00 00
	00		 jmp	 DWORD PTR __imp_??1?$basic_string@DU?$char_traits@D@std@@V?$allocator@D@2@@std@@QAE@XZ
$L88505:
  00022	c3		 ret	 0
__ehhandler$??$?HDU?$char_traits@D@std@@V?$allocator@D@1@@std@@YA?AV?$basic_string@DU?$char_traits@D@std@@V?$allocator@D@2@@0@DABV10@@Z:
  00023	b8 00 00 00 00	 mov	 eax, OFFSET FLAT:$T88507
  00028	e9 00 00 00 00	 jmp	 ___CxxFrameHandler
text$x	ENDS
??$?HDU?$char_traits@D@std@@V?$allocator@D@1@@std@@YA?AV?$basic_string@DU?$char_traits@D@std@@V?$allocator@D@2@@0@DABV10@@Z ENDP ; std::operator+<char,std::char_traits<char>,std::allocator<char> >
;	COMDAT xdata$x
xdata$x	SEGMENT
$T88522	DD	0ffffffffH
	DD	FLAT:$L88516
	DD	00H
	DD	FLAT:$L88515
$T88520	DD	019930520H
	DD	02H
	DD	FLAT:$T88522
	DD	2 DUP(00H)
	DD	2 DUP(00H)
; Function compile flags: /Odt
xdata$x	ENDS
;	COMDAT ??$?HDU?$char_traits@D@std@@V?$allocator@D@1@@std@@YA?AV?$basic_string@DU?$char_traits@D@std@@V?$allocator@D@2@@0@ABV10@PBD@Z
_TEXT	SEGMENT
tv77 = -52						; size = 4
tv82 = -48						; size = 4
$T88517 = -44						; size = 4
$T88514 = -40						; size = 28
__$EHRec$ = -12						; size = 12
___$ReturnUdt$ = 8					; size = 4
__Left$ = 12						; size = 4
__Right$ = 16						; size = 4
??$?HDU?$char_traits@D@std@@V?$allocator@D@1@@std@@YA?AV?$basic_string@DU?$char_traits@D@std@@V?$allocator@D@2@@0@ABV10@PBD@Z PROC NEAR ; std::operator+<char,std::char_traits<char>,std::allocator<char> >, COMDAT

; 51   : 	{	// return string + NTCS

  00000	55		 push	 ebp
  00001	8b ec		 mov	 ebp, esp
  00003	6a ff		 push	 -1
  00005	68 00 00 00 00	 push	 __ehhandler$??$?HDU?$char_traits@D@std@@V?$allocator@D@1@@std@@YA?AV?$basic_string@DU?$char_traits@D@std@@V?$allocator@D@2@@0@ABV10@PBD@Z
  0000a	64 a1 00 00 00
	00		 mov	 eax, DWORD PTR fs:__except_list
  00010	50		 push	 eax
  00011	64 89 25 00 00
	00 00		 mov	 DWORD PTR fs:__except_list, esp
  00018	83 ec 28	 sub	 esp, 40			; 00000028H
  0001b	c7 45 d4 00 00
	00 00		 mov	 DWORD PTR $T88517[ebp], 0

; 52   : 	return (basic_string<_Elem, _Traits, _Alloc>(_Left) += _Right);

  00022	8b 45 0c	 mov	 eax, DWORD PTR __Left$[ebp]
  00025	50		 push	 eax
  00026	8d 4d d8	 lea	 ecx, DWORD PTR $T88514[ebp]
  00029	ff 15 00 00 00
	00		 call	 DWORD PTR __imp_??0?$basic_string@DU?$char_traits@D@std@@V?$allocator@D@2@@std@@QAE@ABV01@@Z
  0002f	89 45 d0	 mov	 DWORD PTR tv82[ebp], eax
  00032	8b 4d d0	 mov	 ecx, DWORD PTR tv82[ebp]
  00035	89 4d cc	 mov	 DWORD PTR tv77[ebp], ecx
  00038	c7 45 fc 01 00
	00 00		 mov	 DWORD PTR __$EHRec$[ebp+8], 1
  0003f	8b 55 10	 mov	 edx, DWORD PTR __Right$[ebp]
  00042	52		 push	 edx
  00043	8b 4d cc	 mov	 ecx, DWORD PTR tv77[ebp]
  00046	ff 15 00 00 00
	00		 call	 DWORD PTR __imp_??Y?$basic_string@DU?$char_traits@D@std@@V?$allocator@D@2@@std@@QAEAAV01@PBD@Z
  0004c	50		 push	 eax
  0004d	8b 4d 08	 mov	 ecx, DWORD PTR ___$ReturnUdt$[ebp]
  00050	ff 15 00 00 00
	00		 call	 DWORD PTR __imp_??0?$basic_string@DU?$char_traits@D@std@@V?$allocator@D@2@@std@@QAE@ABV01@@Z
  00056	8b 45 d4	 mov	 eax, DWORD PTR $T88517[ebp]
  00059	83 c8 01	 or	 eax, 1
  0005c	89 45 d4	 mov	 DWORD PTR $T88517[ebp], eax
  0005f	c6 45 fc 00	 mov	 BYTE PTR __$EHRec$[ebp+8], 0
  00063	8d 4d d8	 lea	 ecx, DWORD PTR $T88514[ebp]
  00066	ff 15 00 00 00
	00		 call	 DWORD PTR __imp_??1?$basic_string@DU?$char_traits@D@std@@V?$allocator@D@2@@std@@QAE@XZ
  0006c	8b 45 08	 mov	 eax, DWORD PTR ___$ReturnUdt$[ebp]

; 53   : 	}

  0006f	8b 4d f4	 mov	 ecx, DWORD PTR __$EHRec$[ebp]
  00072	64 89 0d 00 00
	00 00		 mov	 DWORD PTR fs:__except_list, ecx
  00079	8b e5		 mov	 esp, ebp
  0007b	5d		 pop	 ebp
  0007c	c3		 ret	 0
_TEXT	ENDS
;	COMDAT text$x
text$x	SEGMENT
$L88515:
  00000	8d 4d d8	 lea	 ecx, DWORD PTR $T88514[ebp]
  00003	ff 25 00 00 00
	00		 jmp	 DWORD PTR __imp_??1?$basic_string@DU?$char_traits@D@std@@V?$allocator@D@2@@std@@QAE@XZ
$L88516:
  00009	8b 45 d4	 mov	 eax, DWORD PTR $T88517[ebp]
  0000c	83 e0 01	 and	 eax, 1
  0000f	0f 84 0d 00 00
	00		 je	 $L88518
  00015	83 65 d4 fe	 and	 DWORD PTR $T88517[ebp], -2 ; fffffffeH
  00019	8b 4d 08	 mov	 ecx, DWORD PTR ___$ReturnUdt$[ebp]
  0001c	ff 25 00 00 00
	00		 jmp	 DWORD PTR __imp_??1?$basic_string@DU?$char_traits@D@std@@V?$allocator@D@2@@std@@QAE@XZ
$L88518:
  00022	c3		 ret	 0
__ehhandler$??$?HDU?$char_traits@D@std@@V?$allocator@D@1@@std@@YA?AV?$basic_string@DU?$char_traits@D@std@@V?$allocator@D@2@@0@ABV10@PBD@Z:
  00023	b8 00 00 00 00	 mov	 eax, OFFSET FLAT:$T88520
  00028	e9 00 00 00 00	 jmp	 ___CxxFrameHandler
text$x	ENDS
??$?HDU?$char_traits@D@std@@V?$allocator@D@1@@std@@YA?AV?$basic_string@DU?$char_traits@D@std@@V?$allocator@D@2@@0@ABV10@PBD@Z ENDP ; std::operator+<char,std::char_traits<char>,std::allocator<char> >
PUBLIC	??$?HDU?$char_traits@D@std@@V?$allocator@D@1@@std@@YA?AV?$basic_string@DU?$char_traits@D@std@@V?$allocator@D@2@@0@ABV10@D@Z ; std::operator+<char,std::char_traits<char>,std::allocator<char> >
;	COMDAT xdata$x
xdata$x	SEGMENT
$T88535	DD	0ffffffffH
	DD	FLAT:$L88529
	DD	00H
	DD	FLAT:$L88528
$T88533	DD	019930520H
	DD	02H
	DD	FLAT:$T88535
	DD	2 DUP(00H)
	DD	2 DUP(00H)
; Function compile flags: /Odt
xdata$x	ENDS
;	COMDAT ??$?HDU?$char_traits@D@std@@V?$allocator@D@1@@std@@YA?AV?$basic_string@DU?$char_traits@D@std@@V?$allocator@D@2@@0@ABV10@D@Z
_TEXT	SEGMENT
tv77 = -52						; size = 4
tv82 = -48						; size = 4
$T88530 = -44						; size = 4
$T88527 = -40						; size = 28
__$EHRec$ = -12						; size = 12
___$ReturnUdt$ = 8					; size = 4
__Left$ = 12						; size = 4
__Right$ = 16						; size = 1
??$?HDU?$char_traits@D@std@@V?$allocator@D@1@@std@@YA?AV?$basic_string@DU?$char_traits@D@std@@V?$allocator@D@2@@0@ABV10@D@Z PROC NEAR ; std::operator+<char,std::char_traits<char>,std::allocator<char> >, COMDAT

; 61   : 	{	// return string + character

  00000	55		 push	 ebp
  00001	8b ec		 mov	 ebp, esp
  00003	6a ff		 push	 -1
  00005	68 00 00 00 00	 push	 __ehhandler$??$?HDU?$char_traits@D@std@@V?$allocator@D@1@@std@@YA?AV?$basic_string@DU?$char_traits@D@std@@V?$allocator@D@2@@0@ABV10@D@Z
  0000a	64 a1 00 00 00
	00		 mov	 eax, DWORD PTR fs:__except_list
  00010	50		 push	 eax
  00011	64 89 25 00 00
	00 00		 mov	 DWORD PTR fs:__except_list, esp
  00018	83 ec 28	 sub	 esp, 40			; 00000028H
  0001b	c7 45 d4 00 00
	00 00		 mov	 DWORD PTR $T88530[ebp], 0

; 62   : 	return (basic_string<_Elem, _Traits, _Alloc>(_Left) += _Right);

  00022	8b 45 0c	 mov	 eax, DWORD PTR __Left$[ebp]
  00025	50		 push	 eax
  00026	8d 4d d8	 lea	 ecx, DWORD PTR $T88527[ebp]
  00029	ff 15 00 00 00
	00		 call	 DWORD PTR __imp_??0?$basic_string@DU?$char_traits@D@std@@V?$allocator@D@2@@std@@QAE@ABV01@@Z
  0002f	89 45 d0	 mov	 DWORD PTR tv82[ebp], eax
  00032	8b 4d d0	 mov	 ecx, DWORD PTR tv82[ebp]
  00035	89 4d cc	 mov	 DWORD PTR tv77[ebp], ecx
  00038	c7 45 fc 01 00
	00 00		 mov	 DWORD PTR __$EHRec$[ebp+8], 1
  0003f	8a 55 10	 mov	 dl, BYTE PTR __Right$[ebp]
  00042	52		 push	 edx
  00043	8b 4d cc	 mov	 ecx, DWORD PTR tv77[ebp]
  00046	ff 15 00 00 00
	00		 call	 DWORD PTR __imp_??Y?$basic_string@DU?$char_traits@D@std@@V?$allocator@D@2@@std@@QAEAAV01@D@Z
  0004c	50		 push	 eax
  0004d	8b 4d 08	 mov	 ecx, DWORD PTR ___$ReturnUdt$[ebp]
  00050	ff 15 00 00 00
	00		 call	 DWORD PTR __imp_??0?$basic_string@DU?$char_traits@D@std@@V?$allocator@D@2@@std@@QAE@ABV01@@Z
  00056	8b 45 d4	 mov	 eax, DWORD PTR $T88530[ebp]
  00059	83 c8 01	 or	 eax, 1
  0005c	89 45 d4	 mov	 DWORD PTR $T88530[ebp], eax
  0005f	c6 45 fc 00	 mov	 BYTE PTR __$EHRec$[ebp+8], 0
  00063	8d 4d d8	 lea	 ecx, DWORD PTR $T88527[ebp]
  00066	ff 15 00 00 00
	00		 call	 DWORD PTR __imp_??1?$basic_string@DU?$char_traits@D@std@@V?$allocator@D@2@@std@@QAE@XZ
  0006c	8b 45 08	 mov	 eax, DWORD PTR ___$ReturnUdt$[ebp]

; 63   : 	}

  0006f	8b 4d f4	 mov	 ecx, DWORD PTR __$EHRec$[ebp]
  00072	64 89 0d 00 00
	00 00		 mov	 DWORD PTR fs:__except_list, ecx
  00079	8b e5		 mov	 esp, ebp
  0007b	5d		 pop	 ebp
  0007c	c3		 ret	 0
_TEXT	ENDS
;	COMDAT text$x
text$x	SEGMENT
$L88528:
  00000	8d 4d d8	 lea	 ecx, DWORD PTR $T88527[ebp]
  00003	ff 25 00 00 00
	00		 jmp	 DWORD PTR __imp_??1?$basic_string@DU?$char_traits@D@std@@V?$allocator@D@2@@std@@QAE@XZ
$L88529:
  00009	8b 45 d4	 mov	 eax, DWORD PTR $T88530[ebp]
  0000c	83 e0 01	 and	 eax, 1
  0000f	0f 84 0d 00 00
	00		 je	 $L88531
  00015	83 65 d4 fe	 and	 DWORD PTR $T88530[ebp], -2 ; fffffffeH
  00019	8b 4d 08	 mov	 ecx, DWORD PTR ___$ReturnUdt$[ebp]
  0001c	ff 25 00 00 00
	00		 jmp	 DWORD PTR __imp_??1?$basic_string@DU?$char_traits@D@std@@V?$allocator@D@2@@std@@QAE@XZ
$L88531:
  00022	c3		 ret	 0
__ehhandler$??$?HDU?$char_traits@D@std@@V?$allocator@D@1@@std@@YA?AV?$basic_string@DU?$char_traits@D@std@@V?$allocator@D@2@@0@ABV10@D@Z:
  00023	b8 00 00 00 00	 mov	 eax, OFFSET FLAT:$T88533
  00028	e9 00 00 00 00	 jmp	 ___CxxFrameHandler
text$x	ENDS
??$?HDU?$char_traits@D@std@@V?$allocator@D@1@@std@@YA?AV?$basic_string@DU?$char_traits@D@std@@V?$allocator@D@2@@0@ABV10@D@Z ENDP ; std::operator+<char,std::char_traits<char>,std::allocator<char> >
PUBLIC	??$?H_WU?$char_traits@_W@std@@V?$allocator@_W@1@@std@@YA?AV?$basic_string@_WU?$char_traits@_W@std@@V?$allocator@_W@2@@0@ABV10@0@Z ; std::operator+<wchar_t,std::char_traits<wchar_t>,std::allocator<wchar_t> >
EXTRN	__imp_??0?$basic_string@_WU?$char_traits@_W@std@@V?$allocator@_W@2@@std@@QAE@ABV01@@Z:NEAR
EXTRN	__imp_??1?$basic_string@_WU?$char_traits@_W@std@@V?$allocator@_W@2@@std@@QAE@XZ:NEAR
EXTRN	__imp_??Y?$basic_string@_WU?$char_traits@_W@std@@V?$allocator@_W@2@@std@@QAEAAV01@ABV01@@Z:NEAR
;	COMDAT xdata$x
xdata$x	SEGMENT
$T88548	DD	0ffffffffH
	DD	FLAT:$L88542
	DD	00H
	DD	FLAT:$L88541
$T88546	DD	019930520H
	DD	02H
	DD	FLAT:$T88548
	DD	2 DUP(00H)
	DD	2 DUP(00H)
; Function compile flags: /Odt
xdata$x	ENDS
;	COMDAT ??$?H_WU?$char_traits@_W@std@@V?$allocator@_W@1@@std@@YA?AV?$basic_string@_WU?$char_traits@_W@std@@V?$allocator@_W@2@@0@ABV10@0@Z
_TEXT	SEGMENT
tv77 = -52						; size = 4
tv82 = -48						; size = 4
$T88543 = -44						; size = 4
$T88540 = -40						; size = 28
__$EHRec$ = -12						; size = 12
___$ReturnUdt$ = 8					; size = 4
__Left$ = 12						; size = 4
__Right$ = 16						; size = 4
??$?H_WU?$char_traits@_W@std@@V?$allocator@_W@1@@std@@YA?AV?$basic_string@_WU?$char_traits@_W@std@@V?$allocator@_W@2@@0@ABV10@0@Z PROC NEAR ; std::operator+<wchar_t,std::char_traits<wchar_t>,std::allocator<wchar_t> >, COMDAT

; 21   : 	{	// return string + string

  00000	55		 push	 ebp
  00001	8b ec		 mov	 ebp, esp
  00003	6a ff		 push	 -1
  00005	68 00 00 00 00	 push	 __ehhandler$??$?H_WU?$char_traits@_W@std@@V?$allocator@_W@1@@std@@YA?AV?$basic_string@_WU?$char_traits@_W@std@@V?$allocator@_W@2@@0@ABV10@0@Z
  0000a	64 a1 00 00 00
	00		 mov	 eax, DWORD PTR fs:__except_list
  00010	50		 push	 eax
  00011	64 89 25 00 00
	00 00		 mov	 DWORD PTR fs:__except_list, esp
  00018	83 ec 28	 sub	 esp, 40			; 00000028H
  0001b	c7 45 d4 00 00
	00 00		 mov	 DWORD PTR $T88543[ebp], 0

; 22   : 	return (basic_string<_Elem, _Traits, _Alloc>(_Left) += _Right);

  00022	8b 45 0c	 mov	 eax, DWORD PTR __Left$[ebp]
  00025	50		 push	 eax
  00026	8d 4d d8	 lea	 ecx, DWORD PTR $T88540[ebp]
  00029	ff 15 00 00 00
	00		 call	 DWORD PTR __imp_??0?$basic_string@_WU?$char_traits@_W@std@@V?$allocator@_W@2@@std@@QAE@ABV01@@Z
  0002f	89 45 d0	 mov	 DWORD PTR tv82[ebp], eax
  00032	8b 4d d0	 mov	 ecx, DWORD PTR tv82[ebp]
  00035	89 4d cc	 mov	 DWORD PTR tv77[ebp], ecx
  00038	c7 45 fc 01 00
	00 00		 mov	 DWORD PTR __$EHRec$[ebp+8], 1
  0003f	8b 55 10	 mov	 edx, DWORD PTR __Right$[ebp]
  00042	52		 push	 edx
  00043	8b 4d cc	 mov	 ecx, DWORD PTR tv77[ebp]
  00046	ff 15 00 00 00
	00		 call	 DWORD PTR __imp_??Y?$basic_string@_WU?$char_traits@_W@std@@V?$allocator@_W@2@@std@@QAEAAV01@ABV01@@Z
  0004c	50		 push	 eax
  0004d	8b 4d 08	 mov	 ecx, DWORD PTR ___$ReturnUdt$[ebp]
  00050	ff 15 00 00 00
	00		 call	 DWORD PTR __imp_??0?$basic_string@_WU?$char_traits@_W@std@@V?$allocator@_W@2@@std@@QAE@ABV01@@Z
  00056	8b 45 d4	 mov	 eax, DWORD PTR $T88543[ebp]
  00059	83 c8 01	 or	 eax, 1
  0005c	89 45 d4	 mov	 DWORD PTR $T88543[ebp], eax
  0005f	c6 45 fc 00	 mov	 BYTE PTR __$EHRec$[ebp+8], 0
  00063	8d 4d d8	 lea	 ecx, DWORD PTR $T88540[ebp]
  00066	ff 15 00 00 00
	00		 call	 DWORD PTR __imp_??1?$basic_string@_WU?$char_traits@_W@std@@V?$allocator@_W@2@@std@@QAE@XZ
  0006c	8b 45 08	 mov	 eax, DWORD PTR ___$ReturnUdt$[ebp]

; 23   : 	}

  0006f	8b 4d f4	 mov	 ecx, DWORD PTR __$EHRec$[ebp]
  00072	64 89 0d 00 00
	00 00		 mov	 DWORD PTR fs:__except_list, ecx
  00079	8b e5		 mov	 esp, ebp
  0007b	5d		 pop	 ebp
  0007c	c3		 ret	 0
_TEXT	ENDS
;	COMDAT text$x
text$x	SEGMENT
$L88541:
  00000	8d 4d d8	 lea	 ecx, DWORD PTR $T88540[ebp]
  00003	ff 25 00 00 00
	00		 jmp	 DWORD PTR __imp_??1?$basic_string@_WU?$char_traits@_W@std@@V?$allocator@_W@2@@std@@QAE@XZ
$L88542:
  00009	8b 45 d4	 mov	 eax, DWORD PTR $T88543[ebp]
  0000c	83 e0 01	 and	 eax, 1
  0000f	0f 84 0d 00 00
	00		 je	 $L88544
  00015	83 65 d4 fe	 and	 DWORD PTR $T88543[ebp], -2 ; fffffffeH
  00019	8b 4d 08	 mov	 ecx, DWORD PTR ___$ReturnUdt$[ebp]
  0001c	ff 25 00 00 00
	00		 jmp	 DWORD PTR __imp_??1?$basic_string@_WU?$char_traits@_W@std@@V?$allocator@_W@2@@std@@QAE@XZ
$L88544:
  00022	c3		 ret	 0
__ehhandler$??$?H_WU?$char_traits@_W@std@@V?$allocator@_W@1@@std@@YA?AV?$basic_string@_WU?$char_traits@_W@std@@V?$allocator@_W@2@@0@ABV10@0@Z:
  00023	b8 00 00 00 00	 mov	 eax, OFFSET FLAT:$T88546
  00028	e9 00 00 00 00	 jmp	 ___CxxFrameHandler
text$x	ENDS
??$?H_WU?$char_traits@_W@std@@V?$allocator@_W@1@@std@@YA?AV?$basic_string@_WU?$char_traits@_W@std@@V?$allocator@_W@2@@0@ABV10@0@Z ENDP ; std::operator+<wchar_t,std::char_traits<wchar_t>,std::allocator<wchar_t> >
PUBLIC	??$?H_WU?$char_traits@_W@std@@V?$allocator@_W@1@@std@@YA?AV?$basic_string@_WU?$char_traits@_W@std@@V?$allocator@_W@2@@0@PB_WABV10@@Z ; std::operator+<wchar_t,std::char_traits<wchar_t>,std::allocator<wchar_t> >
EXTRN	__imp_??0?$basic_string@_WU?$char_traits@_W@std@@V?$allocator@_W@2@@std@@QAE@PB_W@Z:NEAR
;	COMDAT xdata$x
xdata$x	SEGMENT
$T88561	DD	0ffffffffH
	DD	FLAT:$L88555
	DD	00H
	DD	FLAT:$L88554
$T88559	DD	019930520H
	DD	02H
	DD	FLAT:$T88561
	DD	2 DUP(00H)
	DD	2 DUP(00H)
; Function compile flags: /Odt
xdata$x	ENDS
;	COMDAT ??$?H_WU?$char_traits@_W@std@@V?$allocator@_W@1@@std@@YA?AV?$basic_string@_WU?$char_traits@_W@std@@V?$allocator@_W@2@@0@PB_WABV10@@Z
_TEXT	SEGMENT
tv77 = -52						; size = 4
tv82 = -48						; size = 4
$T88556 = -44						; size = 4
$T88553 = -40						; size = 28
__$EHRec$ = -12						; size = 12
___$ReturnUdt$ = 8					; size = 4
__Left$ = 12						; size = 4
__Right$ = 16						; size = 4
??$?H_WU?$char_traits@_W@std@@V?$allocator@_W@1@@std@@YA?AV?$basic_string@_WU?$char_traits@_W@std@@V?$allocator@_W@2@@0@PB_WABV10@@Z PROC NEAR ; std::operator+<wchar_t,std::char_traits<wchar_t>,std::allocator<wchar_t> >, COMDAT

; 31   : 	{	// return NTCS + string

  00000	55		 push	 ebp
  00001	8b ec		 mov	 ebp, esp
  00003	6a ff		 push	 -1
  00005	68 00 00 00 00	 push	 __ehhandler$??$?H_WU?$char_traits@_W@std@@V?$allocator@_W@1@@std@@YA?AV?$basic_string@_WU?$char_traits@_W@std@@V?$allocator@_W@2@@0@PB_WABV10@@Z
  0000a	64 a1 00 00 00
	00		 mov	 eax, DWORD PTR fs:__except_list
  00010	50		 push	 eax
  00011	64 89 25 00 00
	00 00		 mov	 DWORD PTR fs:__except_list, esp
  00018	83 ec 28	 sub	 esp, 40			; 00000028H
  0001b	c7 45 d4 00 00
	00 00		 mov	 DWORD PTR $T88556[ebp], 0

; 32   : 	return (basic_string<_Elem, _Traits, _Alloc>(_Left) += _Right);

  00022	8b 45 0c	 mov	 eax, DWORD PTR __Left$[ebp]
  00025	50		 push	 eax
  00026	8d 4d d8	 lea	 ecx, DWORD PTR $T88553[ebp]
  00029	ff 15 00 00 00
	00		 call	 DWORD PTR __imp_??0?$basic_string@_WU?$char_traits@_W@std@@V?$allocator@_W@2@@std@@QAE@PB_W@Z
  0002f	89 45 d0	 mov	 DWORD PTR tv82[ebp], eax
  00032	8b 4d d0	 mov	 ecx, DWORD PTR tv82[ebp]
  00035	89 4d cc	 mov	 DWORD PTR tv77[ebp], ecx
  00038	c7 45 fc 01 00
	00 00		 mov	 DWORD PTR __$EHRec$[ebp+8], 1
  0003f	8b 55 10	 mov	 edx, DWORD PTR __Right$[ebp]
  00042	52		 push	 edx
  00043	8b 4d cc	 mov	 ecx, DWORD PTR tv77[ebp]
  00046	ff 15 00 00 00
	00		 call	 DWORD PTR __imp_??Y?$basic_string@_WU?$char_traits@_W@std@@V?$allocator@_W@2@@std@@QAEAAV01@ABV01@@Z
  0004c	50		 push	 eax
  0004d	8b 4d 08	 mov	 ecx, DWORD PTR ___$ReturnUdt$[ebp]
  00050	ff 15 00 00 00
	00		 call	 DWORD PTR __imp_??0?$basic_string@_WU?$char_traits@_W@std@@V?$allocator@_W@2@@std@@QAE@ABV01@@Z
  00056	8b 45 d4	 mov	 eax, DWORD PTR $T88556[ebp]
  00059	83 c8 01	 or	 eax, 1
  0005c	89 45 d4	 mov	 DWORD PTR $T88556[ebp], eax
  0005f	c6 45 fc 00	 mov	 BYTE PTR __$EHRec$[ebp+8], 0
  00063	8d 4d d8	 lea	 ecx, DWORD PTR $T88553[ebp]
  00066	ff 15 00 00 00
	00		 call	 DWORD PTR __imp_??1?$basic_string@_WU?$char_traits@_W@std@@V?$allocator@_W@2@@std@@QAE@XZ
  0006c	8b 45 08	 mov	 eax, DWORD PTR ___$ReturnUdt$[ebp]

; 33   : 	}

  0006f	8b 4d f4	 mov	 ecx, DWORD PTR __$EHRec$[ebp]
  00072	64 89 0d 00 00
	00 00		 mov	 DWORD PTR fs:__except_list, ecx
  00079	8b e5		 mov	 esp, ebp
  0007b	5d		 pop	 ebp
  0007c	c3		 ret	 0
_TEXT	ENDS
;	COMDAT text$x
text$x	SEGMENT
$L88554:
  00000	8d 4d d8	 lea	 ecx, DWORD PTR $T88553[ebp]
  00003	ff 25 00 00 00
	00		 jmp	 DWORD PTR __imp_??1?$basic_string@_WU?$char_traits@_W@std@@V?$allocator@_W@2@@std@@QAE@XZ
$L88555:
  00009	8b 45 d4	 mov	 eax, DWORD PTR $T88556[ebp]
  0000c	83 e0 01	 and	 eax, 1
  0000f	0f 84 0d 00 00
	00		 je	 $L88557
  00015	83 65 d4 fe	 and	 DWORD PTR $T88556[ebp], -2 ; fffffffeH
  00019	8b 4d 08	 mov	 ecx, DWORD PTR ___$ReturnUdt$[ebp]
  0001c	ff 25 00 00 00
	00		 jmp	 DWORD PTR __imp_??1?$basic_string@_WU?$char_traits@_W@std@@V?$allocator@_W@2@@std@@QAE@XZ
$L88557:
  00022	c3		 ret	 0
__ehhandler$??$?H_WU?$char_traits@_W@std@@V?$allocator@_W@1@@std@@YA?AV?$basic_string@_WU?$char_traits@_W@std@@V?$allocator@_W@2@@0@PB_WABV10@@Z:
  00023	b8 00 00 00 00	 mov	 eax, OFFSET FLAT:$T88559
  00028	e9 00 00 00 00	 jmp	 ___CxxFrameHandler
text$x	ENDS
??$?H_WU?$char_traits@_W@std@@V?$allocator@_W@1@@std@@YA?AV?$basic_string@_WU?$char_traits@_W@std@@V?$allocator@_W@2@@0@PB_WABV10@@Z ENDP ; std::operator+<wchar_t,std::char_traits<wchar_t>,std::allocator<wchar_t> >
PUBLIC	??$?H_WU?$char_traits@_W@std@@V?$allocator@_W@1@@std@@YA?AV?$basic_string@_WU?$char_traits@_W@std@@V?$allocator@_W@2@@0@_WABV10@@Z ; std::operator+<wchar_t,std::char_traits<wchar_t>,std::allocator<wchar_t> >
EXTRN	__imp_??0?$basic_string@_WU?$char_traits@_W@std@@V?$allocator@_W@2@@std@@QAE@I_W@Z:NEAR
;	COMDAT xdata$x
xdata$x	SEGMENT
$T88574	DD	0ffffffffH
	DD	FLAT:$L88568
	DD	00H
	DD	FLAT:$L88567
$T88572	DD	019930520H
	DD	02H
	DD	FLAT:$T88574
	DD	2 DUP(00H)
	DD	2 DUP(00H)
; Function compile flags: /Odt
xdata$x	ENDS
;	COMDAT ??$?H_WU?$char_traits@_W@std@@V?$allocator@_W@1@@std@@YA?AV?$basic_string@_WU?$char_traits@_W@std@@V?$allocator@_W@2@@0@_WABV10@@Z
_TEXT	SEGMENT
tv78 = -52						; size = 4
tv83 = -48						; size = 4
$T88569 = -44						; size = 4
$T88566 = -40						; size = 28
__$EHRec$ = -12						; size = 12
___$ReturnUdt$ = 8					; size = 4
__Left$ = 12						; size = 2
__Right$ = 16						; size = 4
??$?H_WU?$char_traits@_W@std@@V?$allocator@_W@1@@std@@YA?AV?$basic_string@_WU?$char_traits@_W@std@@V?$allocator@_W@2@@0@_WABV10@@Z PROC NEAR ; std::operator+<wchar_t,std::char_traits<wchar_t>,std::allocator<wchar_t> >, COMDAT

; 41   : 	{	// return character + string

  00000	55		 push	 ebp
  00001	8b ec		 mov	 ebp, esp
  00003	6a ff		 push	 -1
  00005	68 00 00 00 00	 push	 __ehhandler$??$?H_WU?$char_traits@_W@std@@V?$allocator@_W@1@@std@@YA?AV?$basic_string@_WU?$char_traits@_W@std@@V?$allocator@_W@2@@0@_WABV10@@Z
  0000a	64 a1 00 00 00
	00		 mov	 eax, DWORD PTR fs:__except_list
  00010	50		 push	 eax
  00011	64 89 25 00 00
	00 00		 mov	 DWORD PTR fs:__except_list, esp
  00018	83 ec 28	 sub	 esp, 40			; 00000028H
  0001b	c7 45 d4 00 00
	00 00		 mov	 DWORD PTR $T88569[ebp], 0

; 42   : 	return (basic_string<_Elem, _Traits, _Alloc>(1, _Left) += _Right);

  00022	66 8b 45 0c	 mov	 ax, WORD PTR __Left$[ebp]
  00026	50		 push	 eax
  00027	6a 01		 push	 1
  00029	8d 4d d8	 lea	 ecx, DWORD PTR $T88566[ebp]
  0002c	ff 15 00 00 00
	00		 call	 DWORD PTR __imp_??0?$basic_string@_WU?$char_traits@_W@std@@V?$allocator@_W@2@@std@@QAE@I_W@Z
  00032	89 45 d0	 mov	 DWORD PTR tv83[ebp], eax
  00035	8b 4d d0	 mov	 ecx, DWORD PTR tv83[ebp]
  00038	89 4d cc	 mov	 DWORD PTR tv78[ebp], ecx
  0003b	c7 45 fc 01 00
	00 00		 mov	 DWORD PTR __$EHRec$[ebp+8], 1
  00042	8b 55 10	 mov	 edx, DWORD PTR __Right$[ebp]
  00045	52		 push	 edx
  00046	8b 4d cc	 mov	 ecx, DWORD PTR tv78[ebp]
  00049	ff 15 00 00 00
	00		 call	 DWORD PTR __imp_??Y?$basic_string@_WU?$char_traits@_W@std@@V?$allocator@_W@2@@std@@QAEAAV01@ABV01@@Z
  0004f	50		 push	 eax
  00050	8b 4d 08	 mov	 ecx, DWORD PTR ___$ReturnUdt$[ebp]
  00053	ff 15 00 00 00
	00		 call	 DWORD PTR __imp_??0?$basic_string@_WU?$char_traits@_W@std@@V?$allocator@_W@2@@std@@QAE@ABV01@@Z
  00059	8b 45 d4	 mov	 eax, DWORD PTR $T88569[ebp]
  0005c	83 c8 01	 or	 eax, 1
  0005f	89 45 d4	 mov	 DWORD PTR $T88569[ebp], eax
  00062	c6 45 fc 00	 mov	 BYTE PTR __$EHRec$[ebp+8], 0
  00066	8d 4d d8	 lea	 ecx, DWORD PTR $T88566[ebp]
  00069	ff 15 00 00 00
	00		 call	 DWORD PTR __imp_??1?$basic_string@_WU?$char_traits@_W@std@@V?$allocator@_W@2@@std@@QAE@XZ
  0006f	8b 45 08	 mov	 eax, DWORD PTR ___$ReturnUdt$[ebp]

; 43   : 	}

  00072	8b 4d f4	 mov	 ecx, DWORD PTR __$EHRec$[ebp]
  00075	64 89 0d 00 00
	00 00		 mov	 DWORD PTR fs:__except_list, ecx
  0007c	8b e5		 mov	 esp, ebp
  0007e	5d		 pop	 ebp
  0007f	c3		 ret	 0
_TEXT	ENDS
;	COMDAT text$x
text$x	SEGMENT
$L88567:
  00000	8d 4d d8	 lea	 ecx, DWORD PTR $T88566[ebp]
  00003	ff 25 00 00 00
	00		 jmp	 DWORD PTR __imp_??1?$basic_string@_WU?$char_traits@_W@std@@V?$allocator@_W@2@@std@@QAE@XZ
$L88568:
  00009	8b 45 d4	 mov	 eax, DWORD PTR $T88569[ebp]
  0000c	83 e0 01	 and	 eax, 1
  0000f	0f 84 0d 00 00
	00		 je	 $L88570
  00015	83 65 d4 fe	 and	 DWORD PTR $T88569[ebp], -2 ; fffffffeH
  00019	8b 4d 08	 mov	 ecx, DWORD PTR ___$ReturnUdt$[ebp]
  0001c	ff 25 00 00 00
	00		 jmp	 DWORD PTR __imp_??1?$basic_string@_WU?$char_traits@_W@std@@V?$allocator@_W@2@@std@@QAE@XZ
$L88570:
  00022	c3		 ret	 0
__ehhandler$??$?H_WU?$char_traits@_W@std@@V?$allocator@_W@1@@std@@YA?AV?$basic_string@_WU?$char_traits@_W@std@@V?$allocator@_W@2@@0@_WABV10@@Z:
  00023	b8 00 00 00 00	 mov	 eax, OFFSET FLAT:$T88572
  00028	e9 00 00 00 00	 jmp	 ___CxxFrameHandler
text$x	ENDS
??$?H_WU?$char_traits@_W@std@@V?$allocator@_W@1@@std@@YA?AV?$basic_string@_WU?$char_traits@_W@std@@V?$allocator@_W@2@@0@_WABV10@@Z ENDP ; std::operator+<wchar_t,std::char_traits<wchar_t>,std::allocator<wchar_t> >
PUBLIC	??$?H_WU?$char_traits@_W@std@@V?$allocator@_W@1@@std@@YA?AV?$basic_string@_WU?$char_traits@_W@std@@V?$allocator@_W@2@@0@ABV10@PB_W@Z ; std::operator+<wchar_t,std::char_traits<wchar_t>,std::allocator<wchar_t> >
EXTRN	__imp_??Y?$basic_string@_WU?$char_traits@_W@std@@V?$allocator@_W@2@@std@@QAEAAV01@PB_W@Z:NEAR
;	COMDAT xdata$x
xdata$x	SEGMENT
$T88587	DD	0ffffffffH
	DD	FLAT:$L88581
	DD	00H
	DD	FLAT:$L88580
$T88585	DD	019930520H
	DD	02H
	DD	FLAT:$T88587
	DD	2 DUP(00H)
	DD	2 DUP(00H)
; Function compile flags: /Odt
xdata$x	ENDS
;	COMDAT ??$?H_WU?$char_traits@_W@std@@V?$allocator@_W@1@@std@@YA?AV?$basic_string@_WU?$char_traits@_W@std@@V?$allocator@_W@2@@0@ABV10@PB_W@Z
_TEXT	SEGMENT
tv77 = -52						; size = 4
tv82 = -48						; size = 4
$T88582 = -44						; size = 4
$T88579 = -40						; size = 28
__$EHRec$ = -12						; size = 12
___$ReturnUdt$ = 8					; size = 4
__Left$ = 12						; size = 4
__Right$ = 16						; size = 4
??$?H_WU?$char_traits@_W@std@@V?$allocator@_W@1@@std@@YA?AV?$basic_string@_WU?$char_traits@_W@std@@V?$allocator@_W@2@@0@ABV10@PB_W@Z PROC NEAR ; std::operator+<wchar_t,std::char_traits<wchar_t>,std::allocator<wchar_t> >, COMDAT

; 51   : 	{	// return string + NTCS

  00000	55		 push	 ebp
  00001	8b ec		 mov	 ebp, esp
  00003	6a ff		 push	 -1
  00005	68 00 00 00 00	 push	 __ehhandler$??$?H_WU?$char_traits@_W@std@@V?$allocator@_W@1@@std@@YA?AV?$basic_string@_WU?$char_traits@_W@std@@V?$allocator@_W@2@@0@ABV10@PB_W@Z
  0000a	64 a1 00 00 00
	00		 mov	 eax, DWORD PTR fs:__except_list
  00010	50		 push	 eax
  00011	64 89 25 00 00
	00 00		 mov	 DWORD PTR fs:__except_list, esp
  00018	83 ec 28	 sub	 esp, 40			; 00000028H
  0001b	c7 45 d4 00 00
	00 00		 mov	 DWORD PTR $T88582[ebp], 0

; 52   : 	return (basic_string<_Elem, _Traits, _Alloc>(_Left) += _Right);

  00022	8b 45 0c	 mov	 eax, DWORD PTR __Left$[ebp]
  00025	50		 push	 eax
  00026	8d 4d d8	 lea	 ecx, DWORD PTR $T88579[ebp]
  00029	ff 15 00 00 00
	00		 call	 DWORD PTR __imp_??0?$basic_string@_WU?$char_traits@_W@std@@V?$allocator@_W@2@@std@@QAE@ABV01@@Z
  0002f	89 45 d0	 mov	 DWORD PTR tv82[ebp], eax
  00032	8b 4d d0	 mov	 ecx, DWORD PTR tv82[ebp]
  00035	89 4d cc	 mov	 DWORD PTR tv77[ebp], ecx
  00038	c7 45 fc 01 00
	00 00		 mov	 DWORD PTR __$EHRec$[ebp+8], 1
  0003f	8b 55 10	 mov	 edx, DWORD PTR __Right$[ebp]
  00042	52		 push	 edx
  00043	8b 4d cc	 mov	 ecx, DWORD PTR tv77[ebp]
  00046	ff 15 00 00 00
	00		 call	 DWORD PTR __imp_??Y?$basic_string@_WU?$char_traits@_W@std@@V?$allocator@_W@2@@std@@QAEAAV01@PB_W@Z
  0004c	50		 push	 eax
  0004d	8b 4d 08	 mov	 ecx, DWORD PTR ___$ReturnUdt$[ebp]
  00050	ff 15 00 00 00
	00		 call	 DWORD PTR __imp_??0?$basic_string@_WU?$char_traits@_W@std@@V?$allocator@_W@2@@std@@QAE@ABV01@@Z
  00056	8b 45 d4	 mov	 eax, DWORD PTR $T88582[ebp]
  00059	83 c8 01	 or	 eax, 1
  0005c	89 45 d4	 mov	 DWORD PTR $T88582[ebp], eax
  0005f	c6 45 fc 00	 mov	 BYTE PTR __$EHRec$[ebp+8], 0
  00063	8d 4d d8	 lea	 ecx, DWORD PTR $T88579[ebp]
  00066	ff 15 00 00 00
	00		 call	 DWORD PTR __imp_??1?$basic_string@_WU?$char_traits@_W@std@@V?$allocator@_W@2@@std@@QAE@XZ
  0006c	8b 45 08	 mov	 eax, DWORD PTR ___$ReturnUdt$[ebp]

; 53   : 	}

  0006f	8b 4d f4	 mov	 ecx, DWORD PTR __$EHRec$[ebp]
  00072	64 89 0d 00 00
	00 00		 mov	 DWORD PTR fs:__except_list, ecx
  00079	8b e5		 mov	 esp, ebp
  0007b	5d		 pop	 ebp
  0007c	c3		 ret	 0
_TEXT	ENDS
;	COMDAT text$x
text$x	SEGMENT
$L88580:
  00000	8d 4d d8	 lea	 ecx, DWORD PTR $T88579[ebp]
  00003	ff 25 00 00 00
	00		 jmp	 DWORD PTR __imp_??1?$basic_string@_WU?$char_traits@_W@std@@V?$allocator@_W@2@@std@@QAE@XZ
$L88581:
  00009	8b 45 d4	 mov	 eax, DWORD PTR $T88582[ebp]
  0000c	83 e0 01	 and	 eax, 1
  0000f	0f 84 0d 00 00
	00		 je	 $L88583
  00015	83 65 d4 fe	 and	 DWORD PTR $T88582[ebp], -2 ; fffffffeH
  00019	8b 4d 08	 mov	 ecx, DWORD PTR ___$ReturnUdt$[ebp]
  0001c	ff 25 00 00 00
	00		 jmp	 DWORD PTR __imp_??1?$basic_string@_WU?$char_traits@_W@std@@V?$allocator@_W@2@@std@@QAE@XZ
$L88583:
  00022	c3		 ret	 0
__ehhandler$??$?H_WU?$char_traits@_W@std@@V?$allocator@_W@1@@std@@YA?AV?$basic_string@_WU?$char_traits@_W@std@@V?$allocator@_W@2@@0@ABV10@PB_W@Z:
  00023	b8 00 00 00 00	 mov	 eax, OFFSET FLAT:$T88585
  00028	e9 00 00 00 00	 jmp	 ___CxxFrameHandler
text$x	ENDS
??$?H_WU?$char_traits@_W@std@@V?$allocator@_W@1@@std@@YA?AV?$basic_string@_WU?$char_traits@_W@std@@V?$allocator@_W@2@@0@ABV10@PB_W@Z ENDP ; std::operator+<wchar_t,std::char_traits<wchar_t>,std::allocator<wchar_t> >
PUBLIC	??$?H_WU?$char_traits@_W@std@@V?$allocator@_W@1@@std@@YA?AV?$basic_string@_WU?$char_traits@_W@std@@V?$allocator@_W@2@@0@ABV10@_W@Z ; std::operator+<wchar_t,std::char_traits<wchar_t>,std::allocator<wchar_t> >
EXTRN	__imp_??Y?$basic_string@_WU?$char_traits@_W@std@@V?$allocator@_W@2@@std@@QAEAAV01@_W@Z:NEAR
;	COMDAT xdata$x
xdata$x	SEGMENT
$T88600	DD	0ffffffffH
	DD	FLAT:$L88594
	DD	00H
	DD	FLAT:$L88593
$T88598	DD	019930520H
	DD	02H
	DD	FLAT:$T88600
	DD	2 DUP(00H)
	DD	2 DUP(00H)
; Function compile flags: /Odt
xdata$x	ENDS
;	COMDAT ??$?H_WU?$char_traits@_W@std@@V?$allocator@_W@1@@std@@YA?AV?$basic_string@_WU?$char_traits@_W@std@@V?$allocator@_W@2@@0@ABV10@_W@Z
_TEXT	SEGMENT
tv77 = -52						; size = 4
tv82 = -48						; size = 4
$T88595 = -44						; size = 4
$T88592 = -40						; size = 28
__$EHRec$ = -12						; size = 12
___$ReturnUdt$ = 8					; size = 4
__Left$ = 12						; size = 4
__Right$ = 16						; size = 2
??$?H_WU?$char_traits@_W@std@@V?$allocator@_W@1@@std@@YA?AV?$basic_string@_WU?$char_traits@_W@std@@V?$allocator@_W@2@@0@ABV10@_W@Z PROC NEAR ; std::operator+<wchar_t,std::char_traits<wchar_t>,std::allocator<wchar_t> >, COMDAT

; 61   : 	{	// return string + character

  00000	55		 push	 ebp
  00001	8b ec		 mov	 ebp, esp
  00003	6a ff		 push	 -1
  00005	68 00 00 00 00	 push	 __ehhandler$??$?H_WU?$char_traits@_W@std@@V?$allocator@_W@1@@std@@YA?AV?$basic_string@_WU?$char_traits@_W@std@@V?$allocator@_W@2@@0@ABV10@_W@Z
  0000a	64 a1 00 00 00
	00		 mov	 eax, DWORD PTR fs:__except_list
  00010	50		 push	 eax
  00011	64 89 25 00 00
	00 00		 mov	 DWORD PTR fs:__except_list, esp
  00018	83 ec 28	 sub	 esp, 40			; 00000028H
  0001b	c7 45 d4 00 00
	00 00		 mov	 DWORD PTR $T88595[ebp], 0

; 62   : 	return (basic_string<_Elem, _Traits, _Alloc>(_Left) += _Right);

  00022	8b 45 0c	 mov	 eax, DWORD PTR __Left$[ebp]
  00025	50		 push	 eax
  00026	8d 4d d8	 lea	 ecx, DWORD PTR $T88592[ebp]
  00029	ff 15 00 00 00
	00		 call	 DWORD PTR __imp_??0?$basic_string@_WU?$char_traits@_W@std@@V?$allocator@_W@2@@std@@QAE@ABV01@@Z
  0002f	89 45 d0	 mov	 DWORD PTR tv82[ebp], eax
  00032	8b 4d d0	 mov	 ecx, DWORD PTR tv82[ebp]
  00035	89 4d cc	 mov	 DWORD PTR tv77[ebp], ecx
  00038	c7 45 fc 01 00
	00 00		 mov	 DWORD PTR __$EHRec$[ebp+8], 1
  0003f	66 8b 55 10	 mov	 dx, WORD PTR __Right$[ebp]
  00043	52		 push	 edx
  00044	8b 4d cc	 mov	 ecx, DWORD PTR tv77[ebp]
  00047	ff 15 00 00 00
	00		 call	 DWORD PTR __imp_??Y?$basic_string@_WU?$char_traits@_W@std@@V?$allocator@_W@2@@std@@QAEAAV01@_W@Z
  0004d	50		 push	 eax
  0004e	8b 4d 08	 mov	 ecx, DWORD PTR ___$ReturnUdt$[ebp]
  00051	ff 15 00 00 00
	00		 call	 DWORD PTR __imp_??0?$basic_string@_WU?$char_traits@_W@std@@V?$allocator@_W@2@@std@@QAE@ABV01@@Z
  00057	8b 45 d4	 mov	 eax, DWORD PTR $T88595[ebp]
  0005a	83 c8 01	 or	 eax, 1
  0005d	89 45 d4	 mov	 DWORD PTR $T88595[ebp], eax
  00060	c6 45 fc 00	 mov	 BYTE PTR __$EHRec$[ebp+8], 0
  00064	8d 4d d8	 lea	 ecx, DWORD PTR $T88592[ebp]
  00067	ff 15 00 00 00
	00		 call	 DWORD PTR __imp_??1?$basic_string@_WU?$char_traits@_W@std@@V?$allocator@_W@2@@std@@QAE@XZ
  0006d	8b 45 08	 mov	 eax, DWORD PTR ___$ReturnUdt$[ebp]

; 63   : 	}

  00070	8b 4d f4	 mov	 ecx, DWORD PTR __$EHRec$[ebp]
  00073	64 89 0d 00 00
	00 00		 mov	 DWORD PTR fs:__except_list, ecx
  0007a	8b e5		 mov	 esp, ebp
  0007c	5d		 pop	 ebp
  0007d	c3		 ret	 0
_TEXT	ENDS
;	COMDAT text$x
text$x	SEGMENT
$L88593:
  00000	8d 4d d8	 lea	 ecx, DWORD PTR $T88592[ebp]
  00003	ff 25 00 00 00
	00		 jmp	 DWORD PTR __imp_??1?$basic_string@_WU?$char_traits@_W@std@@V?$allocator@_W@2@@std@@QAE@XZ
$L88594:
  00009	8b 45 d4	 mov	 eax, DWORD PTR $T88595[ebp]
  0000c	83 e0 01	 and	 eax, 1
  0000f	0f 84 0d 00 00
	00		 je	 $L88596
  00015	83 65 d4 fe	 and	 DWORD PTR $T88595[ebp], -2 ; fffffffeH
  00019	8b 4d 08	 mov	 ecx, DWORD PTR ___$ReturnUdt$[ebp]
  0001c	ff 25 00 00 00
	00		 jmp	 DWORD PTR __imp_??1?$basic_string@_WU?$char_traits@_W@std@@V?$allocator@_W@2@@std@@QAE@XZ
$L88596:
  00022	c3		 ret	 0
__ehhandler$??$?H_WU?$char_traits@_W@std@@V?$allocator@_W@1@@std@@YA?AV?$basic_string@_WU?$char_traits@_W@std@@V?$allocator@_W@2@@0@ABV10@_W@Z:
  00023	b8 00 00 00 00	 mov	 eax, OFFSET FLAT:$T88598
  00028	e9 00 00 00 00	 jmp	 ___CxxFrameHandler
text$x	ENDS
??$?H_WU?$char_traits@_W@std@@V?$allocator@_W@1@@std@@YA?AV?$basic_string@_WU?$char_traits@_W@std@@V?$allocator@_W@2@@0@ABV10@_W@Z ENDP ; std::operator+<wchar_t,std::char_traits<wchar_t>,std::allocator<wchar_t> >
PUBLIC	??$?5DU?$char_traits@D@std@@V?$allocator@D@1@@std@@YAAAV?$basic_istream@DU?$char_traits@D@std@@@0@AAV10@AAV?$basic_string@DU?$char_traits@D@std@@V?$allocator@D@2@@0@@Z ; std::operator>><char,std::char_traits<char>,std::allocator<char> >
PUBLIC	??$use_facet@V?$ctype@D@std@@@std@@YAABV?$ctype@D@0@ABVlocale@0@@Z ; std::use_facet<std::ctype<char> >
PUBLIC	??0sentry@?$basic_istream@DU?$char_traits@D@std@@@std@@QAE@AAV12@_N@Z ; std::basic_istream<char,std::char_traits<char> >::sentry::sentry
PUBLIC	??Bsentry@?$basic_istream@DU?$char_traits@D@std@@@std@@QBE_NXZ ; std::basic_istream<char,std::char_traits<char> >::sentry::operator bool
PUBLIC	??1sentry@?$basic_istream@DU?$char_traits@D@std@@@std@@QAE@XZ ; std::basic_istream<char,std::char_traits<char> >::sentry::~sentry
EXTRN	__imp_?width@ios_base@std@@QBEHXZ:NEAR
EXTRN	__imp_?width@ios_base@std@@QAEHH@Z:NEAR
EXTRN	__imp_?getloc@ios_base@std@@QBE?AVlocale@2@XZ:NEAR
EXTRN	__imp_?append@?$basic_string@DU?$char_traits@D@std@@V?$allocator@D@2@@std@@QAEAAV12@ID@Z:NEAR
EXTRN	__imp_?erase@?$basic_string@DU?$char_traits@D@std@@V?$allocator@D@2@@std@@QAEAAV12@II@Z:NEAR
EXTRN	__imp_?max_size@?$basic_string@DU?$char_traits@D@std@@V?$allocator@D@2@@std@@QBEIXZ:NEAR
EXTRN	__imp_?is@?$ctype@D@std@@QBE_NFD@Z:NEAR
EXTRN	__imp_?to_char_type@?$char_traits@D@std@@SADABH@Z:NEAR
EXTRN	__imp_?eq_int_type@?$char_traits@D@std@@SA_NABH0@Z:NEAR
EXTRN	__imp_?eof@?$char_traits@D@std@@SAHXZ:NEAR
EXTRN	__imp_?sgetc@?$basic_streambuf@DU?$char_traits@D@std@@@std@@QAEHXZ:NEAR
EXTRN	__imp_?snextc@?$basic_streambuf@DU?$char_traits@D@std@@@std@@QAEHXZ:NEAR
EXTRN	__imp_??1locale@std@@QAE@XZ:NEAR
EXTRN	__imp_?setstate@?$basic_ios@DU?$char_traits@D@std@@@std@@QAEXH_N@Z:NEAR
EXTRN	__imp_?rdbuf@?$basic_ios@DU?$char_traits@D@std@@@std@@QBEPAV?$basic_streambuf@DU?$char_traits@D@std@@@2@XZ:NEAR
;	COMDAT xdata$x
xdata$x	SEGMENT
$T88617	DD	0ffffffffH
	DD	FLAT:$L88612
	DD	00H
	DD	FLAT:$L88613
	DD	00H
	DD	00H
	DD	00H
	DD	00H
$T88619	DD	00H
	DD	00H
	DD	00H
	DD	FLAT:$L88611
$T88618	DD	02H
	DD	02H
	DD	03H
	DD	01H
	DD	FLAT:$T88619
$T88615	DD	019930520H
	DD	04H
	DD	FLAT:$T88617
	DD	01H
	DD	FLAT:$T88618
	DD	2 DUP(00H)
; Function compile flags: /Odt
xdata$x	ENDS
;	COMDAT ??$?5DU?$char_traits@D@std@@V?$allocator@D@1@@std@@YAAAV?$basic_istream@DU?$char_traits@D@std@@@0@AAV10@AAV?$basic_string@DU?$char_traits@D@std@@V?$allocator@D@2@@0@@Z
_TEXT	SEGMENT
tv205 = -112						; size = 1
tv204 = -111						; size = 1
tv203 = -110						; size = 1
tv202 = -109						; size = 1
tv201 = -108						; size = 4
tv200 = -104						; size = 4
tv199 = -100						; size = 4
tv198 = -96						; size = 4
tv197 = -92						; size = 4
tv196 = -88						; size = 4
tv135 = -84						; size = 4
tv195 = -80						; size = 4
tv194 = -76						; size = 4
tv193 = -72						; size = 4
tv192 = -68						; size = 4
tv189 = -64						; size = 4
tv65 = -60						; size = 4
$T88609 = -56						; size = 4
$T88608 = -52						; size = 4
$T88605 = -48						; size = 4
__Meta$86574 = -44					; size = 4
__Size$86571 = -40					; size = 4
__Ctype_fac$86568 = -36					; size = 4
__Changed$ = -29					; size = 1
__Ok$ = -28						; size = 8
__State$ = -20						; size = 4
__$EHRec$ = -16						; size = 16
__Istr$ = 8						; size = 4
__Str$ = 12						; size = 4
??$?5DU?$char_traits@D@std@@V?$allocator@D@1@@std@@YAAAV?$basic_istream@DU?$char_traits@D@std@@@0@AAV10@AAV?$basic_string@DU?$char_traits@D@std@@V?$allocator@D@2@@0@@Z PROC NEAR ; std::operator>><char,std::char_traits<char>,std::allocator<char> >, COMDAT

; 425  : 	{	// extract a string

  00000	55		 push	 ebp
  00001	8b ec		 mov	 ebp, esp
  00003	6a ff		 push	 -1
  00005	68 00 00 00 00	 push	 __ehhandler$??$?5DU?$char_traits@D@std@@V?$allocator@D@1@@std@@YAAAV?$basic_istream@DU?$char_traits@D@std@@@0@AAV10@AAV?$basic_string@DU?$char_traits@D@std@@V?$allocator@D@2@@0@@Z
  0000a	64 a1 00 00 00
	00		 mov	 eax, DWORD PTR fs:__except_list
  00010	50		 push	 eax
  00011	64 89 25 00 00
	00 00		 mov	 DWORD PTR fs:__except_list, esp
  00018	51		 push	 ecx
  00019	83 ec 60	 sub	 esp, 96			; 00000060H
  0001c	53		 push	 ebx
  0001d	56		 push	 esi
  0001e	57		 push	 edi
  0001f	89 65 f0	 mov	 DWORD PTR __$EHRec$[ebp], esp

; 426  : 	typedef ctype<_Elem> _Ctype;
; 427  : 	typedef basic_istream<_Elem, _Traits> _Myis;
; 428  : 	typedef basic_string<_Elem, _Traits, _Alloc> _Mystr;
; 429  : 	typedef typename _Mystr::size_type _Mysizt;
; 430  : 
; 431  : 	ios_base::iostate _State = ios_base::goodbit;

  00022	c7 45 ec 00 00
	00 00		 mov	 DWORD PTR __State$[ebp], 0

; 432  : 	bool _Changed = false;

  00029	c6 45 e3 00	 mov	 BYTE PTR __Changed$[ebp], 0

; 433  : 	const typename _Myis::sentry _Ok(_Istr);

  0002d	6a 00		 push	 0
  0002f	8b 45 08	 mov	 eax, DWORD PTR __Istr$[ebp]
  00032	50		 push	 eax
  00033	8d 4d e4	 lea	 ecx, DWORD PTR __Ok$[ebp]
  00036	e8 00 00 00 00	 call	 ??0sentry@?$basic_istream@DU?$char_traits@D@std@@@std@@QAE@AAV12@_N@Z ; std::basic_istream<char,std::char_traits<char> >::sentry::sentry
  0003b	c7 45 fc 00 00
	00 00		 mov	 DWORD PTR __$EHRec$[ebp+12], 0

; 434  : 
; 435  : 	if (_Ok)

  00042	8d 4d e4	 lea	 ecx, DWORD PTR __Ok$[ebp]
  00045	e8 00 00 00 00	 call	 ??Bsentry@?$basic_istream@DU?$char_traits@D@std@@@std@@QBE_NXZ ; std::basic_istream<char,std::char_traits<char> >::sentry::operator bool
  0004a	0f b6 c8	 movzx	 ecx, al
  0004d	85 c9		 test	 ecx, ecx
  0004f	0f 84 dc 01 00
	00		 je	 $L88610

; 436  : 		{	// state okay, extract characters
; 437  : 		const _Ctype& _Ctype_fac = _USE(_Istr.getloc(), _Ctype);

  00055	8d 55 d0	 lea	 edx, DWORD PTR $T88605[ebp]
  00058	52		 push	 edx
  00059	8b 45 08	 mov	 eax, DWORD PTR __Istr$[ebp]
  0005c	8b 08		 mov	 ecx, DWORD PTR [eax]
  0005e	8b 55 08	 mov	 edx, DWORD PTR __Istr$[ebp]
  00061	03 51 04	 add	 edx, DWORD PTR [ecx+4]
  00064	8b ca		 mov	 ecx, edx
  00066	ff 15 00 00 00
	00		 call	 DWORD PTR __imp_?getloc@ios_base@std@@QBE?AVlocale@2@XZ
  0006c	89 45 c4	 mov	 DWORD PTR tv65[ebp], eax
  0006f	8b 45 c4	 mov	 eax, DWORD PTR tv65[ebp]
  00072	89 45 c0	 mov	 DWORD PTR tv189[ebp], eax
  00075	c6 45 fc 01	 mov	 BYTE PTR __$EHRec$[ebp+12], 1
  00079	8b 4d c0	 mov	 ecx, DWORD PTR tv189[ebp]
  0007c	51		 push	 ecx
  0007d	e8 00 00 00 00	 call	 ??$use_facet@V?$ctype@D@std@@@std@@YAABV?$ctype@D@0@ABVlocale@0@@Z ; std::use_facet<std::ctype<char> >
  00082	83 c4 04	 add	 esp, 4
  00085	89 45 dc	 mov	 DWORD PTR __Ctype_fac$86568[ebp], eax
  00088	c6 45 fc 00	 mov	 BYTE PTR __$EHRec$[ebp+12], 0
  0008c	8d 4d d0	 lea	 ecx, DWORD PTR $T88605[ebp]
  0008f	ff 15 00 00 00
	00		 call	 DWORD PTR __imp_??1locale@std@@QAE@XZ

; 438  : 		_Str.erase();

  00095	8b 15 00 00 00
	00		 mov	 edx, DWORD PTR __imp_?npos@?$basic_string@DU?$char_traits@D@std@@V?$allocator@D@2@@std@@2IB
  0009b	8b 02		 mov	 eax, DWORD PTR [edx]
  0009d	50		 push	 eax
  0009e	6a 00		 push	 0
  000a0	8b 4d 0c	 mov	 ecx, DWORD PTR __Str$[ebp]
  000a3	ff 15 00 00 00
	00		 call	 DWORD PTR __imp_?erase@?$basic_string@DU?$char_traits@D@std@@V?$allocator@D@2@@std@@QAEAAV12@II@Z

; 439  : 
; 440  : 		_TRY_IO_BEGIN

  000a9	c6 45 fc 02	 mov	 BYTE PTR __$EHRec$[ebp+12], 2

; 441  : 		_Mysizt _Size = 0 < _Istr.width()
; 442  : 			&& (_Mysizt)_Istr.width() < _Str.max_size()
; 443  : 				? (_Mysizt)_Istr.width() : _Str.max_size();

  000ad	8b 4d 08	 mov	 ecx, DWORD PTR __Istr$[ebp]
  000b0	8b 11		 mov	 edx, DWORD PTR [ecx]
  000b2	8b 4d 08	 mov	 ecx, DWORD PTR __Istr$[ebp]
  000b5	03 4a 04	 add	 ecx, DWORD PTR [edx+4]
  000b8	ff 15 00 00 00
	00		 call	 DWORD PTR __imp_?width@ios_base@std@@QBEHXZ
  000be	89 45 bc	 mov	 DWORD PTR tv192[ebp], eax
  000c1	83 7d bc 00	 cmp	 DWORD PTR tv192[ebp], 0
  000c5	7e 46		 jle	 SHORT $L88606
  000c7	8b 45 08	 mov	 eax, DWORD PTR __Istr$[ebp]
  000ca	8b 08		 mov	 ecx, DWORD PTR [eax]
  000cc	8b 55 08	 mov	 edx, DWORD PTR __Istr$[ebp]
  000cf	03 51 04	 add	 edx, DWORD PTR [ecx+4]
  000d2	8b ca		 mov	 ecx, edx
  000d4	ff 15 00 00 00
	00		 call	 DWORD PTR __imp_?width@ios_base@std@@QBEHXZ
  000da	89 45 b8	 mov	 DWORD PTR tv193[ebp], eax
  000dd	8b 4d 0c	 mov	 ecx, DWORD PTR __Str$[ebp]
  000e0	ff 15 00 00 00
	00		 call	 DWORD PTR __imp_?max_size@?$basic_string@DU?$char_traits@D@std@@V?$allocator@D@2@@std@@QBEIXZ
  000e6	89 45 b4	 mov	 DWORD PTR tv194[ebp], eax
  000e9	8b 45 b8	 mov	 eax, DWORD PTR tv193[ebp]
  000ec	3b 45 b4	 cmp	 eax, DWORD PTR tv194[ebp]
  000ef	73 1c		 jae	 SHORT $L88606
  000f1	8b 4d 08	 mov	 ecx, DWORD PTR __Istr$[ebp]
  000f4	8b 11		 mov	 edx, DWORD PTR [ecx]
  000f6	8b 4d 08	 mov	 ecx, DWORD PTR __Istr$[ebp]
  000f9	03 4a 04	 add	 ecx, DWORD PTR [edx+4]
  000fc	ff 15 00 00 00
	00		 call	 DWORD PTR __imp_?width@ios_base@std@@QBEHXZ
  00102	89 45 b0	 mov	 DWORD PTR tv195[ebp], eax
  00105	8b 45 b0	 mov	 eax, DWORD PTR tv195[ebp]
  00108	89 45 ac	 mov	 DWORD PTR tv135[ebp], eax
  0010b	eb 12		 jmp	 SHORT $L88607
$L88606:
  0010d	8b 4d 0c	 mov	 ecx, DWORD PTR __Str$[ebp]
  00110	ff 15 00 00 00
	00		 call	 DWORD PTR __imp_?max_size@?$basic_string@DU?$char_traits@D@std@@V?$allocator@D@2@@std@@QBEIXZ
  00116	89 45 a8	 mov	 DWORD PTR tv196[ebp], eax
  00119	8b 4d a8	 mov	 ecx, DWORD PTR tv196[ebp]
  0011c	89 4d ac	 mov	 DWORD PTR tv135[ebp], ecx
$L88607:
  0011f	8b 55 ac	 mov	 edx, DWORD PTR tv135[ebp]
  00122	89 55 d8	 mov	 DWORD PTR __Size$86571[ebp], edx

; 444  : 		typename _Traits::int_type _Meta = _Istr.rdbuf()->sgetc();

  00125	8b 45 08	 mov	 eax, DWORD PTR __Istr$[ebp]
  00128	8b 08		 mov	 ecx, DWORD PTR [eax]
  0012a	8b 55 08	 mov	 edx, DWORD PTR __Istr$[ebp]
  0012d	03 51 04	 add	 edx, DWORD PTR [ecx+4]
  00130	8b ca		 mov	 ecx, edx
  00132	ff 15 00 00 00
	00		 call	 DWORD PTR __imp_?rdbuf@?$basic_ios@DU?$char_traits@D@std@@@std@@QBEPAV?$basic_streambuf@DU?$char_traits@D@std@@@2@XZ
  00138	89 45 a4	 mov	 DWORD PTR tv197[ebp], eax
  0013b	8b 4d a4	 mov	 ecx, DWORD PTR tv197[ebp]
  0013e	ff 15 00 00 00
	00		 call	 DWORD PTR __imp_?sgetc@?$basic_streambuf@DU?$char_traits@D@std@@@std@@QAEHXZ
  00144	89 45 a0	 mov	 DWORD PTR tv198[ebp], eax
  00147	8b 45 a0	 mov	 eax, DWORD PTR tv198[ebp]
  0014a	89 45 d4	 mov	 DWORD PTR __Meta$86574[ebp], eax

; 445  : 
; 446  : 		for (; 0 < _Size; --_Size, _Meta = _Istr.rdbuf()->snextc())

  0014d	eb 2f		 jmp	 SHORT $L86575
$L86576:
  0014f	8b 4d d8	 mov	 ecx, DWORD PTR __Size$86571[ebp]
  00152	83 e9 01	 sub	 ecx, 1
  00155	89 4d d8	 mov	 DWORD PTR __Size$86571[ebp], ecx
  00158	8b 55 08	 mov	 edx, DWORD PTR __Istr$[ebp]
  0015b	8b 02		 mov	 eax, DWORD PTR [edx]
  0015d	8b 4d 08	 mov	 ecx, DWORD PTR __Istr$[ebp]
  00160	03 48 04	 add	 ecx, DWORD PTR [eax+4]
  00163	ff 15 00 00 00
	00		 call	 DWORD PTR __imp_?rdbuf@?$basic_ios@DU?$char_traits@D@std@@@std@@QBEPAV?$basic_streambuf@DU?$char_traits@D@std@@@2@XZ
  00169	89 45 9c	 mov	 DWORD PTR tv199[ebp], eax
  0016c	8b 4d 9c	 mov	 ecx, DWORD PTR tv199[ebp]
  0016f	ff 15 00 00 00
	00		 call	 DWORD PTR __imp_?snextc@?$basic_streambuf@DU?$char_traits@D@std@@@std@@QAEHXZ
  00175	89 45 98	 mov	 DWORD PTR tv200[ebp], eax
  00178	8b 4d 98	 mov	 ecx, DWORD PTR tv200[ebp]
  0017b	89 4d d4	 mov	 DWORD PTR __Meta$86574[ebp], ecx
$L86575:
  0017e	83 7d d8 00	 cmp	 DWORD PTR __Size$86571[ebp], 0
  00182	0f 86 8a 00 00
	00		 jbe	 $L86577

; 447  : 			if(_Traits::eq_int_type(_Traits::eof(), _Meta))

  00188	ff 15 00 00 00
	00		 call	 DWORD PTR __imp_?eof@?$char_traits@D@std@@SAHXZ
  0018e	89 45 94	 mov	 DWORD PTR tv201[ebp], eax
  00191	8b 55 94	 mov	 edx, DWORD PTR tv201[ebp]
  00194	89 55 cc	 mov	 DWORD PTR $T88608[ebp], edx
  00197	8d 45 d4	 lea	 eax, DWORD PTR __Meta$86574[ebp]
  0019a	50		 push	 eax
  0019b	8d 4d cc	 lea	 ecx, DWORD PTR $T88608[ebp]
  0019e	51		 push	 ecx
  0019f	ff 15 00 00 00
	00		 call	 DWORD PTR __imp_?eq_int_type@?$char_traits@D@std@@SA_NABH0@Z
  001a5	83 c4 08	 add	 esp, 8
  001a8	88 45 93	 mov	 BYTE PTR tv202[ebp], al
  001ab	0f b6 55 93	 movzx	 edx, BYTE PTR tv202[ebp]
  001af	85 d2		 test	 edx, edx
  001b1	74 0b		 je	 SHORT $L86579

; 448  : 				{	// end of file, quit
; 449  : 				_State |= ios_base::eofbit;

  001b3	8b 45 ec	 mov	 eax, DWORD PTR __State$[ebp]
  001b6	83 c8 01	 or	 eax, 1
  001b9	89 45 ec	 mov	 DWORD PTR __State$[ebp], eax

; 450  : 				break;

  001bc	eb 54		 jmp	 SHORT $L86577
$L86579:

; 451  : 				}
; 452  : 			else if (_Ctype_fac.is(_Ctype::space,
; 453  : 				_Traits::to_char_type(_Meta)))

  001be	8d 4d d4	 lea	 ecx, DWORD PTR __Meta$86574[ebp]
  001c1	51		 push	 ecx
  001c2	ff 15 00 00 00
	00		 call	 DWORD PTR __imp_?to_char_type@?$char_traits@D@std@@SADABH@Z
  001c8	83 c4 04	 add	 esp, 4
  001cb	88 45 92	 mov	 BYTE PTR tv203[ebp], al
  001ce	8a 55 92	 mov	 dl, BYTE PTR tv203[ebp]
  001d1	52		 push	 edx
  001d2	6a 48		 push	 72			; 00000048H
  001d4	8b 4d dc	 mov	 ecx, DWORD PTR __Ctype_fac$86568[ebp]
  001d7	ff 15 00 00 00
	00		 call	 DWORD PTR __imp_?is@?$ctype@D@std@@QBE_NFD@Z
  001dd	88 45 91	 mov	 BYTE PTR tv204[ebp], al
  001e0	0f b6 45 91	 movzx	 eax, BYTE PTR tv204[ebp]
  001e4	85 c0		 test	 eax, eax
  001e6	74 02		 je	 SHORT $L86581

; 454  : 				break;	// whitespace, quit

  001e8	eb 28		 jmp	 SHORT $L86577
$L86581:

; 455  : 			else
; 456  : 				{	// add character to string
; 457  : 				_Str.append(1, _Traits::to_char_type(_Meta));

  001ea	8d 4d d4	 lea	 ecx, DWORD PTR __Meta$86574[ebp]
  001ed	51		 push	 ecx
  001ee	ff 15 00 00 00
	00		 call	 DWORD PTR __imp_?to_char_type@?$char_traits@D@std@@SADABH@Z
  001f4	83 c4 04	 add	 esp, 4
  001f7	88 45 90	 mov	 BYTE PTR tv205[ebp], al
  001fa	8a 55 90	 mov	 dl, BYTE PTR tv205[ebp]
  001fd	52		 push	 edx
  001fe	6a 01		 push	 1
  00200	8b 4d 0c	 mov	 ecx, DWORD PTR __Str$[ebp]
  00203	ff 15 00 00 00
	00		 call	 DWORD PTR __imp_?append@?$basic_string@DU?$char_traits@D@std@@V?$allocator@D@2@@std@@QAEAAV12@ID@Z

; 458  : 				_Changed = true;

  00209	c6 45 e3 01	 mov	 BYTE PTR __Changed$[ebp], 1

; 459  : 				}

  0020d	e9 3d ff ff ff	 jmp	 $L86576
$L86577:
  00212	eb 1d		 jmp	 SHORT $L88610
$L88611:

; 460  : 		_CATCH_IO_(_Istr)

  00214	6a 01		 push	 1
  00216	6a 04		 push	 4
  00218	8b 45 08	 mov	 eax, DWORD PTR __Istr$[ebp]
  0021b	8b 08		 mov	 ecx, DWORD PTR [eax]
  0021d	8b 55 08	 mov	 edx, DWORD PTR __Istr$[ebp]
  00220	03 51 04	 add	 edx, DWORD PTR [ecx+4]
  00223	8b ca		 mov	 ecx, edx
  00225	ff 15 00 00 00
	00		 call	 DWORD PTR __imp_?setstate@?$basic_ios@DU?$char_traits@D@std@@@std@@QAEXH_N@Z
  0022b	b8 00 00 00 00	 mov	 eax, $L88610
  00230	c3		 ret	 0
$L88610:
  00231	c7 45 fc 00 00
	00 00		 mov	 DWORD PTR __$EHRec$[ebp+12], 0

; 461  : 		}
; 462  : 
; 463  : 	_Istr.width(0);

  00238	6a 00		 push	 0
  0023a	8b 45 08	 mov	 eax, DWORD PTR __Istr$[ebp]
  0023d	8b 08		 mov	 ecx, DWORD PTR [eax]
  0023f	8b 55 08	 mov	 edx, DWORD PTR __Istr$[ebp]
  00242	03 51 04	 add	 edx, DWORD PTR [ecx+4]
  00245	8b ca		 mov	 ecx, edx
  00247	ff 15 00 00 00
	00		 call	 DWORD PTR __imp_?width@ios_base@std@@QAEHH@Z

; 464  : 	if (!_Changed)

  0024d	0f b6 45 e3	 movzx	 eax, BYTE PTR __Changed$[ebp]
  00251	85 c0		 test	 eax, eax
  00253	75 09		 jne	 SHORT $L86583

; 465  : 		_State |= ios_base::failbit;

  00255	8b 4d ec	 mov	 ecx, DWORD PTR __State$[ebp]
  00258	83 c9 02	 or	 ecx, 2
  0025b	89 4d ec	 mov	 DWORD PTR __State$[ebp], ecx
$L86583:

; 466  : 	_Istr.setstate(_State);

  0025e	6a 00		 push	 0
  00260	8b 55 ec	 mov	 edx, DWORD PTR __State$[ebp]
  00263	52		 push	 edx
  00264	8b 45 08	 mov	 eax, DWORD PTR __Istr$[ebp]
  00267	8b 08		 mov	 ecx, DWORD PTR [eax]
  00269	8b 55 08	 mov	 edx, DWORD PTR __Istr$[ebp]
  0026c	03 51 04	 add	 edx, DWORD PTR [ecx+4]
  0026f	8b ca		 mov	 ecx, edx
  00271	ff 15 00 00 00
	00		 call	 DWORD PTR __imp_?setstate@?$basic_ios@DU?$char_traits@D@std@@@std@@QAEXH_N@Z

; 467  : 	return (_Istr);

  00277	8b 45 08	 mov	 eax, DWORD PTR __Istr$[ebp]
  0027a	89 45 c8	 mov	 DWORD PTR $T88609[ebp], eax
  0027d	c7 45 fc ff ff
	ff ff		 mov	 DWORD PTR __$EHRec$[ebp+12], -1
  00284	8d 4d e4	 lea	 ecx, DWORD PTR __Ok$[ebp]
  00287	e8 00 00 00 00	 call	 ??1sentry@?$basic_istream@DU?$char_traits@D@std@@@std@@QAE@XZ
  0028c	8b 45 c8	 mov	 eax, DWORD PTR $T88609[ebp]

; 468  : 	}

  0028f	8b 4d f4	 mov	 ecx, DWORD PTR __$EHRec$[ebp+4]
  00292	64 89 0d 00 00
	00 00		 mov	 DWORD PTR fs:__except_list, ecx
  00299	5f		 pop	 edi
  0029a	5e		 pop	 esi
  0029b	5b		 pop	 ebx
  0029c	8b e5		 mov	 esp, ebp
  0029e	5d		 pop	 ebp
  0029f	c3		 ret	 0
_TEXT	ENDS
;	COMDAT text$x
text$x	SEGMENT
$L88612:
  00000	8d 4d e4	 lea	 ecx, DWORD PTR __Ok$[ebp]
  00003	e9 00 00 00 00	 jmp	 ??1sentry@?$basic_istream@DU?$char_traits@D@std@@@std@@QAE@XZ
$L88613:
  00008	8d 4d d0	 lea	 ecx, DWORD PTR $T88605[ebp]
  0000b	ff 25 00 00 00
	00		 jmp	 DWORD PTR __imp_??1locale@std@@QAE@XZ
__ehhandler$??$?5DU?$char_traits@D@std@@V?$allocator@D@1@@std@@YAAAV?$basic_istream@DU?$char_traits@D@std@@@0@AAV10@AAV?$basic_string@DU?$char_traits@D@std@@V?$allocator@D@2@@0@@Z:
  00011	b8 00 00 00 00	 mov	 eax, OFFSET FLAT:$T88615
  00016	e9 00 00 00 00	 jmp	 ___CxxFrameHandler
text$x	ENDS
??$?5DU?$char_traits@D@std@@V?$allocator@D@1@@std@@YAAAV?$basic_istream@DU?$char_traits@D@std@@@0@AAV10@AAV?$basic_string@DU?$char_traits@D@std@@V?$allocator@D@2@@0@@Z ENDP ; std::operator>><char,std::char_traits<char>,std::allocator<char> >
PUBLIC	??1_Sentry_base@?$basic_istream@DU?$char_traits@D@std@@@std@@QAE@XZ ; std::basic_istream<char,std::char_traits<char> >::_Sentry_base::~_Sentry_base
; Function compile flags: /Odt
;	COMDAT ??1sentry@?$basic_istream@DU?$char_traits@D@std@@@std@@QAE@XZ
_TEXT	SEGMENT
_this$ = -4						; size = 4
??1sentry@?$basic_istream@DU?$char_traits@D@std@@@std@@QAE@XZ PROC NEAR ; std::basic_istream<char,std::char_traits<char> >::sentry::~sentry, COMDAT
; _this$ = ecx
  00000	55		 push	 ebp
  00001	8b ec		 mov	 ebp, esp
  00003	51		 push	 ecx
  00004	89 4d fc	 mov	 DWORD PTR _this$[ebp], ecx
  00007	8b 4d fc	 mov	 ecx, DWORD PTR _this$[ebp]
  0000a	e8 00 00 00 00	 call	 ??1_Sentry_base@?$basic_istream@DU?$char_traits@D@std@@@std@@QAE@XZ ; std::basic_istream<char,std::char_traits<char> >::_Sentry_base::~_Sentry_base
  0000f	8b e5		 mov	 esp, ebp
  00011	5d		 pop	 ebp
  00012	c3		 ret	 0
??1sentry@?$basic_istream@DU?$char_traits@D@std@@@std@@QAE@XZ ENDP ; std::basic_istream<char,std::char_traits<char> >::sentry::~sentry
_TEXT	ENDS
PUBLIC	??0_Sentry_base@?$basic_istream@DU?$char_traits@D@std@@@std@@QAE@AAV12@@Z ; std::basic_istream<char,std::char_traits<char> >::_Sentry_base::_Sentry_base
EXTRN	__imp_?_Ipfx@?$basic_istream@DU?$char_traits@D@std@@@std@@QAE_N_N@Z:NEAR
;	COMDAT xdata$x
; File d:\program files (x86)\microsoft visual studio .net 2003\vc7\include\istream
xdata$x	SEGMENT
$T88631	DD	0ffffffffH
	DD	FLAT:$L88627
$T88629	DD	019930520H
	DD	01H
	DD	FLAT:$T88631
	DD	2 DUP(00H)
	DD	2 DUP(00H)
; Function compile flags: /Odt
xdata$x	ENDS
;	COMDAT ??0sentry@?$basic_istream@DU?$char_traits@D@std@@@std@@QAE@AAV12@_N@Z
_TEXT	SEGMENT
_this$ = -16						; size = 4
__$EHRec$ = -12						; size = 12
__Istr$ = 8						; size = 4
__Noskip$ = 12						; size = 1
??0sentry@?$basic_istream@DU?$char_traits@D@std@@@std@@QAE@AAV12@_N@Z PROC NEAR ; std::basic_istream<char,std::char_traits<char> >::sentry::sentry, COMDAT
; _this$ = ecx

; 72   : 			{	// construct locking and calling _Ipfx

  00000	55		 push	 ebp
  00001	8b ec		 mov	 ebp, esp
  00003	6a ff		 push	 -1
  00005	68 00 00 00 00	 push	 __ehhandler$??0sentry@?$basic_istream@DU?$char_traits@D@std@@@std@@QAE@AAV12@_N@Z
  0000a	64 a1 00 00 00
	00		 mov	 eax, DWORD PTR fs:__except_list
  00010	50		 push	 eax
  00011	64 89 25 00 00
	00 00		 mov	 DWORD PTR fs:__except_list, esp
  00018	51		 push	 ecx
  00019	89 4d f0	 mov	 DWORD PTR _this$[ebp], ecx
  0001c	8b 45 08	 mov	 eax, DWORD PTR __Istr$[ebp]
  0001f	50		 push	 eax
  00020	8b 4d f0	 mov	 ecx, DWORD PTR _this$[ebp]
  00023	e8 00 00 00 00	 call	 ??0_Sentry_base@?$basic_istream@DU?$char_traits@D@std@@@std@@QAE@AAV12@@Z ; std::basic_istream<char,std::char_traits<char> >::_Sentry_base::_Sentry_base
  00028	c7 45 fc 00 00
	00 00		 mov	 DWORD PTR __$EHRec$[ebp+8], 0

; 73   : 			_Ok = this->_Myistr._Ipfx(_Noskip);

  0002f	8a 4d 0c	 mov	 cl, BYTE PTR __Noskip$[ebp]
  00032	51		 push	 ecx
  00033	8b 55 f0	 mov	 edx, DWORD PTR _this$[ebp]
  00036	8b 0a		 mov	 ecx, DWORD PTR [edx]
  00038	ff 15 00 00 00
	00		 call	 DWORD PTR __imp_?_Ipfx@?$basic_istream@DU?$char_traits@D@std@@@std@@QAE_N_N@Z
  0003e	8b 4d f0	 mov	 ecx, DWORD PTR _this$[ebp]
  00041	88 41 04	 mov	 BYTE PTR [ecx+4], al

; 74   : 			}

  00044	c7 45 fc ff ff
	ff ff		 mov	 DWORD PTR __$EHRec$[ebp+8], -1
  0004b	8b 45 f0	 mov	 eax, DWORD PTR _this$[ebp]
  0004e	8b 4d f4	 mov	 ecx, DWORD PTR __$EHRec$[ebp]
  00051	64 89 0d 00 00
	00 00		 mov	 DWORD PTR fs:__except_list, ecx
  00058	8b e5		 mov	 esp, ebp
  0005a	5d		 pop	 ebp
  0005b	c2 08 00	 ret	 8
_TEXT	ENDS
;	COMDAT text$x
text$x	SEGMENT
$L88627:
  00000	8b 4d f0	 mov	 ecx, DWORD PTR _this$[ebp]
  00003	e9 00 00 00 00	 jmp	 ??1_Sentry_base@?$basic_istream@DU?$char_traits@D@std@@@std@@QAE@XZ ; std::basic_istream<char,std::char_traits<char> >::_Sentry_base::~_Sentry_base
__ehhandler$??0sentry@?$basic_istream@DU?$char_traits@D@std@@@std@@QAE@AAV12@_N@Z:
  00008	b8 00 00 00 00	 mov	 eax, OFFSET FLAT:$T88629
  0000d	e9 00 00 00 00	 jmp	 ___CxxFrameHandler
text$x	ENDS
??0sentry@?$basic_istream@DU?$char_traits@D@std@@@std@@QAE@AAV12@_N@Z ENDP ; std::basic_istream<char,std::char_traits<char> >::sentry::sentry
; Function compile flags: /Odt
;	COMDAT ??Bsentry@?$basic_istream@DU?$char_traits@D@std@@@std@@QBE_NXZ
_TEXT	SEGMENT
_this$ = -4						; size = 4
??Bsentry@?$basic_istream@DU?$char_traits@D@std@@@std@@QBE_NXZ PROC NEAR ; std::basic_istream<char,std::char_traits<char> >::sentry::operator bool, COMDAT
; _this$ = ecx

; 77   : 			{	// test if _Ipfx succeeded

  00000	55		 push	 ebp
  00001	8b ec		 mov	 ebp, esp
  00003	51		 push	 ecx
  00004	89 4d fc	 mov	 DWORD PTR _this$[ebp], ecx

; 78   : 			return (_Ok);

  00007	8b 45 fc	 mov	 eax, DWORD PTR _this$[ebp]
  0000a	8a 40 04	 mov	 al, BYTE PTR [eax+4]

; 79   : 			}

  0000d	8b e5		 mov	 esp, ebp
  0000f	5d		 pop	 ebp
  00010	c3		 ret	 0
??Bsentry@?$basic_istream@DU?$char_traits@D@std@@@std@@QBE_NXZ ENDP ; std::basic_istream<char,std::char_traits<char> >::sentry::operator bool
_TEXT	ENDS
EXTRN	__imp_?_Unlock@?$basic_streambuf@DU?$char_traits@D@std@@@std@@QAEXXZ:NEAR
; Function compile flags: /Odt
;	COMDAT ??1_Sentry_base@?$basic_istream@DU?$char_traits@D@std@@@std@@QAE@XZ
_TEXT	SEGMENT
_this$ = -4						; size = 4
??1_Sentry_base@?$basic_istream@DU?$char_traits@D@std@@@std@@QAE@XZ PROC NEAR ; std::basic_istream<char,std::char_traits<char> >::_Sentry_base::~_Sentry_base, COMDAT
; _this$ = ecx

; 58   : 			{	// destroy after unlocking

  00000	55		 push	 ebp
  00001	8b ec		 mov	 ebp, esp
  00003	51		 push	 ecx
  00004	89 4d fc	 mov	 DWORD PTR _this$[ebp], ecx

; 59   : 			if (_Myistr.rdbuf() != 0)

  00007	8b 45 fc	 mov	 eax, DWORD PTR _this$[ebp]
  0000a	8b 08		 mov	 ecx, DWORD PTR [eax]
  0000c	8b 11		 mov	 edx, DWORD PTR [ecx]
  0000e	8b 45 fc	 mov	 eax, DWORD PTR _this$[ebp]
  00011	8b 08		 mov	 ecx, DWORD PTR [eax]
  00013	03 4a 04	 add	 ecx, DWORD PTR [edx+4]
  00016	ff 15 00 00 00
	00		 call	 DWORD PTR __imp_?rdbuf@?$basic_ios@DU?$char_traits@D@std@@@std@@QBEPAV?$basic_streambuf@DU?$char_traits@D@std@@@2@XZ
  0001c	85 c0		 test	 eax, eax
  0001e	74 1d		 je	 SHORT $L84892

; 60   : 				_Myistr.rdbuf()->_Unlock();

  00020	8b 4d fc	 mov	 ecx, DWORD PTR _this$[ebp]
  00023	8b 11		 mov	 edx, DWORD PTR [ecx]
  00025	8b 02		 mov	 eax, DWORD PTR [edx]
  00027	8b 4d fc	 mov	 ecx, DWORD PTR _this$[ebp]
  0002a	8b 09		 mov	 ecx, DWORD PTR [ecx]
  0002c	03 48 04	 add	 ecx, DWORD PTR [eax+4]
  0002f	ff 15 00 00 00
	00		 call	 DWORD PTR __imp_?rdbuf@?$basic_ios@DU?$char_traits@D@std@@@std@@QBEPAV?$basic_streambuf@DU?$char_traits@D@std@@@2@XZ
  00035	8b c8		 mov	 ecx, eax
  00037	ff 15 00 00 00
	00		 call	 DWORD PTR __imp_?_Unlock@?$basic_streambuf@DU?$char_traits@D@std@@@std@@QAEXXZ
$L84892:

; 61   : 			}

  0003d	8b e5		 mov	 esp, ebp
  0003f	5d		 pop	 ebp
  00040	c3		 ret	 0
??1_Sentry_base@?$basic_istream@DU?$char_traits@D@std@@@std@@QAE@XZ ENDP ; std::basic_istream<char,std::char_traits<char> >::_Sentry_base::~_Sentry_base
_TEXT	ENDS
EXTRN	__imp_?_Lock@?$basic_streambuf@DU?$char_traits@D@std@@@std@@QAEXXZ:NEAR
; Function compile flags: /Odt
;	COMDAT ??0_Sentry_base@?$basic_istream@DU?$char_traits@D@std@@@std@@QAE@AAV12@@Z
_TEXT	SEGMENT
_this$ = -4						; size = 4
__Istr$ = 8						; size = 4
??0_Sentry_base@?$basic_istream@DU?$char_traits@D@std@@@std@@QAE@AAV12@@Z PROC NEAR ; std::basic_istream<char,std::char_traits<char> >::_Sentry_base::_Sentry_base, COMDAT
; _this$ = ecx

; 52   : 			{	// lock the stream buffer, if there

  00000	55		 push	 ebp
  00001	8b ec		 mov	 ebp, esp
  00003	51		 push	 ecx
  00004	89 4d fc	 mov	 DWORD PTR _this$[ebp], ecx
  00007	8b 45 fc	 mov	 eax, DWORD PTR _this$[ebp]
  0000a	8b 4d 08	 mov	 ecx, DWORD PTR __Istr$[ebp]
  0000d	89 08		 mov	 DWORD PTR [eax], ecx

; 53   : 			if (_Myistr.rdbuf() != 0)

  0000f	8b 55 fc	 mov	 edx, DWORD PTR _this$[ebp]
  00012	8b 02		 mov	 eax, DWORD PTR [edx]
  00014	8b 08		 mov	 ecx, DWORD PTR [eax]
  00016	8b 55 fc	 mov	 edx, DWORD PTR _this$[ebp]
  00019	8b 02		 mov	 eax, DWORD PTR [edx]
  0001b	03 41 04	 add	 eax, DWORD PTR [ecx+4]
  0001e	8b c8		 mov	 ecx, eax
  00020	ff 15 00 00 00
	00		 call	 DWORD PTR __imp_?rdbuf@?$basic_ios@DU?$char_traits@D@std@@@std@@QBEPAV?$basic_streambuf@DU?$char_traits@D@std@@@2@XZ
  00026	85 c0		 test	 eax, eax
  00028	74 1d		 je	 SHORT $L85840

; 54   : 				_Myistr.rdbuf()->_Lock();

  0002a	8b 4d fc	 mov	 ecx, DWORD PTR _this$[ebp]
  0002d	8b 11		 mov	 edx, DWORD PTR [ecx]
  0002f	8b 02		 mov	 eax, DWORD PTR [edx]
  00031	8b 4d fc	 mov	 ecx, DWORD PTR _this$[ebp]
  00034	8b 09		 mov	 ecx, DWORD PTR [ecx]
  00036	03 48 04	 add	 ecx, DWORD PTR [eax+4]
  00039	ff 15 00 00 00
	00		 call	 DWORD PTR __imp_?rdbuf@?$basic_ios@DU?$char_traits@D@std@@@std@@QBEPAV?$basic_streambuf@DU?$char_traits@D@std@@@2@XZ
  0003f	8b c8		 mov	 ecx, eax
  00041	ff 15 00 00 00
	00		 call	 DWORD PTR __imp_?_Lock@?$basic_streambuf@DU?$char_traits@D@std@@@std@@QAEXXZ
$L85840:

; 55   : 			}

  00047	8b 45 fc	 mov	 eax, DWORD PTR _this$[ebp]
  0004a	8b e5		 mov	 esp, ebp
  0004c	5d		 pop	 ebp
  0004d	c2 04 00	 ret	 4
??0_Sentry_base@?$basic_istream@DU?$char_traits@D@std@@@std@@QAE@AAV12@@Z ENDP ; std::basic_istream<char,std::char_traits<char> >::_Sentry_base::_Sentry_base
_TEXT	ENDS
PUBLIC	?_Psave@?$_Facetptr@V?$ctype@D@std@@@std@@2PBVfacet@locale@2@B ; std::_Facetptr<std::ctype<char> >::_Psave
PUBLIC	__TI2?AVbad_cast@@
PUBLIC	__CTA2?AVbad_cast@@
PUBLIC	??_R0?AVbad_cast@@@8				; bad_cast `RTTI Type Descriptor'
PUBLIC	__CT??_R0?AVbad_cast@@@8??0bad_cast@@QAE@ABV0@@Z12
PUBLIC	??_C@_08EPJLHIJG@bad?5cast?$AA@			; `string'
EXTRN	__imp_??0_Lockit@std@@QAE@H@Z:NEAR
EXTRN	__imp_??1_Lockit@std@@QAE@XZ:NEAR
EXTRN	__imp_??0bad_cast@@QAE@PBD@Z:NEAR
EXTRN	__imp_?id@?$ctype@D@std@@2V0locale@2@A:DWORD
EXTRN	__imp_?_Getcat@?$ctype@D@std@@SAIPAPBVfacet@locale@2@@Z:NEAR
EXTRN	__imp_??Bid@locale@std@@QAEIXZ:NEAR
EXTRN	__imp_?_Incref@facet@locale@std@@QAEXXZ:NEAR
EXTRN	__imp_?_Register@facet@locale@std@@QAEXXZ:NEAR
EXTRN	__imp_?_Getfacet@locale@std@@QBEPBVfacet@12@I@Z:NEAR
EXTRN	??0bad_cast@@QAE@ABV0@@Z:NEAR			; bad_cast::bad_cast
EXTRN	??1bad_cast@@UAE@XZ:NEAR			; bad_cast::~bad_cast
;	COMDAT ?_Psave@?$_Facetptr@V?$ctype@D@std@@@std@@2PBVfacet@locale@2@B
; File d:\program files (x86)\microsoft visual studio .net 2003\vc7\include\xlocale
_BSS	SEGMENT
?_Psave@?$_Facetptr@V?$ctype@D@std@@@std@@2PBVfacet@locale@2@B DD 01H DUP (?) ; std::_Facetptr<std::ctype<char> >::_Psave
_BSS	ENDS
;	COMDAT xdata$x
xdata$x	SEGMENT
$T88648	DD	0ffffffffH
	DD	FLAT:$L88644
$T88646	DD	019930520H
	DD	01H
	DD	FLAT:$T88648
	DD	2 DUP(00H)
	DD	2 DUP(00H)
xdata$x	ENDS
;	COMDAT ??_C@_08EPJLHIJG@bad?5cast?$AA@
CONST	SEGMENT
??_C@_08EPJLHIJG@bad?5cast?$AA@ DB 'bad cast', 00H	; `string'
CONST	ENDS
;	COMDAT __TI2?AVbad_cast@@
xdata$x	SEGMENT
__TI2?AVbad_cast@@ DD 00H
	DD	FLAT:??1bad_cast@@UAE@XZ
	DD	00H
	DD	FLAT:__CTA2?AVbad_cast@@
xdata$x	ENDS
;	COMDAT __CTA2?AVbad_cast@@
xdata$x	SEGMENT
__CTA2?AVbad_cast@@ DD 02H
	DD	FLAT:__CT??_R0?AVbad_cast@@@8??0bad_cast@@QAE@ABV0@@Z12
	DD	FLAT:__CT??_R0?AVexception@@@8??0exception@@QAE@ABV0@@Z12
xdata$x	ENDS
;	COMDAT __CT??_R0?AVbad_cast@@@8??0bad_cast@@QAE@ABV0@@Z12
xdata$x	SEGMENT
__CT??_R0?AVbad_cast@@@8??0bad_cast@@QAE@ABV0@@Z12 DD 00H
	DD	FLAT:??_R0?AVbad_cast@@@8
	DD	00H
	DD	0ffffffffH
	ORG $+4
	DD	0cH
	DD	FLAT:??0bad_cast@@QAE@ABV0@@Z
xdata$x	ENDS
;	COMDAT ??_R0?AVbad_cast@@@8
_DATA	SEGMENT
??_R0?AVbad_cast@@@8 DD FLAT:??_7type_info@@6B@		; bad_cast `RTTI Type Descriptor'
	DD	00H
	DB	'.?AVbad_cast@@', 00H
; Function compile flags: /Odt
_DATA	ENDS
;	COMDAT ??$use_facet@V?$ctype@D@std@@@std@@YAABV?$ctype@D@0@ABVlocale@0@@Z
_TEXT	SEGMENT
$T88643 = -48						; size = 4
$T88642 = -44						; size = 12
__Pfmod$86497 = -32					; size = 4
__Psave$ = -28						; size = 4
__Lock$ = -24						; size = 4
__Id$ = -20						; size = 4
__Pf$ = -16						; size = 4
__$EHRec$ = -12						; size = 12
__Loc$ = 8						; size = 4
??$use_facet@V?$ctype@D@std@@@std@@YAABV?$ctype@D@0@ABVlocale@0@@Z PROC NEAR ; std::use_facet<std::ctype<char> >, COMDAT

; 315  : 	{	// get facet reference from locale

  00000	55		 push	 ebp
  00001	8b ec		 mov	 ebp, esp
  00003	6a ff		 push	 -1
  00005	68 00 00 00 00	 push	 __ehhandler$??$use_facet@V?$ctype@D@std@@@std@@YAABV?$ctype@D@0@ABVlocale@0@@Z
  0000a	64 a1 00 00 00
	00		 mov	 eax, DWORD PTR fs:__except_list
  00010	50		 push	 eax
  00011	64 89 25 00 00
	00 00		 mov	 DWORD PTR fs:__except_list, esp
  00018	83 ec 24	 sub	 esp, 36			; 00000024H

; 316  : 	_Lockit _Lock(_LOCK_LOCALE);	// the thread lock, make get atomic

  0001b	6a 00		 push	 0
  0001d	8d 4d e8	 lea	 ecx, DWORD PTR __Lock$[ebp]
  00020	ff 15 00 00 00
	00		 call	 DWORD PTR __imp_??0_Lockit@std@@QAE@H@Z
  00026	c7 45 fc 00 00
	00 00		 mov	 DWORD PTR __$EHRec$[ebp+8], 0

; 317  : 	const locale::facet *_Psave =
; 318  : 		_Facetptr<_Facet>::_Psave;	// static pointer to lazy facet

  0002d	a1 00 00 00 00	 mov	 eax, DWORD PTR ?_Psave@?$_Facetptr@V?$ctype@D@std@@@std@@2PBVfacet@locale@2@B ; std::_Facetptr<std::ctype<char> >::_Psave
  00032	89 45 e4	 mov	 DWORD PTR __Psave$[ebp], eax

; 319  : 
; 320  : 	size_t _Id = _Facet::id;

  00035	8b 0d 00 00 00
	00		 mov	 ecx, DWORD PTR __imp_?id@?$ctype@D@std@@2V0locale@2@A
  0003b	ff 15 00 00 00
	00		 call	 DWORD PTR __imp_??Bid@locale@std@@QAEIXZ
  00041	89 45 ec	 mov	 DWORD PTR __Id$[ebp], eax

; 321  : 	const locale::facet *_Pf = _Loc._Getfacet(_Id);

  00044	8b 4d ec	 mov	 ecx, DWORD PTR __Id$[ebp]
  00047	51		 push	 ecx
  00048	8b 4d 08	 mov	 ecx, DWORD PTR __Loc$[ebp]
  0004b	ff 15 00 00 00
	00		 call	 DWORD PTR __imp_?_Getfacet@locale@std@@QBEPBVfacet@12@I@Z
  00051	89 45 f0	 mov	 DWORD PTR __Pf$[ebp], eax

; 322  : 
; 323  : 	if (_Pf != 0)

  00054	83 7d f0 00	 cmp	 DWORD PTR __Pf$[ebp], 0
  00058	74 02		 je	 SHORT $L86483

; 324  : 		;	// got facet from locale
; 325  : 	else if (_Psave != 0)

  0005a	eb 62		 jmp	 SHORT $L86484
$L86483:
  0005c	83 7d e4 00	 cmp	 DWORD PTR __Psave$[ebp], 0
  00060	74 08		 je	 SHORT $L86485

; 326  : 		_Pf = _Psave;	// lazy facet already allocated

  00062	8b 55 e4	 mov	 edx, DWORD PTR __Psave$[ebp]
  00065	89 55 f0	 mov	 DWORD PTR __Pf$[ebp], edx

; 327  : 	else if (_Facet::_Getcat(&_Psave) == (size_t)(-1))

  00068	eb 54		 jmp	 SHORT $L86484
$L86485:
  0006a	8d 45 e4	 lea	 eax, DWORD PTR __Psave$[ebp]
  0006d	50		 push	 eax
  0006e	ff 15 00 00 00
	00		 call	 DWORD PTR __imp_?_Getcat@?$ctype@D@std@@SAIPAPBVfacet@locale@2@@Z
  00074	83 c4 04	 add	 esp, 4
  00077	83 f8 ff	 cmp	 eax, -1
  0007a	75 1c		 jne	 SHORT $L86488

; 328  : 
; 329  :  #if _HAS_EXCEPTIONS
; 330  : 		throw bad_cast();	// lazy disallowed

  0007c	68 00 00 00 00	 push	 OFFSET FLAT:??_C@_08EPJLHIJG@bad?5cast?$AA@
  00081	8d 4d d4	 lea	 ecx, DWORD PTR $T88642[ebp]
  00084	ff 15 00 00 00
	00		 call	 DWORD PTR __imp_??0bad_cast@@QAE@PBD@Z
  0008a	68 00 00 00 00	 push	 OFFSET FLAT:__TI2?AVbad_cast@@
  0008f	8d 4d d4	 lea	 ecx, DWORD PTR $T88642[ebp]
  00092	51		 push	 ecx
  00093	e8 00 00 00 00	 call	 __CxxThrowException@8
$L86488:

; 331  : 
; 332  :  #else /* _HAS_EXCEPTIONS */
; 333  : 		abort();	// lazy disallowed
; 334  :  #endif /* _HAS_EXCEPTIONS */
; 335  : 
; 336  : 	else
; 337  : 		{	// queue up lazy facet for destruction
; 338  : 		_Pf = _Psave;

  00098	8b 55 e4	 mov	 edx, DWORD PTR __Psave$[ebp]
  0009b	89 55 f0	 mov	 DWORD PTR __Pf$[ebp], edx

; 339  : 		_Facetptr<_Facet>::_Psave = _Psave;

  0009e	8b 45 e4	 mov	 eax, DWORD PTR __Psave$[ebp]
  000a1	a3 00 00 00 00	 mov	 DWORD PTR ?_Psave@?$_Facetptr@V?$ctype@D@std@@@std@@2PBVfacet@locale@2@B, eax ; std::_Facetptr<std::ctype<char> >::_Psave

; 340  : 
; 341  : 		locale::facet *_Pfmod = (_Facet *)_Psave;

  000a6	8b 4d e4	 mov	 ecx, DWORD PTR __Psave$[ebp]
  000a9	89 4d e0	 mov	 DWORD PTR __Pfmod$86497[ebp], ecx

; 342  : 		_Pfmod->_Incref();

  000ac	8b 4d e0	 mov	 ecx, DWORD PTR __Pfmod$86497[ebp]
  000af	ff 15 00 00 00
	00		 call	 DWORD PTR __imp_?_Incref@facet@locale@std@@QAEXXZ

; 343  : 		_Pfmod->_Register();

  000b5	8b 4d e0	 mov	 ecx, DWORD PTR __Pfmod$86497[ebp]
  000b8	ff 15 00 00 00
	00		 call	 DWORD PTR __imp_?_Register@facet@locale@std@@QAEXXZ
$L86484:

; 344  : 		}
; 345  : 
; 346  : 	return ((const _Facet&)(*_Pf));	// should be dynamic_cast

  000be	8b 55 f0	 mov	 edx, DWORD PTR __Pf$[ebp]
  000c1	89 55 d0	 mov	 DWORD PTR $T88643[ebp], edx
  000c4	c7 45 fc ff ff
	ff ff		 mov	 DWORD PTR __$EHRec$[ebp+8], -1
  000cb	8d 4d e8	 lea	 ecx, DWORD PTR __Lock$[ebp]
  000ce	ff 15 00 00 00
	00		 call	 DWORD PTR __imp_??1_Lockit@std@@QAE@XZ
  000d4	8b 45 d0	 mov	 eax, DWORD PTR $T88643[ebp]
$L88641:

; 347  : 	}

  000d7	8b 4d f4	 mov	 ecx, DWORD PTR __$EHRec$[ebp]
  000da	64 89 0d 00 00
	00 00		 mov	 DWORD PTR fs:__except_list, ecx
  000e1	8b e5		 mov	 esp, ebp
  000e3	5d		 pop	 ebp
  000e4	c3		 ret	 0
_TEXT	ENDS
;	COMDAT text$x
text$x	SEGMENT
$L88644:
  00000	8d 4d e8	 lea	 ecx, DWORD PTR __Lock$[ebp]
  00003	ff 25 00 00 00
	00		 jmp	 DWORD PTR __imp_??1_Lockit@std@@QAE@XZ
__ehhandler$??$use_facet@V?$ctype@D@std@@@std@@YAABV?$ctype@D@0@ABVlocale@0@@Z:
  00009	b8 00 00 00 00	 mov	 eax, OFFSET FLAT:$T88646
  0000e	e9 00 00 00 00	 jmp	 ___CxxFrameHandler
text$x	ENDS
??$use_facet@V?$ctype@D@std@@@std@@YAABV?$ctype@D@0@ABVlocale@0@@Z ENDP ; std::use_facet<std::ctype<char> >
PUBLIC	??$getline@DU?$char_traits@D@std@@V?$allocator@D@2@@std@@YAAAV?$basic_istream@DU?$char_traits@D@std@@@0@AAV10@AAV?$basic_string@DU?$char_traits@D@std@@V?$allocator@D@2@@0@@Z ; std::getline<char,std::char_traits<char>,std::allocator<char> >
PUBLIC	??$getline@DU?$char_traits@D@std@@V?$allocator@D@2@@std@@YAAAV?$basic_istream@DU?$char_traits@D@std@@@0@AAV10@AAV?$basic_string@DU?$char_traits@D@std@@V?$allocator@D@2@@0@D@Z ; std::getline<char,std::char_traits<char>,std::allocator<char> >
EXTRN	__imp_?widen@?$basic_ios@DU?$char_traits@D@std@@@std@@QBEDD@Z:NEAR
; Function compile flags: /Odt
; File d:\program files (x86)\microsoft visual studio .net 2003\vc7\include\string
;	COMDAT ??$getline@DU?$char_traits@D@std@@V?$allocator@D@2@@std@@YAAAV?$basic_istream@DU?$char_traits@D@std@@@0@AAV10@AAV?$basic_string@DU?$char_traits@D@std@@V?$allocator@D@2@@0@@Z
_TEXT	SEGMENT
__Istr$ = 8						; size = 4
__Str$ = 12						; size = 4
??$getline@DU?$char_traits@D@std@@V?$allocator@D@2@@std@@YAAAV?$basic_istream@DU?$char_traits@D@std@@@0@AAV10@AAV?$basic_string@DU?$char_traits@D@std@@V?$allocator@D@2@@0@@Z PROC NEAR ; std::getline<char,std::char_traits<char>,std::allocator<char> >, COMDAT

; 528  : 	{	// get characters into string, discard newline

  00000	55		 push	 ebp
  00001	8b ec		 mov	 ebp, esp

; 529  : 	return (getline(_Istr, _Str, _Istr.widen('\n')));

  00003	6a 0a		 push	 10			; 0000000aH
  00005	8b 45 08	 mov	 eax, DWORD PTR __Istr$[ebp]
  00008	8b 08		 mov	 ecx, DWORD PTR [eax]
  0000a	8b 55 08	 mov	 edx, DWORD PTR __Istr$[ebp]
  0000d	03 51 04	 add	 edx, DWORD PTR [ecx+4]
  00010	8b ca		 mov	 ecx, edx
  00012	ff 15 00 00 00
	00		 call	 DWORD PTR __imp_?widen@?$basic_ios@DU?$char_traits@D@std@@@std@@QBEDD@Z
  00018	50		 push	 eax
  00019	8b 45 0c	 mov	 eax, DWORD PTR __Str$[ebp]
  0001c	50		 push	 eax
  0001d	8b 4d 08	 mov	 ecx, DWORD PTR __Istr$[ebp]
  00020	51		 push	 ecx
  00021	e8 00 00 00 00	 call	 ??$getline@DU?$char_traits@D@std@@V?$allocator@D@2@@std@@YAAAV?$basic_istream@DU?$char_traits@D@std@@@0@AAV10@AAV?$basic_string@DU?$char_traits@D@std@@V?$allocator@D@2@@0@D@Z ; std::getline<char,std::char_traits<char>,std::allocator<char> >
  00026	83 c4 0c	 add	 esp, 12			; 0000000cH

; 530  : 	}

  00029	5d		 pop	 ebp
  0002a	c3		 ret	 0
??$getline@DU?$char_traits@D@std@@V?$allocator@D@2@@std@@YAAAV?$basic_istream@DU?$char_traits@D@std@@@0@AAV10@AAV?$basic_string@DU?$char_traits@D@std@@V?$allocator@D@2@@0@@Z ENDP ; std::getline<char,std::char_traits<char>,std::allocator<char> >
_TEXT	ENDS
EXTRN	__imp_?size@?$basic_string@DU?$char_traits@D@std@@V?$allocator@D@2@@std@@QBEIXZ:NEAR
EXTRN	__imp_?to_int_type@?$char_traits@D@std@@SAHABD@Z:NEAR
EXTRN	__imp_?sbumpc@?$basic_streambuf@DU?$char_traits@D@std@@@std@@QAEHXZ:NEAR
;	COMDAT xdata$x
xdata$x	SEGMENT
$T88664	DD	0ffffffffH
	DD	FLAT:$L88660
	DD	00H
	DD	00H
	DD	00H
	DD	00H
$T88666	DD	00H
	DD	00H
	DD	00H
	DD	FLAT:$L88659
$T88665	DD	01H
	DD	01H
	DD	02H
	DD	01H
	DD	FLAT:$T88666
$T88662	DD	019930520H
	DD	03H
	DD	FLAT:$T88664
	DD	01H
	DD	FLAT:$T88665
	DD	2 DUP(00H)
; Function compile flags: /Odt
xdata$x	ENDS
;	COMDAT ??$getline@DU?$char_traits@D@std@@V?$allocator@D@2@@std@@YAAAV?$basic_istream@DU?$char_traits@D@std@@@0@AAV10@AAV?$basic_string@DU?$char_traits@D@std@@V?$allocator@D@2@@0@D@Z
_TEXT	SEGMENT
tv175 = -89						; size = 1
tv174 = -88						; size = 4
tv173 = -84						; size = 4
tv172 = -80						; size = 4
tv171 = -74						; size = 1
tv170 = -73						; size = 1
tv169 = -72						; size = 4
tv168 = -68						; size = 4
tv167 = -64						; size = 4
tv166 = -60						; size = 4
tv165 = -56						; size = 4
tv65 = -52						; size = 4
$T88657 = -48						; size = 4
$T88656 = -44						; size = 4
__Meta$86594 = -40					; size = 4
__Metadelim$86593 = -36					; size = 4
__Changed$ = -29					; size = 1
__Ok$ = -28						; size = 8
__State$ = -20						; size = 4
__$EHRec$ = -16						; size = 16
__Istr$ = 8						; size = 4
__Str$ = 12						; size = 4
__Delim$ = 16						; size = 1
??$getline@DU?$char_traits@D@std@@V?$allocator@D@2@@std@@YAAAV?$basic_istream@DU?$char_traits@D@std@@@0@AAV10@AAV?$basic_string@DU?$char_traits@D@std@@V?$allocator@D@2@@0@D@Z PROC NEAR ; std::getline<char,std::char_traits<char>,std::allocator<char> >, COMDAT

; 477  : 	{	// get characters into string, discard delimiter

  00000	55		 push	 ebp
  00001	8b ec		 mov	 ebp, esp
  00003	6a ff		 push	 -1
  00005	68 00 00 00 00	 push	 __ehhandler$??$getline@DU?$char_traits@D@std@@V?$allocator@D@2@@std@@YAAAV?$basic_istream@DU?$char_traits@D@std@@@0@AAV10@AAV?$basic_string@DU?$char_traits@D@std@@V?$allocator@D@2@@0@D@Z
  0000a	64 a1 00 00 00
	00		 mov	 eax, DWORD PTR fs:__except_list
  00010	50		 push	 eax
  00011	64 89 25 00 00
	00 00		 mov	 DWORD PTR fs:__except_list, esp
  00018	51		 push	 ecx
  00019	83 ec 4c	 sub	 esp, 76			; 0000004cH
  0001c	53		 push	 ebx
  0001d	56		 push	 esi
  0001e	57		 push	 edi
  0001f	89 65 f0	 mov	 DWORD PTR __$EHRec$[ebp], esp

; 478  : 	typedef basic_istream<_Elem, _Traits> _Myis;
; 479  : 	ios_base::iostate _State = ios_base::goodbit;

  00022	c7 45 ec 00 00
	00 00		 mov	 DWORD PTR __State$[ebp], 0

; 480  : 	bool _Changed = false;

  00029	c6 45 e3 00	 mov	 BYTE PTR __Changed$[ebp], 0

; 481  : 	const typename _Myis::sentry _Ok(_Istr, true);

  0002d	6a 01		 push	 1
  0002f	8b 45 08	 mov	 eax, DWORD PTR __Istr$[ebp]
  00032	50		 push	 eax
  00033	8d 4d e4	 lea	 ecx, DWORD PTR __Ok$[ebp]
  00036	e8 00 00 00 00	 call	 ??0sentry@?$basic_istream@DU?$char_traits@D@std@@@std@@QAE@AAV12@_N@Z ; std::basic_istream<char,std::char_traits<char> >::sentry::sentry
  0003b	c7 45 fc 00 00
	00 00		 mov	 DWORD PTR __$EHRec$[ebp+12], 0

; 482  : 
; 483  : 	if (_Ok)

  00042	8d 4d e4	 lea	 ecx, DWORD PTR __Ok$[ebp]
  00045	e8 00 00 00 00	 call	 ??Bsentry@?$basic_istream@DU?$char_traits@D@std@@@std@@QBE_NXZ ; std::basic_istream<char,std::char_traits<char> >::sentry::operator bool
  0004a	0f b6 c8	 movzx	 ecx, al
  0004d	85 c9		 test	 ecx, ecx
  0004f	0f 84 66 01 00
	00		 je	 $L88658

; 484  : 		{	// state okay, extract characters
; 485  : 		_TRY_IO_BEGIN

  00055	c6 45 fc 01	 mov	 BYTE PTR __$EHRec$[ebp+12], 1

; 486  : 		_Str.erase();

  00059	8b 15 00 00 00
	00		 mov	 edx, DWORD PTR __imp_?npos@?$basic_string@DU?$char_traits@D@std@@V?$allocator@D@2@@std@@2IB
  0005f	8b 02		 mov	 eax, DWORD PTR [edx]
  00061	50		 push	 eax
  00062	6a 00		 push	 0
  00064	8b 4d 0c	 mov	 ecx, DWORD PTR __Str$[ebp]
  00067	ff 15 00 00 00
	00		 call	 DWORD PTR __imp_?erase@?$basic_string@DU?$char_traits@D@std@@V?$allocator@D@2@@std@@QAEAAV12@II@Z

; 487  : 		const typename _Traits::int_type _Metadelim =
; 488  : 			_Traits::to_int_type(_Delim);

  0006d	8d 4d 10	 lea	 ecx, DWORD PTR __Delim$[ebp]
  00070	51		 push	 ecx
  00071	ff 15 00 00 00
	00		 call	 DWORD PTR __imp_?to_int_type@?$char_traits@D@std@@SAHABD@Z
  00077	83 c4 04	 add	 esp, 4
  0007a	89 45 cc	 mov	 DWORD PTR tv65[ebp], eax
  0007d	8b 55 cc	 mov	 edx, DWORD PTR tv65[ebp]
  00080	89 55 dc	 mov	 DWORD PTR __Metadelim$86593[ebp], edx

; 489  : 		typename _Traits::int_type _Meta = _Istr.rdbuf()->sgetc();

  00083	8b 45 08	 mov	 eax, DWORD PTR __Istr$[ebp]
  00086	8b 08		 mov	 ecx, DWORD PTR [eax]
  00088	8b 55 08	 mov	 edx, DWORD PTR __Istr$[ebp]
  0008b	03 51 04	 add	 edx, DWORD PTR [ecx+4]
  0008e	8b ca		 mov	 ecx, edx
  00090	ff 15 00 00 00
	00		 call	 DWORD PTR __imp_?rdbuf@?$basic_ios@DU?$char_traits@D@std@@@std@@QBEPAV?$basic_streambuf@DU?$char_traits@D@std@@@2@XZ
  00096	89 45 c8	 mov	 DWORD PTR tv165[ebp], eax
  00099	8b 4d c8	 mov	 ecx, DWORD PTR tv165[ebp]
  0009c	ff 15 00 00 00
	00		 call	 DWORD PTR __imp_?sgetc@?$basic_streambuf@DU?$char_traits@D@std@@@std@@QAEHXZ
  000a2	89 45 c4	 mov	 DWORD PTR tv166[ebp], eax
  000a5	8b 45 c4	 mov	 eax, DWORD PTR tv166[ebp]
  000a8	89 45 d8	 mov	 DWORD PTR __Meta$86594[ebp], eax

; 490  : 
; 491  : 		for (; ; _Meta = _Istr.rdbuf()->snextc())

  000ab	eb 26		 jmp	 SHORT $L86595
$L86596:
  000ad	8b 4d 08	 mov	 ecx, DWORD PTR __Istr$[ebp]
  000b0	8b 11		 mov	 edx, DWORD PTR [ecx]
  000b2	8b 4d 08	 mov	 ecx, DWORD PTR __Istr$[ebp]
  000b5	03 4a 04	 add	 ecx, DWORD PTR [edx+4]
  000b8	ff 15 00 00 00
	00		 call	 DWORD PTR __imp_?rdbuf@?$basic_ios@DU?$char_traits@D@std@@@std@@QBEPAV?$basic_streambuf@DU?$char_traits@D@std@@@2@XZ
  000be	89 45 c0	 mov	 DWORD PTR tv167[ebp], eax
  000c1	8b 4d c0	 mov	 ecx, DWORD PTR tv167[ebp]
  000c4	ff 15 00 00 00
	00		 call	 DWORD PTR __imp_?snextc@?$basic_streambuf@DU?$char_traits@D@std@@@std@@QAEHXZ
  000ca	89 45 bc	 mov	 DWORD PTR tv168[ebp], eax
  000cd	8b 45 bc	 mov	 eax, DWORD PTR tv168[ebp]
  000d0	89 45 d8	 mov	 DWORD PTR __Meta$86594[ebp], eax
$L86595:

; 492  : 			if (_Traits::eq_int_type(_Traits::eof(), _Meta))

  000d3	ff 15 00 00 00
	00		 call	 DWORD PTR __imp_?eof@?$char_traits@D@std@@SAHXZ
  000d9	89 45 b8	 mov	 DWORD PTR tv169[ebp], eax
  000dc	8b 4d b8	 mov	 ecx, DWORD PTR tv169[ebp]
  000df	89 4d d4	 mov	 DWORD PTR $T88656[ebp], ecx
  000e2	8d 55 d8	 lea	 edx, DWORD PTR __Meta$86594[ebp]
  000e5	52		 push	 edx
  000e6	8d 45 d4	 lea	 eax, DWORD PTR $T88656[ebp]
  000e9	50		 push	 eax
  000ea	ff 15 00 00 00
	00		 call	 DWORD PTR __imp_?eq_int_type@?$char_traits@D@std@@SA_NABH0@Z
  000f0	83 c4 08	 add	 esp, 8
  000f3	88 45 b7	 mov	 BYTE PTR tv170[ebp], al
  000f6	0f b6 4d b7	 movzx	 ecx, BYTE PTR tv170[ebp]
  000fa	85 c9		 test	 ecx, ecx
  000fc	74 0e		 je	 SHORT $L86599

; 493  : 				{	// end of file, quit
; 494  : 				_State |= ios_base::eofbit;

  000fe	8b 55 ec	 mov	 edx, DWORD PTR __State$[ebp]
  00101	83 ca 01	 or	 edx, 1
  00104	89 55 ec	 mov	 DWORD PTR __State$[ebp], edx

; 495  : 				break;

  00107	e9 92 00 00 00	 jmp	 $L86597
$L86599:

; 496  : 				}
; 497  : 			else if (_Traits::eq_int_type(_Meta, _Metadelim))

  0010c	8d 45 dc	 lea	 eax, DWORD PTR __Metadelim$86593[ebp]
  0010f	50		 push	 eax
  00110	8d 4d d8	 lea	 ecx, DWORD PTR __Meta$86594[ebp]
  00113	51		 push	 ecx
  00114	ff 15 00 00 00
	00		 call	 DWORD PTR __imp_?eq_int_type@?$char_traits@D@std@@SA_NABH0@Z
  0011a	83 c4 08	 add	 esp, 8
  0011d	88 45 b6	 mov	 BYTE PTR tv171[ebp], al
  00120	0f b6 55 b6	 movzx	 edx, BYTE PTR tv171[ebp]
  00124	85 d2		 test	 edx, edx
  00126	74 25		 je	 SHORT $L86601

; 498  : 				{	// got a delimiter, discard it and quit
; 499  : 				_Changed = true;

  00128	c6 45 e3 01	 mov	 BYTE PTR __Changed$[ebp], 1

; 500  : 				_Istr.rdbuf()->sbumpc();

  0012c	8b 45 08	 mov	 eax, DWORD PTR __Istr$[ebp]
  0012f	8b 08		 mov	 ecx, DWORD PTR [eax]
  00131	8b 55 08	 mov	 edx, DWORD PTR __Istr$[ebp]
  00134	03 51 04	 add	 edx, DWORD PTR [ecx+4]
  00137	8b ca		 mov	 ecx, edx
  00139	ff 15 00 00 00
	00		 call	 DWORD PTR __imp_?rdbuf@?$basic_ios@DU?$char_traits@D@std@@@std@@QBEPAV?$basic_streambuf@DU?$char_traits@D@std@@@2@XZ
  0013f	89 45 b0	 mov	 DWORD PTR tv172[ebp], eax
  00142	8b 4d b0	 mov	 ecx, DWORD PTR tv172[ebp]
  00145	ff 15 00 00 00
	00		 call	 DWORD PTR __imp_?sbumpc@?$basic_streambuf@DU?$char_traits@D@std@@@std@@QAEHXZ

; 501  : 				break;

  0014b	eb 51		 jmp	 SHORT $L86597
$L86601:

; 502  : 				}
; 503  : 			else if (_Str.max_size() <= _Str.size())

  0014d	8b 4d 0c	 mov	 ecx, DWORD PTR __Str$[ebp]
  00150	ff 15 00 00 00
	00		 call	 DWORD PTR __imp_?max_size@?$basic_string@DU?$char_traits@D@std@@V?$allocator@D@2@@std@@QBEIXZ
  00156	89 45 ac	 mov	 DWORD PTR tv173[ebp], eax
  00159	8b 4d 0c	 mov	 ecx, DWORD PTR __Str$[ebp]
  0015c	ff 15 00 00 00
	00		 call	 DWORD PTR __imp_?size@?$basic_string@DU?$char_traits@D@std@@V?$allocator@D@2@@std@@QBEIXZ
  00162	89 45 a8	 mov	 DWORD PTR tv174[ebp], eax
  00165	8b 45 ac	 mov	 eax, DWORD PTR tv173[ebp]
  00168	3b 45 a8	 cmp	 eax, DWORD PTR tv174[ebp]
  0016b	77 0b		 ja	 SHORT $L86603

; 504  : 				{	// string too large, quit
; 505  : 				_State |= ios_base::failbit;

  0016d	8b 4d ec	 mov	 ecx, DWORD PTR __State$[ebp]
  00170	83 c9 02	 or	 ecx, 2
  00173	89 4d ec	 mov	 DWORD PTR __State$[ebp], ecx

; 506  : 				break;

  00176	eb 26		 jmp	 SHORT $L86597
$L86603:

; 507  : 				}
; 508  : 			else
; 509  : 				{	// got a character, add it to string
; 510  : 				_Str += _Traits::to_char_type(_Meta);

  00178	8d 55 d8	 lea	 edx, DWORD PTR __Meta$86594[ebp]
  0017b	52		 push	 edx
  0017c	ff 15 00 00 00
	00		 call	 DWORD PTR __imp_?to_char_type@?$char_traits@D@std@@SADABH@Z
  00182	83 c4 04	 add	 esp, 4
  00185	88 45 a7	 mov	 BYTE PTR tv175[ebp], al
  00188	8a 45 a7	 mov	 al, BYTE PTR tv175[ebp]
  0018b	50		 push	 eax
  0018c	8b 4d 0c	 mov	 ecx, DWORD PTR __Str$[ebp]
  0018f	ff 15 00 00 00
	00		 call	 DWORD PTR __imp_??Y?$basic_string@DU?$char_traits@D@std@@V?$allocator@D@2@@std@@QAEAAV01@D@Z

; 511  : 				_Changed = true;

  00195	c6 45 e3 01	 mov	 BYTE PTR __Changed$[ebp], 1

; 512  : 				}

  00199	e9 0f ff ff ff	 jmp	 $L86596
$L86597:
  0019e	eb 1b		 jmp	 SHORT $L88658
$L88659:

; 513  : 		_CATCH_IO_(_Istr)

  001a0	6a 01		 push	 1
  001a2	6a 04		 push	 4
  001a4	8b 4d 08	 mov	 ecx, DWORD PTR __Istr$[ebp]
  001a7	8b 11		 mov	 edx, DWORD PTR [ecx]
  001a9	8b 4d 08	 mov	 ecx, DWORD PTR __Istr$[ebp]
  001ac	03 4a 04	 add	 ecx, DWORD PTR [edx+4]
  001af	ff 15 00 00 00
	00		 call	 DWORD PTR __imp_?setstate@?$basic_ios@DU?$char_traits@D@std@@@std@@QAEXH_N@Z
  001b5	b8 00 00 00 00	 mov	 eax, $L88658
  001ba	c3		 ret	 0
$L88658:
  001bb	c7 45 fc 00 00
	00 00		 mov	 DWORD PTR __$EHRec$[ebp+12], 0

; 514  : 		}
; 515  : 
; 516  : 	if (!_Changed)

  001c2	0f b6 45 e3	 movzx	 eax, BYTE PTR __Changed$[ebp]
  001c6	85 c0		 test	 eax, eax
  001c8	75 09		 jne	 SHORT $L86605

; 517  : 		_State |= ios_base::failbit;

  001ca	8b 4d ec	 mov	 ecx, DWORD PTR __State$[ebp]
  001cd	83 c9 02	 or	 ecx, 2
  001d0	89 4d ec	 mov	 DWORD PTR __State$[ebp], ecx
$L86605:

; 518  : 	_Istr.setstate(_State);

  001d3	6a 00		 push	 0
  001d5	8b 55 ec	 mov	 edx, DWORD PTR __State$[ebp]
  001d8	52		 push	 edx
  001d9	8b 45 08	 mov	 eax, DWORD PTR __Istr$[ebp]
  001dc	8b 08		 mov	 ecx, DWORD PTR [eax]
  001de	8b 55 08	 mov	 edx, DWORD PTR __Istr$[ebp]
  001e1	03 51 04	 add	 edx, DWORD PTR [ecx+4]
  001e4	8b ca		 mov	 ecx, edx
  001e6	ff 15 00 00 00
	00		 call	 DWORD PTR __imp_?setstate@?$basic_ios@DU?$char_traits@D@std@@@std@@QAEXH_N@Z

; 519  : 	return (_Istr);

  001ec	8b 45 08	 mov	 eax, DWORD PTR __Istr$[ebp]
  001ef	89 45 d0	 mov	 DWORD PTR $T88657[ebp], eax
  001f2	c7 45 fc ff ff
	ff ff		 mov	 DWORD PTR __$EHRec$[ebp+12], -1
  001f9	8d 4d e4	 lea	 ecx, DWORD PTR __Ok$[ebp]
  001fc	e8 00 00 00 00	 call	 ??1sentry@?$basic_istream@DU?$char_traits@D@std@@@std@@QAE@XZ
  00201	8b 45 d0	 mov	 eax, DWORD PTR $T88657[ebp]

; 520  : 	}

  00204	8b 4d f4	 mov	 ecx, DWORD PTR __$EHRec$[ebp+4]
  00207	64 89 0d 00 00
	00 00		 mov	 DWORD PTR fs:__except_list, ecx
  0020e	5f		 pop	 edi
  0020f	5e		 pop	 esi
  00210	5b		 pop	 ebx
  00211	8b e5		 mov	 esp, ebp
  00213	5d		 pop	 ebp
  00214	c3		 ret	 0
_TEXT	ENDS
;	COMDAT text$x
text$x	SEGMENT
$L88660:
  00000	8d 4d e4	 lea	 ecx, DWORD PTR __Ok$[ebp]
  00003	e9 00 00 00 00	 jmp	 ??1sentry@?$basic_istream@DU?$char_traits@D@std@@@std@@QAE@XZ
__ehhandler$??$getline@DU?$char_traits@D@std@@V?$allocator@D@2@@std@@YAAAV?$basic_istream@DU?$char_traits@D@std@@@0@AAV10@AAV?$basic_string@DU?$char_traits@D@std@@V?$allocator@D@2@@0@D@Z:
  00008	b8 00 00 00 00	 mov	 eax, OFFSET FLAT:$T88662
  0000d	e9 00 00 00 00	 jmp	 ___CxxFrameHandler
text$x	ENDS
??$getline@DU?$char_traits@D@std@@V?$allocator@D@2@@std@@YAAAV?$basic_istream@DU?$char_traits@D@std@@@0@AAV10@AAV?$basic_string@DU?$char_traits@D@std@@V?$allocator@D@2@@0@D@Z ENDP ; std::getline<char,std::char_traits<char>,std::allocator<char> >
PUBLIC	??$?6DU?$char_traits@D@std@@V?$allocator@D@1@@std@@YAAAV?$basic_ostream@DU?$char_traits@D@std@@@0@AAV10@ABV?$basic_string@DU?$char_traits@D@std@@V?$allocator@D@2@@0@@Z ; std::operator<<<char,std::char_traits<char>,std::allocator<char> >
PUBLIC	??0sentry@?$basic_ostream@DU?$char_traits@D@std@@@std@@QAE@AAV12@@Z ; std::basic_ostream<char,std::char_traits<char> >::sentry::sentry
PUBLIC	??1sentry@?$basic_ostream@DU?$char_traits@D@std@@@std@@QAE@XZ ; std::basic_ostream<char,std::char_traits<char> >::sentry::~sentry
PUBLIC	??Bsentry@?$basic_ostream@DU?$char_traits@D@std@@@std@@QBE_NXZ ; std::basic_ostream<char,std::char_traits<char> >::sentry::operator bool
EXTRN	__imp_?flags@ios_base@std@@QBEHXZ:NEAR
EXTRN	__imp_?sputc@?$basic_streambuf@DU?$char_traits@D@std@@@std@@QAEHD@Z:NEAR
EXTRN	__imp_?fill@?$basic_ios@DU?$char_traits@D@std@@@std@@QBEDXZ:NEAR
;	COMDAT xdata$x
xdata$x	SEGMENT
$T88686	DD	0ffffffffH
	DD	FLAT:$L88682
	DD	00H
	DD	00H
	DD	00H
	DD	00H
$T88688	DD	00H
	DD	00H
	DD	00H
	DD	FLAT:$L88681
$T88687	DD	01H
	DD	01H
	DD	02H
	DD	01H
	DD	FLAT:$T88688
$T88684	DD	019930520H
	DD	03H
	DD	FLAT:$T88686
	DD	01H
	DD	FLAT:$T88687
	DD	2 DUP(00H)
; Function compile flags: /Odt
xdata$x	ENDS
;	COMDAT ??$?6DU?$char_traits@D@std@@V?$allocator@D@1@@std@@YAAAV?$basic_ostream@DU?$char_traits@D@std@@@0@AAV10@ABV?$basic_string@DU?$char_traits@D@std@@V?$allocator@D@2@@0@@Z
_TEXT	SEGMENT
tv221 = -129						; size = 1
tv220 = -128						; size = 4
tv219 = -124						; size = 4
tv218 = -120						; size = 4
tv217 = -114						; size = 1
tv216 = -113						; size = 1
tv215 = -112						; size = 4
tv214 = -108						; size = 4
tv213 = -104						; size = 4
tv212 = -100						; size = 4
tv211 = -93						; size = 1
tv210 = -92						; size = 4
tv209 = -88						; size = 4
tv208 = -84						; size = 4
tv207 = -77						; size = 1
tv83 = -76						; size = 4
tv81 = -72						; size = 4
$T88679 = -68						; size = 4
$T88678 = -64						; size = 4
$T88677 = -60						; size = 4
$T88676 = -56						; size = 4
$T88675 = -52						; size = 4
$T88674 = -48						; size = 4
$T88673 = -44						; size = 4
__Count$86628 = -40					; size = 4
__Size$ = -36						; size = 4
__Ok$ = -32						; size = 8
__Pad$ = -24						; size = 4
__State$ = -20						; size = 4
__$EHRec$ = -16						; size = 16
__Ostr$ = 8						; size = 4
__Str$ = 12						; size = 4
??$?6DU?$char_traits@D@std@@V?$allocator@D@1@@std@@YAAAV?$basic_ostream@DU?$char_traits@D@std@@@0@AAV10@ABV?$basic_string@DU?$char_traits@D@std@@V?$allocator@D@2@@0@@Z PROC NEAR ; std::operator<<<char,std::char_traits<char>,std::allocator<char> >, COMDAT

; 538  : 	{	// insert a string

  00000	55		 push	 ebp
  00001	8b ec		 mov	 ebp, esp
  00003	6a ff		 push	 -1
  00005	68 00 00 00 00	 push	 __ehhandler$??$?6DU?$char_traits@D@std@@V?$allocator@D@1@@std@@YAAAV?$basic_ostream@DU?$char_traits@D@std@@@0@AAV10@ABV?$basic_string@DU?$char_traits@D@std@@V?$allocator@D@2@@0@@Z
  0000a	64 a1 00 00 00
	00		 mov	 eax, DWORD PTR fs:__except_list
  00010	50		 push	 eax
  00011	64 89 25 00 00
	00 00		 mov	 DWORD PTR fs:__except_list, esp
  00018	51		 push	 ecx
  00019	83 ec 74	 sub	 esp, 116		; 00000074H
  0001c	53		 push	 ebx
  0001d	56		 push	 esi
  0001e	57		 push	 edi
  0001f	89 65 f0	 mov	 DWORD PTR __$EHRec$[ebp], esp

; 539  : 	typedef basic_ostream<_Elem, _Traits> _Myos;
; 540  : 	typedef basic_string<_Elem, _Traits, _Alloc> _Mystr;
; 541  : 	typedef typename _Mystr::size_type _Mysizt;
; 542  : 
; 543  : 	ios_base::iostate _State = ios_base::goodbit;

  00022	c7 45 ec 00 00
	00 00		 mov	 DWORD PTR __State$[ebp], 0

; 544  : 	_Mysizt _Size = _Str.size();

  00029	8b 4d 0c	 mov	 ecx, DWORD PTR __Str$[ebp]
  0002c	ff 15 00 00 00
	00		 call	 DWORD PTR __imp_?size@?$basic_string@DU?$char_traits@D@std@@V?$allocator@D@2@@std@@QBEIXZ
  00032	89 45 dc	 mov	 DWORD PTR __Size$[ebp], eax

; 545  : 	_Mysizt _Pad = _Ostr.width() <= 0 || (_Mysizt)_Ostr.width() <= _Size
; 546  : 			? 0 : (_Mysizt)_Ostr.width() - _Size;

  00035	8b 45 08	 mov	 eax, DWORD PTR __Ostr$[ebp]
  00038	8b 08		 mov	 ecx, DWORD PTR [eax]
  0003a	8b 55 08	 mov	 edx, DWORD PTR __Ostr$[ebp]
  0003d	03 51 04	 add	 edx, DWORD PTR [ecx+4]
  00040	8b ca		 mov	 ecx, edx
  00042	ff 15 00 00 00
	00		 call	 DWORD PTR __imp_?width@ios_base@std@@QBEHXZ
  00048	85 c0		 test	 eax, eax
  0004a	7e 33		 jle	 SHORT $L88671
  0004c	8b 45 08	 mov	 eax, DWORD PTR __Ostr$[ebp]
  0004f	8b 08		 mov	 ecx, DWORD PTR [eax]
  00051	8b 55 08	 mov	 edx, DWORD PTR __Ostr$[ebp]
  00054	03 51 04	 add	 edx, DWORD PTR [ecx+4]
  00057	8b ca		 mov	 ecx, edx
  00059	ff 15 00 00 00
	00		 call	 DWORD PTR __imp_?width@ios_base@std@@QBEHXZ
  0005f	3b 45 dc	 cmp	 eax, DWORD PTR __Size$[ebp]
  00062	76 1b		 jbe	 SHORT $L88671
  00064	8b 45 08	 mov	 eax, DWORD PTR __Ostr$[ebp]
  00067	8b 08		 mov	 ecx, DWORD PTR [eax]
  00069	8b 55 08	 mov	 edx, DWORD PTR __Ostr$[ebp]
  0006c	03 51 04	 add	 edx, DWORD PTR [ecx+4]
  0006f	8b ca		 mov	 ecx, edx
  00071	ff 15 00 00 00
	00		 call	 DWORD PTR __imp_?width@ios_base@std@@QBEHXZ
  00077	2b 45 dc	 sub	 eax, DWORD PTR __Size$[ebp]
  0007a	89 45 b8	 mov	 DWORD PTR tv81[ebp], eax
  0007d	eb 07		 jmp	 SHORT $L88672
$L88671:
  0007f	c7 45 b8 00 00
	00 00		 mov	 DWORD PTR tv81[ebp], 0
$L88672:
  00086	8b 45 b8	 mov	 eax, DWORD PTR tv81[ebp]
  00089	89 45 e8	 mov	 DWORD PTR __Pad$[ebp], eax

; 547  : 	const typename _Myos::sentry _Ok(_Ostr);

  0008c	8b 4d 08	 mov	 ecx, DWORD PTR __Ostr$[ebp]
  0008f	51		 push	 ecx
  00090	8d 4d e0	 lea	 ecx, DWORD PTR __Ok$[ebp]
  00093	e8 00 00 00 00	 call	 ??0sentry@?$basic_ostream@DU?$char_traits@D@std@@@std@@QAE@AAV12@@Z ; std::basic_ostream<char,std::char_traits<char> >::sentry::sentry
  00098	c7 45 fc 00 00
	00 00		 mov	 DWORD PTR __$EHRec$[ebp+12], 0

; 548  : 
; 549  : 	if (!_Ok)

  0009f	8d 4d e0	 lea	 ecx, DWORD PTR __Ok$[ebp]
  000a2	e8 00 00 00 00	 call	 ??Bsentry@?$basic_ostream@DU?$char_traits@D@std@@@std@@QBE_NXZ ; std::basic_ostream<char,std::char_traits<char> >::sentry::operator bool
  000a7	0f b6 d0	 movzx	 edx, al
  000aa	85 d2		 test	 edx, edx
  000ac	75 0e		 jne	 SHORT $L86617

; 550  : 		_State |= ios_base::badbit;

  000ae	8b 45 ec	 mov	 eax, DWORD PTR __State$[ebp]
  000b1	83 c8 04	 or	 eax, 4
  000b4	89 45 ec	 mov	 DWORD PTR __State$[ebp], eax

; 551  : 	else

  000b7	e9 22 02 00 00	 jmp	 $L88680
$L86617:

; 552  : 		{	// state okay, insert characters
; 553  : 	_TRY_IO_BEGIN

  000bc	c6 45 fc 01	 mov	 BYTE PTR __$EHRec$[ebp+12], 1

; 554  : 		if ((_Ostr.flags() & ios_base::adjustfield) != ios_base::left)

  000c0	8b 4d 08	 mov	 ecx, DWORD PTR __Ostr$[ebp]
  000c3	8b 11		 mov	 edx, DWORD PTR [ecx]
  000c5	8b 4d 08	 mov	 ecx, DWORD PTR __Ostr$[ebp]
  000c8	03 4a 04	 add	 ecx, DWORD PTR [edx+4]
  000cb	ff 15 00 00 00
	00		 call	 DWORD PTR __imp_?flags@ios_base@std@@QBEHXZ
  000d1	89 45 b4	 mov	 DWORD PTR tv83[ebp], eax
  000d4	8b 45 b4	 mov	 eax, DWORD PTR tv83[ebp]
  000d7	25 c0 01 00 00	 and	 eax, 448		; 000001c0H
  000dc	83 f8 40	 cmp	 eax, 64			; 00000040H
  000df	0f 84 8a 00 00
	00		 je	 $L86620

; 555  : 			for (; 0 < _Pad; --_Pad)	// pad on left

  000e5	eb 09		 jmp	 SHORT $L86621
$L86622:
  000e7	8b 4d e8	 mov	 ecx, DWORD PTR __Pad$[ebp]
  000ea	83 e9 01	 sub	 ecx, 1
  000ed	89 4d e8	 mov	 DWORD PTR __Pad$[ebp], ecx
$L86621:
  000f0	83 7d e8 00	 cmp	 DWORD PTR __Pad$[ebp], 0
  000f4	76 79		 jbe	 SHORT $L86620

; 556  : 				if (_Traits::eq_int_type(_Traits::eof(),
; 557  : 					_Ostr.rdbuf()->sputc(_Ostr.fill())))

  000f6	8b 55 08	 mov	 edx, DWORD PTR __Ostr$[ebp]
  000f9	8b 02		 mov	 eax, DWORD PTR [edx]
  000fb	8b 4d 08	 mov	 ecx, DWORD PTR __Ostr$[ebp]
  000fe	03 48 04	 add	 ecx, DWORD PTR [eax+4]
  00101	ff 15 00 00 00
	00		 call	 DWORD PTR __imp_?fill@?$basic_ios@DU?$char_traits@D@std@@@std@@QBEDXZ
  00107	88 45 b3	 mov	 BYTE PTR tv207[ebp], al
  0010a	8b 4d 08	 mov	 ecx, DWORD PTR __Ostr$[ebp]
  0010d	8b 11		 mov	 edx, DWORD PTR [ecx]
  0010f	8b 4d 08	 mov	 ecx, DWORD PTR __Ostr$[ebp]
  00112	03 4a 04	 add	 ecx, DWORD PTR [edx+4]
  00115	ff 15 00 00 00
	00		 call	 DWORD PTR __imp_?rdbuf@?$basic_ios@DU?$char_traits@D@std@@@std@@QBEPAV?$basic_streambuf@DU?$char_traits@D@std@@@2@XZ
  0011b	89 45 ac	 mov	 DWORD PTR tv208[ebp], eax
  0011e	8a 45 b3	 mov	 al, BYTE PTR tv207[ebp]
  00121	50		 push	 eax
  00122	8b 4d ac	 mov	 ecx, DWORD PTR tv208[ebp]
  00125	ff 15 00 00 00
	00		 call	 DWORD PTR __imp_?sputc@?$basic_streambuf@DU?$char_traits@D@std@@@std@@QAEHD@Z
  0012b	89 45 a8	 mov	 DWORD PTR tv209[ebp], eax
  0012e	8b 4d a8	 mov	 ecx, DWORD PTR tv209[ebp]
  00131	89 4d d4	 mov	 DWORD PTR $T88673[ebp], ecx
  00134	ff 15 00 00 00
	00		 call	 DWORD PTR __imp_?eof@?$char_traits@D@std@@SAHXZ
  0013a	89 45 a4	 mov	 DWORD PTR tv210[ebp], eax
  0013d	8b 55 a4	 mov	 edx, DWORD PTR tv210[ebp]
  00140	89 55 d0	 mov	 DWORD PTR $T88674[ebp], edx
  00143	8d 45 d4	 lea	 eax, DWORD PTR $T88673[ebp]
  00146	50		 push	 eax
  00147	8d 4d d0	 lea	 ecx, DWORD PTR $T88674[ebp]
  0014a	51		 push	 ecx
  0014b	ff 15 00 00 00
	00		 call	 DWORD PTR __imp_?eq_int_type@?$char_traits@D@std@@SA_NABH0@Z
  00151	83 c4 08	 add	 esp, 8
  00154	88 45 a3	 mov	 BYTE PTR tv211[ebp], al
  00157	0f b6 55 a3	 movzx	 edx, BYTE PTR tv211[ebp]
  0015b	85 d2		 test	 edx, edx
  0015d	74 0b		 je	 SHORT $L86626

; 558  : 					{	// insertion failed, quit
; 559  : 					_State |= ios_base::badbit;

  0015f	8b 45 ec	 mov	 eax, DWORD PTR __State$[ebp]
  00162	83 c8 04	 or	 eax, 4
  00165	89 45 ec	 mov	 DWORD PTR __State$[ebp], eax

; 560  : 					break;

  00168	eb 05		 jmp	 SHORT $L86620
$L86626:

; 561  : 					}
; 562  : 
; 563  : 		if (_State == ios_base::goodbit)

  0016a	e9 78 ff ff ff	 jmp	 $L86622
$L86620:
  0016f	83 7d ec 00	 cmp	 DWORD PTR __State$[ebp], 0
  00173	0f 85 91 00 00
	00		 jne	 $L86627

; 564  : 			for (_Mysizt _Count = 0; _Count < _Size; ++_Count)

  00179	c7 45 d8 00 00
	00 00		 mov	 DWORD PTR __Count$86628[ebp], 0
  00180	eb 09		 jmp	 SHORT $L86629
$L86630:
  00182	8b 4d d8	 mov	 ecx, DWORD PTR __Count$86628[ebp]
  00185	83 c1 01	 add	 ecx, 1
  00188	89 4d d8	 mov	 DWORD PTR __Count$86628[ebp], ecx
$L86629:
  0018b	8b 55 d8	 mov	 edx, DWORD PTR __Count$86628[ebp]
  0018e	3b 55 dc	 cmp	 edx, DWORD PTR __Size$[ebp]
  00191	73 77		 jae	 SHORT $L86627

; 565  : 				if (_Traits::eq_int_type(_Traits::eof(),
; 566  : 					_Ostr.rdbuf()->sputc(_Str[_Count])))

  00193	8b 45 d8	 mov	 eax, DWORD PTR __Count$86628[ebp]
  00196	50		 push	 eax
  00197	8b 4d 0c	 mov	 ecx, DWORD PTR __Str$[ebp]
  0019a	ff 15 00 00 00
	00		 call	 DWORD PTR __imp_??A?$basic_string@DU?$char_traits@D@std@@V?$allocator@D@2@@std@@QBEABDI@Z
  001a0	89 45 9c	 mov	 DWORD PTR tv212[ebp], eax
  001a3	8b 4d 08	 mov	 ecx, DWORD PTR __Ostr$[ebp]
  001a6	8b 11		 mov	 edx, DWORD PTR [ecx]
  001a8	8b 4d 08	 mov	 ecx, DWORD PTR __Ostr$[ebp]
  001ab	03 4a 04	 add	 ecx, DWORD PTR [edx+4]
  001ae	ff 15 00 00 00
	00		 call	 DWORD PTR __imp_?rdbuf@?$basic_ios@DU?$char_traits@D@std@@@std@@QBEPAV?$basic_streambuf@DU?$char_traits@D@std@@@2@XZ
  001b4	89 45 98	 mov	 DWORD PTR tv213[ebp], eax
  001b7	8b 45 9c	 mov	 eax, DWORD PTR tv212[ebp]
  001ba	8a 08		 mov	 cl, BYTE PTR [eax]
  001bc	51		 push	 ecx
  001bd	8b 4d 98	 mov	 ecx, DWORD PTR tv213[ebp]
  001c0	ff 15 00 00 00
	00		 call	 DWORD PTR __imp_?sputc@?$basic_streambuf@DU?$char_traits@D@std@@@std@@QAEHD@Z
  001c6	89 45 94	 mov	 DWORD PTR tv214[ebp], eax
  001c9	8b 55 94	 mov	 edx, DWORD PTR tv214[ebp]
  001cc	89 55 cc	 mov	 DWORD PTR $T88675[ebp], edx
  001cf	ff 15 00 00 00
	00		 call	 DWORD PTR __imp_?eof@?$char_traits@D@std@@SAHXZ
  001d5	89 45 90	 mov	 DWORD PTR tv215[ebp], eax
  001d8	8b 45 90	 mov	 eax, DWORD PTR tv215[ebp]
  001db	89 45 c8	 mov	 DWORD PTR $T88676[ebp], eax
  001de	8d 4d cc	 lea	 ecx, DWORD PTR $T88675[ebp]
  001e1	51		 push	 ecx
  001e2	8d 55 c8	 lea	 edx, DWORD PTR $T88676[ebp]
  001e5	52		 push	 edx
  001e6	ff 15 00 00 00
	00		 call	 DWORD PTR __imp_?eq_int_type@?$char_traits@D@std@@SA_NABH0@Z
  001ec	83 c4 08	 add	 esp, 8
  001ef	88 45 8f	 mov	 BYTE PTR tv216[ebp], al
  001f2	0f b6 45 8f	 movzx	 eax, BYTE PTR tv216[ebp]
  001f6	85 c0		 test	 eax, eax
  001f8	74 0b		 je	 SHORT $L86634

; 567  : 					{	// insertion failed, quit
; 568  : 					_State |= ios_base::badbit;

  001fa	8b 4d ec	 mov	 ecx, DWORD PTR __State$[ebp]
  001fd	83 c9 04	 or	 ecx, 4
  00200	89 4d ec	 mov	 DWORD PTR __State$[ebp], ecx

; 569  : 					break;

  00203	eb 05		 jmp	 SHORT $L86627
$L86634:

; 570  : 					}
; 571  : 
; 572  : 		if (_State == ios_base::goodbit)

  00205	e9 78 ff ff ff	 jmp	 $L86630
$L86627:
  0020a	83 7d ec 00	 cmp	 DWORD PTR __State$[ebp], 0
  0020e	0f 85 98 00 00
	00		 jne	 $L86635

; 573  : 			for (; 0 < _Pad; --_Pad)	// pad on right

  00214	eb 09		 jmp	 SHORT $L86636
$L86637:
  00216	8b 55 e8	 mov	 edx, DWORD PTR __Pad$[ebp]
  00219	83 ea 01	 sub	 edx, 1
  0021c	89 55 e8	 mov	 DWORD PTR __Pad$[ebp], edx
$L86636:
  0021f	83 7d e8 00	 cmp	 DWORD PTR __Pad$[ebp], 0
  00223	0f 86 83 00 00
	00		 jbe	 $L86635

; 574  : 				if (_Traits::eq_int_type(_Traits::eof(),
; 575  : 					_Ostr.rdbuf()->sputc(_Ostr.fill())))

  00229	8b 45 08	 mov	 eax, DWORD PTR __Ostr$[ebp]
  0022c	8b 08		 mov	 ecx, DWORD PTR [eax]
  0022e	8b 55 08	 mov	 edx, DWORD PTR __Ostr$[ebp]
  00231	03 51 04	 add	 edx, DWORD PTR [ecx+4]
  00234	8b ca		 mov	 ecx, edx
  00236	ff 15 00 00 00
	00		 call	 DWORD PTR __imp_?fill@?$basic_ios@DU?$char_traits@D@std@@@std@@QBEDXZ
  0023c	88 45 8e	 mov	 BYTE PTR tv217[ebp], al
  0023f	8b 45 08	 mov	 eax, DWORD PTR __Ostr$[ebp]
  00242	8b 08		 mov	 ecx, DWORD PTR [eax]
  00244	8b 55 08	 mov	 edx, DWORD PTR __Ostr$[ebp]
  00247	03 51 04	 add	 edx, DWORD PTR [ecx+4]
  0024a	8b ca		 mov	 ecx, edx
  0024c	ff 15 00 00 00
	00		 call	 DWORD PTR __imp_?rdbuf@?$basic_ios@DU?$char_traits@D@std@@@std@@QBEPAV?$basic_streambuf@DU?$char_traits@D@std@@@2@XZ
  00252	89 45 88	 mov	 DWORD PTR tv218[ebp], eax
  00255	8a 45 8e	 mov	 al, BYTE PTR tv217[ebp]
  00258	50		 push	 eax
  00259	8b 4d 88	 mov	 ecx, DWORD PTR tv218[ebp]
  0025c	ff 15 00 00 00
	00		 call	 DWORD PTR __imp_?sputc@?$basic_streambuf@DU?$char_traits@D@std@@@std@@QAEHD@Z
  00262	89 45 84	 mov	 DWORD PTR tv219[ebp], eax
  00265	8b 4d 84	 mov	 ecx, DWORD PTR tv219[ebp]
  00268	89 4d c4	 mov	 DWORD PTR $T88677[ebp], ecx
  0026b	ff 15 00 00 00
	00		 call	 DWORD PTR __imp_?eof@?$char_traits@D@std@@SAHXZ
  00271	89 45 80	 mov	 DWORD PTR tv220[ebp], eax
  00274	8b 55 80	 mov	 edx, DWORD PTR tv220[ebp]
  00277	89 55 c0	 mov	 DWORD PTR $T88678[ebp], edx
  0027a	8d 45 c4	 lea	 eax, DWORD PTR $T88677[ebp]
  0027d	50		 push	 eax
  0027e	8d 4d c0	 lea	 ecx, DWORD PTR $T88678[ebp]
  00281	51		 push	 ecx
  00282	ff 15 00 00 00
	00		 call	 DWORD PTR __imp_?eq_int_type@?$char_traits@D@std@@SA_NABH0@Z
  00288	83 c4 08	 add	 esp, 8
  0028b	88 85 7f ff ff
	ff		 mov	 BYTE PTR tv221[ebp], al
  00291	0f b6 95 7f ff
	ff ff		 movzx	 edx, BYTE PTR tv221[ebp]
  00298	85 d2		 test	 edx, edx
  0029a	74 0b		 je	 SHORT $L86641

; 576  : 					{	// insertion failed, quit
; 577  : 					_State |= ios_base::badbit;

  0029c	8b 45 ec	 mov	 eax, DWORD PTR __State$[ebp]
  0029f	83 c8 04	 or	 eax, 4
  002a2	89 45 ec	 mov	 DWORD PTR __State$[ebp], eax

; 578  : 					break;

  002a5	eb 05		 jmp	 SHORT $L86635
$L86641:

; 579  : 					}
; 580  : 		_Ostr.width(0);

  002a7	e9 6a ff ff ff	 jmp	 $L86637
$L86635:
  002ac	6a 00		 push	 0
  002ae	8b 4d 08	 mov	 ecx, DWORD PTR __Ostr$[ebp]
  002b1	8b 11		 mov	 edx, DWORD PTR [ecx]
  002b3	8b 4d 08	 mov	 ecx, DWORD PTR __Ostr$[ebp]
  002b6	03 4a 04	 add	 ecx, DWORD PTR [edx+4]
  002b9	ff 15 00 00 00
	00		 call	 DWORD PTR __imp_?width@ios_base@std@@QAEHH@Z
  002bf	eb 1d		 jmp	 SHORT $L88680
$L88681:

; 581  : 		_CATCH_IO_(_Ostr)

  002c1	6a 01		 push	 1
  002c3	6a 04		 push	 4
  002c5	8b 45 08	 mov	 eax, DWORD PTR __Ostr$[ebp]
  002c8	8b 08		 mov	 ecx, DWORD PTR [eax]
  002ca	8b 55 08	 mov	 edx, DWORD PTR __Ostr$[ebp]
  002cd	03 51 04	 add	 edx, DWORD PTR [ecx+4]
  002d0	8b ca		 mov	 ecx, edx
  002d2	ff 15 00 00 00
	00		 call	 DWORD PTR __imp_?setstate@?$basic_ios@DU?$char_traits@D@std@@@std@@QAEXH_N@Z
  002d8	b8 00 00 00 00	 mov	 eax, $L88680
  002dd	c3		 ret	 0
$L88680:
  002de	c7 45 fc 00 00
	00 00		 mov	 DWORD PTR __$EHRec$[ebp+12], 0

; 582  : 		}
; 583  : 
; 584  : 	_Ostr.setstate(_State);

  002e5	6a 00		 push	 0
  002e7	8b 45 ec	 mov	 eax, DWORD PTR __State$[ebp]
  002ea	50		 push	 eax
  002eb	8b 4d 08	 mov	 ecx, DWORD PTR __Ostr$[ebp]
  002ee	8b 11		 mov	 edx, DWORD PTR [ecx]
  002f0	8b 4d 08	 mov	 ecx, DWORD PTR __Ostr$[ebp]
  002f3	03 4a 04	 add	 ecx, DWORD PTR [edx+4]
  002f6	ff 15 00 00 00
	00		 call	 DWORD PTR __imp_?setstate@?$basic_ios@DU?$char_traits@D@std@@@std@@QAEXH_N@Z

; 585  : 	return (_Ostr);

  002fc	8b 45 08	 mov	 eax, DWORD PTR __Ostr$[ebp]
  002ff	89 45 bc	 mov	 DWORD PTR $T88679[ebp], eax
  00302	c7 45 fc ff ff
	ff ff		 mov	 DWORD PTR __$EHRec$[ebp+12], -1
  00309	8d 4d e0	 lea	 ecx, DWORD PTR __Ok$[ebp]
  0030c	e8 00 00 00 00	 call	 ??1sentry@?$basic_ostream@DU?$char_traits@D@std@@@std@@QAE@XZ ; std::basic_ostream<char,std::char_traits<char> >::sentry::~sentry
  00311	8b 45 bc	 mov	 eax, DWORD PTR $T88679[ebp]

; 586  : 	}

  00314	8b 4d f4	 mov	 ecx, DWORD PTR __$EHRec$[ebp+4]
  00317	64 89 0d 00 00
	00 00		 mov	 DWORD PTR fs:__except_list, ecx
  0031e	5f		 pop	 edi
  0031f	5e		 pop	 esi
  00320	5b		 pop	 ebx
  00321	8b e5		 mov	 esp, ebp
  00323	5d		 pop	 ebp
  00324	c3		 ret	 0
_TEXT	ENDS
;	COMDAT text$x
text$x	SEGMENT
$L88682:
  00000	8d 4d e0	 lea	 ecx, DWORD PTR __Ok$[ebp]
  00003	e9 00 00 00 00	 jmp	 ??1sentry@?$basic_ostream@DU?$char_traits@D@std@@@std@@QAE@XZ ; std::basic_ostream<char,std::char_traits<char> >::sentry::~sentry
__ehhandler$??$?6DU?$char_traits@D@std@@V?$allocator@D@1@@std@@YAAAV?$basic_ostream@DU?$char_traits@D@std@@@0@AAV10@ABV?$basic_string@DU?$char_traits@D@std@@V?$allocator@D@2@@0@@Z:
  00008	b8 00 00 00 00	 mov	 eax, OFFSET FLAT:$T88684
  0000d	e9 00 00 00 00	 jmp	 ___CxxFrameHandler
text$x	ENDS
??$?6DU?$char_traits@D@std@@V?$allocator@D@1@@std@@YAAAV?$basic_ostream@DU?$char_traits@D@std@@@0@AAV10@ABV?$basic_string@DU?$char_traits@D@std@@V?$allocator@D@2@@0@@Z ENDP ; std::operator<<<char,std::char_traits<char>,std::allocator<char> >
PUBLIC	??0_Sentry_base@?$basic_ostream@DU?$char_traits@D@std@@@std@@QAE@AAV12@@Z ; std::basic_ostream<char,std::char_traits<char> >::_Sentry_base::_Sentry_base
PUBLIC	??1_Sentry_base@?$basic_ostream@DU?$char_traits@D@std@@@std@@QAE@XZ ; std::basic_ostream<char,std::char_traits<char> >::_Sentry_base::~_Sentry_base
EXTRN	__imp_?good@ios_base@std@@QBE_NXZ:NEAR
EXTRN	__imp_?flush@?$basic_ostream@DU?$char_traits@D@std@@@std@@QAEAAV12@XZ:NEAR
EXTRN	__imp_?tie@?$basic_ios@DU?$char_traits@D@std@@@std@@QBEPAV?$basic_ostream@DU?$char_traits@D@std@@@2@XZ:NEAR
;	COMDAT xdata$x
; File d:\program files (x86)\microsoft visual studio .net 2003\vc7\include\ostream
xdata$x	SEGMENT
$T88697	DD	0ffffffffH
	DD	FLAT:$L88693
$T88695	DD	019930520H
	DD	01H
	DD	FLAT:$T88697
	DD	2 DUP(00H)
	DD	2 DUP(00H)
; Function compile flags: /Odt
xdata$x	ENDS
;	COMDAT ??0sentry@?$basic_ostream@DU?$char_traits@D@std@@@std@@QAE@AAV12@@Z
_TEXT	SEGMENT
_this$ = -16						; size = 4
__$EHRec$ = -12						; size = 12
__Ostr$ = 8						; size = 4
??0sentry@?$basic_ostream@DU?$char_traits@D@std@@@std@@QAE@AAV12@@Z PROC NEAR ; std::basic_ostream<char,std::char_traits<char> >::sentry::sentry, COMDAT
; _this$ = ecx

; 88   : 			{	// construct locking and testing stream

  00000	55		 push	 ebp
  00001	8b ec		 mov	 ebp, esp
  00003	6a ff		 push	 -1
  00005	68 00 00 00 00	 push	 __ehhandler$??0sentry@?$basic_ostream@DU?$char_traits@D@std@@@std@@QAE@AAV12@@Z
  0000a	64 a1 00 00 00
	00		 mov	 eax, DWORD PTR fs:__except_list
  00010	50		 push	 eax
  00011	64 89 25 00 00
	00 00		 mov	 DWORD PTR fs:__except_list, esp
  00018	51		 push	 ecx
  00019	89 4d f0	 mov	 DWORD PTR _this$[ebp], ecx
  0001c	8b 45 08	 mov	 eax, DWORD PTR __Ostr$[ebp]
  0001f	50		 push	 eax
  00020	8b 4d f0	 mov	 ecx, DWORD PTR _this$[ebp]
  00023	e8 00 00 00 00	 call	 ??0_Sentry_base@?$basic_ostream@DU?$char_traits@D@std@@@std@@QAE@AAV12@@Z ; std::basic_ostream<char,std::char_traits<char> >::_Sentry_base::_Sentry_base
  00028	c7 45 fc 00 00
	00 00		 mov	 DWORD PTR __$EHRec$[ebp+8], 0

; 89   : 			if (_Ostr.good() && _Ostr.tie() != 0)

  0002f	8b 4d 08	 mov	 ecx, DWORD PTR __Ostr$[ebp]
  00032	8b 11		 mov	 edx, DWORD PTR [ecx]
  00034	8b 4d 08	 mov	 ecx, DWORD PTR __Ostr$[ebp]
  00037	03 4a 04	 add	 ecx, DWORD PTR [edx+4]
  0003a	ff 15 00 00 00
	00		 call	 DWORD PTR __imp_?good@ios_base@std@@QBE_NXZ
  00040	0f b6 c0	 movzx	 eax, al
  00043	85 c0		 test	 eax, eax
  00045	74 30		 je	 SHORT $L85904
  00047	8b 4d 08	 mov	 ecx, DWORD PTR __Ostr$[ebp]
  0004a	8b 11		 mov	 edx, DWORD PTR [ecx]
  0004c	8b 4d 08	 mov	 ecx, DWORD PTR __Ostr$[ebp]
  0004f	03 4a 04	 add	 ecx, DWORD PTR [edx+4]
  00052	ff 15 00 00 00
	00		 call	 DWORD PTR __imp_?tie@?$basic_ios@DU?$char_traits@D@std@@@std@@QBEPAV?$basic_ostream@DU?$char_traits@D@std@@@2@XZ
  00058	85 c0		 test	 eax, eax
  0005a	74 1b		 je	 SHORT $L85904

; 90   : 				_Ostr.tie()->flush();

  0005c	8b 45 08	 mov	 eax, DWORD PTR __Ostr$[ebp]
  0005f	8b 08		 mov	 ecx, DWORD PTR [eax]
  00061	8b 55 08	 mov	 edx, DWORD PTR __Ostr$[ebp]
  00064	03 51 04	 add	 edx, DWORD PTR [ecx+4]
  00067	8b ca		 mov	 ecx, edx
  00069	ff 15 00 00 00
	00		 call	 DWORD PTR __imp_?tie@?$basic_ios@DU?$char_traits@D@std@@@std@@QBEPAV?$basic_ostream@DU?$char_traits@D@std@@@2@XZ
  0006f	8b c8		 mov	 ecx, eax
  00071	ff 15 00 00 00
	00		 call	 DWORD PTR __imp_?flush@?$basic_ostream@DU?$char_traits@D@std@@@std@@QAEAAV12@XZ
$L85904:

; 91   : 			_Ok = _Ostr.good();	// store test only after flushing tie

  00077	8b 45 08	 mov	 eax, DWORD PTR __Ostr$[ebp]
  0007a	8b 08		 mov	 ecx, DWORD PTR [eax]
  0007c	8b 55 08	 mov	 edx, DWORD PTR __Ostr$[ebp]
  0007f	03 51 04	 add	 edx, DWORD PTR [ecx+4]
  00082	8b ca		 mov	 ecx, edx
  00084	ff 15 00 00 00
	00		 call	 DWORD PTR __imp_?good@ios_base@std@@QBE_NXZ
  0008a	8b 4d f0	 mov	 ecx, DWORD PTR _this$[ebp]
  0008d	88 41 04	 mov	 BYTE PTR [ecx+4], al

; 92   : 			}

  00090	c7 45 fc ff ff
	ff ff		 mov	 DWORD PTR __$EHRec$[ebp+8], -1
  00097	8b 45 f0	 mov	 eax, DWORD PTR _this$[ebp]
  0009a	8b 4d f4	 mov	 ecx, DWORD PTR __$EHRec$[ebp]
  0009d	64 89 0d 00 00
	00 00		 mov	 DWORD PTR fs:__except_list, ecx
  000a4	8b e5		 mov	 esp, ebp
  000a6	5d		 pop	 ebp
  000a7	c2 04 00	 ret	 4
_TEXT	ENDS
;	COMDAT text$x
text$x	SEGMENT
$L88693:
  00000	8b 4d f0	 mov	 ecx, DWORD PTR _this$[ebp]
  00003	e9 00 00 00 00	 jmp	 ??1_Sentry_base@?$basic_ostream@DU?$char_traits@D@std@@@std@@QAE@XZ ; std::basic_ostream<char,std::char_traits<char> >::_Sentry_base::~_Sentry_base
__ehhandler$??0sentry@?$basic_ostream@DU?$char_traits@D@std@@@std@@QAE@AAV12@@Z:
  00008	b8 00 00 00 00	 mov	 eax, OFFSET FLAT:$T88695
  0000d	e9 00 00 00 00	 jmp	 ___CxxFrameHandler
text$x	ENDS
??0sentry@?$basic_ostream@DU?$char_traits@D@std@@@std@@QAE@AAV12@@Z ENDP ; std::basic_ostream<char,std::char_traits<char> >::sentry::sentry
EXTRN	__imp_?_Osfx@?$basic_ostream@DU?$char_traits@D@std@@@std@@QAEXXZ:NEAR
EXTRN	__imp_?uncaught_exception@std@@YA_NXZ:NEAR
;	COMDAT xdata$x
xdata$x	SEGMENT
$T88706	DD	0ffffffffH
	DD	FLAT:$L88702
$T88704	DD	019930520H
	DD	01H
	DD	FLAT:$T88706
	DD	2 DUP(00H)
	DD	2 DUP(00H)
; Function compile flags: /Odt
xdata$x	ENDS
;	COMDAT ??1sentry@?$basic_ostream@DU?$char_traits@D@std@@@std@@QAE@XZ
_TEXT	SEGMENT
_this$ = -16						; size = 4
__$EHRec$ = -12						; size = 12
??1sentry@?$basic_ostream@DU?$char_traits@D@std@@@std@@QAE@XZ PROC NEAR ; std::basic_ostream<char,std::char_traits<char> >::sentry::~sentry, COMDAT
; _this$ = ecx

; 95   : 			{	// destroy the object

  00000	55		 push	 ebp
  00001	8b ec		 mov	 ebp, esp
  00003	6a ff		 push	 -1
  00005	68 00 00 00 00	 push	 __ehhandler$??1sentry@?$basic_ostream@DU?$char_traits@D@std@@@std@@QAE@XZ
  0000a	64 a1 00 00 00
	00		 mov	 eax, DWORD PTR fs:__except_list
  00010	50		 push	 eax
  00011	64 89 25 00 00
	00 00		 mov	 DWORD PTR fs:__except_list, esp
  00018	51		 push	 ecx
  00019	89 4d f0	 mov	 DWORD PTR _this$[ebp], ecx
  0001c	c7 45 fc 00 00
	00 00		 mov	 DWORD PTR __$EHRec$[ebp+8], 0

; 96   : 
; 97   :  #if _HAS_EXCEPTIONS
; 98   : 			if (!uncaught_exception())

  00023	ff 15 00 00 00
	00		 call	 DWORD PTR __imp_?uncaught_exception@std@@YA_NXZ
  00029	0f b6 c0	 movzx	 eax, al
  0002c	85 c0		 test	 eax, eax
  0002e	75 0b		 jne	 SHORT $L85906

; 99   : 				this->_Myostr._Osfx();

  00030	8b 4d f0	 mov	 ecx, DWORD PTR _this$[ebp]
  00033	8b 09		 mov	 ecx, DWORD PTR [ecx]
  00035	ff 15 00 00 00
	00		 call	 DWORD PTR __imp_?_Osfx@?$basic_ostream@DU?$char_traits@D@std@@@std@@QAEXXZ
$L85906:

; 100  : 			}

  0003b	c7 45 fc ff ff
	ff ff		 mov	 DWORD PTR __$EHRec$[ebp+8], -1
  00042	8b 4d f0	 mov	 ecx, DWORD PTR _this$[ebp]
  00045	e8 00 00 00 00	 call	 ??1_Sentry_base@?$basic_ostream@DU?$char_traits@D@std@@@std@@QAE@XZ ; std::basic_ostream<char,std::char_traits<char> >::_Sentry_base::~_Sentry_base
  0004a	8b 4d f4	 mov	 ecx, DWORD PTR __$EHRec$[ebp]
  0004d	64 89 0d 00 00
	00 00		 mov	 DWORD PTR fs:__except_list, ecx
  00054	8b e5		 mov	 esp, ebp
  00056	5d		 pop	 ebp
  00057	c3		 ret	 0
_TEXT	ENDS
;	COMDAT text$x
text$x	SEGMENT
$L88702:
  00000	8b 4d f0	 mov	 ecx, DWORD PTR _this$[ebp]
  00003	e9 00 00 00 00	 jmp	 ??1_Sentry_base@?$basic_ostream@DU?$char_traits@D@std@@@std@@QAE@XZ ; std::basic_ostream<char,std::char_traits<char> >::_Sentry_base::~_Sentry_base
__ehhandler$??1sentry@?$basic_ostream@DU?$char_traits@D@std@@@std@@QAE@XZ:
  00008	b8 00 00 00 00	 mov	 eax, OFFSET FLAT:$T88704
  0000d	e9 00 00 00 00	 jmp	 ___CxxFrameHandler
text$x	ENDS
??1sentry@?$basic_ostream@DU?$char_traits@D@std@@@std@@QAE@XZ ENDP ; std::basic_ostream<char,std::char_traits<char> >::sentry::~sentry
; Function compile flags: /Odt
;	COMDAT ??Bsentry@?$basic_ostream@DU?$char_traits@D@std@@@std@@QBE_NXZ
_TEXT	SEGMENT
_this$ = -4						; size = 4
??Bsentry@?$basic_ostream@DU?$char_traits@D@std@@@std@@QBE_NXZ PROC NEAR ; std::basic_ostream<char,std::char_traits<char> >::sentry::operator bool, COMDAT
; _this$ = ecx

; 108  : 			{	// test if stream state okay

  00000	55		 push	 ebp
  00001	8b ec		 mov	 ebp, esp
  00003	51		 push	 ecx
  00004	89 4d fc	 mov	 DWORD PTR _this$[ebp], ecx

; 109  : 			return (_Ok);

  00007	8b 45 fc	 mov	 eax, DWORD PTR _this$[ebp]
  0000a	8a 40 04	 mov	 al, BYTE PTR [eax+4]

; 110  : 			}

  0000d	8b e5		 mov	 esp, ebp
  0000f	5d		 pop	 ebp
  00010	c3		 ret	 0
??Bsentry@?$basic_ostream@DU?$char_traits@D@std@@@std@@QBE_NXZ ENDP ; std::basic_ostream<char,std::char_traits<char> >::sentry::operator bool
; Function compile flags: /Odt
_TEXT	ENDS
;	COMDAT ??0_Sentry_base@?$basic_ostream@DU?$char_traits@D@std@@@std@@QAE@AAV12@@Z
_TEXT	SEGMENT
_this$ = -4						; size = 4
__Ostr$ = 8						; size = 4
??0_Sentry_base@?$basic_ostream@DU?$char_traits@D@std@@@std@@QAE@AAV12@@Z PROC NEAR ; std::basic_ostream<char,std::char_traits<char> >::_Sentry_base::_Sentry_base, COMDAT
; _this$ = ecx

; 68   : 			{	// lock the stream buffer, if there

  00000	55		 push	 ebp
  00001	8b ec		 mov	 ebp, esp
  00003	51		 push	 ecx
  00004	89 4d fc	 mov	 DWORD PTR _this$[ebp], ecx
  00007	8b 45 fc	 mov	 eax, DWORD PTR _this$[ebp]
  0000a	8b 4d 08	 mov	 ecx, DWORD PTR __Ostr$[ebp]
  0000d	89 08		 mov	 DWORD PTR [eax], ecx

; 69   : 			if (_Myostr.rdbuf() != 0)

  0000f	8b 55 fc	 mov	 edx, DWORD PTR _this$[ebp]
  00012	8b 02		 mov	 eax, DWORD PTR [edx]
  00014	8b 08		 mov	 ecx, DWORD PTR [eax]
  00016	8b 55 fc	 mov	 edx, DWORD PTR _this$[ebp]
  00019	8b 02		 mov	 eax, DWORD PTR [edx]
  0001b	03 41 04	 add	 eax, DWORD PTR [ecx+4]
  0001e	8b c8		 mov	 ecx, eax
  00020	ff 15 00 00 00
	00		 call	 DWORD PTR __imp_?rdbuf@?$basic_ios@DU?$char_traits@D@std@@@std@@QBEPAV?$basic_streambuf@DU?$char_traits@D@std@@@2@XZ
  00026	85 c0		 test	 eax, eax
  00028	74 1d		 je	 SHORT $L86223

; 70   : 				_Myostr.rdbuf()->_Lock();

  0002a	8b 4d fc	 mov	 ecx, DWORD PTR _this$[ebp]
  0002d	8b 11		 mov	 edx, DWORD PTR [ecx]
  0002f	8b 02		 mov	 eax, DWORD PTR [edx]
  00031	8b 4d fc	 mov	 ecx, DWORD PTR _this$[ebp]
  00034	8b 09		 mov	 ecx, DWORD PTR [ecx]
  00036	03 48 04	 add	 ecx, DWORD PTR [eax+4]
  00039	ff 15 00 00 00
	00		 call	 DWORD PTR __imp_?rdbuf@?$basic_ios@DU?$char_traits@D@std@@@std@@QBEPAV?$basic_streambuf@DU?$char_traits@D@std@@@2@XZ
  0003f	8b c8		 mov	 ecx, eax
  00041	ff 15 00 00 00
	00		 call	 DWORD PTR __imp_?_Lock@?$basic_streambuf@DU?$char_traits@D@std@@@std@@QAEXXZ
$L86223:

; 71   : 			}

  00047	8b 45 fc	 mov	 eax, DWORD PTR _this$[ebp]
  0004a	8b e5		 mov	 esp, ebp
  0004c	5d		 pop	 ebp
  0004d	c2 04 00	 ret	 4
??0_Sentry_base@?$basic_ostream@DU?$char_traits@D@std@@@std@@QAE@AAV12@@Z ENDP ; std::basic_ostream<char,std::char_traits<char> >::_Sentry_base::_Sentry_base
; Function compile flags: /Odt
_TEXT	ENDS
;	COMDAT ??1_Sentry_base@?$basic_ostream@DU?$char_traits@D@std@@@std@@QAE@XZ
_TEXT	SEGMENT
_this$ = -4						; size = 4
??1_Sentry_base@?$basic_ostream@DU?$char_traits@D@std@@@std@@QAE@XZ PROC NEAR ; std::basic_ostream<char,std::char_traits<char> >::_Sentry_base::~_Sentry_base, COMDAT
; _this$ = ecx

; 74   : 			{	// destroy after unlocking

  00000	55		 push	 ebp
  00001	8b ec		 mov	 ebp, esp
  00003	51		 push	 ecx
  00004	89 4d fc	 mov	 DWORD PTR _this$[ebp], ecx

; 75   : 			if (_Myostr.rdbuf() != 0)

  00007	8b 45 fc	 mov	 eax, DWORD PTR _this$[ebp]
  0000a	8b 08		 mov	 ecx, DWORD PTR [eax]
  0000c	8b 11		 mov	 edx, DWORD PTR [ecx]
  0000e	8b 45 fc	 mov	 eax, DWORD PTR _this$[ebp]
  00011	8b 08		 mov	 ecx, DWORD PTR [eax]
  00013	03 4a 04	 add	 ecx, DWORD PTR [edx+4]
  00016	ff 15 00 00 00
	00		 call	 DWORD PTR __imp_?rdbuf@?$basic_ios@DU?$char_traits@D@std@@@std@@QBEPAV?$basic_streambuf@DU?$char_traits@D@std@@@2@XZ
  0001c	85 c0		 test	 eax, eax
  0001e	74 1d		 je	 SHORT $L86226

; 76   : 				_Myostr.rdbuf()->_Unlock();

  00020	8b 4d fc	 mov	 ecx, DWORD PTR _this$[ebp]
  00023	8b 11		 mov	 edx, DWORD PTR [ecx]
  00025	8b 02		 mov	 eax, DWORD PTR [edx]
  00027	8b 4d fc	 mov	 ecx, DWORD PTR _this$[ebp]
  0002a	8b 09		 mov	 ecx, DWORD PTR [ecx]
  0002c	03 48 04	 add	 ecx, DWORD PTR [eax+4]
  0002f	ff 15 00 00 00
	00		 call	 DWORD PTR __imp_?rdbuf@?$basic_ios@DU?$char_traits@D@std@@@std@@QBEPAV?$basic_streambuf@DU?$char_traits@D@std@@@2@XZ
  00035	8b c8		 mov	 ecx, eax
  00037	ff 15 00 00 00
	00		 call	 DWORD PTR __imp_?_Unlock@?$basic_streambuf@DU?$char_traits@D@std@@@std@@QAEXXZ
$L86226:

; 77   : 			}

  0003d	8b e5		 mov	 esp, ebp
  0003f	5d		 pop	 ebp
  00040	c3		 ret	 0
??1_Sentry_base@?$basic_ostream@DU?$char_traits@D@std@@@std@@QAE@XZ ENDP ; std::basic_ostream<char,std::char_traits<char> >::_Sentry_base::~_Sentry_base
_TEXT	ENDS
PUBLIC	??$?5_WU?$char_traits@_W@std@@V?$allocator@_W@1@@std@@YAAAV?$basic_istream@_WU?$char_traits@_W@std@@@0@AAV10@AAV?$basic_string@_WU?$char_traits@_W@std@@V?$allocator@_W@2@@0@@Z ; std::operator>><wchar_t,std::char_traits<wchar_t>,std::allocator<wchar_t> >
PUBLIC	??0sentry@?$basic_istream@_WU?$char_traits@_W@std@@@std@@QAE@AAV12@_N@Z ; std::basic_istream<wchar_t,std::char_traits<wchar_t> >::sentry::sentry
PUBLIC	??Bsentry@?$basic_istream@_WU?$char_traits@_W@std@@@std@@QBE_NXZ ; std::basic_istream<wchar_t,std::char_traits<wchar_t> >::sentry::operator bool
PUBLIC	??1sentry@?$basic_istream@_WU?$char_traits@_W@std@@@std@@QAE@XZ ; std::basic_istream<wchar_t,std::char_traits<wchar_t> >::sentry::~sentry
PUBLIC	??$use_facet@V?$ctype@_W@std@@@std@@YAABV?$ctype@_W@0@ABVlocale@0@@Z ; std::use_facet<std::ctype<wchar_t> >
EXTRN	__imp_?to_char_type@?$char_traits@_W@std@@SA_WABG@Z:NEAR
EXTRN	__imp_?eq_int_type@?$char_traits@_W@std@@SA_NABG0@Z:NEAR
EXTRN	__imp_?eof@?$char_traits@_W@std@@SAGXZ:NEAR
EXTRN	__imp_?is@?$ctype@_W@std@@QBE_NF_W@Z:NEAR
EXTRN	__imp_?sgetc@?$basic_streambuf@_WU?$char_traits@_W@std@@@std@@QAEGXZ:NEAR
EXTRN	__imp_?snextc@?$basic_streambuf@_WU?$char_traits@_W@std@@@std@@QAEGXZ:NEAR
EXTRN	__imp_?npos@?$basic_string@_WU?$char_traits@_W@std@@V?$allocator@_W@2@@std@@2IB:DWORD
EXTRN	__imp_?append@?$basic_string@_WU?$char_traits@_W@std@@V?$allocator@_W@2@@std@@QAEAAV12@I_W@Z:NEAR
EXTRN	__imp_?erase@?$basic_string@_WU?$char_traits@_W@std@@V?$allocator@_W@2@@std@@QAEAAV12@II@Z:NEAR
EXTRN	__imp_?max_size@?$basic_string@_WU?$char_traits@_W@std@@V?$allocator@_W@2@@std@@QBEIXZ:NEAR
EXTRN	__imp_?setstate@?$basic_ios@_WU?$char_traits@_W@std@@@std@@QAEXH_N@Z:NEAR
EXTRN	__imp_?rdbuf@?$basic_ios@_WU?$char_traits@_W@std@@@std@@QBEPAV?$basic_streambuf@_WU?$char_traits@_W@std@@@2@XZ:NEAR
;	COMDAT xdata$x
; File d:\program files (x86)\microsoft visual studio .net 2003\vc7\include\string
xdata$x	SEGMENT
$T88729	DD	0ffffffffH
	DD	FLAT:$L88724
	DD	00H
	DD	FLAT:$L88725
	DD	00H
	DD	00H
	DD	00H
	DD	00H
$T88731	DD	00H
	DD	00H
	DD	00H
	DD	FLAT:$L88723
$T88730	DD	02H
	DD	02H
	DD	03H
	DD	01H
	DD	FLAT:$T88731
$T88727	DD	019930520H
	DD	04H
	DD	FLAT:$T88729
	DD	01H
	DD	FLAT:$T88730
	DD	2 DUP(00H)
; Function compile flags: /Odt
xdata$x	ENDS
;	COMDAT ??$?5_WU?$char_traits@_W@std@@V?$allocator@_W@1@@std@@YAAAV?$basic_istream@_WU?$char_traits@_W@std@@@0@AAV10@AAV?$basic_string@_WU?$char_traits@_W@std@@V?$allocator@_W@2@@0@@Z
_TEXT	SEGMENT
tv205 = -112						; size = 2
tv204 = -109						; size = 1
tv203 = -108						; size = 2
tv202 = -105						; size = 1
tv201 = -104						; size = 2
tv200 = -102						; size = 2
tv199 = -100						; size = 4
tv198 = -94						; size = 2
tv197 = -92						; size = 4
tv196 = -88						; size = 4
tv135 = -84						; size = 4
tv195 = -80						; size = 4
tv194 = -76						; size = 4
tv193 = -72						; size = 4
tv192 = -68						; size = 4
tv189 = -64						; size = 4
tv65 = -60						; size = 4
$T88721 = -56						; size = 4
$T88720 = -50						; size = 2
$T88717 = -48						; size = 4
__Meta$86658 = -44					; size = 2
__Size$86655 = -40					; size = 4
__Ctype_fac$86652 = -36					; size = 4
__Changed$ = -29					; size = 1
__Ok$ = -28						; size = 8
__State$ = -20						; size = 4
__$EHRec$ = -16						; size = 16
__Istr$ = 8						; size = 4
__Str$ = 12						; size = 4
??$?5_WU?$char_traits@_W@std@@V?$allocator@_W@1@@std@@YAAAV?$basic_istream@_WU?$char_traits@_W@std@@@0@AAV10@AAV?$basic_string@_WU?$char_traits@_W@std@@V?$allocator@_W@2@@0@@Z PROC NEAR ; std::operator>><wchar_t,std::char_traits<wchar_t>,std::allocator<wchar_t> >, COMDAT

; 425  : 	{	// extract a string

  00000	55		 push	 ebp
  00001	8b ec		 mov	 ebp, esp
  00003	6a ff		 push	 -1
  00005	68 00 00 00 00	 push	 __ehhandler$??$?5_WU?$char_traits@_W@std@@V?$allocator@_W@1@@std@@YAAAV?$basic_istream@_WU?$char_traits@_W@std@@@0@AAV10@AAV?$basic_string@_WU?$char_traits@_W@std@@V?$allocator@_W@2@@0@@Z
  0000a	64 a1 00 00 00
	00		 mov	 eax, DWORD PTR fs:__except_list
  00010	50		 push	 eax
  00011	64 89 25 00 00
	00 00		 mov	 DWORD PTR fs:__except_list, esp
  00018	51		 push	 ecx
  00019	83 ec 60	 sub	 esp, 96			; 00000060H
  0001c	53		 push	 ebx
  0001d	56		 push	 esi
  0001e	57		 push	 edi
  0001f	89 65 f0	 mov	 DWORD PTR __$EHRec$[ebp], esp

; 426  : 	typedef ctype<_Elem> _Ctype;
; 427  : 	typedef basic_istream<_Elem, _Traits> _Myis;
; 428  : 	typedef basic_string<_Elem, _Traits, _Alloc> _Mystr;
; 429  : 	typedef typename _Mystr::size_type _Mysizt;
; 430  : 
; 431  : 	ios_base::iostate _State = ios_base::goodbit;

  00022	c7 45 ec 00 00
	00 00		 mov	 DWORD PTR __State$[ebp], 0

; 432  : 	bool _Changed = false;

  00029	c6 45 e3 00	 mov	 BYTE PTR __Changed$[ebp], 0

; 433  : 	const typename _Myis::sentry _Ok(_Istr);

  0002d	6a 00		 push	 0
  0002f	8b 45 08	 mov	 eax, DWORD PTR __Istr$[ebp]
  00032	50		 push	 eax
  00033	8d 4d e4	 lea	 ecx, DWORD PTR __Ok$[ebp]
  00036	e8 00 00 00 00	 call	 ??0sentry@?$basic_istream@_WU?$char_traits@_W@std@@@std@@QAE@AAV12@_N@Z ; std::basic_istream<wchar_t,std::char_traits<wchar_t> >::sentry::sentry
  0003b	c7 45 fc 00 00
	00 00		 mov	 DWORD PTR __$EHRec$[ebp+12], 0

; 434  : 
; 435  : 	if (_Ok)

  00042	8d 4d e4	 lea	 ecx, DWORD PTR __Ok$[ebp]
  00045	e8 00 00 00 00	 call	 ??Bsentry@?$basic_istream@_WU?$char_traits@_W@std@@@std@@QBE_NXZ ; std::basic_istream<wchar_t,std::char_traits<wchar_t> >::sentry::operator bool
  0004a	0f b6 c8	 movzx	 ecx, al
  0004d	85 c9		 test	 ecx, ecx
  0004f	0f 84 e9 01 00
	00		 je	 $L88722

; 436  : 		{	// state okay, extract characters
; 437  : 		const _Ctype& _Ctype_fac = _USE(_Istr.getloc(), _Ctype);

  00055	8d 55 d0	 lea	 edx, DWORD PTR $T88717[ebp]
  00058	52		 push	 edx
  00059	8b 45 08	 mov	 eax, DWORD PTR __Istr$[ebp]
  0005c	8b 08		 mov	 ecx, DWORD PTR [eax]
  0005e	8b 55 08	 mov	 edx, DWORD PTR __Istr$[ebp]
  00061	03 51 04	 add	 edx, DWORD PTR [ecx+4]
  00064	8b ca		 mov	 ecx, edx
  00066	ff 15 00 00 00
	00		 call	 DWORD PTR __imp_?getloc@ios_base@std@@QBE?AVlocale@2@XZ
  0006c	89 45 c4	 mov	 DWORD PTR tv65[ebp], eax
  0006f	8b 45 c4	 mov	 eax, DWORD PTR tv65[ebp]
  00072	89 45 c0	 mov	 DWORD PTR tv189[ebp], eax
  00075	c6 45 fc 01	 mov	 BYTE PTR __$EHRec$[ebp+12], 1
  00079	8b 4d c0	 mov	 ecx, DWORD PTR tv189[ebp]
  0007c	51		 push	 ecx
  0007d	e8 00 00 00 00	 call	 ??$use_facet@V?$ctype@_W@std@@@std@@YAABV?$ctype@_W@0@ABVlocale@0@@Z ; std::use_facet<std::ctype<wchar_t> >
  00082	83 c4 04	 add	 esp, 4
  00085	89 45 dc	 mov	 DWORD PTR __Ctype_fac$86652[ebp], eax
  00088	c6 45 fc 00	 mov	 BYTE PTR __$EHRec$[ebp+12], 0
  0008c	8d 4d d0	 lea	 ecx, DWORD PTR $T88717[ebp]
  0008f	ff 15 00 00 00
	00		 call	 DWORD PTR __imp_??1locale@std@@QAE@XZ

; 438  : 		_Str.erase();

  00095	8b 15 00 00 00
	00		 mov	 edx, DWORD PTR __imp_?npos@?$basic_string@_WU?$char_traits@_W@std@@V?$allocator@_W@2@@std@@2IB
  0009b	8b 02		 mov	 eax, DWORD PTR [edx]
  0009d	50		 push	 eax
  0009e	6a 00		 push	 0
  000a0	8b 4d 0c	 mov	 ecx, DWORD PTR __Str$[ebp]
  000a3	ff 15 00 00 00
	00		 call	 DWORD PTR __imp_?erase@?$basic_string@_WU?$char_traits@_W@std@@V?$allocator@_W@2@@std@@QAEAAV12@II@Z

; 439  : 
; 440  : 		_TRY_IO_BEGIN

  000a9	c6 45 fc 02	 mov	 BYTE PTR __$EHRec$[ebp+12], 2

; 441  : 		_Mysizt _Size = 0 < _Istr.width()
; 442  : 			&& (_Mysizt)_Istr.width() < _Str.max_size()
; 443  : 				? (_Mysizt)_Istr.width() : _Str.max_size();

  000ad	8b 4d 08	 mov	 ecx, DWORD PTR __Istr$[ebp]
  000b0	8b 11		 mov	 edx, DWORD PTR [ecx]
  000b2	8b 4d 08	 mov	 ecx, DWORD PTR __Istr$[ebp]
  000b5	03 4a 04	 add	 ecx, DWORD PTR [edx+4]
  000b8	ff 15 00 00 00
	00		 call	 DWORD PTR __imp_?width@ios_base@std@@QBEHXZ
  000be	89 45 bc	 mov	 DWORD PTR tv192[ebp], eax
  000c1	83 7d bc 00	 cmp	 DWORD PTR tv192[ebp], 0
  000c5	7e 46		 jle	 SHORT $L88718
  000c7	8b 45 08	 mov	 eax, DWORD PTR __Istr$[ebp]
  000ca	8b 08		 mov	 ecx, DWORD PTR [eax]
  000cc	8b 55 08	 mov	 edx, DWORD PTR __Istr$[ebp]
  000cf	03 51 04	 add	 edx, DWORD PTR [ecx+4]
  000d2	8b ca		 mov	 ecx, edx
  000d4	ff 15 00 00 00
	00		 call	 DWORD PTR __imp_?width@ios_base@std@@QBEHXZ
  000da	89 45 b8	 mov	 DWORD PTR tv193[ebp], eax
  000dd	8b 4d 0c	 mov	 ecx, DWORD PTR __Str$[ebp]
  000e0	ff 15 00 00 00
	00		 call	 DWORD PTR __imp_?max_size@?$basic_string@_WU?$char_traits@_W@std@@V?$allocator@_W@2@@std@@QBEIXZ
  000e6	89 45 b4	 mov	 DWORD PTR tv194[ebp], eax
  000e9	8b 45 b8	 mov	 eax, DWORD PTR tv193[ebp]
  000ec	3b 45 b4	 cmp	 eax, DWORD PTR tv194[ebp]
  000ef	73 1c		 jae	 SHORT $L88718
  000f1	8b 4d 08	 mov	 ecx, DWORD PTR __Istr$[ebp]
  000f4	8b 11		 mov	 edx, DWORD PTR [ecx]
  000f6	8b 4d 08	 mov	 ecx, DWORD PTR __Istr$[ebp]
  000f9	03 4a 04	 add	 ecx, DWORD PTR [edx+4]
  000fc	ff 15 00 00 00
	00		 call	 DWORD PTR __imp_?width@ios_base@std@@QBEHXZ
  00102	89 45 b0	 mov	 DWORD PTR tv195[ebp], eax
  00105	8b 45 b0	 mov	 eax, DWORD PTR tv195[ebp]
  00108	89 45 ac	 mov	 DWORD PTR tv135[ebp], eax
  0010b	eb 12		 jmp	 SHORT $L88719
$L88718:
  0010d	8b 4d 0c	 mov	 ecx, DWORD PTR __Str$[ebp]
  00110	ff 15 00 00 00
	00		 call	 DWORD PTR __imp_?max_size@?$basic_string@_WU?$char_traits@_W@std@@V?$allocator@_W@2@@std@@QBEIXZ
  00116	89 45 a8	 mov	 DWORD PTR tv196[ebp], eax
  00119	8b 4d a8	 mov	 ecx, DWORD PTR tv196[ebp]
  0011c	89 4d ac	 mov	 DWORD PTR tv135[ebp], ecx
$L88719:
  0011f	8b 55 ac	 mov	 edx, DWORD PTR tv135[ebp]
  00122	89 55 d8	 mov	 DWORD PTR __Size$86655[ebp], edx

; 444  : 		typename _Traits::int_type _Meta = _Istr.rdbuf()->sgetc();

  00125	8b 45 08	 mov	 eax, DWORD PTR __Istr$[ebp]
  00128	8b 08		 mov	 ecx, DWORD PTR [eax]
  0012a	8b 55 08	 mov	 edx, DWORD PTR __Istr$[ebp]
  0012d	03 51 04	 add	 edx, DWORD PTR [ecx+4]
  00130	8b ca		 mov	 ecx, edx
  00132	ff 15 00 00 00
	00		 call	 DWORD PTR __imp_?rdbuf@?$basic_ios@_WU?$char_traits@_W@std@@@std@@QBEPAV?$basic_streambuf@_WU?$char_traits@_W@std@@@2@XZ
  00138	89 45 a4	 mov	 DWORD PTR tv197[ebp], eax
  0013b	8b 4d a4	 mov	 ecx, DWORD PTR tv197[ebp]
  0013e	ff 15 00 00 00
	00		 call	 DWORD PTR __imp_?sgetc@?$basic_streambuf@_WU?$char_traits@_W@std@@@std@@QAEGXZ
  00144	66 89 45 a2	 mov	 WORD PTR tv198[ebp], ax
  00148	66 8b 45 a2	 mov	 ax, WORD PTR tv198[ebp]
  0014c	66 89 45 d4	 mov	 WORD PTR __Meta$86658[ebp], ax

; 445  : 
; 446  : 		for (; 0 < _Size; --_Size, _Meta = _Istr.rdbuf()->snextc())

  00150	eb 32		 jmp	 SHORT $L86659
$L86660:
  00152	8b 4d d8	 mov	 ecx, DWORD PTR __Size$86655[ebp]
  00155	83 e9 01	 sub	 ecx, 1
  00158	89 4d d8	 mov	 DWORD PTR __Size$86655[ebp], ecx
  0015b	8b 55 08	 mov	 edx, DWORD PTR __Istr$[ebp]
  0015e	8b 02		 mov	 eax, DWORD PTR [edx]
  00160	8b 4d 08	 mov	 ecx, DWORD PTR __Istr$[ebp]
  00163	03 48 04	 add	 ecx, DWORD PTR [eax+4]
  00166	ff 15 00 00 00
	00		 call	 DWORD PTR __imp_?rdbuf@?$basic_ios@_WU?$char_traits@_W@std@@@std@@QBEPAV?$basic_streambuf@_WU?$char_traits@_W@std@@@2@XZ
  0016c	89 45 9c	 mov	 DWORD PTR tv199[ebp], eax
  0016f	8b 4d 9c	 mov	 ecx, DWORD PTR tv199[ebp]
  00172	ff 15 00 00 00
	00		 call	 DWORD PTR __imp_?snextc@?$basic_streambuf@_WU?$char_traits@_W@std@@@std@@QAEGXZ
  00178	66 89 45 9a	 mov	 WORD PTR tv200[ebp], ax
  0017c	66 8b 4d 9a	 mov	 cx, WORD PTR tv200[ebp]
  00180	66 89 4d d4	 mov	 WORD PTR __Meta$86658[ebp], cx
$L86659:
  00184	83 7d d8 00	 cmp	 DWORD PTR __Size$86655[ebp], 0
  00188	0f 86 91 00 00
	00		 jbe	 $L86661

; 447  : 			if(_Traits::eq_int_type(_Traits::eof(), _Meta))

  0018e	ff 15 00 00 00
	00		 call	 DWORD PTR __imp_?eof@?$char_traits@_W@std@@SAGXZ
  00194	66 89 45 98	 mov	 WORD PTR tv201[ebp], ax
  00198	66 8b 55 98	 mov	 dx, WORD PTR tv201[ebp]
  0019c	66 89 55 ce	 mov	 WORD PTR $T88720[ebp], dx
  001a0	8d 45 d4	 lea	 eax, DWORD PTR __Meta$86658[ebp]
  001a3	50		 push	 eax
  001a4	8d 4d ce	 lea	 ecx, DWORD PTR $T88720[ebp]
  001a7	51		 push	 ecx
  001a8	ff 15 00 00 00
	00		 call	 DWORD PTR __imp_?eq_int_type@?$char_traits@_W@std@@SA_NABG0@Z
  001ae	83 c4 08	 add	 esp, 8
  001b1	88 45 97	 mov	 BYTE PTR tv202[ebp], al
  001b4	0f b6 55 97	 movzx	 edx, BYTE PTR tv202[ebp]
  001b8	85 d2		 test	 edx, edx
  001ba	74 0b		 je	 SHORT $L86663

; 448  : 				{	// end of file, quit
; 449  : 				_State |= ios_base::eofbit;

  001bc	8b 45 ec	 mov	 eax, DWORD PTR __State$[ebp]
  001bf	83 c8 01	 or	 eax, 1
  001c2	89 45 ec	 mov	 DWORD PTR __State$[ebp], eax

; 450  : 				break;

  001c5	eb 58		 jmp	 SHORT $L86661
$L86663:

; 451  : 				}
; 452  : 			else if (_Ctype_fac.is(_Ctype::space,
; 453  : 				_Traits::to_char_type(_Meta)))

  001c7	8d 4d d4	 lea	 ecx, DWORD PTR __Meta$86658[ebp]
  001ca	51		 push	 ecx
  001cb	ff 15 00 00 00
	00		 call	 DWORD PTR __imp_?to_char_type@?$char_traits@_W@std@@SA_WABG@Z
  001d1	83 c4 04	 add	 esp, 4
  001d4	66 89 45 94	 mov	 WORD PTR tv203[ebp], ax
  001d8	66 8b 55 94	 mov	 dx, WORD PTR tv203[ebp]
  001dc	52		 push	 edx
  001dd	6a 48		 push	 72			; 00000048H
  001df	8b 4d dc	 mov	 ecx, DWORD PTR __Ctype_fac$86652[ebp]
  001e2	ff 15 00 00 00
	00		 call	 DWORD PTR __imp_?is@?$ctype@_W@std@@QBE_NF_W@Z
  001e8	88 45 93	 mov	 BYTE PTR tv204[ebp], al
  001eb	0f b6 45 93	 movzx	 eax, BYTE PTR tv204[ebp]
  001ef	85 c0		 test	 eax, eax
  001f1	74 02		 je	 SHORT $L86665

; 454  : 				break;	// whitespace, quit

  001f3	eb 2a		 jmp	 SHORT $L86661
$L86665:

; 455  : 			else
; 456  : 				{	// add character to string
; 457  : 				_Str.append(1, _Traits::to_char_type(_Meta));

  001f5	8d 4d d4	 lea	 ecx, DWORD PTR __Meta$86658[ebp]
  001f8	51		 push	 ecx
  001f9	ff 15 00 00 00
	00		 call	 DWORD PTR __imp_?to_char_type@?$char_traits@_W@std@@SA_WABG@Z
  001ff	83 c4 04	 add	 esp, 4
  00202	66 89 45 90	 mov	 WORD PTR tv205[ebp], ax
  00206	66 8b 55 90	 mov	 dx, WORD PTR tv205[ebp]
  0020a	52		 push	 edx
  0020b	6a 01		 push	 1
  0020d	8b 4d 0c	 mov	 ecx, DWORD PTR __Str$[ebp]
  00210	ff 15 00 00 00
	00		 call	 DWORD PTR __imp_?append@?$basic_string@_WU?$char_traits@_W@std@@V?$allocator@_W@2@@std@@QAEAAV12@I_W@Z

; 458  : 				_Changed = true;

  00216	c6 45 e3 01	 mov	 BYTE PTR __Changed$[ebp], 1

; 459  : 				}

  0021a	e9 33 ff ff ff	 jmp	 $L86660
$L86661:
  0021f	eb 1d		 jmp	 SHORT $L88722
$L88723:

; 460  : 		_CATCH_IO_(_Istr)

  00221	6a 01		 push	 1
  00223	6a 04		 push	 4
  00225	8b 45 08	 mov	 eax, DWORD PTR __Istr$[ebp]
  00228	8b 08		 mov	 ecx, DWORD PTR [eax]
  0022a	8b 55 08	 mov	 edx, DWORD PTR __Istr$[ebp]
  0022d	03 51 04	 add	 edx, DWORD PTR [ecx+4]
  00230	8b ca		 mov	 ecx, edx
  00232	ff 15 00 00 00
	00		 call	 DWORD PTR __imp_?setstate@?$basic_ios@_WU?$char_traits@_W@std@@@std@@QAEXH_N@Z
  00238	b8 00 00 00 00	 mov	 eax, $L88722
  0023d	c3		 ret	 0
$L88722:
  0023e	c7 45 fc 00 00
	00 00		 mov	 DWORD PTR __$EHRec$[ebp+12], 0

; 461  : 		}
; 462  : 
; 463  : 	_Istr.width(0);

  00245	6a 00		 push	 0
  00247	8b 45 08	 mov	 eax, DWORD PTR __Istr$[ebp]
  0024a	8b 08		 mov	 ecx, DWORD PTR [eax]
  0024c	8b 55 08	 mov	 edx, DWORD PTR __Istr$[ebp]
  0024f	03 51 04	 add	 edx, DWORD PTR [ecx+4]
  00252	8b ca		 mov	 ecx, edx
  00254	ff 15 00 00 00
	00		 call	 DWORD PTR __imp_?width@ios_base@std@@QAEHH@Z

; 464  : 	if (!_Changed)

  0025a	0f b6 45 e3	 movzx	 eax, BYTE PTR __Changed$[ebp]
  0025e	85 c0		 test	 eax, eax
  00260	75 09		 jne	 SHORT $L86667

; 465  : 		_State |= ios_base::failbit;

  00262	8b 4d ec	 mov	 ecx, DWORD PTR __State$[ebp]
  00265	83 c9 02	 or	 ecx, 2
  00268	89 4d ec	 mov	 DWORD PTR __State$[ebp], ecx
$L86667:

; 466  : 	_Istr.setstate(_State);

  0026b	6a 00		 push	 0
  0026d	8b 55 ec	 mov	 edx, DWORD PTR __State$[ebp]
  00270	52		 push	 edx
  00271	8b 45 08	 mov	 eax, DWORD PTR __Istr$[ebp]
  00274	8b 08		 mov	 ecx, DWORD PTR [eax]
  00276	8b 55 08	 mov	 edx, DWORD PTR __Istr$[ebp]
  00279	03 51 04	 add	 edx, DWORD PTR [ecx+4]
  0027c	8b ca		 mov	 ecx, edx
  0027e	ff 15 00 00 00
	00		 call	 DWORD PTR __imp_?setstate@?$basic_ios@_WU?$char_traits@_W@std@@@std@@QAEXH_N@Z

; 467  : 	return (_Istr);

  00284	8b 45 08	 mov	 eax, DWORD PTR __Istr$[ebp]
  00287	89 45 c8	 mov	 DWORD PTR $T88721[ebp], eax
  0028a	c7 45 fc ff ff
	ff ff		 mov	 DWORD PTR __$EHRec$[ebp+12], -1
  00291	8d 4d e4	 lea	 ecx, DWORD PTR __Ok$[ebp]
  00294	e8 00 00 00 00	 call	 ??1sentry@?$basic_istream@_WU?$char_traits@_W@std@@@std@@QAE@XZ
  00299	8b 45 c8	 mov	 eax, DWORD PTR $T88721[ebp]

; 468  : 	}

  0029c	8b 4d f4	 mov	 ecx, DWORD PTR __$EHRec$[ebp+4]
  0029f	64 89 0d 00 00
	00 00		 mov	 DWORD PTR fs:__except_list, ecx
  002a6	5f		 pop	 edi
  002a7	5e		 pop	 esi
  002a8	5b		 pop	 ebx
  002a9	8b e5		 mov	 esp, ebp
  002ab	5d		 pop	 ebp
  002ac	c3		 ret	 0
_TEXT	ENDS
;	COMDAT text$x
text$x	SEGMENT
$L88724:
  00000	8d 4d e4	 lea	 ecx, DWORD PTR __Ok$[ebp]
  00003	e9 00 00 00 00	 jmp	 ??1sentry@?$basic_istream@_WU?$char_traits@_W@std@@@std@@QAE@XZ
$L88725:
  00008	8d 4d d0	 lea	 ecx, DWORD PTR $T88717[ebp]
  0000b	ff 25 00 00 00
	00		 jmp	 DWORD PTR __imp_??1locale@std@@QAE@XZ
__ehhandler$??$?5_WU?$char_traits@_W@std@@V?$allocator@_W@1@@std@@YAAAV?$basic_istream@_WU?$char_traits@_W@std@@@0@AAV10@AAV?$basic_string@_WU?$char_traits@_W@std@@V?$allocator@_W@2@@0@@Z:
  00011	b8 00 00 00 00	 mov	 eax, OFFSET FLAT:$T88727
  00016	e9 00 00 00 00	 jmp	 ___CxxFrameHandler
text$x	ENDS
??$?5_WU?$char_traits@_W@std@@V?$allocator@_W@1@@std@@YAAAV?$basic_istream@_WU?$char_traits@_W@std@@@0@AAV10@AAV?$basic_string@_WU?$char_traits@_W@std@@V?$allocator@_W@2@@0@@Z ENDP ; std::operator>><wchar_t,std::char_traits<wchar_t>,std::allocator<wchar_t> >
PUBLIC	??1_Sentry_base@?$basic_istream@_WU?$char_traits@_W@std@@@std@@QAE@XZ ; std::basic_istream<wchar_t,std::char_traits<wchar_t> >::_Sentry_base::~_Sentry_base
; Function compile flags: /Odt
;	COMDAT ??1sentry@?$basic_istream@_WU?$char_traits@_W@std@@@std@@QAE@XZ
_TEXT	SEGMENT
_this$ = -4						; size = 4
??1sentry@?$basic_istream@_WU?$char_traits@_W@std@@@std@@QAE@XZ PROC NEAR ; std::basic_istream<wchar_t,std::char_traits<wchar_t> >::sentry::~sentry, COMDAT
; _this$ = ecx
  00000	55		 push	 ebp
  00001	8b ec		 mov	 ebp, esp
  00003	51		 push	 ecx
  00004	89 4d fc	 mov	 DWORD PTR _this$[ebp], ecx
  00007	8b 4d fc	 mov	 ecx, DWORD PTR _this$[ebp]
  0000a	e8 00 00 00 00	 call	 ??1_Sentry_base@?$basic_istream@_WU?$char_traits@_W@std@@@std@@QAE@XZ ; std::basic_istream<wchar_t,std::char_traits<wchar_t> >::_Sentry_base::~_Sentry_base
  0000f	8b e5		 mov	 esp, ebp
  00011	5d		 pop	 ebp
  00012	c3		 ret	 0
??1sentry@?$basic_istream@_WU?$char_traits@_W@std@@@std@@QAE@XZ ENDP ; std::basic_istream<wchar_t,std::char_traits<wchar_t> >::sentry::~sentry
_TEXT	ENDS
PUBLIC	??0_Sentry_base@?$basic_istream@_WU?$char_traits@_W@std@@@std@@QAE@AAV12@@Z ; std::basic_istream<wchar_t,std::char_traits<wchar_t> >::_Sentry_base::_Sentry_base
EXTRN	__imp_?_Ipfx@?$basic_istream@_WU?$char_traits@_W@std@@@std@@QAE_N_N@Z:NEAR
;	COMDAT xdata$x
; File d:\program files (x86)\microsoft visual studio .net 2003\vc7\include\istream
xdata$x	SEGMENT
$T88743	DD	0ffffffffH
	DD	FLAT:$L88739
$T88741	DD	019930520H
	DD	01H
	DD	FLAT:$T88743
	DD	2 DUP(00H)
	DD	2 DUP(00H)
; Function compile flags: /Odt
xdata$x	ENDS
;	COMDAT ??0sentry@?$basic_istream@_WU?$char_traits@_W@std@@@std@@QAE@AAV12@_N@Z
_TEXT	SEGMENT
_this$ = -16						; size = 4
__$EHRec$ = -12						; size = 12
__Istr$ = 8						; size = 4
__Noskip$ = 12						; size = 1
??0sentry@?$basic_istream@_WU?$char_traits@_W@std@@@std@@QAE@AAV12@_N@Z PROC NEAR ; std::basic_istream<wchar_t,std::char_traits<wchar_t> >::sentry::sentry, COMDAT
; _this$ = ecx

; 72   : 			{	// construct locking and calling _Ipfx

  00000	55		 push	 ebp
  00001	8b ec		 mov	 ebp, esp
  00003	6a ff		 push	 -1
  00005	68 00 00 00 00	 push	 __ehhandler$??0sentry@?$basic_istream@_WU?$char_traits@_W@std@@@std@@QAE@AAV12@_N@Z
  0000a	64 a1 00 00 00
	00		 mov	 eax, DWORD PTR fs:__except_list
  00010	50		 push	 eax
  00011	64 89 25 00 00
	00 00		 mov	 DWORD PTR fs:__except_list, esp
  00018	51		 push	 ecx
  00019	89 4d f0	 mov	 DWORD PTR _this$[ebp], ecx
  0001c	8b 45 08	 mov	 eax, DWORD PTR __Istr$[ebp]
  0001f	50		 push	 eax
  00020	8b 4d f0	 mov	 ecx, DWORD PTR _this$[ebp]
  00023	e8 00 00 00 00	 call	 ??0_Sentry_base@?$basic_istream@_WU?$char_traits@_W@std@@@std@@QAE@AAV12@@Z ; std::basic_istream<wchar_t,std::char_traits<wchar_t> >::_Sentry_base::_Sentry_base
  00028	c7 45 fc 00 00
	00 00		 mov	 DWORD PTR __$EHRec$[ebp+8], 0

; 73   : 			_Ok = this->_Myistr._Ipfx(_Noskip);

  0002f	8a 4d 0c	 mov	 cl, BYTE PTR __Noskip$[ebp]
  00032	51		 push	 ecx
  00033	8b 55 f0	 mov	 edx, DWORD PTR _this$[ebp]
  00036	8b 0a		 mov	 ecx, DWORD PTR [edx]
  00038	ff 15 00 00 00
	00		 call	 DWORD PTR __imp_?_Ipfx@?$basic_istream@_WU?$char_traits@_W@std@@@std@@QAE_N_N@Z
  0003e	8b 4d f0	 mov	 ecx, DWORD PTR _this$[ebp]
  00041	88 41 04	 mov	 BYTE PTR [ecx+4], al

; 74   : 			}

  00044	c7 45 fc ff ff
	ff ff		 mov	 DWORD PTR __$EHRec$[ebp+8], -1
  0004b	8b 45 f0	 mov	 eax, DWORD PTR _this$[ebp]
  0004e	8b 4d f4	 mov	 ecx, DWORD PTR __$EHRec$[ebp]
  00051	64 89 0d 00 00
	00 00		 mov	 DWORD PTR fs:__except_list, ecx
  00058	8b e5		 mov	 esp, ebp
  0005a	5d		 pop	 ebp
  0005b	c2 08 00	 ret	 8
_TEXT	ENDS
;	COMDAT text$x
text$x	SEGMENT
$L88739:
  00000	8b 4d f0	 mov	 ecx, DWORD PTR _this$[ebp]
  00003	e9 00 00 00 00	 jmp	 ??1_Sentry_base@?$basic_istream@_WU?$char_traits@_W@std@@@std@@QAE@XZ ; std::basic_istream<wchar_t,std::char_traits<wchar_t> >::_Sentry_base::~_Sentry_base
__ehhandler$??0sentry@?$basic_istream@_WU?$char_traits@_W@std@@@std@@QAE@AAV12@_N@Z:
  00008	b8 00 00 00 00	 mov	 eax, OFFSET FLAT:$T88741
  0000d	e9 00 00 00 00	 jmp	 ___CxxFrameHandler
text$x	ENDS
??0sentry@?$basic_istream@_WU?$char_traits@_W@std@@@std@@QAE@AAV12@_N@Z ENDP ; std::basic_istream<wchar_t,std::char_traits<wchar_t> >::sentry::sentry
; Function compile flags: /Odt
;	COMDAT ??Bsentry@?$basic_istream@_WU?$char_traits@_W@std@@@std@@QBE_NXZ
_TEXT	SEGMENT
_this$ = -4						; size = 4
??Bsentry@?$basic_istream@_WU?$char_traits@_W@std@@@std@@QBE_NXZ PROC NEAR ; std::basic_istream<wchar_t,std::char_traits<wchar_t> >::sentry::operator bool, COMDAT
; _this$ = ecx

; 77   : 			{	// test if _Ipfx succeeded

  00000	55		 push	 ebp
  00001	8b ec		 mov	 ebp, esp
  00003	51		 push	 ecx
  00004	89 4d fc	 mov	 DWORD PTR _this$[ebp], ecx

; 78   : 			return (_Ok);

  00007	8b 45 fc	 mov	 eax, DWORD PTR _this$[ebp]
  0000a	8a 40 04	 mov	 al, BYTE PTR [eax+4]

; 79   : 			}

  0000d	8b e5		 mov	 esp, ebp
  0000f	5d		 pop	 ebp
  00010	c3		 ret	 0
??Bsentry@?$basic_istream@_WU?$char_traits@_W@std@@@std@@QBE_NXZ ENDP ; std::basic_istream<wchar_t,std::char_traits<wchar_t> >::sentry::operator bool
_TEXT	ENDS
EXTRN	__imp_?_Unlock@?$basic_streambuf@_WU?$char_traits@_W@std@@@std@@QAEXXZ:NEAR
; Function compile flags: /Odt
;	COMDAT ??1_Sentry_base@?$basic_istream@_WU?$char_traits@_W@std@@@std@@QAE@XZ
_TEXT	SEGMENT
_this$ = -4						; size = 4
??1_Sentry_base@?$basic_istream@_WU?$char_traits@_W@std@@@std@@QAE@XZ PROC NEAR ; std::basic_istream<wchar_t,std::char_traits<wchar_t> >::_Sentry_base::~_Sentry_base, COMDAT
; _this$ = ecx

; 58   : 			{	// destroy after unlocking

  00000	55		 push	 ebp
  00001	8b ec		 mov	 ebp, esp
  00003	51		 push	 ecx
  00004	89 4d fc	 mov	 DWORD PTR _this$[ebp], ecx

; 59   : 			if (_Myistr.rdbuf() != 0)

  00007	8b 45 fc	 mov	 eax, DWORD PTR _this$[ebp]
  0000a	8b 08		 mov	 ecx, DWORD PTR [eax]
  0000c	8b 11		 mov	 edx, DWORD PTR [ecx]
  0000e	8b 45 fc	 mov	 eax, DWORD PTR _this$[ebp]
  00011	8b 08		 mov	 ecx, DWORD PTR [eax]
  00013	03 4a 04	 add	 ecx, DWORD PTR [edx+4]
  00016	ff 15 00 00 00
	00		 call	 DWORD PTR __imp_?rdbuf@?$basic_ios@_WU?$char_traits@_W@std@@@std@@QBEPAV?$basic_streambuf@_WU?$char_traits@_W@std@@@2@XZ
  0001c	85 c0		 test	 eax, eax
  0001e	74 1d		 je	 SHORT $L84899

; 60   : 				_Myistr.rdbuf()->_Unlock();

  00020	8b 4d fc	 mov	 ecx, DWORD PTR _this$[ebp]
  00023	8b 11		 mov	 edx, DWORD PTR [ecx]
  00025	8b 02		 mov	 eax, DWORD PTR [edx]
  00027	8b 4d fc	 mov	 ecx, DWORD PTR _this$[ebp]
  0002a	8b 09		 mov	 ecx, DWORD PTR [ecx]
  0002c	03 48 04	 add	 ecx, DWORD PTR [eax+4]
  0002f	ff 15 00 00 00
	00		 call	 DWORD PTR __imp_?rdbuf@?$basic_ios@_WU?$char_traits@_W@std@@@std@@QBEPAV?$basic_streambuf@_WU?$char_traits@_W@std@@@2@XZ
  00035	8b c8		 mov	 ecx, eax
  00037	ff 15 00 00 00
	00		 call	 DWORD PTR __imp_?_Unlock@?$basic_streambuf@_WU?$char_traits@_W@std@@@std@@QAEXXZ
$L84899:

; 61   : 			}

  0003d	8b e5		 mov	 esp, ebp
  0003f	5d		 pop	 ebp
  00040	c3		 ret	 0
??1_Sentry_base@?$basic_istream@_WU?$char_traits@_W@std@@@std@@QAE@XZ ENDP ; std::basic_istream<wchar_t,std::char_traits<wchar_t> >::_Sentry_base::~_Sentry_base
_TEXT	ENDS
EXTRN	__imp_?_Lock@?$basic_streambuf@_WU?$char_traits@_W@std@@@std@@QAEXXZ:NEAR
; Function compile flags: /Odt
;	COMDAT ??0_Sentry_base@?$basic_istream@_WU?$char_traits@_W@std@@@std@@QAE@AAV12@@Z
_TEXT	SEGMENT
_this$ = -4						; size = 4
__Istr$ = 8						; size = 4
??0_Sentry_base@?$basic_istream@_WU?$char_traits@_W@std@@@std@@QAE@AAV12@@Z PROC NEAR ; std::basic_istream<wchar_t,std::char_traits<wchar_t> >::_Sentry_base::_Sentry_base, COMDAT
; _this$ = ecx

; 52   : 			{	// lock the stream buffer, if there

  00000	55		 push	 ebp
  00001	8b ec		 mov	 ebp, esp
  00003	51		 push	 ecx
  00004	89 4d fc	 mov	 DWORD PTR _this$[ebp], ecx
  00007	8b 45 fc	 mov	 eax, DWORD PTR _this$[ebp]
  0000a	8b 4d 08	 mov	 ecx, DWORD PTR __Istr$[ebp]
  0000d	89 08		 mov	 DWORD PTR [eax], ecx

; 53   : 			if (_Myistr.rdbuf() != 0)

  0000f	8b 55 fc	 mov	 edx, DWORD PTR _this$[ebp]
  00012	8b 02		 mov	 eax, DWORD PTR [edx]
  00014	8b 08		 mov	 ecx, DWORD PTR [eax]
  00016	8b 55 fc	 mov	 edx, DWORD PTR _this$[ebp]
  00019	8b 02		 mov	 eax, DWORD PTR [edx]
  0001b	03 41 04	 add	 eax, DWORD PTR [ecx+4]
  0001e	8b c8		 mov	 ecx, eax
  00020	ff 15 00 00 00
	00		 call	 DWORD PTR __imp_?rdbuf@?$basic_ios@_WU?$char_traits@_W@std@@@std@@QBEPAV?$basic_streambuf@_WU?$char_traits@_W@std@@@2@XZ
  00026	85 c0		 test	 eax, eax
  00028	74 1d		 je	 SHORT $L85843

; 54   : 				_Myistr.rdbuf()->_Lock();

  0002a	8b 4d fc	 mov	 ecx, DWORD PTR _this$[ebp]
  0002d	8b 11		 mov	 edx, DWORD PTR [ecx]
  0002f	8b 02		 mov	 eax, DWORD PTR [edx]
  00031	8b 4d fc	 mov	 ecx, DWORD PTR _this$[ebp]
  00034	8b 09		 mov	 ecx, DWORD PTR [ecx]
  00036	03 48 04	 add	 ecx, DWORD PTR [eax+4]
  00039	ff 15 00 00 00
	00		 call	 DWORD PTR __imp_?rdbuf@?$basic_ios@_WU?$char_traits@_W@std@@@std@@QBEPAV?$basic_streambuf@_WU?$char_traits@_W@std@@@2@XZ
  0003f	8b c8		 mov	 ecx, eax
  00041	ff 15 00 00 00
	00		 call	 DWORD PTR __imp_?_Lock@?$basic_streambuf@_WU?$char_traits@_W@std@@@std@@QAEXXZ
$L85843:

; 55   : 			}

  00047	8b 45 fc	 mov	 eax, DWORD PTR _this$[ebp]
  0004a	8b e5		 mov	 esp, ebp
  0004c	5d		 pop	 ebp
  0004d	c2 04 00	 ret	 4
??0_Sentry_base@?$basic_istream@_WU?$char_traits@_W@std@@@std@@QAE@AAV12@@Z ENDP ; std::basic_istream<wchar_t,std::char_traits<wchar_t> >::_Sentry_base::_Sentry_base
_TEXT	ENDS
PUBLIC	?_Psave@?$_Facetptr@V?$ctype@_W@std@@@std@@2PBVfacet@locale@2@B ; std::_Facetptr<std::ctype<wchar_t> >::_Psave
EXTRN	__imp_?id@?$ctype@_W@std@@2V0locale@2@A:DWORD
EXTRN	__imp_?_Getcat@?$ctype@_W@std@@SAIPAPBVfacet@locale@2@@Z:NEAR
;	COMDAT ?_Psave@?$_Facetptr@V?$ctype@_W@std@@@std@@2PBVfacet@locale@2@B
; File d:\program files (x86)\microsoft visual studio .net 2003\vc7\include\xlocale
_BSS	SEGMENT
?_Psave@?$_Facetptr@V?$ctype@_W@std@@@std@@2PBVfacet@locale@2@B DD 01H DUP (?) ; std::_Facetptr<std::ctype<wchar_t> >::_Psave
_BSS	ENDS
;	COMDAT xdata$x
xdata$x	SEGMENT
$T88760	DD	0ffffffffH
	DD	FLAT:$L88756
$T88758	DD	019930520H
	DD	01H
	DD	FLAT:$T88760
	DD	2 DUP(00H)
	DD	2 DUP(00H)
; Function compile flags: /Odt
xdata$x	ENDS
;	COMDAT ??$use_facet@V?$ctype@_W@std@@@std@@YAABV?$ctype@_W@0@ABVlocale@0@@Z
_TEXT	SEGMENT
$T88755 = -48						; size = 4
$T88754 = -44						; size = 12
__Pfmod$86525 = -32					; size = 4
__Psave$ = -28						; size = 4
__Lock$ = -24						; size = 4
__Id$ = -20						; size = 4
__Pf$ = -16						; size = 4
__$EHRec$ = -12						; size = 12
__Loc$ = 8						; size = 4
??$use_facet@V?$ctype@_W@std@@@std@@YAABV?$ctype@_W@0@ABVlocale@0@@Z PROC NEAR ; std::use_facet<std::ctype<wchar_t> >, COMDAT

; 315  : 	{	// get facet reference from locale

  00000	55		 push	 ebp
  00001	8b ec		 mov	 ebp, esp
  00003	6a ff		 push	 -1
  00005	68 00 00 00 00	 push	 __ehhandler$??$use_facet@V?$ctype@_W@std@@@std@@YAABV?$ctype@_W@0@ABVlocale@0@@Z
  0000a	64 a1 00 00 00
	00		 mov	 eax, DWORD PTR fs:__except_list
  00010	50		 push	 eax
  00011	64 89 25 00 00
	00 00		 mov	 DWORD PTR fs:__except_list, esp
  00018	83 ec 24	 sub	 esp, 36			; 00000024H

; 316  : 	_Lockit _Lock(_LOCK_LOCALE);	// the thread lock, make get atomic

  0001b	6a 00		 push	 0
  0001d	8d 4d e8	 lea	 ecx, DWORD PTR __Lock$[ebp]
  00020	ff 15 00 00 00
	00		 call	 DWORD PTR __imp_??0_Lockit@std@@QAE@H@Z
  00026	c7 45 fc 00 00
	00 00		 mov	 DWORD PTR __$EHRec$[ebp+8], 0

; 317  : 	const locale::facet *_Psave =
; 318  : 		_Facetptr<_Facet>::_Psave;	// static pointer to lazy facet

  0002d	a1 00 00 00 00	 mov	 eax, DWORD PTR ?_Psave@?$_Facetptr@V?$ctype@_W@std@@@std@@2PBVfacet@locale@2@B ; std::_Facetptr<std::ctype<wchar_t> >::_Psave
  00032	89 45 e4	 mov	 DWORD PTR __Psave$[ebp], eax

; 319  : 
; 320  : 	size_t _Id = _Facet::id;

  00035	8b 0d 00 00 00
	00		 mov	 ecx, DWORD PTR __imp_?id@?$ctype@_W@std@@2V0locale@2@A
  0003b	ff 15 00 00 00
	00		 call	 DWORD PTR __imp_??Bid@locale@std@@QAEIXZ
  00041	89 45 ec	 mov	 DWORD PTR __Id$[ebp], eax

; 321  : 	const locale::facet *_Pf = _Loc._Getfacet(_Id);

  00044	8b 4d ec	 mov	 ecx, DWORD PTR __Id$[ebp]
  00047	51		 push	 ecx
  00048	8b 4d 08	 mov	 ecx, DWORD PTR __Loc$[ebp]
  0004b	ff 15 00 00 00
	00		 call	 DWORD PTR __imp_?_Getfacet@locale@std@@QBEPBVfacet@12@I@Z
  00051	89 45 f0	 mov	 DWORD PTR __Pf$[ebp], eax

; 322  : 
; 323  : 	if (_Pf != 0)

  00054	83 7d f0 00	 cmp	 DWORD PTR __Pf$[ebp], 0
  00058	74 02		 je	 SHORT $L86516

; 324  : 		;	// got facet from locale
; 325  : 	else if (_Psave != 0)

  0005a	eb 62		 jmp	 SHORT $L86517
$L86516:
  0005c	83 7d e4 00	 cmp	 DWORD PTR __Psave$[ebp], 0
  00060	74 08		 je	 SHORT $L86518

; 326  : 		_Pf = _Psave;	// lazy facet already allocated

  00062	8b 55 e4	 mov	 edx, DWORD PTR __Psave$[ebp]
  00065	89 55 f0	 mov	 DWORD PTR __Pf$[ebp], edx

; 327  : 	else if (_Facet::_Getcat(&_Psave) == (size_t)(-1))

  00068	eb 54		 jmp	 SHORT $L86517
$L86518:
  0006a	8d 45 e4	 lea	 eax, DWORD PTR __Psave$[ebp]
  0006d	50		 push	 eax
  0006e	ff 15 00 00 00
	00		 call	 DWORD PTR __imp_?_Getcat@?$ctype@_W@std@@SAIPAPBVfacet@locale@2@@Z
  00074	83 c4 04	 add	 esp, 4
  00077	83 f8 ff	 cmp	 eax, -1
  0007a	75 1c		 jne	 SHORT $L86521

; 328  : 
; 329  :  #if _HAS_EXCEPTIONS
; 330  : 		throw bad_cast();	// lazy disallowed

  0007c	68 00 00 00 00	 push	 OFFSET FLAT:??_C@_08EPJLHIJG@bad?5cast?$AA@
  00081	8d 4d d4	 lea	 ecx, DWORD PTR $T88754[ebp]
  00084	ff 15 00 00 00
	00		 call	 DWORD PTR __imp_??0bad_cast@@QAE@PBD@Z
  0008a	68 00 00 00 00	 push	 OFFSET FLAT:__TI2?AVbad_cast@@
  0008f	8d 4d d4	 lea	 ecx, DWORD PTR $T88754[ebp]
  00092	51		 push	 ecx
  00093	e8 00 00 00 00	 call	 __CxxThrowException@8
$L86521:

; 331  : 
; 332  :  #else /* _HAS_EXCEPTIONS */
; 333  : 		abort();	// lazy disallowed
; 334  :  #endif /* _HAS_EXCEPTIONS */
; 335  : 
; 336  : 	else
; 337  : 		{	// queue up lazy facet for destruction
; 338  : 		_Pf = _Psave;

  00098	8b 55 e4	 mov	 edx, DWORD PTR __Psave$[ebp]
  0009b	89 55 f0	 mov	 DWORD PTR __Pf$[ebp], edx

; 339  : 		_Facetptr<_Facet>::_Psave = _Psave;

  0009e	8b 45 e4	 mov	 eax, DWORD PTR __Psave$[ebp]
  000a1	a3 00 00 00 00	 mov	 DWORD PTR ?_Psave@?$_Facetptr@V?$ctype@_W@std@@@std@@2PBVfacet@locale@2@B, eax ; std::_Facetptr<std::ctype<wchar_t> >::_Psave

; 340  : 
; 341  : 		locale::facet *_Pfmod = (_Facet *)_Psave;

  000a6	8b 4d e4	 mov	 ecx, DWORD PTR __Psave$[ebp]
  000a9	89 4d e0	 mov	 DWORD PTR __Pfmod$86525[ebp], ecx

; 342  : 		_Pfmod->_Incref();

  000ac	8b 4d e0	 mov	 ecx, DWORD PTR __Pfmod$86525[ebp]
  000af	ff 15 00 00 00
	00		 call	 DWORD PTR __imp_?_Incref@facet@locale@std@@QAEXXZ

; 343  : 		_Pfmod->_Register();

  000b5	8b 4d e0	 mov	 ecx, DWORD PTR __Pfmod$86525[ebp]
  000b8	ff 15 00 00 00
	00		 call	 DWORD PTR __imp_?_Register@facet@locale@std@@QAEXXZ
$L86517:

; 344  : 		}
; 345  : 
; 346  : 	return ((const _Facet&)(*_Pf));	// should be dynamic_cast

  000be	8b 55 f0	 mov	 edx, DWORD PTR __Pf$[ebp]
  000c1	89 55 d0	 mov	 DWORD PTR $T88755[ebp], edx
  000c4	c7 45 fc ff ff
	ff ff		 mov	 DWORD PTR __$EHRec$[ebp+8], -1
  000cb	8d 4d e8	 lea	 ecx, DWORD PTR __Lock$[ebp]
  000ce	ff 15 00 00 00
	00		 call	 DWORD PTR __imp_??1_Lockit@std@@QAE@XZ
  000d4	8b 45 d0	 mov	 eax, DWORD PTR $T88755[ebp]
$L88753:

; 347  : 	}

  000d7	8b 4d f4	 mov	 ecx, DWORD PTR __$EHRec$[ebp]
  000da	64 89 0d 00 00
	00 00		 mov	 DWORD PTR fs:__except_list, ecx
  000e1	8b e5		 mov	 esp, ebp
  000e3	5d		 pop	 ebp
  000e4	c3		 ret	 0
_TEXT	ENDS
;	COMDAT text$x
text$x	SEGMENT
$L88756:
  00000	8d 4d e8	 lea	 ecx, DWORD PTR __Lock$[ebp]
  00003	ff 25 00 00 00
	00		 jmp	 DWORD PTR __imp_??1_Lockit@std@@QAE@XZ
__ehhandler$??$use_facet@V?$ctype@_W@std@@@std@@YAABV?$ctype@_W@0@ABVlocale@0@@Z:
  00009	b8 00 00 00 00	 mov	 eax, OFFSET FLAT:$T88758
  0000e	e9 00 00 00 00	 jmp	 ___CxxFrameHandler
text$x	ENDS
??$use_facet@V?$ctype@_W@std@@@std@@YAABV?$ctype@_W@0@ABVlocale@0@@Z ENDP ; std::use_facet<std::ctype<wchar_t> >
PUBLIC	??$getline@_WU?$char_traits@_W@std@@V?$allocator@_W@2@@std@@YAAAV?$basic_istream@_WU?$char_traits@_W@std@@@0@AAV10@AAV?$basic_string@_WU?$char_traits@_W@std@@V?$allocator@_W@2@@0@@Z ; std::getline<wchar_t,std::char_traits<wchar_t>,std::allocator<wchar_t> >
PUBLIC	??$getline@_WU?$char_traits@_W@std@@V?$allocator@_W@2@@std@@YAAAV?$basic_istream@_WU?$char_traits@_W@std@@@0@AAV10@AAV?$basic_string@_WU?$char_traits@_W@std@@V?$allocator@_W@2@@0@_W@Z ; std::getline<wchar_t,std::char_traits<wchar_t>,std::allocator<wchar_t> >
EXTRN	__imp_?widen@?$basic_ios@_WU?$char_traits@_W@std@@@std@@QBE_WD@Z:NEAR
; Function compile flags: /Odt
; File d:\program files (x86)\microsoft visual studio .net 2003\vc7\include\string
;	COMDAT ??$getline@_WU?$char_traits@_W@std@@V?$allocator@_W@2@@std@@YAAAV?$basic_istream@_WU?$char_traits@_W@std@@@0@AAV10@AAV?$basic_string@_WU?$char_traits@_W@std@@V?$allocator@_W@2@@0@@Z
_TEXT	SEGMENT
__Istr$ = 8						; size = 4
__Str$ = 12						; size = 4
??$getline@_WU?$char_traits@_W@std@@V?$allocator@_W@2@@std@@YAAAV?$basic_istream@_WU?$char_traits@_W@std@@@0@AAV10@AAV?$basic_string@_WU?$char_traits@_W@std@@V?$allocator@_W@2@@0@@Z PROC NEAR ; std::getline<wchar_t,std::char_traits<wchar_t>,std::allocator<wchar_t> >, COMDAT

; 528  : 	{	// get characters into string, discard newline

  00000	55		 push	 ebp
  00001	8b ec		 mov	 ebp, esp

; 529  : 	return (getline(_Istr, _Str, _Istr.widen('\n')));

  00003	6a 0a		 push	 10			; 0000000aH
  00005	8b 45 08	 mov	 eax, DWORD PTR __Istr$[ebp]
  00008	8b 08		 mov	 ecx, DWORD PTR [eax]
  0000a	8b 55 08	 mov	 edx, DWORD PTR __Istr$[ebp]
  0000d	03 51 04	 add	 edx, DWORD PTR [ecx+4]
  00010	8b ca		 mov	 ecx, edx
  00012	ff 15 00 00 00
	00		 call	 DWORD PTR __imp_?widen@?$basic_ios@_WU?$char_traits@_W@std@@@std@@QBE_WD@Z
  00018	50		 push	 eax
  00019	8b 45 0c	 mov	 eax, DWORD PTR __Str$[ebp]
  0001c	50		 push	 eax
  0001d	8b 4d 08	 mov	 ecx, DWORD PTR __Istr$[ebp]
  00020	51		 push	 ecx
  00021	e8 00 00 00 00	 call	 ??$getline@_WU?$char_traits@_W@std@@V?$allocator@_W@2@@std@@YAAAV?$basic_istream@_WU?$char_traits@_W@std@@@0@AAV10@AAV?$basic_string@_WU?$char_traits@_W@std@@V?$allocator@_W@2@@0@_W@Z ; std::getline<wchar_t,std::char_traits<wchar_t>,std::allocator<wchar_t> >
  00026	83 c4 0c	 add	 esp, 12			; 0000000cH

; 530  : 	}

  00029	5d		 pop	 ebp
  0002a	c3		 ret	 0
??$getline@_WU?$char_traits@_W@std@@V?$allocator@_W@2@@std@@YAAAV?$basic_istream@_WU?$char_traits@_W@std@@@0@AAV10@AAV?$basic_string@_WU?$char_traits@_W@std@@V?$allocator@_W@2@@0@@Z ENDP ; std::getline<wchar_t,std::char_traits<wchar_t>,std::allocator<wchar_t> >
_TEXT	ENDS
EXTRN	__imp_?to_int_type@?$char_traits@_W@std@@SAGAB_W@Z:NEAR
EXTRN	__imp_?sbumpc@?$basic_streambuf@_WU?$char_traits@_W@std@@@std@@QAEGXZ:NEAR
EXTRN	__imp_?size@?$basic_string@_WU?$char_traits@_W@std@@V?$allocator@_W@2@@std@@QBEIXZ:NEAR
;	COMDAT xdata$x
xdata$x	SEGMENT
$T88776	DD	0ffffffffH
	DD	FLAT:$L88772
	DD	00H
	DD	00H
	DD	00H
	DD	00H
$T88778	DD	00H
	DD	00H
	DD	00H
	DD	FLAT:$L88771
$T88777	DD	01H
	DD	01H
	DD	02H
	DD	01H
	DD	FLAT:$T88778
$T88774	DD	019930520H
	DD	03H
	DD	FLAT:$T88776
	DD	01H
	DD	FLAT:$T88777
	DD	2 DUP(00H)
; Function compile flags: /Odt
xdata$x	ENDS
;	COMDAT ??$getline@_WU?$char_traits@_W@std@@V?$allocator@_W@2@@std@@YAAAV?$basic_istream@_WU?$char_traits@_W@std@@@0@AAV10@AAV?$basic_string@_WU?$char_traits@_W@std@@V?$allocator@_W@2@@0@_W@Z
_TEXT	SEGMENT
tv175 = -86						; size = 2
tv174 = -84						; size = 4
tv173 = -80						; size = 4
tv172 = -76						; size = 4
tv171 = -70						; size = 1
tv170 = -69						; size = 1
tv169 = -68						; size = 2
tv168 = -66						; size = 2
tv167 = -64						; size = 4
tv166 = -58						; size = 2
tv165 = -56						; size = 4
tv65 = -50						; size = 2
$T88769 = -48						; size = 4
$T88768 = -42						; size = 2
__Meta$86678 = -40					; size = 2
__Metadelim$86677 = -36					; size = 2
__Changed$ = -29					; size = 1
__Ok$ = -28						; size = 8
__State$ = -20						; size = 4
__$EHRec$ = -16						; size = 16
__Istr$ = 8						; size = 4
__Str$ = 12						; size = 4
__Delim$ = 16						; size = 2
??$getline@_WU?$char_traits@_W@std@@V?$allocator@_W@2@@std@@YAAAV?$basic_istream@_WU?$char_traits@_W@std@@@0@AAV10@AAV?$basic_string@_WU?$char_traits@_W@std@@V?$allocator@_W@2@@0@_W@Z PROC NEAR ; std::getline<wchar_t,std::char_traits<wchar_t>,std::allocator<wchar_t> >, COMDAT

; 477  : 	{	// get characters into string, discard delimiter

  00000	55		 push	 ebp
  00001	8b ec		 mov	 ebp, esp
  00003	6a ff		 push	 -1
  00005	68 00 00 00 00	 push	 __ehhandler$??$getline@_WU?$char_traits@_W@std@@V?$allocator@_W@2@@std@@YAAAV?$basic_istream@_WU?$char_traits@_W@std@@@0@AAV10@AAV?$basic_string@_WU?$char_traits@_W@std@@V?$allocator@_W@2@@0@_W@Z
  0000a	64 a1 00 00 00
	00		 mov	 eax, DWORD PTR fs:__except_list
  00010	50		 push	 eax
  00011	64 89 25 00 00
	00 00		 mov	 DWORD PTR fs:__except_list, esp
  00018	51		 push	 ecx
  00019	83 ec 48	 sub	 esp, 72			; 00000048H
  0001c	53		 push	 ebx
  0001d	56		 push	 esi
  0001e	57		 push	 edi
  0001f	89 65 f0	 mov	 DWORD PTR __$EHRec$[ebp], esp

; 478  : 	typedef basic_istream<_Elem, _Traits> _Myis;
; 479  : 	ios_base::iostate _State = ios_base::goodbit;

  00022	c7 45 ec 00 00
	00 00		 mov	 DWORD PTR __State$[ebp], 0

; 480  : 	bool _Changed = false;

  00029	c6 45 e3 00	 mov	 BYTE PTR __Changed$[ebp], 0

; 481  : 	const typename _Myis::sentry _Ok(_Istr, true);

  0002d	6a 01		 push	 1
  0002f	8b 45 08	 mov	 eax, DWORD PTR __Istr$[ebp]
  00032	50		 push	 eax
  00033	8d 4d e4	 lea	 ecx, DWORD PTR __Ok$[ebp]
  00036	e8 00 00 00 00	 call	 ??0sentry@?$basic_istream@_WU?$char_traits@_W@std@@@std@@QAE@AAV12@_N@Z ; std::basic_istream<wchar_t,std::char_traits<wchar_t> >::sentry::sentry
  0003b	c7 45 fc 00 00
	00 00		 mov	 DWORD PTR __$EHRec$[ebp+12], 0

; 482  : 
; 483  : 	if (_Ok)

  00042	8d 4d e4	 lea	 ecx, DWORD PTR __Ok$[ebp]
  00045	e8 00 00 00 00	 call	 ??Bsentry@?$basic_istream@_WU?$char_traits@_W@std@@@std@@QBE_NXZ ; std::basic_istream<wchar_t,std::char_traits<wchar_t> >::sentry::operator bool
  0004a	0f b6 c8	 movzx	 ecx, al
  0004d	85 c9		 test	 ecx, ecx
  0004f	0f 84 74 01 00
	00		 je	 $L88770

; 484  : 		{	// state okay, extract characters
; 485  : 		_TRY_IO_BEGIN

  00055	c6 45 fc 01	 mov	 BYTE PTR __$EHRec$[ebp+12], 1

; 486  : 		_Str.erase();

  00059	8b 15 00 00 00
	00		 mov	 edx, DWORD PTR __imp_?npos@?$basic_string@_WU?$char_traits@_W@std@@V?$allocator@_W@2@@std@@2IB
  0005f	8b 02		 mov	 eax, DWORD PTR [edx]
  00061	50		 push	 eax
  00062	6a 00		 push	 0
  00064	8b 4d 0c	 mov	 ecx, DWORD PTR __Str$[ebp]
  00067	ff 15 00 00 00
	00		 call	 DWORD PTR __imp_?erase@?$basic_string@_WU?$char_traits@_W@std@@V?$allocator@_W@2@@std@@QAEAAV12@II@Z

; 487  : 		const typename _Traits::int_type _Metadelim =
; 488  : 			_Traits::to_int_type(_Delim);

  0006d	8d 4d 10	 lea	 ecx, DWORD PTR __Delim$[ebp]
  00070	51		 push	 ecx
  00071	ff 15 00 00 00
	00		 call	 DWORD PTR __imp_?to_int_type@?$char_traits@_W@std@@SAGAB_W@Z
  00077	83 c4 04	 add	 esp, 4
  0007a	66 89 45 ce	 mov	 WORD PTR tv65[ebp], ax
  0007e	66 8b 55 ce	 mov	 dx, WORD PTR tv65[ebp]
  00082	66 89 55 dc	 mov	 WORD PTR __Metadelim$86677[ebp], dx

; 489  : 		typename _Traits::int_type _Meta = _Istr.rdbuf()->sgetc();

  00086	8b 45 08	 mov	 eax, DWORD PTR __Istr$[ebp]
  00089	8b 08		 mov	 ecx, DWORD PTR [eax]
  0008b	8b 55 08	 mov	 edx, DWORD PTR __Istr$[ebp]
  0008e	03 51 04	 add	 edx, DWORD PTR [ecx+4]
  00091	8b ca		 mov	 ecx, edx
  00093	ff 15 00 00 00
	00		 call	 DWORD PTR __imp_?rdbuf@?$basic_ios@_WU?$char_traits@_W@std@@@std@@QBEPAV?$basic_streambuf@_WU?$char_traits@_W@std@@@2@XZ
  00099	89 45 c8	 mov	 DWORD PTR tv165[ebp], eax
  0009c	8b 4d c8	 mov	 ecx, DWORD PTR tv165[ebp]
  0009f	ff 15 00 00 00
	00		 call	 DWORD PTR __imp_?sgetc@?$basic_streambuf@_WU?$char_traits@_W@std@@@std@@QAEGXZ
  000a5	66 89 45 c6	 mov	 WORD PTR tv166[ebp], ax
  000a9	66 8b 45 c6	 mov	 ax, WORD PTR tv166[ebp]
  000ad	66 89 45 d8	 mov	 WORD PTR __Meta$86678[ebp], ax

; 490  : 
; 491  : 		for (; ; _Meta = _Istr.rdbuf()->snextc())

  000b1	eb 29		 jmp	 SHORT $L86679
$L86680:
  000b3	8b 4d 08	 mov	 ecx, DWORD PTR __Istr$[ebp]
  000b6	8b 11		 mov	 edx, DWORD PTR [ecx]
  000b8	8b 4d 08	 mov	 ecx, DWORD PTR __Istr$[ebp]
  000bb	03 4a 04	 add	 ecx, DWORD PTR [edx+4]
  000be	ff 15 00 00 00
	00		 call	 DWORD PTR __imp_?rdbuf@?$basic_ios@_WU?$char_traits@_W@std@@@std@@QBEPAV?$basic_streambuf@_WU?$char_traits@_W@std@@@2@XZ
  000c4	89 45 c0	 mov	 DWORD PTR tv167[ebp], eax
  000c7	8b 4d c0	 mov	 ecx, DWORD PTR tv167[ebp]
  000ca	ff 15 00 00 00
	00		 call	 DWORD PTR __imp_?snextc@?$basic_streambuf@_WU?$char_traits@_W@std@@@std@@QAEGXZ
  000d0	66 89 45 be	 mov	 WORD PTR tv168[ebp], ax
  000d4	66 8b 45 be	 mov	 ax, WORD PTR tv168[ebp]
  000d8	66 89 45 d8	 mov	 WORD PTR __Meta$86678[ebp], ax
$L86679:

; 492  : 			if (_Traits::eq_int_type(_Traits::eof(), _Meta))

  000dc	ff 15 00 00 00
	00		 call	 DWORD PTR __imp_?eof@?$char_traits@_W@std@@SAGXZ
  000e2	66 89 45 bc	 mov	 WORD PTR tv169[ebp], ax
  000e6	66 8b 4d bc	 mov	 cx, WORD PTR tv169[ebp]
  000ea	66 89 4d d6	 mov	 WORD PTR $T88768[ebp], cx
  000ee	8d 55 d8	 lea	 edx, DWORD PTR __Meta$86678[ebp]
  000f1	52		 push	 edx
  000f2	8d 45 d6	 lea	 eax, DWORD PTR $T88768[ebp]
  000f5	50		 push	 eax
  000f6	ff 15 00 00 00
	00		 call	 DWORD PTR __imp_?eq_int_type@?$char_traits@_W@std@@SA_NABG0@Z
  000fc	83 c4 08	 add	 esp, 8
  000ff	88 45 bb	 mov	 BYTE PTR tv170[ebp], al
  00102	0f b6 4d bb	 movzx	 ecx, BYTE PTR tv170[ebp]
  00106	85 c9		 test	 ecx, ecx
  00108	74 0e		 je	 SHORT $L86683

; 493  : 				{	// end of file, quit
; 494  : 				_State |= ios_base::eofbit;

  0010a	8b 55 ec	 mov	 edx, DWORD PTR __State$[ebp]
  0010d	83 ca 01	 or	 edx, 1
  00110	89 55 ec	 mov	 DWORD PTR __State$[ebp], edx

; 495  : 				break;

  00113	e9 94 00 00 00	 jmp	 $L86681
$L86683:

; 496  : 				}
; 497  : 			else if (_Traits::eq_int_type(_Meta, _Metadelim))

  00118	8d 45 dc	 lea	 eax, DWORD PTR __Metadelim$86677[ebp]
  0011b	50		 push	 eax
  0011c	8d 4d d8	 lea	 ecx, DWORD PTR __Meta$86678[ebp]
  0011f	51		 push	 ecx
  00120	ff 15 00 00 00
	00		 call	 DWORD PTR __imp_?eq_int_type@?$char_traits@_W@std@@SA_NABG0@Z
  00126	83 c4 08	 add	 esp, 8
  00129	88 45 ba	 mov	 BYTE PTR tv171[ebp], al
  0012c	0f b6 55 ba	 movzx	 edx, BYTE PTR tv171[ebp]
  00130	85 d2		 test	 edx, edx
  00132	74 25		 je	 SHORT $L86685

; 498  : 				{	// got a delimiter, discard it and quit
; 499  : 				_Changed = true;

  00134	c6 45 e3 01	 mov	 BYTE PTR __Changed$[ebp], 1

; 500  : 				_Istr.rdbuf()->sbumpc();

  00138	8b 45 08	 mov	 eax, DWORD PTR __Istr$[ebp]
  0013b	8b 08		 mov	 ecx, DWORD PTR [eax]
  0013d	8b 55 08	 mov	 edx, DWORD PTR __Istr$[ebp]
  00140	03 51 04	 add	 edx, DWORD PTR [ecx+4]
  00143	8b ca		 mov	 ecx, edx
  00145	ff 15 00 00 00
	00		 call	 DWORD PTR __imp_?rdbuf@?$basic_ios@_WU?$char_traits@_W@std@@@std@@QBEPAV?$basic_streambuf@_WU?$char_traits@_W@std@@@2@XZ
  0014b	89 45 b4	 mov	 DWORD PTR tv172[ebp], eax
  0014e	8b 4d b4	 mov	 ecx, DWORD PTR tv172[ebp]
  00151	ff 15 00 00 00
	00		 call	 DWORD PTR __imp_?sbumpc@?$basic_streambuf@_WU?$char_traits@_W@std@@@std@@QAEGXZ

; 501  : 				break;

  00157	eb 53		 jmp	 SHORT $L86681
$L86685:

; 502  : 				}
; 503  : 			else if (_Str.max_size() <= _Str.size())

  00159	8b 4d 0c	 mov	 ecx, DWORD PTR __Str$[ebp]
  0015c	ff 15 00 00 00
	00		 call	 DWORD PTR __imp_?max_size@?$basic_string@_WU?$char_traits@_W@std@@V?$allocator@_W@2@@std@@QBEIXZ
  00162	89 45 b0	 mov	 DWORD PTR tv173[ebp], eax
  00165	8b 4d 0c	 mov	 ecx, DWORD PTR __Str$[ebp]
  00168	ff 15 00 00 00
	00		 call	 DWORD PTR __imp_?size@?$basic_string@_WU?$char_traits@_W@std@@V?$allocator@_W@2@@std@@QBEIXZ
  0016e	89 45 ac	 mov	 DWORD PTR tv174[ebp], eax
  00171	8b 45 b0	 mov	 eax, DWORD PTR tv173[ebp]
  00174	3b 45 ac	 cmp	 eax, DWORD PTR tv174[ebp]
  00177	77 0b		 ja	 SHORT $L86687

; 504  : 				{	// string too large, quit
; 505  : 				_State |= ios_base::failbit;

  00179	8b 4d ec	 mov	 ecx, DWORD PTR __State$[ebp]
  0017c	83 c9 02	 or	 ecx, 2
  0017f	89 4d ec	 mov	 DWORD PTR __State$[ebp], ecx

; 506  : 				break;

  00182	eb 28		 jmp	 SHORT $L86681
$L86687:

; 507  : 				}
; 508  : 			else
; 509  : 				{	// got a character, add it to string
; 510  : 				_Str += _Traits::to_char_type(_Meta);

  00184	8d 55 d8	 lea	 edx, DWORD PTR __Meta$86678[ebp]
  00187	52		 push	 edx
  00188	ff 15 00 00 00
	00		 call	 DWORD PTR __imp_?to_char_type@?$char_traits@_W@std@@SA_WABG@Z
  0018e	83 c4 04	 add	 esp, 4
  00191	66 89 45 aa	 mov	 WORD PTR tv175[ebp], ax
  00195	66 8b 45 aa	 mov	 ax, WORD PTR tv175[ebp]
  00199	50		 push	 eax
  0019a	8b 4d 0c	 mov	 ecx, DWORD PTR __Str$[ebp]
  0019d	ff 15 00 00 00
	00		 call	 DWORD PTR __imp_??Y?$basic_string@_WU?$char_traits@_W@std@@V?$allocator@_W@2@@std@@QAEAAV01@_W@Z

; 511  : 				_Changed = true;

  001a3	c6 45 e3 01	 mov	 BYTE PTR __Changed$[ebp], 1

; 512  : 				}

  001a7	e9 07 ff ff ff	 jmp	 $L86680
$L86681:
  001ac	eb 1b		 jmp	 SHORT $L88770
$L88771:

; 513  : 		_CATCH_IO_(_Istr)

  001ae	6a 01		 push	 1
  001b0	6a 04		 push	 4
  001b2	8b 4d 08	 mov	 ecx, DWORD PTR __Istr$[ebp]
  001b5	8b 11		 mov	 edx, DWORD PTR [ecx]
  001b7	8b 4d 08	 mov	 ecx, DWORD PTR __Istr$[ebp]
  001ba	03 4a 04	 add	 ecx, DWORD PTR [edx+4]
  001bd	ff 15 00 00 00
	00		 call	 DWORD PTR __imp_?setstate@?$basic_ios@_WU?$char_traits@_W@std@@@std@@QAEXH_N@Z
  001c3	b8 00 00 00 00	 mov	 eax, $L88770
  001c8	c3		 ret	 0
$L88770:
  001c9	c7 45 fc 00 00
	00 00		 mov	 DWORD PTR __$EHRec$[ebp+12], 0

; 514  : 		}
; 515  : 
; 516  : 	if (!_Changed)

  001d0	0f b6 45 e3	 movzx	 eax, BYTE PTR __Changed$[ebp]
  001d4	85 c0		 test	 eax, eax
  001d6	75 09		 jne	 SHORT $L86689

; 517  : 		_State |= ios_base::failbit;

  001d8	8b 4d ec	 mov	 ecx, DWORD PTR __State$[ebp]
  001db	83 c9 02	 or	 ecx, 2
  001de	89 4d ec	 mov	 DWORD PTR __State$[ebp], ecx
$L86689:

; 518  : 	_Istr.setstate(_State);

  001e1	6a 00		 push	 0
  001e3	8b 55 ec	 mov	 edx, DWORD PTR __State$[ebp]
  001e6	52		 push	 edx
  001e7	8b 45 08	 mov	 eax, DWORD PTR __Istr$[ebp]
  001ea	8b 08		 mov	 ecx, DWORD PTR [eax]
  001ec	8b 55 08	 mov	 edx, DWORD PTR __Istr$[ebp]
  001ef	03 51 04	 add	 edx, DWORD PTR [ecx+4]
  001f2	8b ca		 mov	 ecx, edx
  001f4	ff 15 00 00 00
	00		 call	 DWORD PTR __imp_?setstate@?$basic_ios@_WU?$char_traits@_W@std@@@std@@QAEXH_N@Z

; 519  : 	return (_Istr);

  001fa	8b 45 08	 mov	 eax, DWORD PTR __Istr$[ebp]
  001fd	89 45 d0	 mov	 DWORD PTR $T88769[ebp], eax
  00200	c7 45 fc ff ff
	ff ff		 mov	 DWORD PTR __$EHRec$[ebp+12], -1
  00207	8d 4d e4	 lea	 ecx, DWORD PTR __Ok$[ebp]
  0020a	e8 00 00 00 00	 call	 ??1sentry@?$basic_istream@_WU?$char_traits@_W@std@@@std@@QAE@XZ
  0020f	8b 45 d0	 mov	 eax, DWORD PTR $T88769[ebp]

; 520  : 	}

  00212	8b 4d f4	 mov	 ecx, DWORD PTR __$EHRec$[ebp+4]
  00215	64 89 0d 00 00
	00 00		 mov	 DWORD PTR fs:__except_list, ecx
  0021c	5f		 pop	 edi
  0021d	5e		 pop	 esi
  0021e	5b		 pop	 ebx
  0021f	8b e5		 mov	 esp, ebp
  00221	5d		 pop	 ebp
  00222	c3		 ret	 0
_TEXT	ENDS
;	COMDAT text$x
text$x	SEGMENT
$L88772:
  00000	8d 4d e4	 lea	 ecx, DWORD PTR __Ok$[ebp]
  00003	e9 00 00 00 00	 jmp	 ??1sentry@?$basic_istream@_WU?$char_traits@_W@std@@@std@@QAE@XZ
__ehhandler$??$getline@_WU?$char_traits@_W@std@@V?$allocator@_W@2@@std@@YAAAV?$basic_istream@_WU?$char_traits@_W@std@@@0@AAV10@AAV?$basic_string@_WU?$char_traits@_W@std@@V?$allocator@_W@2@@0@_W@Z:
  00008	b8 00 00 00 00	 mov	 eax, OFFSET FLAT:$T88774
  0000d	e9 00 00 00 00	 jmp	 ___CxxFrameHandler
text$x	ENDS
??$getline@_WU?$char_traits@_W@std@@V?$allocator@_W@2@@std@@YAAAV?$basic_istream@_WU?$char_traits@_W@std@@@0@AAV10@AAV?$basic_string@_WU?$char_traits@_W@std@@V?$allocator@_W@2@@0@_W@Z ENDP ; std::getline<wchar_t,std::char_traits<wchar_t>,std::allocator<wchar_t> >
PUBLIC	??$?6_WU?$char_traits@_W@std@@V?$allocator@_W@1@@std@@YAAAV?$basic_ostream@_WU?$char_traits@_W@std@@@0@AAV10@ABV?$basic_string@_WU?$char_traits@_W@std@@V?$allocator@_W@2@@0@@Z ; std::operator<<<wchar_t,std::char_traits<wchar_t>,std::allocator<wchar_t> >
PUBLIC	??0sentry@?$basic_ostream@_WU?$char_traits@_W@std@@@std@@QAE@AAV12@@Z ; std::basic_ostream<wchar_t,std::char_traits<wchar_t> >::sentry::sentry
PUBLIC	??1sentry@?$basic_ostream@_WU?$char_traits@_W@std@@@std@@QAE@XZ ; std::basic_ostream<wchar_t,std::char_traits<wchar_t> >::sentry::~sentry
PUBLIC	??Bsentry@?$basic_ostream@_WU?$char_traits@_W@std@@@std@@QBE_NXZ ; std::basic_ostream<wchar_t,std::char_traits<wchar_t> >::sentry::operator bool
EXTRN	__imp_?sputc@?$basic_streambuf@_WU?$char_traits@_W@std@@@std@@QAEG_W@Z:NEAR
EXTRN	__imp_??A?$basic_string@_WU?$char_traits@_W@std@@V?$allocator@_W@2@@std@@QBEAB_WI@Z:NEAR
EXTRN	__imp_?fill@?$basic_ios@_WU?$char_traits@_W@std@@@std@@QBE_WXZ:NEAR
;	COMDAT xdata$x
xdata$x	SEGMENT
$T88798	DD	0ffffffffH
	DD	FLAT:$L88794
	DD	00H
	DD	00H
	DD	00H
	DD	00H
$T88800	DD	00H
	DD	00H
	DD	00H
	DD	FLAT:$L88793
$T88799	DD	01H
	DD	01H
	DD	02H
	DD	01H
	DD	FLAT:$T88800
$T88796	DD	019930520H
	DD	03H
	DD	FLAT:$T88798
	DD	01H
	DD	FLAT:$T88799
	DD	2 DUP(00H)
; Function compile flags: /Odt
xdata$x	ENDS
;	COMDAT ??$?6_WU?$char_traits@_W@std@@V?$allocator@_W@1@@std@@YAAAV?$basic_ostream@_WU?$char_traits@_W@std@@@0@AAV10@ABV?$basic_string@_WU?$char_traits@_W@std@@V?$allocator@_W@2@@0@@Z
_TEXT	SEGMENT
tv221 = -105						; size = 1
tv220 = -104						; size = 2
tv219 = -102						; size = 2
tv218 = -100						; size = 4
tv217 = -96						; size = 2
tv216 = -93						; size = 1
tv215 = -92						; size = 2
tv214 = -90						; size = 2
tv213 = -88						; size = 4
tv212 = -84						; size = 4
tv211 = -77						; size = 1
tv210 = -76						; size = 2
tv209 = -74						; size = 2
tv208 = -72						; size = 4
tv207 = -66						; size = 2
tv83 = -64						; size = 4
tv81 = -60						; size = 4
$T88791 = -56						; size = 4
$T88790 = -52						; size = 2
$T88789 = -50						; size = 2
$T88788 = -48						; size = 2
$T88787 = -46						; size = 2
$T88786 = -44						; size = 2
$T88785 = -42						; size = 2
__Count$86712 = -40					; size = 4
__Size$ = -36						; size = 4
__Ok$ = -32						; size = 8
__Pad$ = -24						; size = 4
__State$ = -20						; size = 4
__$EHRec$ = -16						; size = 16
__Ostr$ = 8						; size = 4
__Str$ = 12						; size = 4
??$?6_WU?$char_traits@_W@std@@V?$allocator@_W@1@@std@@YAAAV?$basic_ostream@_WU?$char_traits@_W@std@@@0@AAV10@ABV?$basic_string@_WU?$char_traits@_W@std@@V?$allocator@_W@2@@0@@Z PROC NEAR ; std::operator<<<wchar_t,std::char_traits<wchar_t>,std::allocator<wchar_t> >, COMDAT

; 538  : 	{	// insert a string

  00000	55		 push	 ebp
  00001	8b ec		 mov	 ebp, esp
  00003	6a ff		 push	 -1
  00005	68 00 00 00 00	 push	 __ehhandler$??$?6_WU?$char_traits@_W@std@@V?$allocator@_W@1@@std@@YAAAV?$basic_ostream@_WU?$char_traits@_W@std@@@0@AAV10@ABV?$basic_string@_WU?$char_traits@_W@std@@V?$allocator@_W@2@@0@@Z
  0000a	64 a1 00 00 00
	00		 mov	 eax, DWORD PTR fs:__except_list
  00010	50		 push	 eax
  00011	64 89 25 00 00
	00 00		 mov	 DWORD PTR fs:__except_list, esp
  00018	51		 push	 ecx
  00019	83 ec 5c	 sub	 esp, 92			; 0000005cH
  0001c	53		 push	 ebx
  0001d	56		 push	 esi
  0001e	57		 push	 edi
  0001f	89 65 f0	 mov	 DWORD PTR __$EHRec$[ebp], esp

; 539  : 	typedef basic_ostream<_Elem, _Traits> _Myos;
; 540  : 	typedef basic_string<_Elem, _Traits, _Alloc> _Mystr;
; 541  : 	typedef typename _Mystr::size_type _Mysizt;
; 542  : 
; 543  : 	ios_base::iostate _State = ios_base::goodbit;

  00022	c7 45 ec 00 00
	00 00		 mov	 DWORD PTR __State$[ebp], 0

; 544  : 	_Mysizt _Size = _Str.size();

  00029	8b 4d 0c	 mov	 ecx, DWORD PTR __Str$[ebp]
  0002c	ff 15 00 00 00
	00		 call	 DWORD PTR __imp_?size@?$basic_string@_WU?$char_traits@_W@std@@V?$allocator@_W@2@@std@@QBEIXZ
  00032	89 45 dc	 mov	 DWORD PTR __Size$[ebp], eax

; 545  : 	_Mysizt _Pad = _Ostr.width() <= 0 || (_Mysizt)_Ostr.width() <= _Size
; 546  : 			? 0 : (_Mysizt)_Ostr.width() - _Size;

  00035	8b 45 08	 mov	 eax, DWORD PTR __Ostr$[ebp]
  00038	8b 08		 mov	 ecx, DWORD PTR [eax]
  0003a	8b 55 08	 mov	 edx, DWORD PTR __Ostr$[ebp]
  0003d	03 51 04	 add	 edx, DWORD PTR [ecx+4]
  00040	8b ca		 mov	 ecx, edx
  00042	ff 15 00 00 00
	00		 call	 DWORD PTR __imp_?width@ios_base@std@@QBEHXZ
  00048	85 c0		 test	 eax, eax
  0004a	7e 33		 jle	 SHORT $L88783
  0004c	8b 45 08	 mov	 eax, DWORD PTR __Ostr$[ebp]
  0004f	8b 08		 mov	 ecx, DWORD PTR [eax]
  00051	8b 55 08	 mov	 edx, DWORD PTR __Ostr$[ebp]
  00054	03 51 04	 add	 edx, DWORD PTR [ecx+4]
  00057	8b ca		 mov	 ecx, edx
  00059	ff 15 00 00 00
	00		 call	 DWORD PTR __imp_?width@ios_base@std@@QBEHXZ
  0005f	3b 45 dc	 cmp	 eax, DWORD PTR __Size$[ebp]
  00062	76 1b		 jbe	 SHORT $L88783
  00064	8b 45 08	 mov	 eax, DWORD PTR __Ostr$[ebp]
  00067	8b 08		 mov	 ecx, DWORD PTR [eax]
  00069	8b 55 08	 mov	 edx, DWORD PTR __Ostr$[ebp]
  0006c	03 51 04	 add	 edx, DWORD PTR [ecx+4]
  0006f	8b ca		 mov	 ecx, edx
  00071	ff 15 00 00 00
	00		 call	 DWORD PTR __imp_?width@ios_base@std@@QBEHXZ
  00077	2b 45 dc	 sub	 eax, DWORD PTR __Size$[ebp]
  0007a	89 45 c4	 mov	 DWORD PTR tv81[ebp], eax
  0007d	eb 07		 jmp	 SHORT $L88784
$L88783:
  0007f	c7 45 c4 00 00
	00 00		 mov	 DWORD PTR tv81[ebp], 0
$L88784:
  00086	8b 45 c4	 mov	 eax, DWORD PTR tv81[ebp]
  00089	89 45 e8	 mov	 DWORD PTR __Pad$[ebp], eax

; 547  : 	const typename _Myos::sentry _Ok(_Ostr);

  0008c	8b 4d 08	 mov	 ecx, DWORD PTR __Ostr$[ebp]
  0008f	51		 push	 ecx
  00090	8d 4d e0	 lea	 ecx, DWORD PTR __Ok$[ebp]
  00093	e8 00 00 00 00	 call	 ??0sentry@?$basic_ostream@_WU?$char_traits@_W@std@@@std@@QAE@AAV12@@Z ; std::basic_ostream<wchar_t,std::char_traits<wchar_t> >::sentry::sentry
  00098	c7 45 fc 00 00
	00 00		 mov	 DWORD PTR __$EHRec$[ebp+12], 0

; 548  : 
; 549  : 	if (!_Ok)

  0009f	8d 4d e0	 lea	 ecx, DWORD PTR __Ok$[ebp]
  000a2	e8 00 00 00 00	 call	 ??Bsentry@?$basic_ostream@_WU?$char_traits@_W@std@@@std@@QBE_NXZ ; std::basic_ostream<wchar_t,std::char_traits<wchar_t> >::sentry::operator bool
  000a7	0f b6 d0	 movzx	 edx, al
  000aa	85 d2		 test	 edx, edx
  000ac	75 0e		 jne	 SHORT $L86701

; 550  : 		_State |= ios_base::badbit;

  000ae	8b 45 ec	 mov	 eax, DWORD PTR __State$[ebp]
  000b1	83 c8 04	 or	 eax, 4
  000b4	89 45 ec	 mov	 DWORD PTR __State$[ebp], eax

; 551  : 	else

  000b7	e9 37 02 00 00	 jmp	 $L88792
$L86701:

; 552  : 		{	// state okay, insert characters
; 553  : 	_TRY_IO_BEGIN

  000bc	c6 45 fc 01	 mov	 BYTE PTR __$EHRec$[ebp+12], 1

; 554  : 		if ((_Ostr.flags() & ios_base::adjustfield) != ios_base::left)

  000c0	8b 4d 08	 mov	 ecx, DWORD PTR __Ostr$[ebp]
  000c3	8b 11		 mov	 edx, DWORD PTR [ecx]
  000c5	8b 4d 08	 mov	 ecx, DWORD PTR __Ostr$[ebp]
  000c8	03 4a 04	 add	 ecx, DWORD PTR [edx+4]
  000cb	ff 15 00 00 00
	00		 call	 DWORD PTR __imp_?flags@ios_base@std@@QBEHXZ
  000d1	89 45 c0	 mov	 DWORD PTR tv83[ebp], eax
  000d4	8b 45 c0	 mov	 eax, DWORD PTR tv83[ebp]
  000d7	25 c0 01 00 00	 and	 eax, 448		; 000001c0H
  000dc	83 f8 40	 cmp	 eax, 64			; 00000040H
  000df	0f 84 96 00 00
	00		 je	 $L86704

; 555  : 			for (; 0 < _Pad; --_Pad)	// pad on left

  000e5	eb 09		 jmp	 SHORT $L86705
$L86706:
  000e7	8b 4d e8	 mov	 ecx, DWORD PTR __Pad$[ebp]
  000ea	83 e9 01	 sub	 ecx, 1
  000ed	89 4d e8	 mov	 DWORD PTR __Pad$[ebp], ecx
$L86705:
  000f0	83 7d e8 00	 cmp	 DWORD PTR __Pad$[ebp], 0
  000f4	0f 86 81 00 00
	00		 jbe	 $L86704

; 556  : 				if (_Traits::eq_int_type(_Traits::eof(),
; 557  : 					_Ostr.rdbuf()->sputc(_Ostr.fill())))

  000fa	8b 55 08	 mov	 edx, DWORD PTR __Ostr$[ebp]
  000fd	8b 02		 mov	 eax, DWORD PTR [edx]
  000ff	8b 4d 08	 mov	 ecx, DWORD PTR __Ostr$[ebp]
  00102	03 48 04	 add	 ecx, DWORD PTR [eax+4]
  00105	ff 15 00 00 00
	00		 call	 DWORD PTR __imp_?fill@?$basic_ios@_WU?$char_traits@_W@std@@@std@@QBE_WXZ
  0010b	66 89 45 be	 mov	 WORD PTR tv207[ebp], ax
  0010f	8b 4d 08	 mov	 ecx, DWORD PTR __Ostr$[ebp]
  00112	8b 11		 mov	 edx, DWORD PTR [ecx]
  00114	8b 4d 08	 mov	 ecx, DWORD PTR __Ostr$[ebp]
  00117	03 4a 04	 add	 ecx, DWORD PTR [edx+4]
  0011a	ff 15 00 00 00
	00		 call	 DWORD PTR __imp_?rdbuf@?$basic_ios@_WU?$char_traits@_W@std@@@std@@QBEPAV?$basic_streambuf@_WU?$char_traits@_W@std@@@2@XZ
  00120	89 45 b8	 mov	 DWORD PTR tv208[ebp], eax
  00123	66 8b 45 be	 mov	 ax, WORD PTR tv207[ebp]
  00127	50		 push	 eax
  00128	8b 4d b8	 mov	 ecx, DWORD PTR tv208[ebp]
  0012b	ff 15 00 00 00
	00		 call	 DWORD PTR __imp_?sputc@?$basic_streambuf@_WU?$char_traits@_W@std@@@std@@QAEG_W@Z
  00131	66 89 45 b6	 mov	 WORD PTR tv209[ebp], ax
  00135	66 8b 4d b6	 mov	 cx, WORD PTR tv209[ebp]
  00139	66 89 4d d6	 mov	 WORD PTR $T88785[ebp], cx
  0013d	ff 15 00 00 00
	00		 call	 DWORD PTR __imp_?eof@?$char_traits@_W@std@@SAGXZ
  00143	66 89 45 b4	 mov	 WORD PTR tv210[ebp], ax
  00147	66 8b 55 b4	 mov	 dx, WORD PTR tv210[ebp]
  0014b	66 89 55 d4	 mov	 WORD PTR $T88786[ebp], dx
  0014f	8d 45 d6	 lea	 eax, DWORD PTR $T88785[ebp]
  00152	50		 push	 eax
  00153	8d 4d d4	 lea	 ecx, DWORD PTR $T88786[ebp]
  00156	51		 push	 ecx
  00157	ff 15 00 00 00
	00		 call	 DWORD PTR __imp_?eq_int_type@?$char_traits@_W@std@@SA_NABG0@Z
  0015d	83 c4 08	 add	 esp, 8
  00160	88 45 b3	 mov	 BYTE PTR tv211[ebp], al
  00163	0f b6 55 b3	 movzx	 edx, BYTE PTR tv211[ebp]
  00167	85 d2		 test	 edx, edx
  00169	74 0b		 je	 SHORT $L86710

; 558  : 					{	// insertion failed, quit
; 559  : 					_State |= ios_base::badbit;

  0016b	8b 45 ec	 mov	 eax, DWORD PTR __State$[ebp]
  0016e	83 c8 04	 or	 eax, 4
  00171	89 45 ec	 mov	 DWORD PTR __State$[ebp], eax

; 560  : 					break;

  00174	eb 05		 jmp	 SHORT $L86704
$L86710:

; 561  : 					}
; 562  : 
; 563  : 		if (_State == ios_base::goodbit)

  00176	e9 6c ff ff ff	 jmp	 $L86706
$L86704:
  0017b	83 7d ec 00	 cmp	 DWORD PTR __State$[ebp], 0
  0017f	0f 85 98 00 00
	00		 jne	 $L86711

; 564  : 			for (_Mysizt _Count = 0; _Count < _Size; ++_Count)

  00185	c7 45 d8 00 00
	00 00		 mov	 DWORD PTR __Count$86712[ebp], 0
  0018c	eb 09		 jmp	 SHORT $L86713
$L86714:
  0018e	8b 4d d8	 mov	 ecx, DWORD PTR __Count$86712[ebp]
  00191	83 c1 01	 add	 ecx, 1
  00194	89 4d d8	 mov	 DWORD PTR __Count$86712[ebp], ecx
$L86713:
  00197	8b 55 d8	 mov	 edx, DWORD PTR __Count$86712[ebp]
  0019a	3b 55 dc	 cmp	 edx, DWORD PTR __Size$[ebp]
  0019d	73 7e		 jae	 SHORT $L86711

; 565  : 				if (_Traits::eq_int_type(_Traits::eof(),
; 566  : 					_Ostr.rdbuf()->sputc(_Str[_Count])))

  0019f	8b 45 d8	 mov	 eax, DWORD PTR __Count$86712[ebp]
  001a2	50		 push	 eax
  001a3	8b 4d 0c	 mov	 ecx, DWORD PTR __Str$[ebp]
  001a6	ff 15 00 00 00
	00		 call	 DWORD PTR __imp_??A?$basic_string@_WU?$char_traits@_W@std@@V?$allocator@_W@2@@std@@QBEAB_WI@Z
  001ac	89 45 ac	 mov	 DWORD PTR tv212[ebp], eax
  001af	8b 4d 08	 mov	 ecx, DWORD PTR __Ostr$[ebp]
  001b2	8b 11		 mov	 edx, DWORD PTR [ecx]
  001b4	8b 4d 08	 mov	 ecx, DWORD PTR __Ostr$[ebp]
  001b7	03 4a 04	 add	 ecx, DWORD PTR [edx+4]
  001ba	ff 15 00 00 00
	00		 call	 DWORD PTR __imp_?rdbuf@?$basic_ios@_WU?$char_traits@_W@std@@@std@@QBEPAV?$basic_streambuf@_WU?$char_traits@_W@std@@@2@XZ
  001c0	89 45 a8	 mov	 DWORD PTR tv213[ebp], eax
  001c3	8b 45 ac	 mov	 eax, DWORD PTR tv212[ebp]
  001c6	66 8b 08	 mov	 cx, WORD PTR [eax]
  001c9	51		 push	 ecx
  001ca	8b 4d a8	 mov	 ecx, DWORD PTR tv213[ebp]
  001cd	ff 15 00 00 00
	00		 call	 DWORD PTR __imp_?sputc@?$basic_streambuf@_WU?$char_traits@_W@std@@@std@@QAEG_W@Z
  001d3	66 89 45 a6	 mov	 WORD PTR tv214[ebp], ax
  001d7	66 8b 55 a6	 mov	 dx, WORD PTR tv214[ebp]
  001db	66 89 55 d2	 mov	 WORD PTR $T88787[ebp], dx
  001df	ff 15 00 00 00
	00		 call	 DWORD PTR __imp_?eof@?$char_traits@_W@std@@SAGXZ
  001e5	66 89 45 a4	 mov	 WORD PTR tv215[ebp], ax
  001e9	66 8b 45 a4	 mov	 ax, WORD PTR tv215[ebp]
  001ed	66 89 45 d0	 mov	 WORD PTR $T88788[ebp], ax
  001f1	8d 4d d2	 lea	 ecx, DWORD PTR $T88787[ebp]
  001f4	51		 push	 ecx
  001f5	8d 55 d0	 lea	 edx, DWORD PTR $T88788[ebp]
  001f8	52		 push	 edx
  001f9	ff 15 00 00 00
	00		 call	 DWORD PTR __imp_?eq_int_type@?$char_traits@_W@std@@SA_NABG0@Z
  001ff	83 c4 08	 add	 esp, 8
  00202	88 45 a3	 mov	 BYTE PTR tv216[ebp], al
  00205	0f b6 45 a3	 movzx	 eax, BYTE PTR tv216[ebp]
  00209	85 c0		 test	 eax, eax
  0020b	74 0b		 je	 SHORT $L86718

; 567  : 					{	// insertion failed, quit
; 568  : 					_State |= ios_base::badbit;

  0020d	8b 4d ec	 mov	 ecx, DWORD PTR __State$[ebp]
  00210	83 c9 04	 or	 ecx, 4
  00213	89 4d ec	 mov	 DWORD PTR __State$[ebp], ecx

; 569  : 					break;

  00216	eb 05		 jmp	 SHORT $L86711
$L86718:

; 570  : 					}
; 571  : 
; 572  : 		if (_State == ios_base::goodbit)

  00218	e9 71 ff ff ff	 jmp	 $L86714
$L86711:
  0021d	83 7d ec 00	 cmp	 DWORD PTR __State$[ebp], 0
  00221	0f 85 9a 00 00
	00		 jne	 $L86719

; 573  : 			for (; 0 < _Pad; --_Pad)	// pad on right

  00227	eb 09		 jmp	 SHORT $L86720
$L86721:
  00229	8b 55 e8	 mov	 edx, DWORD PTR __Pad$[ebp]
  0022c	83 ea 01	 sub	 edx, 1
  0022f	89 55 e8	 mov	 DWORD PTR __Pad$[ebp], edx
$L86720:
  00232	83 7d e8 00	 cmp	 DWORD PTR __Pad$[ebp], 0
  00236	0f 86 85 00 00
	00		 jbe	 $L86719

; 574  : 				if (_Traits::eq_int_type(_Traits::eof(),
; 575  : 					_Ostr.rdbuf()->sputc(_Ostr.fill())))

  0023c	8b 45 08	 mov	 eax, DWORD PTR __Ostr$[ebp]
  0023f	8b 08		 mov	 ecx, DWORD PTR [eax]
  00241	8b 55 08	 mov	 edx, DWORD PTR __Ostr$[ebp]
  00244	03 51 04	 add	 edx, DWORD PTR [ecx+4]
  00247	8b ca		 mov	 ecx, edx
  00249	ff 15 00 00 00
	00		 call	 DWORD PTR __imp_?fill@?$basic_ios@_WU?$char_traits@_W@std@@@std@@QBE_WXZ
  0024f	66 89 45 a0	 mov	 WORD PTR tv217[ebp], ax
  00253	8b 45 08	 mov	 eax, DWORD PTR __Ostr$[ebp]
  00256	8b 08		 mov	 ecx, DWORD PTR [eax]
  00258	8b 55 08	 mov	 edx, DWORD PTR __Ostr$[ebp]
  0025b	03 51 04	 add	 edx, DWORD PTR [ecx+4]
  0025e	8b ca		 mov	 ecx, edx
  00260	ff 15 00 00 00
	00		 call	 DWORD PTR __imp_?rdbuf@?$basic_ios@_WU?$char_traits@_W@std@@@std@@QBEPAV?$basic_streambuf@_WU?$char_traits@_W@std@@@2@XZ
  00266	89 45 9c	 mov	 DWORD PTR tv218[ebp], eax
  00269	66 8b 45 a0	 mov	 ax, WORD PTR tv217[ebp]
  0026d	50		 push	 eax
  0026e	8b 4d 9c	 mov	 ecx, DWORD PTR tv218[ebp]
  00271	ff 15 00 00 00
	00		 call	 DWORD PTR __imp_?sputc@?$basic_streambuf@_WU?$char_traits@_W@std@@@std@@QAEG_W@Z
  00277	66 89 45 9a	 mov	 WORD PTR tv219[ebp], ax
  0027b	66 8b 4d 9a	 mov	 cx, WORD PTR tv219[ebp]
  0027f	66 89 4d ce	 mov	 WORD PTR $T88789[ebp], cx
  00283	ff 15 00 00 00
	00		 call	 DWORD PTR __imp_?eof@?$char_traits@_W@std@@SAGXZ
  00289	66 89 45 98	 mov	 WORD PTR tv220[ebp], ax
  0028d	66 8b 55 98	 mov	 dx, WORD PTR tv220[ebp]
  00291	66 89 55 cc	 mov	 WORD PTR $T88790[ebp], dx
  00295	8d 45 ce	 lea	 eax, DWORD PTR $T88789[ebp]
  00298	50		 push	 eax
  00299	8d 4d cc	 lea	 ecx, DWORD PTR $T88790[ebp]
  0029c	51		 push	 ecx
  0029d	ff 15 00 00 00
	00		 call	 DWORD PTR __imp_?eq_int_type@?$char_traits@_W@std@@SA_NABG0@Z
  002a3	83 c4 08	 add	 esp, 8
  002a6	88 45 97	 mov	 BYTE PTR tv221[ebp], al
  002a9	0f b6 55 97	 movzx	 edx, BYTE PTR tv221[ebp]
  002ad	85 d2		 test	 edx, edx
  002af	74 0b		 je	 SHORT $L86725

; 576  : 					{	// insertion failed, quit
; 577  : 					_State |= ios_base::badbit;

  002b1	8b 45 ec	 mov	 eax, DWORD PTR __State$[ebp]
  002b4	83 c8 04	 or	 eax, 4
  002b7	89 45 ec	 mov	 DWORD PTR __State$[ebp], eax

; 578  : 					break;

  002ba	eb 05		 jmp	 SHORT $L86719
$L86725:

; 579  : 					}
; 580  : 		_Ostr.width(0);

  002bc	e9 68 ff ff ff	 jmp	 $L86721
$L86719:
  002c1	6a 00		 push	 0
  002c3	8b 4d 08	 mov	 ecx, DWORD PTR __Ostr$[ebp]
  002c6	8b 11		 mov	 edx, DWORD PTR [ecx]
  002c8	8b 4d 08	 mov	 ecx, DWORD PTR __Ostr$[ebp]
  002cb	03 4a 04	 add	 ecx, DWORD PTR [edx+4]
  002ce	ff 15 00 00 00
	00		 call	 DWORD PTR __imp_?width@ios_base@std@@QAEHH@Z
  002d4	eb 1d		 jmp	 SHORT $L88792
$L88793:

; 581  : 		_CATCH_IO_(_Ostr)

  002d6	6a 01		 push	 1
  002d8	6a 04		 push	 4
  002da	8b 45 08	 mov	 eax, DWORD PTR __Ostr$[ebp]
  002dd	8b 08		 mov	 ecx, DWORD PTR [eax]
  002df	8b 55 08	 mov	 edx, DWORD PTR __Ostr$[ebp]
  002e2	03 51 04	 add	 edx, DWORD PTR [ecx+4]
  002e5	8b ca		 mov	 ecx, edx
  002e7	ff 15 00 00 00
	00		 call	 DWORD PTR __imp_?setstate@?$basic_ios@_WU?$char_traits@_W@std@@@std@@QAEXH_N@Z
  002ed	b8 00 00 00 00	 mov	 eax, $L88792
  002f2	c3		 ret	 0
$L88792:
  002f3	c7 45 fc 00 00
	00 00		 mov	 DWORD PTR __$EHRec$[ebp+12], 0

; 582  : 		}
; 583  : 
; 584  : 	_Ostr.setstate(_State);

  002fa	6a 00		 push	 0
  002fc	8b 45 ec	 mov	 eax, DWORD PTR __State$[ebp]
  002ff	50		 push	 eax
  00300	8b 4d 08	 mov	 ecx, DWORD PTR __Ostr$[ebp]
  00303	8b 11		 mov	 edx, DWORD PTR [ecx]
  00305	8b 4d 08	 mov	 ecx, DWORD PTR __Ostr$[ebp]
  00308	03 4a 04	 add	 ecx, DWORD PTR [edx+4]
  0030b	ff 15 00 00 00
	00		 call	 DWORD PTR __imp_?setstate@?$basic_ios@_WU?$char_traits@_W@std@@@std@@QAEXH_N@Z

; 585  : 	return (_Ostr);

  00311	8b 45 08	 mov	 eax, DWORD PTR __Ostr$[ebp]
  00314	89 45 c8	 mov	 DWORD PTR $T88791[ebp], eax
  00317	c7 45 fc ff ff
	ff ff		 mov	 DWORD PTR __$EHRec$[ebp+12], -1
  0031e	8d 4d e0	 lea	 ecx, DWORD PTR __Ok$[ebp]
  00321	e8 00 00 00 00	 call	 ??1sentry@?$basic_ostream@_WU?$char_traits@_W@std@@@std@@QAE@XZ ; std::basic_ostream<wchar_t,std::char_traits<wchar_t> >::sentry::~sentry
  00326	8b 45 c8	 mov	 eax, DWORD PTR $T88791[ebp]

; 586  : 	}

  00329	8b 4d f4	 mov	 ecx, DWORD PTR __$EHRec$[ebp+4]
  0032c	64 89 0d 00 00
	00 00		 mov	 DWORD PTR fs:__except_list, ecx
  00333	5f		 pop	 edi
  00334	5e		 pop	 esi
  00335	5b		 pop	 ebx
  00336	8b e5		 mov	 esp, ebp
  00338	5d		 pop	 ebp
  00339	c3		 ret	 0
_TEXT	ENDS
;	COMDAT text$x
text$x	SEGMENT
$L88794:
  00000	8d 4d e0	 lea	 ecx, DWORD PTR __Ok$[ebp]
  00003	e9 00 00 00 00	 jmp	 ??1sentry@?$basic_ostream@_WU?$char_traits@_W@std@@@std@@QAE@XZ ; std::basic_ostream<wchar_t,std::char_traits<wchar_t> >::sentry::~sentry
__ehhandler$??$?6_WU?$char_traits@_W@std@@V?$allocator@_W@1@@std@@YAAAV?$basic_ostream@_WU?$char_traits@_W@std@@@0@AAV10@ABV?$basic_string@_WU?$char_traits@_W@std@@V?$allocator@_W@2@@0@@Z:
  00008	b8 00 00 00 00	 mov	 eax, OFFSET FLAT:$T88796
  0000d	e9 00 00 00 00	 jmp	 ___CxxFrameHandler
text$x	ENDS
??$?6_WU?$char_traits@_W@std@@V?$allocator@_W@1@@std@@YAAAV?$basic_ostream@_WU?$char_traits@_W@std@@@0@AAV10@ABV?$basic_string@_WU?$char_traits@_W@std@@V?$allocator@_W@2@@0@@Z ENDP ; std::operator<<<wchar_t,std::char_traits<wchar_t>,std::allocator<wchar_t> >
PUBLIC	??0_Sentry_base@?$basic_ostream@_WU?$char_traits@_W@std@@@std@@QAE@AAV12@@Z ; std::basic_ostream<wchar_t,std::char_traits<wchar_t> >::_Sentry_base::_Sentry_base
PUBLIC	??1_Sentry_base@?$basic_ostream@_WU?$char_traits@_W@std@@@std@@QAE@XZ ; std::basic_ostream<wchar_t,std::char_traits<wchar_t> >::_Sentry_base::~_Sentry_base
EXTRN	__imp_?flush@?$basic_ostream@_WU?$char_traits@_W@std@@@std@@QAEAAV12@XZ:NEAR
EXTRN	__imp_?tie@?$basic_ios@_WU?$char_traits@_W@std@@@std@@QBEPAV?$basic_ostream@_WU?$char_traits@_W@std@@@2@XZ:NEAR
;	COMDAT xdata$x
; File d:\program files (x86)\microsoft visual studio .net 2003\vc7\include\ostream
xdata$x	SEGMENT
$T88809	DD	0ffffffffH
	DD	FLAT:$L88805
$T88807	DD	019930520H
	DD	01H
	DD	FLAT:$T88809
	DD	2 DUP(00H)
	DD	2 DUP(00H)
; Function compile flags: /Odt
xdata$x	ENDS
;	COMDAT ??0sentry@?$basic_ostream@_WU?$char_traits@_W@std@@@std@@QAE@AAV12@@Z
_TEXT	SEGMENT
_this$ = -16						; size = 4
__$EHRec$ = -12						; size = 12
__Ostr$ = 8						; size = 4
??0sentry@?$basic_ostream@_WU?$char_traits@_W@std@@@std@@QAE@AAV12@@Z PROC NEAR ; std::basic_ostream<wchar_t,std::char_traits<wchar_t> >::sentry::sentry, COMDAT
; _this$ = ecx

; 88   : 			{	// construct locking and testing stream

  00000	55		 push	 ebp
  00001	8b ec		 mov	 ebp, esp
  00003	6a ff		 push	 -1
  00005	68 00 00 00 00	 push	 __ehhandler$??0sentry@?$basic_ostream@_WU?$char_traits@_W@std@@@std@@QAE@AAV12@@Z
  0000a	64 a1 00 00 00
	00		 mov	 eax, DWORD PTR fs:__except_list
  00010	50		 push	 eax
  00011	64 89 25 00 00
	00 00		 mov	 DWORD PTR fs:__except_list, esp
  00018	51		 push	 ecx
  00019	89 4d f0	 mov	 DWORD PTR _this$[ebp], ecx
  0001c	8b 45 08	 mov	 eax, DWORD PTR __Ostr$[ebp]
  0001f	50		 push	 eax
  00020	8b 4d f0	 mov	 ecx, DWORD PTR _this$[ebp]
  00023	e8 00 00 00 00	 call	 ??0_Sentry_base@?$basic_ostream@_WU?$char_traits@_W@std@@@std@@QAE@AAV12@@Z ; std::basic_ostream<wchar_t,std::char_traits<wchar_t> >::_Sentry_base::_Sentry_base
  00028	c7 45 fc 00 00
	00 00		 mov	 DWORD PTR __$EHRec$[ebp+8], 0

; 89   : 			if (_Ostr.good() && _Ostr.tie() != 0)

  0002f	8b 4d 08	 mov	 ecx, DWORD PTR __Ostr$[ebp]
  00032	8b 11		 mov	 edx, DWORD PTR [ecx]
  00034	8b 4d 08	 mov	 ecx, DWORD PTR __Ostr$[ebp]
  00037	03 4a 04	 add	 ecx, DWORD PTR [edx+4]
  0003a	ff 15 00 00 00
	00		 call	 DWORD PTR __imp_?good@ios_base@std@@QBE_NXZ
  00040	0f b6 c0	 movzx	 eax, al
  00043	85 c0		 test	 eax, eax
  00045	74 30		 je	 SHORT $L85912
  00047	8b 4d 08	 mov	 ecx, DWORD PTR __Ostr$[ebp]
  0004a	8b 11		 mov	 edx, DWORD PTR [ecx]
  0004c	8b 4d 08	 mov	 ecx, DWORD PTR __Ostr$[ebp]
  0004f	03 4a 04	 add	 ecx, DWORD PTR [edx+4]
  00052	ff 15 00 00 00
	00		 call	 DWORD PTR __imp_?tie@?$basic_ios@_WU?$char_traits@_W@std@@@std@@QBEPAV?$basic_ostream@_WU?$char_traits@_W@std@@@2@XZ
  00058	85 c0		 test	 eax, eax
  0005a	74 1b		 je	 SHORT $L85912

; 90   : 				_Ostr.tie()->flush();

  0005c	8b 45 08	 mov	 eax, DWORD PTR __Ostr$[ebp]
  0005f	8b 08		 mov	 ecx, DWORD PTR [eax]
  00061	8b 55 08	 mov	 edx, DWORD PTR __Ostr$[ebp]
  00064	03 51 04	 add	 edx, DWORD PTR [ecx+4]
  00067	8b ca		 mov	 ecx, edx
  00069	ff 15 00 00 00
	00		 call	 DWORD PTR __imp_?tie@?$basic_ios@_WU?$char_traits@_W@std@@@std@@QBEPAV?$basic_ostream@_WU?$char_traits@_W@std@@@2@XZ
  0006f	8b c8		 mov	 ecx, eax
  00071	ff 15 00 00 00
	00		 call	 DWORD PTR __imp_?flush@?$basic_ostream@_WU?$char_traits@_W@std@@@std@@QAEAAV12@XZ
$L85912:

; 91   : 			_Ok = _Ostr.good();	// store test only after flushing tie

  00077	8b 45 08	 mov	 eax, DWORD PTR __Ostr$[ebp]
  0007a	8b 08		 mov	 ecx, DWORD PTR [eax]
  0007c	8b 55 08	 mov	 edx, DWORD PTR __Ostr$[ebp]
  0007f	03 51 04	 add	 edx, DWORD PTR [ecx+4]
  00082	8b ca		 mov	 ecx, edx
  00084	ff 15 00 00 00
	00		 call	 DWORD PTR __imp_?good@ios_base@std@@QBE_NXZ
  0008a	8b 4d f0	 mov	 ecx, DWORD PTR _this$[ebp]
  0008d	88 41 04	 mov	 BYTE PTR [ecx+4], al

; 92   : 			}

  00090	c7 45 fc ff ff
	ff ff		 mov	 DWORD PTR __$EHRec$[ebp+8], -1
  00097	8b 45 f0	 mov	 eax, DWORD PTR _this$[ebp]
  0009a	8b 4d f4	 mov	 ecx, DWORD PTR __$EHRec$[ebp]
  0009d	64 89 0d 00 00
	00 00		 mov	 DWORD PTR fs:__except_list, ecx
  000a4	8b e5		 mov	 esp, ebp
  000a6	5d		 pop	 ebp
  000a7	c2 04 00	 ret	 4
_TEXT	ENDS
;	COMDAT text$x
text$x	SEGMENT
$L88805:
  00000	8b 4d f0	 mov	 ecx, DWORD PTR _this$[ebp]
  00003	e9 00 00 00 00	 jmp	 ??1_Sentry_base@?$basic_ostream@_WU?$char_traits@_W@std@@@std@@QAE@XZ ; std::basic_ostream<wchar_t,std::char_traits<wchar_t> >::_Sentry_base::~_Sentry_base
__ehhandler$??0sentry@?$basic_ostream@_WU?$char_traits@_W@std@@@std@@QAE@AAV12@@Z:
  00008	b8 00 00 00 00	 mov	 eax, OFFSET FLAT:$T88807
  0000d	e9 00 00 00 00	 jmp	 ___CxxFrameHandler
text$x	ENDS
??0sentry@?$basic_ostream@_WU?$char_traits@_W@std@@@std@@QAE@AAV12@@Z ENDP ; std::basic_ostream<wchar_t,std::char_traits<wchar_t> >::sentry::sentry
EXTRN	__imp_?_Osfx@?$basic_ostream@_WU?$char_traits@_W@std@@@std@@QAEXXZ:NEAR
;	COMDAT xdata$x
xdata$x	SEGMENT
$T88818	DD	0ffffffffH
	DD	FLAT:$L88814
$T88816	DD	019930520H
	DD	01H
	DD	FLAT:$T88818
	DD	2 DUP(00H)
	DD	2 DUP(00H)
; Function compile flags: /Odt
xdata$x	ENDS
;	COMDAT ??1sentry@?$basic_ostream@_WU?$char_traits@_W@std@@@std@@QAE@XZ
_TEXT	SEGMENT
_this$ = -16						; size = 4
__$EHRec$ = -12						; size = 12
??1sentry@?$basic_ostream@_WU?$char_traits@_W@std@@@std@@QAE@XZ PROC NEAR ; std::basic_ostream<wchar_t,std::char_traits<wchar_t> >::sentry::~sentry, COMDAT
; _this$ = ecx

; 95   : 			{	// destroy the object

  00000	55		 push	 ebp
  00001	8b ec		 mov	 ebp, esp
  00003	6a ff		 push	 -1
  00005	68 00 00 00 00	 push	 __ehhandler$??1sentry@?$basic_ostream@_WU?$char_traits@_W@std@@@std@@QAE@XZ
  0000a	64 a1 00 00 00
	00		 mov	 eax, DWORD PTR fs:__except_list
  00010	50		 push	 eax
  00011	64 89 25 00 00
	00 00		 mov	 DWORD PTR fs:__except_list, esp
  00018	51		 push	 ecx
  00019	89 4d f0	 mov	 DWORD PTR _this$[ebp], ecx
  0001c	c7 45 fc 00 00
	00 00		 mov	 DWORD PTR __$EHRec$[ebp+8], 0

; 96   : 
; 97   :  #if _HAS_EXCEPTIONS
; 98   : 			if (!uncaught_exception())

  00023	ff 15 00 00 00
	00		 call	 DWORD PTR __imp_?uncaught_exception@std@@YA_NXZ
  00029	0f b6 c0	 movzx	 eax, al
  0002c	85 c0		 test	 eax, eax
  0002e	75 0b		 jne	 SHORT $L85914

; 99   : 				this->_Myostr._Osfx();

  00030	8b 4d f0	 mov	 ecx, DWORD PTR _this$[ebp]
  00033	8b 09		 mov	 ecx, DWORD PTR [ecx]
  00035	ff 15 00 00 00
	00		 call	 DWORD PTR __imp_?_Osfx@?$basic_ostream@_WU?$char_traits@_W@std@@@std@@QAEXXZ
$L85914:

; 100  : 			}

  0003b	c7 45 fc ff ff
	ff ff		 mov	 DWORD PTR __$EHRec$[ebp+8], -1
  00042	8b 4d f0	 mov	 ecx, DWORD PTR _this$[ebp]
  00045	e8 00 00 00 00	 call	 ??1_Sentry_base@?$basic_ostream@_WU?$char_traits@_W@std@@@std@@QAE@XZ ; std::basic_ostream<wchar_t,std::char_traits<wchar_t> >::_Sentry_base::~_Sentry_base
  0004a	8b 4d f4	 mov	 ecx, DWORD PTR __$EHRec$[ebp]
  0004d	64 89 0d 00 00
	00 00		 mov	 DWORD PTR fs:__except_list, ecx
  00054	8b e5		 mov	 esp, ebp
  00056	5d		 pop	 ebp
  00057	c3		 ret	 0
_TEXT	ENDS
;	COMDAT text$x
text$x	SEGMENT
$L88814:
  00000	8b 4d f0	 mov	 ecx, DWORD PTR _this$[ebp]
  00003	e9 00 00 00 00	 jmp	 ??1_Sentry_base@?$basic_ostream@_WU?$char_traits@_W@std@@@std@@QAE@XZ ; std::basic_ostream<wchar_t,std::char_traits<wchar_t> >::_Sentry_base::~_Sentry_base
__ehhandler$??1sentry@?$basic_ostream@_WU?$char_traits@_W@std@@@std@@QAE@XZ:
  00008	b8 00 00 00 00	 mov	 eax, OFFSET FLAT:$T88816
  0000d	e9 00 00 00 00	 jmp	 ___CxxFrameHandler
text$x	ENDS
??1sentry@?$basic_ostream@_WU?$char_traits@_W@std@@@std@@QAE@XZ ENDP ; std::basic_ostream<wchar_t,std::char_traits<wchar_t> >::sentry::~sentry
; Function compile flags: /Odt
;	COMDAT ??Bsentry@?$basic_ostream@_WU?$char_traits@_W@std@@@std@@QBE_NXZ
_TEXT	SEGMENT
_this$ = -4						; size = 4
??Bsentry@?$basic_ostream@_WU?$char_traits@_W@std@@@std@@QBE_NXZ PROC NEAR ; std::basic_ostream<wchar_t,std::char_traits<wchar_t> >::sentry::operator bool, COMDAT
; _this$ = ecx

; 108  : 			{	// test if stream state okay

  00000	55		 push	 ebp
  00001	8b ec		 mov	 ebp, esp
  00003	51		 push	 ecx
  00004	89 4d fc	 mov	 DWORD PTR _this$[ebp], ecx

; 109  : 			return (_Ok);

  00007	8b 45 fc	 mov	 eax, DWORD PTR _this$[ebp]
  0000a	8a 40 04	 mov	 al, BYTE PTR [eax+4]

; 110  : 			}

  0000d	8b e5		 mov	 esp, ebp
  0000f	5d		 pop	 ebp
  00010	c3		 ret	 0
??Bsentry@?$basic_ostream@_WU?$char_traits@_W@std@@@std@@QBE_NXZ ENDP ; std::basic_ostream<wchar_t,std::char_traits<wchar_t> >::sentry::operator bool
; Function compile flags: /Odt
_TEXT	ENDS
;	COMDAT ??0_Sentry_base@?$basic_ostream@_WU?$char_traits@_W@std@@@std@@QAE@AAV12@@Z
_TEXT	SEGMENT
_this$ = -4						; size = 4
__Ostr$ = 8						; size = 4
??0_Sentry_base@?$basic_ostream@_WU?$char_traits@_W@std@@@std@@QAE@AAV12@@Z PROC NEAR ; std::basic_ostream<wchar_t,std::char_traits<wchar_t> >::_Sentry_base::_Sentry_base, COMDAT
; _this$ = ecx

; 68   : 			{	// lock the stream buffer, if there

  00000	55		 push	 ebp
  00001	8b ec		 mov	 ebp, esp
  00003	51		 push	 ecx
  00004	89 4d fc	 mov	 DWORD PTR _this$[ebp], ecx
  00007	8b 45 fc	 mov	 eax, DWORD PTR _this$[ebp]
  0000a	8b 4d 08	 mov	 ecx, DWORD PTR __Ostr$[ebp]
  0000d	89 08		 mov	 DWORD PTR [eax], ecx

; 69   : 			if (_Myostr.rdbuf() != 0)

  0000f	8b 55 fc	 mov	 edx, DWORD PTR _this$[ebp]
  00012	8b 02		 mov	 eax, DWORD PTR [edx]
  00014	8b 08		 mov	 ecx, DWORD PTR [eax]
  00016	8b 55 fc	 mov	 edx, DWORD PTR _this$[ebp]
  00019	8b 02		 mov	 eax, DWORD PTR [edx]
  0001b	03 41 04	 add	 eax, DWORD PTR [ecx+4]
  0001e	8b c8		 mov	 ecx, eax
  00020	ff 15 00 00 00
	00		 call	 DWORD PTR __imp_?rdbuf@?$basic_ios@_WU?$char_traits@_W@std@@@std@@QBEPAV?$basic_streambuf@_WU?$char_traits@_W@std@@@2@XZ
  00026	85 c0		 test	 eax, eax
  00028	74 1d		 je	 SHORT $L86229

; 70   : 				_Myostr.rdbuf()->_Lock();

  0002a	8b 4d fc	 mov	 ecx, DWORD PTR _this$[ebp]
  0002d	8b 11		 mov	 edx, DWORD PTR [ecx]
  0002f	8b 02		 mov	 eax, DWORD PTR [edx]
  00031	8b 4d fc	 mov	 ecx, DWORD PTR _this$[ebp]
  00034	8b 09		 mov	 ecx, DWORD PTR [ecx]
  00036	03 48 04	 add	 ecx, DWORD PTR [eax+4]
  00039	ff 15 00 00 00
	00		 call	 DWORD PTR __imp_?rdbuf@?$basic_ios@_WU?$char_traits@_W@std@@@std@@QBEPAV?$basic_streambuf@_WU?$char_traits@_W@std@@@2@XZ
  0003f	8b c8		 mov	 ecx, eax
  00041	ff 15 00 00 00
	00		 call	 DWORD PTR __imp_?_Lock@?$basic_streambuf@_WU?$char_traits@_W@std@@@std@@QAEXXZ
$L86229:

; 71   : 			}

  00047	8b 45 fc	 mov	 eax, DWORD PTR _this$[ebp]
  0004a	8b e5		 mov	 esp, ebp
  0004c	5d		 pop	 ebp
  0004d	c2 04 00	 ret	 4
??0_Sentry_base@?$basic_ostream@_WU?$char_traits@_W@std@@@std@@QAE@AAV12@@Z ENDP ; std::basic_ostream<wchar_t,std::char_traits<wchar_t> >::_Sentry_base::_Sentry_base
; Function compile flags: /Odt
_TEXT	ENDS
;	COMDAT ??1_Sentry_base@?$basic_ostream@_WU?$char_traits@_W@std@@@std@@QAE@XZ
_TEXT	SEGMENT
_this$ = -4						; size = 4
??1_Sentry_base@?$basic_ostream@_WU?$char_traits@_W@std@@@std@@QAE@XZ PROC NEAR ; std::basic_ostream<wchar_t,std::char_traits<wchar_t> >::_Sentry_base::~_Sentry_base, COMDAT
; _this$ = ecx

; 74   : 			{	// destroy after unlocking

  00000	55		 push	 ebp
  00001	8b ec		 mov	 ebp, esp
  00003	51		 push	 ecx
  00004	89 4d fc	 mov	 DWORD PTR _this$[ebp], ecx

; 75   : 			if (_Myostr.rdbuf() != 0)

  00007	8b 45 fc	 mov	 eax, DWORD PTR _this$[ebp]
  0000a	8b 08		 mov	 ecx, DWORD PTR [eax]
  0000c	8b 11		 mov	 edx, DWORD PTR [ecx]
  0000e	8b 45 fc	 mov	 eax, DWORD PTR _this$[ebp]
  00011	8b 08		 mov	 ecx, DWORD PTR [eax]
  00013	03 4a 04	 add	 ecx, DWORD PTR [edx+4]
  00016	ff 15 00 00 00
	00		 call	 DWORD PTR __imp_?rdbuf@?$basic_ios@_WU?$char_traits@_W@std@@@std@@QBEPAV?$basic_streambuf@_WU?$char_traits@_W@std@@@2@XZ
  0001c	85 c0		 test	 eax, eax
  0001e	74 1d		 je	 SHORT $L86232

; 76   : 				_Myostr.rdbuf()->_Unlock();

  00020	8b 4d fc	 mov	 ecx, DWORD PTR _this$[ebp]
  00023	8b 11		 mov	 edx, DWORD PTR [ecx]
  00025	8b 02		 mov	 eax, DWORD PTR [edx]
  00027	8b 4d fc	 mov	 ecx, DWORD PTR _this$[ebp]
  0002a	8b 09		 mov	 ecx, DWORD PTR [ecx]
  0002c	03 48 04	 add	 ecx, DWORD PTR [eax+4]
  0002f	ff 15 00 00 00
	00		 call	 DWORD PTR __imp_?rdbuf@?$basic_ios@_WU?$char_traits@_W@std@@@std@@QBEPAV?$basic_streambuf@_WU?$char_traits@_W@std@@@2@XZ
  00035	8b c8		 mov	 ecx, eax
  00037	ff 15 00 00 00
	00		 call	 DWORD PTR __imp_?_Unlock@?$basic_streambuf@_WU?$char_traits@_W@std@@@std@@QAEXXZ
$L86232:

; 77   : 			}

  0003d	8b e5		 mov	 esp, ebp
  0003f	5d		 pop	 ebp
  00040	c3		 ret	 0
??1_Sentry_base@?$basic_ostream@_WU?$char_traits@_W@std@@@std@@QAE@XZ ENDP ; std::basic_ostream<wchar_t,std::char_traits<wchar_t> >::_Sentry_base::~_Sentry_base
_TEXT	ENDS
PUBLIC	??$_Ptr_cat@PAV?$basic_string@DU?$char_traits@D@std@@V?$allocator@D@2@@std@@PAV12@@std@@YA?AU_Nonscalar_ptr_iterator_tag@0@AAPAV?$basic_string@DU?$char_traits@D@std@@V?$allocator@D@2@@0@0@Z ; std::_Ptr_cat<std::basic_string<char,std::char_traits<char>,std::allocator<char> > *,std::basic_string<char,std::char_traits<char>,std::allocator<char> > *>
PUBLIC	??$_Uninit_fill_n@PAV?$basic_string@DU?$char_traits@D@std@@V?$allocator@D@2@@std@@IV12@V?$allocator@V?$basic_string@DU?$char_traits@D@std@@V?$allocator@D@2@@std@@@2@@std@@YAXPAV?$basic_string@DU?$char_traits@D@std@@V?$allocator@D@2@@0@IABV10@AAV?$allocator@V?$basic_string@DU?$char_traits@D@std@@V?$allocator@D@2@@std@@@0@U_Nonscalar_ptr_iterator_tag@0@@Z ; std::_Uninit_fill_n<std::basic_string<char,std::char_traits<char>,std::allocator<char> > *,unsigned int,std::basic_string<char,std::char_traits<char>,std::allocator<char> >,std::allocator<std::basic_string<char,std::char_traits<char>,std::allocator<char> > > >
; Function compile flags: /Odt
; File d:\program files (x86)\microsoft visual studio .net 2003\vc7\include\memory
;	COMDAT ??$_Uninitialized_fill_n@PAV?$basic_string@DU?$char_traits@D@std@@V?$allocator@D@2@@std@@IV12@V?$allocator@V?$basic_string@DU?$char_traits@D@std@@V?$allocator@D@2@@std@@@2@@std@@YAXPAV?$basic_string@DU?$char_traits@D@std@@V?$allocator@D@2@@0@IABV10@AAV?$allocator@V?$basic_string@DU?$char_traits@D@std@@V?$allocator@D@2@@std@@@0@@Z
_TEXT	SEGMENT
$T88829 = -1						; size = 1
__First$ = 8						; size = 4
__Count$ = 12						; size = 4
__Val$ = 16						; size = 4
__Al$ = 20						; size = 4
??$_Uninitialized_fill_n@PAV?$basic_string@DU?$char_traits@D@std@@V?$allocator@D@2@@std@@IV12@V?$allocator@V?$basic_string@DU?$char_traits@D@std@@V?$allocator@D@2@@std@@@2@@std@@YAXPAV?$basic_string@DU?$char_traits@D@std@@V?$allocator@D@2@@0@IABV10@AAV?$allocator@V?$basic_string@DU?$char_traits@D@std@@V?$allocator@D@2@@std@@@0@@Z PROC NEAR ; std::_Uninitialized_fill_n<std::basic_string<char,std::char_traits<char>,std::allocator<char> > *,unsigned int,std::basic_string<char,std::char_traits<char>,std::allocator<char> >,std::allocator<std::basic_string<char,std::char_traits<char>,std::allocator<char> > > >, COMDAT

; 255  : 	{	// copy _Count *_Val to raw _First, using _Al

  00000	55		 push	 ebp
  00001	8b ec		 mov	 ebp, esp
  00003	51		 push	 ecx

; 256  : 	_Uninit_fill_n(_First, _Count, _Val, _Al,
; 257  : 		_Ptr_cat(_First, _First));

  00004	8d 45 08	 lea	 eax, DWORD PTR __First$[ebp]
  00007	50		 push	 eax
  00008	8d 4d 08	 lea	 ecx, DWORD PTR __First$[ebp]
  0000b	51		 push	 ecx
  0000c	e8 00 00 00 00	 call	 ??$_Ptr_cat@PAV?$basic_string@DU?$char_traits@D@std@@V?$allocator@D@2@@std@@PAV12@@std@@YA?AU_Nonscalar_ptr_iterator_tag@0@AAPAV?$basic_string@DU?$char_traits@D@std@@V?$allocator@D@2@@0@0@Z ; std::_Ptr_cat<std::basic_string<char,std::char_traits<char>,std::allocator<char> > *,std::basic_string<char,std::char_traits<char>,std::allocator<char> > *>
  00011	83 c4 08	 add	 esp, 8
  00014	88 45 ff	 mov	 BYTE PTR $T88829[ebp], al
  00017	8a 55 ff	 mov	 dl, BYTE PTR $T88829[ebp]
  0001a	52		 push	 edx
  0001b	8b 45 14	 mov	 eax, DWORD PTR __Al$[ebp]
  0001e	50		 push	 eax
  0001f	8b 4d 10	 mov	 ecx, DWORD PTR __Val$[ebp]
  00022	51		 push	 ecx
  00023	8b 55 0c	 mov	 edx, DWORD PTR __Count$[ebp]
  00026	52		 push	 edx
  00027	8b 45 08	 mov	 eax, DWORD PTR __First$[ebp]
  0002a	50		 push	 eax
  0002b	e8 00 00 00 00	 call	 ??$_Uninit_fill_n@PAV?$basic_string@DU?$char_traits@D@std@@V?$allocator@D@2@@std@@IV12@V?$allocator@V?$basic_string@DU?$char_traits@D@std@@V?$allocator@D@2@@std@@@2@@std@@YAXPAV?$basic_string@DU?$char_traits@D@std@@V?$allocator@D@2@@0@IABV10@AAV?$allocator@V?$basic_string@DU?$char_traits@D@std@@V?$allocator@D@2@@std@@@0@U_Nonscalar_ptr_iterator_tag@0@@Z ; std::_Uninit_fill_n<std::basic_string<char,std::char_traits<char>,std::allocator<char> > *,unsigned int,std::basic_string<char,std::char_traits<char>,std::allocator<char> >,std::allocator<std::basic_string<char,std::char_traits<char>,std::allocator<char> > > >
  00030	83 c4 14	 add	 esp, 20			; 00000014H

; 258  : 	}

  00033	8b e5		 mov	 esp, ebp
  00035	5d		 pop	 ebp
  00036	c3		 ret	 0
??$_Uninitialized_fill_n@PAV?$basic_string@DU?$char_traits@D@std@@V?$allocator@D@2@@std@@IV12@V?$allocator@V?$basic_string@DU?$char_traits@D@std@@V?$allocator@D@2@@std@@@2@@std@@YAXPAV?$basic_string@DU?$char_traits@D@std@@V?$allocator@D@2@@0@IABV10@AAV?$allocator@V?$basic_string@DU?$char_traits@D@std@@V?$allocator@D@2@@std@@@0@@Z ENDP ; std::_Uninitialized_fill_n<std::basic_string<char,std::char_traits<char>,std::allocator<char> > *,unsigned int,std::basic_string<char,std::char_traits<char>,std::allocator<char> >,std::allocator<std::basic_string<char,std::char_traits<char>,std::allocator<char> > > >
_TEXT	ENDS
PUBLIC	??$_Destroy_range@V?$basic_string@DU?$char_traits@D@std@@V?$allocator@D@2@@std@@V?$allocator@V?$basic_string@DU?$char_traits@D@std@@V?$allocator@D@2@@std@@@2@@std@@YAXPAV?$basic_string@DU?$char_traits@D@std@@V?$allocator@D@2@@0@0AAV?$allocator@V?$basic_string@DU?$char_traits@D@std@@V?$allocator@D@2@@std@@@0@U_Nonscalar_ptr_iterator_tag@0@@Z ; std::_Destroy_range<std::basic_string<char,std::char_traits<char>,std::allocator<char> >,std::allocator<std::basic_string<char,std::char_traits<char>,std::allocator<char> > > >
; Function compile flags: /Odt
; File d:\program files (x86)\microsoft visual studio .net 2003\vc7\include\xmemory
;	COMDAT ??$_Destroy_range@V?$basic_string@DU?$char_traits@D@std@@V?$allocator@D@2@@std@@V?$allocator@V?$basic_string@DU?$char_traits@D@std@@V?$allocator@D@2@@std@@@2@@std@@YAXPAV?$basic_string@DU?$char_traits@D@std@@V?$allocator@D@2@@0@0AAV?$allocator@V?$basic_string@DU?$char_traits@D@std@@V?$allocator@D@2@@std@@@0@@Z
_TEXT	SEGMENT
$T88832 = -1						; size = 1
__First$ = 8						; size = 4
__Last$ = 12						; size = 4
__Al$ = 16						; size = 4
??$_Destroy_range@V?$basic_string@DU?$char_traits@D@std@@V?$allocator@D@2@@std@@V?$allocator@V?$basic_string@DU?$char_traits@D@std@@V?$allocator@D@2@@std@@@2@@std@@YAXPAV?$basic_string@DU?$char_traits@D@std@@V?$allocator@D@2@@0@0AAV?$allocator@V?$basic_string@DU?$char_traits@D@std@@V?$allocator@D@2@@std@@@0@@Z PROC NEAR ; std::_Destroy_range<std::basic_string<char,std::char_traits<char>,std::allocator<char> >,std::allocator<std::basic_string<char,std::char_traits<char>,std::allocator<char> > > >, COMDAT

; 216  : 	{	// destroy [_First, _Last)

  00000	55		 push	 ebp
  00001	8b ec		 mov	 ebp, esp
  00003	51		 push	 ecx

; 217  : 	_Destroy_range(_First, _Last, _Al, _Ptr_cat(_First, _Last));

  00004	8d 45 0c	 lea	 eax, DWORD PTR __Last$[ebp]
  00007	50		 push	 eax
  00008	8d 4d 08	 lea	 ecx, DWORD PTR __First$[ebp]
  0000b	51		 push	 ecx
  0000c	e8 00 00 00 00	 call	 ??$_Ptr_cat@PAV?$basic_string@DU?$char_traits@D@std@@V?$allocator@D@2@@std@@PAV12@@std@@YA?AU_Nonscalar_ptr_iterator_tag@0@AAPAV?$basic_string@DU?$char_traits@D@std@@V?$allocator@D@2@@0@0@Z ; std::_Ptr_cat<std::basic_string<char,std::char_traits<char>,std::allocator<char> > *,std::basic_string<char,std::char_traits<char>,std::allocator<char> > *>
  00011	83 c4 08	 add	 esp, 8
  00014	88 45 ff	 mov	 BYTE PTR $T88832[ebp], al
  00017	8a 55 ff	 mov	 dl, BYTE PTR $T88832[ebp]
  0001a	52		 push	 edx
  0001b	8b 45 10	 mov	 eax, DWORD PTR __Al$[ebp]
  0001e	50		 push	 eax
  0001f	8b 4d 0c	 mov	 ecx, DWORD PTR __Last$[ebp]
  00022	51		 push	 ecx
  00023	8b 55 08	 mov	 edx, DWORD PTR __First$[ebp]
  00026	52		 push	 edx
  00027	e8 00 00 00 00	 call	 ??$_Destroy_range@V?$basic_string@DU?$char_traits@D@std@@V?$allocator@D@2@@std@@V?$allocator@V?$basic_string@DU?$char_traits@D@std@@V?$allocator@D@2@@std@@@2@@std@@YAXPAV?$basic_string@DU?$char_traits@D@std@@V?$allocator@D@2@@0@0AAV?$allocator@V?$basic_string@DU?$char_traits@D@std@@V?$allocator@D@2@@std@@@0@U_Nonscalar_ptr_iterator_tag@0@@Z ; std::_Destroy_range<std::basic_string<char,std::char_traits<char>,std::allocator<char> >,std::allocator<std::basic_string<char,std::char_traits<char>,std::allocator<char> > > >
  0002c	83 c4 10	 add	 esp, 16			; 00000010H

; 218  : 	}

  0002f	8b e5		 mov	 esp, ebp
  00031	5d		 pop	 ebp
  00032	c3		 ret	 0
??$_Destroy_range@V?$basic_string@DU?$char_traits@D@std@@V?$allocator@D@2@@std@@V?$allocator@V?$basic_string@DU?$char_traits@D@std@@V?$allocator@D@2@@std@@@2@@std@@YAXPAV?$basic_string@DU?$char_traits@D@std@@V?$allocator@D@2@@0@0AAV?$allocator@V?$basic_string@DU?$char_traits@D@std@@V?$allocator@D@2@@std@@@0@@Z ENDP ; std::_Destroy_range<std::basic_string<char,std::char_traits<char>,std::allocator<char> >,std::allocator<std::basic_string<char,std::char_traits<char>,std::allocator<char> > > >
_TEXT	ENDS
PUBLIC	??$_Uninitialized_copy@PAV?$basic_string@DU?$char_traits@D@std@@V?$allocator@D@2@@std@@PAV12@V?$allocator@V?$basic_string@DU?$char_traits@D@std@@V?$allocator@D@2@@std@@@2@@std@@YAPAV?$basic_string@DU?$char_traits@D@std@@V?$allocator@D@2@@0@PAV10@00AAV?$allocator@V?$basic_string@DU?$char_traits@D@std@@V?$allocator@D@2@@std@@@0@@Z ; std::_Uninitialized_copy<std::basic_string<char,std::char_traits<char>,std::allocator<char> > *,std::basic_string<char,std::char_traits<char>,std::allocator<char> > *,std::allocator<std::basic_string<char,std::char_traits<char>,std::allocator<char> > > >
; Function compile flags: /Odt
; File d:\program files (x86)\microsoft visual studio .net 2003\vc7\include\vector
;	COMDAT ??$_Ucopy@PAV?$basic_string@DU?$char_traits@D@std@@V?$allocator@D@2@@std@@@?$vector@V?$basic_string@DU?$char_traits@D@std@@V?$allocator@D@2@@std@@V?$allocator@V?$basic_string@DU?$char_traits@D@std@@V?$allocator@D@2@@std@@@2@@std@@IAEPAV?$basic_string@DU?$char_traits@D@std@@V?$allocator@D@2@@1@PAV21@00@Z
_TEXT	SEGMENT
_this$ = -4						; size = 4
__First$ = 8						; size = 4
__Last$ = 12						; size = 4
__Ptr$ = 16						; size = 4
??$_Ucopy@PAV?$basic_string@DU?$char_traits@D@std@@V?$allocator@D@2@@std@@@?$vector@V?$basic_string@DU?$char_traits@D@std@@V?$allocator@D@2@@std@@V?$allocator@V?$basic_string@DU?$char_traits@D@std@@V?$allocator@D@2@@std@@@2@@std@@IAEPAV?$basic_string@DU?$char_traits@D@std@@V?$allocator@D@2@@1@PAV21@00@Z PROC NEAR ; std::vector<std::basic_string<char,std::char_traits<char>,std::allocator<char> >,std::allocator<std::basic_string<char,std::char_traits<char>,std::allocator<char> > > >::_Ucopy<std::basic_string<char,std::char_traits<char>,std::allocator<char> > *>, COMDAT
; _this$ = ecx

; 801  : 		pointer _Ucopy(_Iter _First, _Iter _Last, pointer _Ptr)

  00000	55		 push	 ebp
  00001	8b ec		 mov	 ebp, esp
  00003	51		 push	 ecx
  00004	89 4d fc	 mov	 DWORD PTR _this$[ebp], ecx

; 802  : 		{	// copy initializing [_First, _Last), using allocator
; 803  : 		return (_Uninitialized_copy(_First, _Last,
; 804  : 			_Ptr, this->_Alval));

  00007	8b 45 fc	 mov	 eax, DWORD PTR _this$[ebp]
  0000a	50		 push	 eax
  0000b	8b 4d 10	 mov	 ecx, DWORD PTR __Ptr$[ebp]
  0000e	51		 push	 ecx
  0000f	8b 55 0c	 mov	 edx, DWORD PTR __Last$[ebp]
  00012	52		 push	 edx
  00013	8b 45 08	 mov	 eax, DWORD PTR __First$[ebp]
  00016	50		 push	 eax
  00017	e8 00 00 00 00	 call	 ??$_Uninitialized_copy@PAV?$basic_string@DU?$char_traits@D@std@@V?$allocator@D@2@@std@@PAV12@V?$allocator@V?$basic_string@DU?$char_traits@D@std@@V?$allocator@D@2@@std@@@2@@std@@YAPAV?$basic_string@DU?$char_traits@D@std@@V?$allocator@D@2@@0@PAV10@00AAV?$allocator@V?$basic_string@DU?$char_traits@D@std@@V?$allocator@D@2@@std@@@0@@Z ; std::_Uninitialized_copy<std::basic_string<char,std::char_traits<char>,std::allocator<char> > *,std::basic_string<char,std::char_traits<char>,std::allocator<char> > *,std::allocator<std::basic_string<char,std::char_traits<char>,std::allocator<char> > > >
  0001c	83 c4 10	 add	 esp, 16			; 00000010H

; 805  : 		}

  0001f	8b e5		 mov	 esp, ebp
  00021	5d		 pop	 ebp
  00022	c2 0c 00	 ret	 12			; 0000000cH
??$_Ucopy@PAV?$basic_string@DU?$char_traits@D@std@@V?$allocator@D@2@@std@@@?$vector@V?$basic_string@DU?$char_traits@D@std@@V?$allocator@D@2@@std@@V?$allocator@V?$basic_string@DU?$char_traits@D@std@@V?$allocator@D@2@@std@@@2@@std@@IAEPAV?$basic_string@DU?$char_traits@D@std@@V?$allocator@D@2@@1@PAV21@00@Z ENDP ; std::vector<std::basic_string<char,std::char_traits<char>,std::allocator<char> >,std::allocator<std::basic_string<char,std::char_traits<char>,std::allocator<char> > > >::_Ucopy<std::basic_string<char,std::char_traits<char>,std::allocator<char> > *>
; Function compile flags: /Odt
; File d:\program files (x86)\microsoft visual studio .net 2003\vc7\include\xutility
_TEXT	ENDS
;	COMDAT ??$fill@PAV?$basic_string@DU?$char_traits@D@std@@V?$allocator@D@2@@std@@V12@@std@@YAXPAV?$basic_string@DU?$char_traits@D@std@@V?$allocator@D@2@@0@0ABV10@@Z
_TEXT	SEGMENT
__First$ = 8						; size = 4
__Last$ = 12						; size = 4
__Val$ = 16						; size = 4
??$fill@PAV?$basic_string@DU?$char_traits@D@std@@V?$allocator@D@2@@std@@V12@@std@@YAXPAV?$basic_string@DU?$char_traits@D@std@@V?$allocator@D@2@@0@0ABV10@@Z PROC NEAR ; std::fill<std::basic_string<char,std::char_traits<char>,std::allocator<char> > *,std::basic_string<char,std::char_traits<char>,std::allocator<char> > >, COMDAT

; 1134 : 	{	// copy _Val through [_First, _Last)

  00000	55		 push	 ebp
  00001	8b ec		 mov	 ebp, esp

; 1135 : 	for (; _First != _Last; ++_First)

  00003	eb 09		 jmp	 SHORT $L86999
$L87000:
  00005	8b 45 08	 mov	 eax, DWORD PTR __First$[ebp]
  00008	83 c0 1c	 add	 eax, 28			; 0000001cH
  0000b	89 45 08	 mov	 DWORD PTR __First$[ebp], eax
$L86999:
  0000e	8b 4d 08	 mov	 ecx, DWORD PTR __First$[ebp]
  00011	3b 4d 0c	 cmp	 ecx, DWORD PTR __Last$[ebp]
  00014	74 0f		 je	 SHORT $L86998

; 1136 : 		*_First = _Val;

  00016	8b 55 10	 mov	 edx, DWORD PTR __Val$[ebp]
  00019	52		 push	 edx
  0001a	8b 4d 08	 mov	 ecx, DWORD PTR __First$[ebp]
  0001d	ff 15 00 00 00
	00		 call	 DWORD PTR __imp_??4?$basic_string@DU?$char_traits@D@std@@V?$allocator@D@2@@std@@QAEAAV01@ABV01@@Z
  00023	eb e0		 jmp	 SHORT $L87000
$L86998:

; 1137 : 	}

  00025	5d		 pop	 ebp
  00026	c3		 ret	 0
??$fill@PAV?$basic_string@DU?$char_traits@D@std@@V?$allocator@D@2@@std@@V12@@std@@YAXPAV?$basic_string@DU?$char_traits@D@std@@V?$allocator@D@2@@0@0ABV10@@Z ENDP ; std::fill<std::basic_string<char,std::char_traits<char>,std::allocator<char> > *,std::basic_string<char,std::char_traits<char>,std::allocator<char> > >
_TEXT	ENDS
PUBLIC	??$_Copy_backward_opt@PAV?$basic_string@DU?$char_traits@D@std@@V?$allocator@D@2@@std@@PAV12@@std@@YAPAV?$basic_string@DU?$char_traits@D@std@@V?$allocator@D@2@@0@PAV10@00U_Nonscalar_ptr_iterator_tag@0@@Z ; std::_Copy_backward_opt<std::basic_string<char,std::char_traits<char>,std::allocator<char> > *,std::basic_string<char,std::char_traits<char>,std::allocator<char> > *>
; Function compile flags: /Odt
;	COMDAT ??$copy_backward@PAV?$basic_string@DU?$char_traits@D@std@@V?$allocator@D@2@@std@@PAV12@@std@@YAPAV?$basic_string@DU?$char_traits@D@std@@V?$allocator@D@2@@0@PAV10@00@Z
_TEXT	SEGMENT
$T88839 = -1						; size = 1
__First$ = 8						; size = 4
__Last$ = 12						; size = 4
__Dest$ = 16						; size = 4
??$copy_backward@PAV?$basic_string@DU?$char_traits@D@std@@V?$allocator@D@2@@std@@PAV12@@std@@YAPAV?$basic_string@DU?$char_traits@D@std@@V?$allocator@D@2@@0@PAV10@00@Z PROC NEAR ; std::copy_backward<std::basic_string<char,std::char_traits<char>,std::allocator<char> > *,std::basic_string<char,std::char_traits<char>,std::allocator<char> > *>, COMDAT

; 1067 : 	{	// copy [_First, _Last) backwards to [..., _Dest)

  00000	55		 push	 ebp
  00001	8b ec		 mov	 ebp, esp
  00003	51		 push	 ecx

; 1068 : 	return (_Copy_backward_opt(_First, _Last, _Dest,
; 1069 : 		_Ptr_cat(_First, _Dest)));

  00004	8d 45 10	 lea	 eax, DWORD PTR __Dest$[ebp]
  00007	50		 push	 eax
  00008	8d 4d 08	 lea	 ecx, DWORD PTR __First$[ebp]
  0000b	51		 push	 ecx
  0000c	e8 00 00 00 00	 call	 ??$_Ptr_cat@PAV?$basic_string@DU?$char_traits@D@std@@V?$allocator@D@2@@std@@PAV12@@std@@YA?AU_Nonscalar_ptr_iterator_tag@0@AAPAV?$basic_string@DU?$char_traits@D@std@@V?$allocator@D@2@@0@0@Z ; std::_Ptr_cat<std::basic_string<char,std::char_traits<char>,std::allocator<char> > *,std::basic_string<char,std::char_traits<char>,std::allocator<char> > *>
  00011	83 c4 08	 add	 esp, 8
  00014	88 45 ff	 mov	 BYTE PTR $T88839[ebp], al
  00017	8a 55 ff	 mov	 dl, BYTE PTR $T88839[ebp]
  0001a	52		 push	 edx
  0001b	8b 45 10	 mov	 eax, DWORD PTR __Dest$[ebp]
  0001e	50		 push	 eax
  0001f	8b 4d 0c	 mov	 ecx, DWORD PTR __Last$[ebp]
  00022	51		 push	 ecx
  00023	8b 55 08	 mov	 edx, DWORD PTR __First$[ebp]
  00026	52		 push	 edx
  00027	e8 00 00 00 00	 call	 ??$_Copy_backward_opt@PAV?$basic_string@DU?$char_traits@D@std@@V?$allocator@D@2@@std@@PAV12@@std@@YAPAV?$basic_string@DU?$char_traits@D@std@@V?$allocator@D@2@@0@PAV10@00U_Nonscalar_ptr_iterator_tag@0@@Z ; std::_Copy_backward_opt<std::basic_string<char,std::char_traits<char>,std::allocator<char> > *,std::basic_string<char,std::char_traits<char>,std::allocator<char> > *>
  0002c	83 c4 10	 add	 esp, 16			; 00000010H

; 1070 : 	}

  0002f	8b e5		 mov	 esp, ebp
  00031	5d		 pop	 ebp
  00032	c3		 ret	 0
??$copy_backward@PAV?$basic_string@DU?$char_traits@D@std@@V?$allocator@D@2@@std@@PAV12@@std@@YAPAV?$basic_string@DU?$char_traits@D@std@@V?$allocator@D@2@@0@PAV10@00@Z ENDP ; std::copy_backward<std::basic_string<char,std::char_traits<char>,std::allocator<char> > *,std::basic_string<char,std::char_traits<char>,std::allocator<char> > *>
_TEXT	ENDS
EXTRN	??2@YAPAXI@Z:NEAR				; operator new
; Function compile flags: /Odt
; File d:\program files (x86)\microsoft visual studio .net 2003\vc7\include\xmemory
;	COMDAT ??$_Allocate@V?$basic_string@DU?$char_traits@D@std@@V?$allocator@D@2@@std@@@std@@YAPAV?$basic_string@DU?$char_traits@D@std@@V?$allocator@D@2@@0@IPAV10@@Z
_TEXT	SEGMENT
__Count$ = 8						; size = 4
___formal$ = 12						; size = 4
??$_Allocate@V?$basic_string@DU?$char_traits@D@std@@V?$allocator@D@2@@std@@@std@@YAPAV?$basic_string@DU?$char_traits@D@std@@V?$allocator@D@2@@0@IPAV10@@Z PROC NEAR ; std::_Allocate<std::basic_string<char,std::char_traits<char>,std::allocator<char> > >, COMDAT

; 33   : 	{	// allocate storage for _Count elements of type _Ty

  00000	55		 push	 ebp
  00001	8b ec		 mov	 ebp, esp

; 34   : 	return ((_Ty _FARQ *)operator new(_Count * sizeof (_Ty)));

  00003	8b 45 08	 mov	 eax, DWORD PTR __Count$[ebp]
  00006	6b c0 1c	 imul	 eax, 28			; 0000001cH
  00009	50		 push	 eax
  0000a	e8 00 00 00 00	 call	 ??2@YAPAXI@Z		; operator new
  0000f	83 c4 04	 add	 esp, 4

; 35   : 	}

  00012	5d		 pop	 ebp
  00013	c3		 ret	 0
??$_Allocate@V?$basic_string@DU?$char_traits@D@std@@V?$allocator@D@2@@std@@@std@@YAPAV?$basic_string@DU?$char_traits@D@std@@V?$allocator@D@2@@0@IPAV10@@Z ENDP ; std::_Allocate<std::basic_string<char,std::char_traits<char>,std::allocator<char> > >
; Function compile flags: /Odt
; File d:\program files (x86)\microsoft visual studio .net 2003\vc7\include\xutility
_TEXT	ENDS
;	COMDAT ??$_Ptr_cat@PAV?$basic_string@DU?$char_traits@D@std@@V?$allocator@D@2@@std@@PAV12@@std@@YA?AU_Nonscalar_ptr_iterator_tag@0@AAPAV?$basic_string@DU?$char_traits@D@std@@V?$allocator@D@2@@0@0@Z
_TEXT	SEGMENT
__Cat$ = -1						; size = 1
___formal$ = 8						; size = 4
___formal$ = 12						; size = 4
??$_Ptr_cat@PAV?$basic_string@DU?$char_traits@D@std@@V?$allocator@D@2@@std@@PAV12@@std@@YA?AU_Nonscalar_ptr_iterator_tag@0@AAPAV?$basic_string@DU?$char_traits@D@std@@V?$allocator@D@2@@0@0@Z PROC NEAR ; std::_Ptr_cat<std::basic_string<char,std::char_traits<char>,std::allocator<char> > *,std::basic_string<char,std::char_traits<char>,std::allocator<char> > *>, COMDAT

; 211  : 	{	// return pointer category from arbitrary arguments

  00000	55		 push	 ebp
  00001	8b ec		 mov	 ebp, esp
  00003	51		 push	 ecx

; 212  : 	_Nonscalar_ptr_iterator_tag _Cat;
; 213  : 	return (_Cat);

  00004	8a 45 ff	 mov	 al, BYTE PTR __Cat$[ebp]

; 214  : 	}

  00007	8b e5		 mov	 esp, ebp
  00009	5d		 pop	 ebp
  0000a	c3		 ret	 0
??$_Ptr_cat@PAV?$basic_string@DU?$char_traits@D@std@@V?$allocator@D@2@@std@@PAV12@@std@@YA?AU_Nonscalar_ptr_iterator_tag@0@AAPAV?$basic_string@DU?$char_traits@D@std@@V?$allocator@D@2@@0@0@Z ENDP ; std::_Ptr_cat<std::basic_string<char,std::char_traits<char>,std::allocator<char> > *,std::basic_string<char,std::char_traits<char>,std::allocator<char> > *>
_TEXT	ENDS
PUBLIC	?construct@?$allocator@V?$basic_string@DU?$char_traits@D@std@@V?$allocator@D@2@@std@@@std@@QAEXPAV?$basic_string@DU?$char_traits@D@std@@V?$allocator@D@2@@2@ABV32@@Z ; std::allocator<std::basic_string<char,std::char_traits<char>,std::allocator<char> > >::construct
PUBLIC	?destroy@?$allocator@V?$basic_string@DU?$char_traits@D@std@@V?$allocator@D@2@@std@@@std@@QAEXPAV?$basic_string@DU?$char_traits@D@std@@V?$allocator@D@2@@2@@Z ; std::allocator<std::basic_string<char,std::char_traits<char>,std::allocator<char> > >::destroy
;	COMDAT xdata$x
; File d:\program files (x86)\microsoft visual studio .net 2003\vc7\include\memory
xdata$x	SEGMENT
$T88851	DD	0ffffffffH
	DD	00H
	DD	0ffffffffH
	DD	00H
$T88853	DD	00H
	DD	00H
	DD	00H
	DD	FLAT:$L88847
$T88852	DD	00H
	DD	00H
	DD	01H
	DD	01H
	DD	FLAT:$T88853
$T88849	DD	019930520H
	DD	02H
	DD	FLAT:$T88851
	DD	01H
	DD	FLAT:$T88852
	DD	2 DUP(00H)
; Function compile flags: /Odt
xdata$x	ENDS
;	COMDAT ??$_Uninit_fill_n@PAV?$basic_string@DU?$char_traits@D@std@@V?$allocator@D@2@@std@@IV12@V?$allocator@V?$basic_string@DU?$char_traits@D@std@@V?$allocator@D@2@@std@@@2@@std@@YAXPAV?$basic_string@DU?$char_traits@D@std@@V?$allocator@D@2@@0@IABV10@AAV?$allocator@V?$basic_string@DU?$char_traits@D@std@@V?$allocator@D@2@@std@@@0@U_Nonscalar_ptr_iterator_tag@0@@Z
_TEXT	SEGMENT
__Next$ = -20						; size = 4
__$EHRec$ = -16						; size = 16
__First$ = 8						; size = 4
__Count$ = 12						; size = 4
__Val$ = 16						; size = 4
__Al$ = 20						; size = 4
___formal$ = 24						; size = 1
??$_Uninit_fill_n@PAV?$basic_string@DU?$char_traits@D@std@@V?$allocator@D@2@@std@@IV12@V?$allocator@V?$basic_string@DU?$char_traits@D@std@@V?$allocator@D@2@@std@@@2@@std@@YAXPAV?$basic_string@DU?$char_traits@D@std@@V?$allocator@D@2@@0@IABV10@AAV?$allocator@V?$basic_string@DU?$char_traits@D@std@@V?$allocator@D@2@@std@@@0@U_Nonscalar_ptr_iterator_tag@0@@Z PROC NEAR ; std::_Uninit_fill_n<std::basic_string<char,std::char_traits<char>,std::allocator<char> > *,unsigned int,std::basic_string<char,std::char_traits<char>,std::allocator<char> >,std::allocator<std::basic_string<char,std::char_traits<char>,std::allocator<char> > > >, COMDAT

; 207  : 	{	// copy _Count *_Val to raw _First, using _Al, arbitrary type

  00000	55		 push	 ebp
  00001	8b ec		 mov	 ebp, esp
  00003	6a ff		 push	 -1
  00005	68 00 00 00 00	 push	 __ehhandler$??$_Uninit_fill_n@PAV?$basic_string@DU?$char_traits@D@std@@V?$allocator@D@2@@std@@IV12@V?$allocator@V?$basic_string@DU?$char_traits@D@std@@V?$allocator@D@2@@std@@@2@@std@@YAXPAV?$basic_string@DU?$char_traits@D@std@@V?$allocator@D@2@@0@IABV10@AAV?$allocator@V?$basic_string@DU?$char_traits@D@std@@V?$allocator@D@2@@std@@@0@U_Nonscalar_ptr_iterator_tag@0@@Z
  0000a	64 a1 00 00 00
	00		 mov	 eax, DWORD PTR fs:__except_list
  00010	50		 push	 eax
  00011	64 89 25 00 00
	00 00		 mov	 DWORD PTR fs:__except_list, esp
  00018	51		 push	 ecx
  00019	51		 push	 ecx
  0001a	53		 push	 ebx
  0001b	56		 push	 esi
  0001c	57		 push	 edi
  0001d	89 65 f0	 mov	 DWORD PTR __$EHRec$[ebp], esp

; 208  : 	_FwdIt _Next = _First;

  00020	8b 45 08	 mov	 eax, DWORD PTR __First$[ebp]
  00023	89 45 ec	 mov	 DWORD PTR __Next$[ebp], eax

; 209  : 
; 210  : 	_TRY_BEGIN

  00026	c7 45 fc 00 00
	00 00		 mov	 DWORD PTR __$EHRec$[ebp+12], 0

; 211  : 	for (; 0 < _Count; --_Count, ++_First)

  0002d	eb 12		 jmp	 SHORT $L87129
$L87130:
  0002f	8b 4d 0c	 mov	 ecx, DWORD PTR __Count$[ebp]
  00032	83 e9 01	 sub	 ecx, 1
  00035	89 4d 0c	 mov	 DWORD PTR __Count$[ebp], ecx
  00038	8b 55 08	 mov	 edx, DWORD PTR __First$[ebp]
  0003b	83 c2 1c	 add	 edx, 28			; 0000001cH
  0003e	89 55 08	 mov	 DWORD PTR __First$[ebp], edx
$L87129:
  00041	83 7d 0c 00	 cmp	 DWORD PTR __Count$[ebp], 0
  00045	76 12		 jbe	 SHORT $L87131

; 212  : 		_Al.construct(_First, _Val);

  00047	8b 45 10	 mov	 eax, DWORD PTR __Val$[ebp]
  0004a	50		 push	 eax
  0004b	8b 4d 08	 mov	 ecx, DWORD PTR __First$[ebp]
  0004e	51		 push	 ecx
  0004f	8b 4d 14	 mov	 ecx, DWORD PTR __Al$[ebp]
  00052	e8 00 00 00 00	 call	 ?construct@?$allocator@V?$basic_string@DU?$char_traits@D@std@@V?$allocator@D@2@@std@@@std@@QAEXPAV?$basic_string@DU?$char_traits@D@std@@V?$allocator@D@2@@2@ABV32@@Z ; std::allocator<std::basic_string<char,std::char_traits<char>,std::allocator<char> > >::construct
  00057	eb d6		 jmp	 SHORT $L87130
$L87131:
  00059	eb 2a		 jmp	 SHORT $L88846
$L88847:

; 213  : 	_CATCH_ALL
; 214  : 	for (; _Next != _First; ++_Next)

  0005b	eb 09		 jmp	 SHORT $L87132
$L87133:
  0005d	8b 55 ec	 mov	 edx, DWORD PTR __Next$[ebp]
  00060	83 c2 1c	 add	 edx, 28			; 0000001cH
  00063	89 55 ec	 mov	 DWORD PTR __Next$[ebp], edx
$L87132:
  00066	8b 45 ec	 mov	 eax, DWORD PTR __Next$[ebp]
  00069	3b 45 08	 cmp	 eax, DWORD PTR __First$[ebp]
  0006c	74 0e		 je	 SHORT $L87134

; 215  : 		_Al.destroy(_Next);

  0006e	8b 4d ec	 mov	 ecx, DWORD PTR __Next$[ebp]
  00071	51		 push	 ecx
  00072	8b 4d 14	 mov	 ecx, DWORD PTR __Al$[ebp]
  00075	e8 00 00 00 00	 call	 ?destroy@?$allocator@V?$basic_string@DU?$char_traits@D@std@@V?$allocator@D@2@@std@@@std@@QAEXPAV?$basic_string@DU?$char_traits@D@std@@V?$allocator@D@2@@2@@Z ; std::allocator<std::basic_string<char,std::char_traits<char>,std::allocator<char> > >::destroy
  0007a	eb e1		 jmp	 SHORT $L87133
$L87134:

; 216  : 	_RERAISE;

  0007c	6a 00		 push	 0
  0007e	6a 00		 push	 0
  00080	e8 00 00 00 00	 call	 __CxxThrowException@8
$L88846:

; 217  : 	_CATCH_END

  00085	c7 45 fc ff ff
	ff ff		 mov	 DWORD PTR __$EHRec$[ebp+12], -1
$L88845:

; 218  : 	}

  0008c	8b 4d f4	 mov	 ecx, DWORD PTR __$EHRec$[ebp+4]
  0008f	64 89 0d 00 00
	00 00		 mov	 DWORD PTR fs:__except_list, ecx
  00096	5f		 pop	 edi
  00097	5e		 pop	 esi
  00098	5b		 pop	 ebx
  00099	8b e5		 mov	 esp, ebp
  0009b	5d		 pop	 ebp
  0009c	c3		 ret	 0
_TEXT	ENDS
;	COMDAT text$x
text$x	SEGMENT
__ehhandler$??$_Uninit_fill_n@PAV?$basic_string@DU?$char_traits@D@std@@V?$allocator@D@2@@std@@IV12@V?$allocator@V?$basic_string@DU?$char_traits@D@std@@V?$allocator@D@2@@std@@@2@@std@@YAXPAV?$basic_string@DU?$char_traits@D@std@@V?$allocator@D@2@@0@IABV10@AAV?$allocator@V?$basic_string@DU?$char_traits@D@std@@V?$allocator@D@2@@std@@@0@U_Nonscalar_ptr_iterator_tag@0@@Z:
  00000	b8 00 00 00 00	 mov	 eax, OFFSET FLAT:$T88849
  00005	e9 00 00 00 00	 jmp	 ___CxxFrameHandler
text$x	ENDS
??$_Uninit_fill_n@PAV?$basic_string@DU?$char_traits@D@std@@V?$allocator@D@2@@std@@IV12@V?$allocator@V?$basic_string@DU?$char_traits@D@std@@V?$allocator@D@2@@std@@@2@@std@@YAXPAV?$basic_string@DU?$char_traits@D@std@@V?$allocator@D@2@@0@IABV10@AAV?$allocator@V?$basic_string@DU?$char_traits@D@std@@V?$allocator@D@2@@std@@@0@U_Nonscalar_ptr_iterator_tag@0@@Z ENDP ; std::_Uninit_fill_n<std::basic_string<char,std::char_traits<char>,std::allocator<char> > *,unsigned int,std::basic_string<char,std::char_traits<char>,std::allocator<char> >,std::allocator<std::basic_string<char,std::char_traits<char>,std::allocator<char> > > >
; Function compile flags: /Odt
; File d:\program files (x86)\microsoft visual studio .net 2003\vc7\include\xmemory
;	COMDAT ??$_Destroy_range@V?$basic_string@DU?$char_traits@D@std@@V?$allocator@D@2@@std@@V?$allocator@V?$basic_string@DU?$char_traits@D@std@@V?$allocator@D@2@@std@@@2@@std@@YAXPAV?$basic_string@DU?$char_traits@D@std@@V?$allocator@D@2@@0@0AAV?$allocator@V?$basic_string@DU?$char_traits@D@std@@V?$allocator@D@2@@std@@@0@U_Nonscalar_ptr_iterator_tag@0@@Z
_TEXT	SEGMENT
__First$ = 8						; size = 4
__Last$ = 12						; size = 4
__Al$ = 16						; size = 4
___formal$ = 20						; size = 1
??$_Destroy_range@V?$basic_string@DU?$char_traits@D@std@@V?$allocator@D@2@@std@@V?$allocator@V?$basic_string@DU?$char_traits@D@std@@V?$allocator@D@2@@std@@@2@@std@@YAXPAV?$basic_string@DU?$char_traits@D@std@@V?$allocator@D@2@@0@0AAV?$allocator@V?$basic_string@DU?$char_traits@D@std@@V?$allocator@D@2@@std@@@0@U_Nonscalar_ptr_iterator_tag@0@@Z PROC NEAR ; std::_Destroy_range<std::basic_string<char,std::char_traits<char>,std::allocator<char> >,std::allocator<std::basic_string<char,std::char_traits<char>,std::allocator<char> > > >, COMDAT

; 224  : 	{	// destroy [_First, _Last), arbitrary type

  00000	55		 push	 ebp
  00001	8b ec		 mov	 ebp, esp

; 225  : 	for (; _First != _Last; ++_First)

  00003	eb 09		 jmp	 SHORT $L87136
$L87137:
  00005	8b 45 08	 mov	 eax, DWORD PTR __First$[ebp]
  00008	83 c0 1c	 add	 eax, 28			; 0000001cH
  0000b	89 45 08	 mov	 DWORD PTR __First$[ebp], eax
$L87136:
  0000e	8b 4d 08	 mov	 ecx, DWORD PTR __First$[ebp]
  00011	3b 4d 0c	 cmp	 ecx, DWORD PTR __Last$[ebp]
  00014	74 0e		 je	 SHORT $L87135

; 226  : 		_Al.destroy(_First);

  00016	8b 55 08	 mov	 edx, DWORD PTR __First$[ebp]
  00019	52		 push	 edx
  0001a	8b 4d 10	 mov	 ecx, DWORD PTR __Al$[ebp]
  0001d	e8 00 00 00 00	 call	 ?destroy@?$allocator@V?$basic_string@DU?$char_traits@D@std@@V?$allocator@D@2@@std@@@std@@QAEXPAV?$basic_string@DU?$char_traits@D@std@@V?$allocator@D@2@@2@@Z ; std::allocator<std::basic_string<char,std::char_traits<char>,std::allocator<char> > >::destroy
  00022	eb e1		 jmp	 SHORT $L87137
$L87135:

; 227  : 	}

  00024	5d		 pop	 ebp
  00025	c3		 ret	 0
??$_Destroy_range@V?$basic_string@DU?$char_traits@D@std@@V?$allocator@D@2@@std@@V?$allocator@V?$basic_string@DU?$char_traits@D@std@@V?$allocator@D@2@@std@@@2@@std@@YAXPAV?$basic_string@DU?$char_traits@D@std@@V?$allocator@D@2@@0@0AAV?$allocator@V?$basic_string@DU?$char_traits@D@std@@V?$allocator@D@2@@std@@@0@U_Nonscalar_ptr_iterator_tag@0@@Z ENDP ; std::_Destroy_range<std::basic_string<char,std::char_traits<char>,std::allocator<char> >,std::allocator<std::basic_string<char,std::char_traits<char>,std::allocator<char> > > >
_TEXT	ENDS
PUBLIC	??$_Uninit_copy@PAV?$basic_string@DU?$char_traits@D@std@@V?$allocator@D@2@@std@@PAV12@V?$allocator@V?$basic_string@DU?$char_traits@D@std@@V?$allocator@D@2@@std@@@2@@std@@YAPAV?$basic_string@DU?$char_traits@D@std@@V?$allocator@D@2@@0@PAV10@00AAV?$allocator@V?$basic_string@DU?$char_traits@D@std@@V?$allocator@D@2@@std@@@0@U_Nonscalar_ptr_iterator_tag@0@@Z ; std::_Uninit_copy<std::basic_string<char,std::char_traits<char>,std::allocator<char> > *,std::basic_string<char,std::char_traits<char>,std::allocator<char> > *,std::allocator<std::basic_string<char,std::char_traits<char>,std::allocator<char> > > >
; Function compile flags: /Odt
; File d:\program files (x86)\microsoft visual studio .net 2003\vc7\include\memory
;	COMDAT ??$_Uninitialized_copy@PAV?$basic_string@DU?$char_traits@D@std@@V?$allocator@D@2@@std@@PAV12@V?$allocator@V?$basic_string@DU?$char_traits@D@std@@V?$allocator@D@2@@std@@@2@@std@@YAPAV?$basic_string@DU?$char_traits@D@std@@V?$allocator@D@2@@0@PAV10@00AAV?$allocator@V?$basic_string@DU?$char_traits@D@std@@V?$allocator@D@2@@std@@@0@@Z
_TEXT	SEGMENT
$T88860 = -1						; size = 1
__First$ = 8						; size = 4
__Last$ = 12						; size = 4
__Dest$ = 16						; size = 4
__Al$ = 20						; size = 4
??$_Uninitialized_copy@PAV?$basic_string@DU?$char_traits@D@std@@V?$allocator@D@2@@std@@PAV12@V?$allocator@V?$basic_string@DU?$char_traits@D@std@@V?$allocator@D@2@@std@@@2@@std@@YAPAV?$basic_string@DU?$char_traits@D@std@@V?$allocator@D@2@@0@PAV10@00AAV?$allocator@V?$basic_string@DU?$char_traits@D@std@@V?$allocator@D@2@@std@@@0@@Z PROC NEAR ; std::_Uninitialized_copy<std::basic_string<char,std::char_traits<char>,std::allocator<char> > *,std::basic_string<char,std::char_traits<char>,std::allocator<char> > *,std::allocator<std::basic_string<char,std::char_traits<char>,std::allocator<char> > > >, COMDAT

; 126  : 	{	// copy [_First, _Last) to raw _Dest, using _Al

  00000	55		 push	 ebp
  00001	8b ec		 mov	 ebp, esp
  00003	51		 push	 ecx

; 127  : 	return (_Uninit_copy(_First, _Last, _Dest, _Al,
; 128  : 		_Ptr_cat(_First, _Dest)));

  00004	8d 45 10	 lea	 eax, DWORD PTR __Dest$[ebp]
  00007	50		 push	 eax
  00008	8d 4d 08	 lea	 ecx, DWORD PTR __First$[ebp]
  0000b	51		 push	 ecx
  0000c	e8 00 00 00 00	 call	 ??$_Ptr_cat@PAV?$basic_string@DU?$char_traits@D@std@@V?$allocator@D@2@@std@@PAV12@@std@@YA?AU_Nonscalar_ptr_iterator_tag@0@AAPAV?$basic_string@DU?$char_traits@D@std@@V?$allocator@D@2@@0@0@Z ; std::_Ptr_cat<std::basic_string<char,std::char_traits<char>,std::allocator<char> > *,std::basic_string<char,std::char_traits<char>,std::allocator<char> > *>
  00011	83 c4 08	 add	 esp, 8
  00014	88 45 ff	 mov	 BYTE PTR $T88860[ebp], al
  00017	8a 55 ff	 mov	 dl, BYTE PTR $T88860[ebp]
  0001a	52		 push	 edx
  0001b	8b 45 14	 mov	 eax, DWORD PTR __Al$[ebp]
  0001e	50		 push	 eax
  0001f	8b 4d 10	 mov	 ecx, DWORD PTR __Dest$[ebp]
  00022	51		 push	 ecx
  00023	8b 55 0c	 mov	 edx, DWORD PTR __Last$[ebp]
  00026	52		 push	 edx
  00027	8b 45 08	 mov	 eax, DWORD PTR __First$[ebp]
  0002a	50		 push	 eax
  0002b	e8 00 00 00 00	 call	 ??$_Uninit_copy@PAV?$basic_string@DU?$char_traits@D@std@@V?$allocator@D@2@@std@@PAV12@V?$allocator@V?$basic_string@DU?$char_traits@D@std@@V?$allocator@D@2@@std@@@2@@std@@YAPAV?$basic_string@DU?$char_traits@D@std@@V?$allocator@D@2@@0@PAV10@00AAV?$allocator@V?$basic_string@DU?$char_traits@D@std@@V?$allocator@D@2@@std@@@0@U_Nonscalar_ptr_iterator_tag@0@@Z ; std::_Uninit_copy<std::basic_string<char,std::char_traits<char>,std::allocator<char> > *,std::basic_string<char,std::char_traits<char>,std::allocator<char> > *,std::allocator<std::basic_string<char,std::char_traits<char>,std::allocator<char> > > >
  00030	83 c4 14	 add	 esp, 20			; 00000014H

; 129  : 	}

  00033	8b e5		 mov	 esp, ebp
  00035	5d		 pop	 ebp
  00036	c3		 ret	 0
??$_Uninitialized_copy@PAV?$basic_string@DU?$char_traits@D@std@@V?$allocator@D@2@@std@@PAV12@V?$allocator@V?$basic_string@DU?$char_traits@D@std@@V?$allocator@D@2@@std@@@2@@std@@YAPAV?$basic_string@DU?$char_traits@D@std@@V?$allocator@D@2@@0@PAV10@00AAV?$allocator@V?$basic_string@DU?$char_traits@D@std@@V?$allocator@D@2@@std@@@0@@Z ENDP ; std::_Uninitialized_copy<std::basic_string<char,std::char_traits<char>,std::allocator<char> > *,std::basic_string<char,std::char_traits<char>,std::allocator<char> > *,std::allocator<std::basic_string<char,std::char_traits<char>,std::allocator<char> > > >
; Function compile flags: /Odt
; File d:\program files (x86)\microsoft visual studio .net 2003\vc7\include\xutility
_TEXT	ENDS
;	COMDAT ??$_Copy_backward_opt@PAV?$basic_string@DU?$char_traits@D@std@@V?$allocator@D@2@@std@@PAV12@@std@@YAPAV?$basic_string@DU?$char_traits@D@std@@V?$allocator@D@2@@0@PAV10@00U_Nonscalar_ptr_iterator_tag@0@@Z
_TEXT	SEGMENT
__First$ = 8						; size = 4
__Last$ = 12						; size = 4
__Dest$ = 16						; size = 4
___formal$ = 20						; size = 1
??$_Copy_backward_opt@PAV?$basic_string@DU?$char_traits@D@std@@V?$allocator@D@2@@std@@PAV12@@std@@YAPAV?$basic_string@DU?$char_traits@D@std@@V?$allocator@D@2@@0@PAV10@00U_Nonscalar_ptr_iterator_tag@0@@Z PROC NEAR ; std::_Copy_backward_opt<std::basic_string<char,std::char_traits<char>,std::allocator<char> > *,std::basic_string<char,std::char_traits<char>,std::allocator<char> > *>, COMDAT

; 1048 : 	{	// copy [_First, _Last) backwards to [..., _Dest), arbitrary iterators

  00000	55		 push	 ebp
  00001	8b ec		 mov	 ebp, esp
$L87181:

; 1049 : 	while (_First != _Last)

  00003	8b 45 08	 mov	 eax, DWORD PTR __First$[ebp]
  00006	3b 45 0c	 cmp	 eax, DWORD PTR __Last$[ebp]
  00009	74 21		 je	 SHORT $L87182

; 1050 : 		*--_Dest = *--_Last;

  0000b	8b 4d 0c	 mov	 ecx, DWORD PTR __Last$[ebp]
  0000e	83 e9 1c	 sub	 ecx, 28			; 0000001cH
  00011	89 4d 0c	 mov	 DWORD PTR __Last$[ebp], ecx
  00014	8b 55 10	 mov	 edx, DWORD PTR __Dest$[ebp]
  00017	83 ea 1c	 sub	 edx, 28			; 0000001cH
  0001a	89 55 10	 mov	 DWORD PTR __Dest$[ebp], edx
  0001d	8b 45 0c	 mov	 eax, DWORD PTR __Last$[ebp]
  00020	50		 push	 eax
  00021	8b 4d 10	 mov	 ecx, DWORD PTR __Dest$[ebp]
  00024	ff 15 00 00 00
	00		 call	 DWORD PTR __imp_??4?$basic_string@DU?$char_traits@D@std@@V?$allocator@D@2@@std@@QAEAAV01@ABV01@@Z
  0002a	eb d7		 jmp	 SHORT $L87181
$L87182:

; 1051 : 	return (_Dest);

  0002c	8b 45 10	 mov	 eax, DWORD PTR __Dest$[ebp]

; 1052 : 	}

  0002f	5d		 pop	 ebp
  00030	c3		 ret	 0
??$_Copy_backward_opt@PAV?$basic_string@DU?$char_traits@D@std@@V?$allocator@D@2@@std@@PAV12@@std@@YAPAV?$basic_string@DU?$char_traits@D@std@@V?$allocator@D@2@@0@PAV10@00U_Nonscalar_ptr_iterator_tag@0@@Z ENDP ; std::_Copy_backward_opt<std::basic_string<char,std::char_traits<char>,std::allocator<char> > *,std::basic_string<char,std::char_traits<char>,std::allocator<char> > *>
_TEXT	ENDS
PUBLIC	??$_Construct@V?$basic_string@DU?$char_traits@D@std@@V?$allocator@D@2@@std@@V12@@std@@YAXPAV?$basic_string@DU?$char_traits@D@std@@V?$allocator@D@2@@0@ABV10@@Z ; std::_Construct<std::basic_string<char,std::char_traits<char>,std::allocator<char> >,std::basic_string<char,std::char_traits<char>,std::allocator<char> > >
; Function compile flags: /Odt
; File d:\program files (x86)\microsoft visual studio .net 2003\vc7\include\xmemory
;	COMDAT ?construct@?$allocator@V?$basic_string@DU?$char_traits@D@std@@V?$allocator@D@2@@std@@@std@@QAEXPAV?$basic_string@DU?$char_traits@D@std@@V?$allocator@D@2@@2@ABV32@@Z
_TEXT	SEGMENT
_this$ = -4						; size = 4
__Ptr$ = 8						; size = 4
__Val$ = 12						; size = 4
?construct@?$allocator@V?$basic_string@DU?$char_traits@D@std@@V?$allocator@D@2@@std@@@std@@QAEXPAV?$basic_string@DU?$char_traits@D@std@@V?$allocator@D@2@@2@ABV32@@Z PROC NEAR ; std::allocator<std::basic_string<char,std::char_traits<char>,std::allocator<char> > >::construct, COMDAT
; _this$ = ecx

; 146  : 		{	// construct object at _Ptr with value _Val

  00000	55		 push	 ebp
  00001	8b ec		 mov	 ebp, esp
  00003	51		 push	 ecx
  00004	89 4d fc	 mov	 DWORD PTR _this$[ebp], ecx

; 147  : 		_Construct(_Ptr, _Val);

  00007	8b 45 0c	 mov	 eax, DWORD PTR __Val$[ebp]
  0000a	50		 push	 eax
  0000b	8b 4d 08	 mov	 ecx, DWORD PTR __Ptr$[ebp]
  0000e	51		 push	 ecx
  0000f	e8 00 00 00 00	 call	 ??$_Construct@V?$basic_string@DU?$char_traits@D@std@@V?$allocator@D@2@@std@@V12@@std@@YAXPAV?$basic_string@DU?$char_traits@D@std@@V?$allocator@D@2@@0@ABV10@@Z ; std::_Construct<std::basic_string<char,std::char_traits<char>,std::allocator<char> >,std::basic_string<char,std::char_traits<char>,std::allocator<char> > >
  00014	83 c4 08	 add	 esp, 8

; 148  : 		}

  00017	8b e5		 mov	 esp, ebp
  00019	5d		 pop	 ebp
  0001a	c2 08 00	 ret	 8
?construct@?$allocator@V?$basic_string@DU?$char_traits@D@std@@V?$allocator@D@2@@std@@@std@@QAEXPAV?$basic_string@DU?$char_traits@D@std@@V?$allocator@D@2@@2@ABV32@@Z ENDP ; std::allocator<std::basic_string<char,std::char_traits<char>,std::allocator<char> > >::construct
_TEXT	ENDS
PUBLIC	??$_Destroy@V?$basic_string@DU?$char_traits@D@std@@V?$allocator@D@2@@std@@@std@@YAXPAV?$basic_string@DU?$char_traits@D@std@@V?$allocator@D@2@@0@@Z ; std::_Destroy<std::basic_string<char,std::char_traits<char>,std::allocator<char> > >
; Function compile flags: /Odt
;	COMDAT ?destroy@?$allocator@V?$basic_string@DU?$char_traits@D@std@@V?$allocator@D@2@@std@@@std@@QAEXPAV?$basic_string@DU?$char_traits@D@std@@V?$allocator@D@2@@2@@Z
_TEXT	SEGMENT
_this$ = -4						; size = 4
__Ptr$ = 8						; size = 4
?destroy@?$allocator@V?$basic_string@DU?$char_traits@D@std@@V?$allocator@D@2@@std@@@std@@QAEXPAV?$basic_string@DU?$char_traits@D@std@@V?$allocator@D@2@@2@@Z PROC NEAR ; std::allocator<std::basic_string<char,std::char_traits<char>,std::allocator<char> > >::destroy, COMDAT
; _this$ = ecx

; 151  : 		{	// destroy object at _Ptr

  00000	55		 push	 ebp
  00001	8b ec		 mov	 ebp, esp
  00003	51		 push	 ecx
  00004	89 4d fc	 mov	 DWORD PTR _this$[ebp], ecx

; 152  : 		_Destroy(_Ptr);

  00007	8b 45 08	 mov	 eax, DWORD PTR __Ptr$[ebp]
  0000a	50		 push	 eax
  0000b	e8 00 00 00 00	 call	 ??$_Destroy@V?$basic_string@DU?$char_traits@D@std@@V?$allocator@D@2@@std@@@std@@YAXPAV?$basic_string@DU?$char_traits@D@std@@V?$allocator@D@2@@0@@Z ; std::_Destroy<std::basic_string<char,std::char_traits<char>,std::allocator<char> > >
  00010	83 c4 04	 add	 esp, 4

; 153  : 		}

  00013	8b e5		 mov	 esp, ebp
  00015	5d		 pop	 ebp
  00016	c2 04 00	 ret	 4
?destroy@?$allocator@V?$basic_string@DU?$char_traits@D@std@@V?$allocator@D@2@@std@@@std@@QAEXPAV?$basic_string@DU?$char_traits@D@std@@V?$allocator@D@2@@2@@Z ENDP ; std::allocator<std::basic_string<char,std::char_traits<char>,std::allocator<char> > >::destroy
_TEXT	ENDS
;	COMDAT xdata$x
; File d:\program files (x86)\microsoft visual studio .net 2003\vc7\include\memory
xdata$x	SEGMENT
$T88874	DD	0ffffffffH
	DD	00H
	DD	0ffffffffH
	DD	00H
$T88876	DD	00H
	DD	00H
	DD	00H
	DD	FLAT:$L88870
$T88875	DD	00H
	DD	00H
	DD	01H
	DD	01H
	DD	FLAT:$T88876
$T88872	DD	019930520H
	DD	02H
	DD	FLAT:$T88874
	DD	01H
	DD	FLAT:$T88875
	DD	2 DUP(00H)
; Function compile flags: /Odt
xdata$x	ENDS
;	COMDAT ??$_Uninit_copy@PAV?$basic_string@DU?$char_traits@D@std@@V?$allocator@D@2@@std@@PAV12@V?$allocator@V?$basic_string@DU?$char_traits@D@std@@V?$allocator@D@2@@std@@@2@@std@@YAPAV?$basic_string@DU?$char_traits@D@std@@V?$allocator@D@2@@0@PAV10@00AAV?$allocator@V?$basic_string@DU?$char_traits@D@std@@V?$allocator@D@2@@std@@@0@U_Nonscalar_ptr_iterator_tag@0@@Z
_TEXT	SEGMENT
__Next$ = -20						; size = 4
__$EHRec$ = -16						; size = 16
__First$ = 8						; size = 4
__Last$ = 12						; size = 4
__Dest$ = 16						; size = 4
__Al$ = 20						; size = 4
___formal$ = 24						; size = 1
??$_Uninit_copy@PAV?$basic_string@DU?$char_traits@D@std@@V?$allocator@D@2@@std@@PAV12@V?$allocator@V?$basic_string@DU?$char_traits@D@std@@V?$allocator@D@2@@std@@@2@@std@@YAPAV?$basic_string@DU?$char_traits@D@std@@V?$allocator@D@2@@0@PAV10@00AAV?$allocator@V?$basic_string@DU?$char_traits@D@std@@V?$allocator@D@2@@std@@@0@U_Nonscalar_ptr_iterator_tag@0@@Z PROC NEAR ; std::_Uninit_copy<std::basic_string<char,std::char_traits<char>,std::allocator<char> > *,std::basic_string<char,std::char_traits<char>,std::allocator<char> > *,std::allocator<std::basic_string<char,std::char_traits<char>,std::allocator<char> > > >, COMDAT

; 77   : 	{	// copy [_First, _Last) to raw _Dest, using _Al, arbitrary type

  00000	55		 push	 ebp
  00001	8b ec		 mov	 ebp, esp
  00003	6a ff		 push	 -1
  00005	68 00 00 00 00	 push	 __ehhandler$??$_Uninit_copy@PAV?$basic_string@DU?$char_traits@D@std@@V?$allocator@D@2@@std@@PAV12@V?$allocator@V?$basic_string@DU?$char_traits@D@std@@V?$allocator@D@2@@std@@@2@@std@@YAPAV?$basic_string@DU?$char_traits@D@std@@V?$allocator@D@2@@0@PAV10@00AAV?$allocator@V?$basic_string@DU?$char_traits@D@std@@V?$allocator@D@2@@std@@@0@U_Nonscalar_ptr_iterator_tag@0@@Z
  0000a	64 a1 00 00 00
	00		 mov	 eax, DWORD PTR fs:__except_list
  00010	50		 push	 eax
  00011	64 89 25 00 00
	00 00		 mov	 DWORD PTR fs:__except_list, esp
  00018	51		 push	 ecx
  00019	51		 push	 ecx
  0001a	53		 push	 ebx
  0001b	56		 push	 esi
  0001c	57		 push	 edi
  0001d	89 65 f0	 mov	 DWORD PTR __$EHRec$[ebp], esp

; 78   : 	_FwdIt _Next = _Dest;

  00020	8b 45 10	 mov	 eax, DWORD PTR __Dest$[ebp]
  00023	89 45 ec	 mov	 DWORD PTR __Next$[ebp], eax

; 79   : 
; 80   : 	_TRY_BEGIN

  00026	c7 45 fc 00 00
	00 00		 mov	 DWORD PTR __$EHRec$[ebp+12], 0

; 81   : 	for (; _First != _Last; ++_Dest, ++_First)

  0002d	eb 12		 jmp	 SHORT $L87211
$L87212:
  0002f	8b 4d 10	 mov	 ecx, DWORD PTR __Dest$[ebp]
  00032	83 c1 1c	 add	 ecx, 28			; 0000001cH
  00035	89 4d 10	 mov	 DWORD PTR __Dest$[ebp], ecx
  00038	8b 55 08	 mov	 edx, DWORD PTR __First$[ebp]
  0003b	83 c2 1c	 add	 edx, 28			; 0000001cH
  0003e	89 55 08	 mov	 DWORD PTR __First$[ebp], edx
$L87211:
  00041	8b 45 08	 mov	 eax, DWORD PTR __First$[ebp]
  00044	3b 45 0c	 cmp	 eax, DWORD PTR __Last$[ebp]
  00047	74 12		 je	 SHORT $L87213

; 82   : 		_Al.construct(_Dest, *_First);

  00049	8b 4d 08	 mov	 ecx, DWORD PTR __First$[ebp]
  0004c	51		 push	 ecx
  0004d	8b 55 10	 mov	 edx, DWORD PTR __Dest$[ebp]
  00050	52		 push	 edx
  00051	8b 4d 14	 mov	 ecx, DWORD PTR __Al$[ebp]
  00054	e8 00 00 00 00	 call	 ?construct@?$allocator@V?$basic_string@DU?$char_traits@D@std@@V?$allocator@D@2@@std@@@std@@QAEXPAV?$basic_string@DU?$char_traits@D@std@@V?$allocator@D@2@@2@ABV32@@Z ; std::allocator<std::basic_string<char,std::char_traits<char>,std::allocator<char> > >::construct
  00059	eb d4		 jmp	 SHORT $L87212
$L87213:
  0005b	eb 2a		 jmp	 SHORT $L88869
$L88870:

; 83   : 	_CATCH_ALL
; 84   : 	for (; _Next != _Dest; ++_Next)

  0005d	eb 09		 jmp	 SHORT $L87214
$L87215:
  0005f	8b 45 ec	 mov	 eax, DWORD PTR __Next$[ebp]
  00062	83 c0 1c	 add	 eax, 28			; 0000001cH
  00065	89 45 ec	 mov	 DWORD PTR __Next$[ebp], eax
$L87214:
  00068	8b 4d ec	 mov	 ecx, DWORD PTR __Next$[ebp]
  0006b	3b 4d 10	 cmp	 ecx, DWORD PTR __Dest$[ebp]
  0006e	74 0e		 je	 SHORT $L87216

; 85   : 		_Al.destroy(_Next);

  00070	8b 55 ec	 mov	 edx, DWORD PTR __Next$[ebp]
  00073	52		 push	 edx
  00074	8b 4d 14	 mov	 ecx, DWORD PTR __Al$[ebp]
  00077	e8 00 00 00 00	 call	 ?destroy@?$allocator@V?$basic_string@DU?$char_traits@D@std@@V?$allocator@D@2@@std@@@std@@QAEXPAV?$basic_string@DU?$char_traits@D@std@@V?$allocator@D@2@@2@@Z ; std::allocator<std::basic_string<char,std::char_traits<char>,std::allocator<char> > >::destroy
  0007c	eb e1		 jmp	 SHORT $L87215
$L87216:

; 86   : 	_RERAISE;

  0007e	6a 00		 push	 0
  00080	6a 00		 push	 0
  00082	e8 00 00 00 00	 call	 __CxxThrowException@8
$L88869:

; 87   : 	_CATCH_END

  00087	c7 45 fc ff ff
	ff ff		 mov	 DWORD PTR __$EHRec$[ebp+12], -1

; 88   : 	return (_Dest);

  0008e	8b 45 10	 mov	 eax, DWORD PTR __Dest$[ebp]
$L88868:

; 89   : 	}

  00091	8b 4d f4	 mov	 ecx, DWORD PTR __$EHRec$[ebp+4]
  00094	64 89 0d 00 00
	00 00		 mov	 DWORD PTR fs:__except_list, ecx
  0009b	5f		 pop	 edi
  0009c	5e		 pop	 esi
  0009d	5b		 pop	 ebx
  0009e	8b e5		 mov	 esp, ebp
  000a0	5d		 pop	 ebp
  000a1	c3		 ret	 0
_TEXT	ENDS
;	COMDAT text$x
text$x	SEGMENT
__ehhandler$??$_Uninit_copy@PAV?$basic_string@DU?$char_traits@D@std@@V?$allocator@D@2@@std@@PAV12@V?$allocator@V?$basic_string@DU?$char_traits@D@std@@V?$allocator@D@2@@std@@@2@@std@@YAPAV?$basic_string@DU?$char_traits@D@std@@V?$allocator@D@2@@0@PAV10@00AAV?$allocator@V?$basic_string@DU?$char_traits@D@std@@V?$allocator@D@2@@std@@@0@U_Nonscalar_ptr_iterator_tag@0@@Z:
  00000	b8 00 00 00 00	 mov	 eax, OFFSET FLAT:$T88872
  00005	e9 00 00 00 00	 jmp	 ___CxxFrameHandler
text$x	ENDS
??$_Uninit_copy@PAV?$basic_string@DU?$char_traits@D@std@@V?$allocator@D@2@@std@@PAV12@V?$allocator@V?$basic_string@DU?$char_traits@D@std@@V?$allocator@D@2@@std@@@2@@std@@YAPAV?$basic_string@DU?$char_traits@D@std@@V?$allocator@D@2@@0@PAV10@00AAV?$allocator@V?$basic_string@DU?$char_traits@D@std@@V?$allocator@D@2@@std@@@0@U_Nonscalar_ptr_iterator_tag@0@@Z ENDP ; std::_Uninit_copy<std::basic_string<char,std::char_traits<char>,std::allocator<char> > *,std::basic_string<char,std::char_traits<char>,std::allocator<char> > *,std::allocator<std::basic_string<char,std::char_traits<char>,std::allocator<char> > > >
PUBLIC	??2@YAPAXIPAX@Z					; operator new
PUBLIC	??3@YAXPAX0@Z					; operator delete
;	COMDAT xdata$x
; File d:\program files (x86)\microsoft visual studio .net 2003\vc7\include\xmemory
xdata$x	SEGMENT
$T88889	DD	0ffffffffH
	DD	FLAT:$L88885
$T88887	DD	019930520H
	DD	01H
	DD	FLAT:$T88889
	DD	2 DUP(00H)
	DD	2 DUP(00H)
; Function compile flags: /Odt
xdata$x	ENDS
;	COMDAT ??$_Construct@V?$basic_string@DU?$char_traits@D@std@@V?$allocator@D@2@@std@@V12@@std@@YAXPAV?$basic_string@DU?$char_traits@D@std@@V?$allocator@D@2@@0@ABV10@@Z
_TEXT	SEGMENT
tv74 = -24						; size = 4
$T88882 = -20						; size = 4
$T88881 = -16						; size = 4
__$EHRec$ = -12						; size = 12
__Ptr$ = 8						; size = 4
__Val$ = 12						; size = 4
??$_Construct@V?$basic_string@DU?$char_traits@D@std@@V?$allocator@D@2@@std@@V12@@std@@YAXPAV?$basic_string@DU?$char_traits@D@std@@V?$allocator@D@2@@0@ABV10@@Z PROC NEAR ; std::_Construct<std::basic_string<char,std::char_traits<char>,std::allocator<char> >,std::basic_string<char,std::char_traits<char>,std::allocator<char> > >, COMDAT

; 41   : 	{	// construct object at _Ptr with value _Val

  00000	55		 push	 ebp
  00001	8b ec		 mov	 ebp, esp
  00003	6a ff		 push	 -1
  00005	68 00 00 00 00	 push	 __ehhandler$??$_Construct@V?$basic_string@DU?$char_traits@D@std@@V?$allocator@D@2@@std@@V12@@std@@YAXPAV?$basic_string@DU?$char_traits@D@std@@V?$allocator@D@2@@0@ABV10@@Z
  0000a	64 a1 00 00 00
	00		 mov	 eax, DWORD PTR fs:__except_list
  00010	50		 push	 eax
  00011	64 89 25 00 00
	00 00		 mov	 DWORD PTR fs:__except_list, esp
  00018	83 ec 0c	 sub	 esp, 12			; 0000000cH

; 42   : 	new ((void _FARQ *)_Ptr) _T1(_Val);

  0001b	8b 45 08	 mov	 eax, DWORD PTR __Ptr$[ebp]
  0001e	50		 push	 eax
  0001f	6a 1c		 push	 28			; 0000001cH
  00021	e8 00 00 00 00	 call	 ??2@YAPAXIPAX@Z		; operator new
  00026	83 c4 08	 add	 esp, 8
  00029	89 45 ec	 mov	 DWORD PTR $T88882[ebp], eax
  0002c	c7 45 fc 00 00
	00 00		 mov	 DWORD PTR __$EHRec$[ebp+8], 0
  00033	83 7d ec 00	 cmp	 DWORD PTR $T88882[ebp], 0
  00037	74 12		 je	 SHORT $L88883
  00039	8b 4d 0c	 mov	 ecx, DWORD PTR __Val$[ebp]
  0003c	51		 push	 ecx
  0003d	8b 4d ec	 mov	 ecx, DWORD PTR $T88882[ebp]
  00040	ff 15 00 00 00
	00		 call	 DWORD PTR __imp_??0?$basic_string@DU?$char_traits@D@std@@V?$allocator@D@2@@std@@QAE@ABV01@@Z
  00046	89 45 e8	 mov	 DWORD PTR tv74[ebp], eax
  00049	eb 07		 jmp	 SHORT $L88884
$L88883:
  0004b	c7 45 e8 00 00
	00 00		 mov	 DWORD PTR tv74[ebp], 0
$L88884:
  00052	8b 55 e8	 mov	 edx, DWORD PTR tv74[ebp]
  00055	89 55 f0	 mov	 DWORD PTR $T88881[ebp], edx
  00058	c7 45 fc ff ff
	ff ff		 mov	 DWORD PTR __$EHRec$[ebp+8], -1

; 43   : 	}

  0005f	8b 4d f4	 mov	 ecx, DWORD PTR __$EHRec$[ebp]
  00062	64 89 0d 00 00
	00 00		 mov	 DWORD PTR fs:__except_list, ecx
  00069	8b e5		 mov	 esp, ebp
  0006b	5d		 pop	 ebp
  0006c	c3		 ret	 0
_TEXT	ENDS
;	COMDAT text$x
text$x	SEGMENT
$L88885:
  00000	8b 45 08	 mov	 eax, DWORD PTR __Ptr$[ebp]
  00003	50		 push	 eax
  00004	8b 4d ec	 mov	 ecx, DWORD PTR $T88882[ebp]
  00007	51		 push	 ecx
  00008	e8 00 00 00 00	 call	 ??3@YAXPAX0@Z		; operator delete
  0000d	83 c4 08	 add	 esp, 8
  00010	c3		 ret	 0
__ehhandler$??$_Construct@V?$basic_string@DU?$char_traits@D@std@@V?$allocator@D@2@@std@@V12@@std@@YAXPAV?$basic_string@DU?$char_traits@D@std@@V?$allocator@D@2@@0@ABV10@@Z:
  00011	b8 00 00 00 00	 mov	 eax, OFFSET FLAT:$T88887
  00016	e9 00 00 00 00	 jmp	 ___CxxFrameHandler
text$x	ENDS
??$_Construct@V?$basic_string@DU?$char_traits@D@std@@V?$allocator@D@2@@std@@V12@@std@@YAXPAV?$basic_string@DU?$char_traits@D@std@@V?$allocator@D@2@@0@ABV10@@Z ENDP ; std::_Construct<std::basic_string<char,std::char_traits<char>,std::allocator<char> >,std::basic_string<char,std::char_traits<char>,std::allocator<char> > >
; Function compile flags: /Odt
; File d:\program files (x86)\microsoft visual studio .net 2003\vc7\include\new
;	COMDAT ??2@YAPAXIPAX@Z
_TEXT	SEGMENT
___formal$ = 8						; size = 4
__Where$ = 12						; size = 4
??2@YAPAXIPAX@Z PROC NEAR				; operator new, COMDAT

; 63   : 	{	// construct array with placement at _Where

  00000	55		 push	 ebp
  00001	8b ec		 mov	 ebp, esp

; 64   : 	return (_Where);

  00003	8b 45 0c	 mov	 eax, DWORD PTR __Where$[ebp]

; 65   : 	}

  00006	5d		 pop	 ebp
  00007	c3		 ret	 0
??2@YAPAXIPAX@Z ENDP					; operator new
; Function compile flags: /Odt
_TEXT	ENDS
;	COMDAT ??3@YAXPAX0@Z
_TEXT	SEGMENT
___formal$ = 8						; size = 4
___formal$ = 12						; size = 4
??3@YAXPAX0@Z PROC NEAR					; operator delete, COMDAT

; 68   : 	{	// delete if placement new fails

  00000	55		 push	 ebp
  00001	8b ec		 mov	 ebp, esp

; 69   : 	}

  00003	5d		 pop	 ebp
  00004	c3		 ret	 0
??3@YAXPAX0@Z ENDP					; operator delete
_TEXT	ENDS
PUBLIC	??_G?$basic_string@DU?$char_traits@D@std@@V?$allocator@D@2@@std@@QAEPAXI@Z ; std::basic_string<char,std::char_traits<char>,std::allocator<char> >::`scalar deleting destructor'
; Function compile flags: /Odt
; File d:\program files (x86)\microsoft visual studio .net 2003\vc7\include\xmemory
;	COMDAT ??$_Destroy@V?$basic_string@DU?$char_traits@D@std@@V?$allocator@D@2@@std@@@std@@YAXPAV?$basic_string@DU?$char_traits@D@std@@V?$allocator@D@2@@0@@Z
_TEXT	SEGMENT
__Ptr$ = 8						; size = 4
??$_Destroy@V?$basic_string@DU?$char_traits@D@std@@V?$allocator@D@2@@std@@@std@@YAXPAV?$basic_string@DU?$char_traits@D@std@@V?$allocator@D@2@@0@@Z PROC NEAR ; std::_Destroy<std::basic_string<char,std::char_traits<char>,std::allocator<char> > >, COMDAT

; 48   : 	{	// destroy object at _Ptr

  00000	55		 push	 ebp
  00001	8b ec		 mov	 ebp, esp

; 49   : 	_DESTRUCTOR(_Ty, _Ptr);

  00003	6a 00		 push	 0
  00005	8b 4d 08	 mov	 ecx, DWORD PTR __Ptr$[ebp]
  00008	e8 00 00 00 00	 call	 ??_G?$basic_string@DU?$char_traits@D@std@@V?$allocator@D@2@@std@@QAEPAXI@Z

; 50   : 	}

  0000d	5d		 pop	 ebp
  0000e	c3		 ret	 0
??$_Destroy@V?$basic_string@DU?$char_traits@D@std@@V?$allocator@D@2@@std@@@std@@YAXPAV?$basic_string@DU?$char_traits@D@std@@V?$allocator@D@2@@0@@Z ENDP ; std::_Destroy<std::basic_string<char,std::char_traits<char>,std::allocator<char> > >
; Function compile flags: /Odt
_TEXT	ENDS
;	COMDAT ??_G?$basic_string@DU?$char_traits@D@std@@V?$allocator@D@2@@std@@QAEPAXI@Z
_TEXT	SEGMENT
_this$ = -4						; size = 4
___flags$ = 8						; size = 4
??_G?$basic_string@DU?$char_traits@D@std@@V?$allocator@D@2@@std@@QAEPAXI@Z PROC NEAR ; std::basic_string<char,std::char_traits<char>,std::allocator<char> >::`scalar deleting destructor', COMDAT
; _this$ = ecx
  00000	55		 push	 ebp
  00001	8b ec		 mov	 ebp, esp
  00003	51		 push	 ecx
  00004	89 4d fc	 mov	 DWORD PTR _this$[ebp], ecx
  00007	8b 4d fc	 mov	 ecx, DWORD PTR _this$[ebp]
  0000a	ff 15 00 00 00
	00		 call	 DWORD PTR __imp_??1?$basic_string@DU?$char_traits@D@std@@V?$allocator@D@2@@std@@QAE@XZ
  00010	8b 45 08	 mov	 eax, DWORD PTR ___flags$[ebp]
  00013	83 e0 01	 and	 eax, 1
  00016	74 0c		 je	 SHORT $L87228
  00018	8b 4d fc	 mov	 ecx, DWORD PTR _this$[ebp]
  0001b	51		 push	 ecx
  0001c	e8 00 00 00 00	 call	 ??3@YAXPAX@Z		; operator delete
  00021	83 c4 04	 add	 esp, 4
$L87228:
  00024	8b 45 fc	 mov	 eax, DWORD PTR _this$[ebp]
  00027	8b e5		 mov	 esp, ebp
  00029	5d		 pop	 ebp
  0002a	c2 04 00	 ret	 4
??_G?$basic_string@DU?$char_traits@D@std@@V?$allocator@D@2@@std@@QAEPAXI@Z ENDP ; std::basic_string<char,std::char_traits<char>,std::allocator<char> >::`scalar deleting destructor'
_TEXT	ENDS
END
