; Listing generated by Microsoft (R) Optimizing Compiler Version 13.10.3077 

	TITLE	\boxgit\PlayBox\CommonLib\common\YL_EncFileReg.cpp
	.386P
include listing.inc
if @Version gt 510
.model FLAT
else
_TEXT	SEGMENT PARA USE32 PUBLIC 'CODE'
_TEXT	ENDS
_DATA	SEGMENT DWORD USE32 PUBLIC 'DATA'
_DATA	ENDS
CONST	SEGMENT DWORD USE32 PUBLIC 'CONST'
CONST	ENDS
_BSS	SEGMENT DWORD USE32 PUBLIC 'BSS'
_BSS	ENDS
$$SYMBOLS	SEGMENT BYTE USE32 'DEBSYM'
$$SYMBOLS	ENDS
$$TYPES	SEGMENT BYTE USE32 'DEBTYP'
$$TYPES	ENDS
_TLS	SEGMENT DWORD USE32 PUBLIC 'TLS'
_TLS	ENDS
;	COMDAT ??_C@_0FG@EOHGAEB@?3Sun?3Sunday?3Mon?3Monday?3Tue?3Tuesd@
CONST	SEGMENT DWORD USE32 PUBLIC 'CONST'
CONST	ENDS
;	COMDAT ??_C@_0IH@HPGJLCCK@?3Jan?3January?3Feb?3February?3Mar?3Ma@
CONST	SEGMENT DWORD USE32 PUBLIC 'CONST'
CONST	ENDS
;	COMDAT ??_C@_05LAPONLG@false?$AA@
CONST	SEGMENT DWORD USE32 PUBLIC 'CONST'
CONST	ENDS
;	COMDAT ??_C@_04LOAJBDKD@true?$AA@
CONST	SEGMENT DWORD USE32 PUBLIC 'CONST'
CONST	ENDS
;	COMDAT ??_C@_01GFHCPBMG@C?$AA@
CONST	SEGMENT DWORD USE32 PUBLIC 'CONST'
CONST	ENDS
;	COMDAT ??_C@_05GIBEAPNE@CLSID?$AA@
CONST	SEGMENT DWORD USE32 PUBLIC 'CONST'
CONST	ENDS
;	COMDAT ??_C@_05PDIKPLII@AppID?$AA@
CONST	SEGMENT DWORD USE32 PUBLIC 'CONST'
CONST	ENDS
;	COMDAT ??_C@_04OHBKMIBJ@HKCR?$AA@
CONST	SEGMENT DWORD USE32 PUBLIC 'CONST'
CONST	ENDS
;	COMDAT ??_C@_04KIFLFONO@HKCU?$AA@
CONST	SEGMENT DWORD USE32 PUBLIC 'CONST'
CONST	ENDS
;	COMDAT ??_C@_04CBBMIBLK@HKLM?$AA@
CONST	SEGMENT DWORD USE32 PUBLIC 'CONST'
CONST	ENDS
;	COMDAT ??_C@_03DLBIJLAB@HKU?$AA@
CONST	SEGMENT DWORD USE32 PUBLIC 'CONST'
CONST	ENDS
;	COMDAT ??_C@_04OFOCGAOH@HKPD?$AA@
CONST	SEGMENT DWORD USE32 PUBLIC 'CONST'
CONST	ENDS
;	COMDAT ??_C@_04POMNGLEL@HKDD?$AA@
CONST	SEGMENT DWORD USE32 PUBLIC 'CONST'
CONST	ENDS
;	COMDAT ??_C@_04LEMDOLAJ@HKCC?$AA@
CONST	SEGMENT DWORD USE32 PUBLIC 'CONST'
CONST	ENDS
;	COMDAT ??_C@_0BC@JBJOLKMF@HKEY_CLASSES_ROOT?$AA@
CONST	SEGMENT DWORD USE32 PUBLIC 'CONST'
CONST	ENDS
;	COMDAT ??_C@_0BC@GMMMKLBI@HKEY_CURRENT_USER?$AA@
CONST	SEGMENT DWORD USE32 PUBLIC 'CONST'
CONST	ENDS
;	COMDAT ??_C@_0BD@GIIFIKDM@HKEY_LOCAL_MACHINE?$AA@
CONST	SEGMENT DWORD USE32 PUBLIC 'CONST'
CONST	ENDS
;	COMDAT ??_C@_0L@OEMMANAM@HKEY_USERS?$AA@
CONST	SEGMENT DWORD USE32 PUBLIC 'CONST'
CONST	ENDS
;	COMDAT ??_C@_0BG@IDBEHNDO@HKEY_PERFORMANCE_DATA?$AA@
CONST	SEGMENT DWORD USE32 PUBLIC 'CONST'
CONST	ENDS
;	COMDAT ??_C@_0O@MJDLIIGK@HKEY_DYN_DATA?$AA@
CONST	SEGMENT DWORD USE32 PUBLIC 'CONST'
CONST	ENDS
;	COMDAT ??_C@_0BE@NLNNHLLF@HKEY_CURRENT_CONFIG?$AA@
CONST	SEGMENT DWORD USE32 PUBLIC 'CONST'
CONST	ENDS
;	COMDAT ??_C@_1O@MNLDABAF@?$AAM?$AAo?$AAd?$AAu?$AAl?$AAe?$AA?$AA@
CONST	SEGMENT DWORD USE32 PUBLIC 'CONST'
CONST	ENDS
;	COMDAT ??_C@_1BG@JBACFMF@?$AAM?$AAo?$AAd?$AAu?$AAl?$AAe?$AA_?$AAR?$AAa?$AAw?$AA?$AA@
CONST	SEGMENT DWORD USE32 PUBLIC 'CONST'
CONST	ENDS
;	COMDAT ??_C@_1BC@KAILKFFG@?$AAR?$AAE?$AAG?$AAI?$AAS?$AAT?$AAR?$AAY?$AA?$AA@
CONST	SEGMENT DWORD USE32 PUBLIC 'CONST'
CONST	ENDS
;	COMDAT ??_C@_00CNPNBAHC@?$AA@
CONST	SEGMENT DWORD USE32 PUBLIC 'CONST'
CONST	ENDS
;	COMDAT ??_C@_04LFHHJFCN@?4tlb?$AA@
CONST	SEGMENT DWORD USE32 PUBLIC 'CONST'
CONST	ENDS
;	COMDAT ??_C@_06JHNIBAJK@CLSID?2?$AA@
CONST	SEGMENT DWORD USE32 PUBLIC 'CONST'
CONST	ENDS
;	COMDAT ??_C@_0BF@CCIMKLEB@?2Required?5Categories?$AA@
CONST	SEGMENT DWORD USE32 PUBLIC 'CONST'
CONST	ENDS
;	COMDAT ??_C@_0BI@LFOHFLDB@?2Implemented?5Categories?$AA@
CONST	SEGMENT DWORD USE32 PUBLIC 'CONST'
CONST	ENDS
;	COMDAT ??_C@_0O@OGDGDABE@DllGetVersion?$AA@
CONST	SEGMENT DWORD USE32 PUBLIC 'CONST'
CONST	ENDS
;	COMDAT ??_C@_0N@OGEBEC@comctl32?4dll?$AA@
CONST	SEGMENT DWORD USE32 PUBLIC 'CONST'
CONST	ENDS
;	COMDAT ??_C@_0M@KFDNOLCO@shell32?4dll?$AA@
CONST	SEGMENT DWORD USE32 PUBLIC 'CONST'
CONST	ENDS
;	COMDAT ??_C@_02EAOCLKAK@ld?$AA@
CONST	SEGMENT DWORD USE32 PUBLIC 'CONST'
CONST	ENDS
;	COMDAT ??_C@_02BDDLJJBK@lu?$AA@
CONST	SEGMENT DWORD USE32 PUBLIC 'CONST'
CONST	ENDS
;	COMDAT ??_C@_02HIKPPMOK@Ld?$AA@
CONST	SEGMENT DWORD USE32 PUBLIC 'CONST'
CONST	ENDS
;	COMDAT ??_C@_02CLHGNPPK@Lu?$AA@
CONST	SEGMENT DWORD USE32 PUBLIC 'CONST'
CONST	ENDS
;	COMDAT ??_C@_02BBAHNLBA@?$CFp?$AA@
CONST	SEGMENT DWORD USE32 PUBLIC 'CONST'
CONST	ENDS
;	COMDAT ??_C@_1M@PPPPCDEP@?$AAA?$AAP?$AAP?$AAI?$AAD?$AA?$AA@
CONST	SEGMENT DWORD USE32 PUBLIC 'CONST'
CONST	ENDS
;	COMDAT ??_C@_0BH@HHDGIIFB@0123456789abcdefABCDEF?$AA@
CONST	SEGMENT DWORD USE32 PUBLIC 'CONST'
CONST	ENDS
;	COMDAT ??_C@_01DDCIFGEA@E?$AA@
CONST	SEGMENT DWORD USE32 PUBLIC 'CONST'
CONST	ENDS
;	COMDAT ??_C@_01KGKMHCOC@e?$AA@
CONST	SEGMENT DWORD USE32 PUBLIC 'CONST'
CONST	ENDS
;	COMDAT ??_C@_11LOCGONAA@?$AA?$AA@
CONST	SEGMENT DWORD USE32 PUBLIC 'CONST'
CONST	ENDS
;	COMDAT ??_C@_08EPJLHIJG@bad?5cast?$AA@
CONST	SEGMENT DWORD USE32 PUBLIC 'CONST'
CONST	ENDS
rdata$r	SEGMENT DWORD USE32 PUBLIC 'CONST'
rdata$r	ENDS
text$yc	SEGMENT PARA USE32 PUBLIC 'CODE'
text$yc	ENDS
CRT$XCA	SEGMENT DWORD USE32 PUBLIC 'DATA'
CRT$XCA	ENDS
CRT$XCU	SEGMENT DWORD USE32 PUBLIC 'DATA'
CRT$XCU	ENDS
CRT$XCL	SEGMENT DWORD USE32 PUBLIC 'DATA'
CRT$XCL	ENDS
CRT$XCC	SEGMENT DWORD USE32 PUBLIC 'DATA'
CRT$XCC	ENDS
CRT$XCZ	SEGMENT DWORD USE32 PUBLIC 'DATA'
CRT$XCZ	ENDS
text$yd	SEGMENT PARA USE32 PUBLIC 'CODE'
text$yd	ENDS
ATL$__m	SEGMENT DWORD USE32 PUBLIC ''
ATL$__m	ENDS
ATL$__z	SEGMENT DWORD USE32 PUBLIC ''
ATL$__z	ENDS
ATL$__a	SEGMENT DWORD USE32 PUBLIC ''
ATL$__a	ENDS
xdata$x	SEGMENT DWORD USE32 PUBLIC 'CONST'
xdata$x	ENDS
;	COMDAT _InlineIsEqualGUID
_TEXT	SEGMENT PARA USE32 PUBLIC 'CODE'
_TEXT	ENDS
;	COMDAT _IsEqualGUID
_TEXT	SEGMENT PARA USE32 PUBLIC 'CODE'
_TEXT	ENDS
;	COMDAT _==
_TEXT	SEGMENT PARA USE32 PUBLIC 'CODE'
_TEXT	ENDS
;	COMDAT ??1bad_exception@std@@UAE@XZ
_TEXT	SEGMENT PARA USE32 PUBLIC 'CODE'
_TEXT	ENDS
;	COMDAT ??_Gbad_exception@std@@UAEPAXI@Z
_TEXT	SEGMENT PARA USE32 PUBLIC 'CODE'
_TEXT	ENDS
;	COMDAT ??1bad_alloc@std@@UAE@XZ
_TEXT	SEGMENT PARA USE32 PUBLIC 'CODE'
_TEXT	ENDS
;	COMDAT ??_Gbad_alloc@std@@UAEPAXI@Z
_TEXT	SEGMENT PARA USE32 PUBLIC 'CODE'
_TEXT	ENDS
;	COMDAT _wmemchr
_TEXT	SEGMENT PARA USE32 PUBLIC 'CODE'
_TEXT	ENDS
;	COMDAT _wmemcmp
_TEXT	SEGMENT PARA USE32 PUBLIC 'CODE'
_TEXT	ENDS
;	COMDAT _wmemcpy
_TEXT	SEGMENT PARA USE32 PUBLIC 'CODE'
_TEXT	ENDS
;	COMDAT _wmemmove
_TEXT	SEGMENT PARA USE32 PUBLIC 'CODE'
_TEXT	ENDS
;	COMDAT _wmemset
_TEXT	SEGMENT PARA USE32 PUBLIC 'CODE'
_TEXT	ENDS
;	COMDAT ??0logic_error@std@@QAE@ABV?$basic_string@DU?$char_traits@D@std@@V?$allocator@D@2@@1@@Z
_TEXT	SEGMENT PARA USE32 PUBLIC 'CODE'
_TEXT	ENDS
;	COMDAT ??1logic_error@std@@UAE@XZ
_TEXT	SEGMENT PARA USE32 PUBLIC 'CODE'
_TEXT	ENDS
;	COMDAT ?what@logic_error@std@@UBEPBDXZ
_TEXT	SEGMENT PARA USE32 PUBLIC 'CODE'
_TEXT	ENDS
;	COMDAT ??_Glogic_error@std@@UAEPAXI@Z
_TEXT	SEGMENT PARA USE32 PUBLIC 'CODE'
_TEXT	ENDS
;	COMDAT ??1domain_error@std@@UAE@XZ
_TEXT	SEGMENT PARA USE32 PUBLIC 'CODE'
_TEXT	ENDS
;	COMDAT ??_Gdomain_error@std@@UAEPAXI@Z
_TEXT	SEGMENT PARA USE32 PUBLIC 'CODE'
_TEXT	ENDS
;	COMDAT ??1invalid_argument@std@@UAE@XZ
_TEXT	SEGMENT PARA USE32 PUBLIC 'CODE'
_TEXT	ENDS
;	COMDAT ??_Ginvalid_argument@std@@UAEPAXI@Z
_TEXT	SEGMENT PARA USE32 PUBLIC 'CODE'
_TEXT	ENDS
;	COMDAT ??1length_error@std@@UAE@XZ
_TEXT	SEGMENT PARA USE32 PUBLIC 'CODE'
_TEXT	ENDS
;	COMDAT ??_Glength_error@std@@UAEPAXI@Z
_TEXT	SEGMENT PARA USE32 PUBLIC 'CODE'
_TEXT	ENDS
;	COMDAT ??1out_of_range@std@@UAE@XZ
_TEXT	SEGMENT PARA USE32 PUBLIC 'CODE'
_TEXT	ENDS
;	COMDAT ??_Gout_of_range@std@@UAEPAXI@Z
_TEXT	SEGMENT PARA USE32 PUBLIC 'CODE'
_TEXT	ENDS
;	COMDAT ??0runtime_error@std@@QAE@ABV?$basic_string@DU?$char_traits@D@std@@V?$allocator@D@2@@1@@Z
_TEXT	SEGMENT PARA USE32 PUBLIC 'CODE'
_TEXT	ENDS
;	COMDAT ??1runtime_error@std@@UAE@XZ
_TEXT	SEGMENT PARA USE32 PUBLIC 'CODE'
_TEXT	ENDS
;	COMDAT ?what@runtime_error@std@@UBEPBDXZ
_TEXT	SEGMENT PARA USE32 PUBLIC 'CODE'
_TEXT	ENDS
;	COMDAT ??_Gruntime_error@std@@UAEPAXI@Z
_TEXT	SEGMENT PARA USE32 PUBLIC 'CODE'
_TEXT	ENDS
;	COMDAT ??1overflow_error@std@@UAE@XZ
_TEXT	SEGMENT PARA USE32 PUBLIC 'CODE'
_TEXT	ENDS
;	COMDAT ??_Goverflow_error@std@@UAEPAXI@Z
_TEXT	SEGMENT PARA USE32 PUBLIC 'CODE'
_TEXT	ENDS
;	COMDAT ??1underflow_error@std@@UAE@XZ
_TEXT	SEGMENT PARA USE32 PUBLIC 'CODE'
_TEXT	ENDS
;	COMDAT ??_Gunderflow_error@std@@UAEPAXI@Z
_TEXT	SEGMENT PARA USE32 PUBLIC 'CODE'
_TEXT	ENDS
;	COMDAT ??1range_error@std@@UAE@XZ
_TEXT	SEGMENT PARA USE32 PUBLIC 'CODE'
_TEXT	ENDS
;	COMDAT ??_Grange_error@std@@UAEPAXI@Z
_TEXT	SEGMENT PARA USE32 PUBLIC 'CODE'
_TEXT	ENDS
;	COMDAT ??$_Maklocbyte@_W@std@@YAD_WABU_Cvtvec@@@Z
_TEXT	SEGMENT PARA USE32 PUBLIC 'CODE'
_TEXT	ENDS
;	COMDAT ??$_Maklocchr@_W@std@@YA_WDPA_WABU_Cvtvec@@@Z
_TEXT	SEGMENT PARA USE32 PUBLIC 'CODE'
_TEXT	ENDS
;	COMDAT ??$_Maklocstr@_W@std@@YAPA_WPBDPA_WABU_Cvtvec@@@Z
_TEXT	SEGMENT PARA USE32 PUBLIC 'CODE'
_TEXT	ENDS
;	COMDAT ??_G?$codecvt@_WDH@std@@MAEPAXI@Z
_TEXT	SEGMENT PARA USE32 PUBLIC 'CODE'
_TEXT	ENDS
;	COMDAT ??_G?$ctype@D@std@@MAEPAXI@Z
_TEXT	SEGMENT PARA USE32 PUBLIC 'CODE'
_TEXT	ENDS
;	COMDAT ??_G?$ctype@_W@std@@MAEPAXI@Z
_TEXT	SEGMENT PARA USE32 PUBLIC 'CODE'
_TEXT	ENDS
;	COMDAT ??1failure@ios_base@std@@UAE@XZ
_TEXT	SEGMENT PARA USE32 PUBLIC 'CODE'
_TEXT	ENDS
;	COMDAT ??_Gfailure@ios_base@std@@UAEPAXI@Z
_TEXT	SEGMENT PARA USE32 PUBLIC 'CODE'
_TEXT	ENDS
;	COMDAT ??1sentry@?$basic_istream@DU?$char_traits@D@std@@@std@@QAE@XZ
_TEXT	SEGMENT PARA USE32 PUBLIC 'CODE'
_TEXT	ENDS
;	COMDAT ??1sentry@?$basic_istream@_WU?$char_traits@_W@std@@@std@@QAE@XZ
_TEXT	SEGMENT PARA USE32 PUBLIC 'CODE'
_TEXT	ENDS
;	COMDAT ?Allocate@CCRTAllocator@ATL@@SAPAXI@Z
_TEXT	SEGMENT PARA USE32 PUBLIC 'CODE'
_TEXT	ENDS
;	COMDAT ?Free@CCRTAllocator@ATL@@SAXPAX@Z
_TEXT	SEGMENT PARA USE32 PUBLIC 'CODE'
_TEXT	ENDS
;	COMDAT ?_AtlVerifyStackAvailable@_ATL_SAFE_ALLOCA_IMPL@ATL@@YA_NK@Z
_TEXT	SEGMENT PARA USE32 PUBLIC 'CODE'
_TEXT	ENDS
;	COMDAT ?InterlockedExchangePointer@@YGPAXPAPAXPAX@Z
_TEXT	SEGMENT PARA USE32 PUBLIC 'CODE'
_TEXT	ENDS
;	COMDAT ?_AtlGetThreadACPFake@ATL@@YGIXZ
_TEXT	SEGMENT PARA USE32 PUBLIC 'CODE'
_TEXT	ENDS
;	COMDAT ?_AtlGetThreadACPReal@ATL@@YGIXZ
_TEXT	SEGMENT PARA USE32 PUBLIC 'CODE'
_TEXT	ENDS
;	COMDAT ?_AtlGetThreadACPThunk@ATL@@YGIXZ
_TEXT	SEGMENT PARA USE32 PUBLIC 'CODE'
_TEXT	ENDS
;	COMDAT ?_AtlGetConversionACP@ATL@@YGIXZ
_TEXT	SEGMENT PARA USE32 PUBLIC 'CODE'
_TEXT	ENDS
;	COMDAT ?AtlA2WHelper@@YGPA_WPA_WPBDHI@Z
_TEXT	SEGMENT PARA USE32 PUBLIC 'CODE'
_TEXT	ENDS
;	COMDAT ?AtlW2AHelper@@YGPADPADPB_WHI@Z
_TEXT	SEGMENT PARA USE32 PUBLIC 'CODE'
_TEXT	ENDS
;	COMDAT ?ocslen@@YAHPB_W@Z
_TEXT	SEGMENT PARA USE32 PUBLIC 'CODE'
_TEXT	ENDS
;	COMDAT ?ocscpy@@YAPA_WPA_WPB_W@Z
_TEXT	SEGMENT PARA USE32 PUBLIC 'CODE'
_TEXT	ENDS
;	COMDAT ?CharNextO@@YAPA_WPB_W@Z
_TEXT	SEGMENT PARA USE32 PUBLIC 'CODE'
_TEXT	ENDS
;	COMDAT ?A2WBSTR@@YAPA_WPBDH@Z
_TEXT	SEGMENT PARA USE32 PUBLIC 'CODE'
_TEXT	ENDS
;	COMDAT ?_AtlRaiseException@ATL@@YAXKK@Z
_TEXT	SEGMENT PARA USE32 PUBLIC 'CODE'
_TEXT	ENDS
;	COMDAT ??0CAtlException@ATL@@QAE@J@Z
_TEXT	SEGMENT PARA USE32 PUBLIC 'CODE'
_TEXT	ENDS
;	COMDAT ?AtlThrow@ATL@@YGXJ@Z
_TEXT	SEGMENT PARA USE32 PUBLIC 'CODE'
_TEXT	ENDS
;	COMDAT ?AtlThrowLastWin32@ATL@@YGXXZ
_TEXT	SEGMENT PARA USE32 PUBLIC 'CODE'
_TEXT	ENDS
;	COMDAT ??0CComCriticalSection@ATL@@QAE@XZ
_TEXT	SEGMENT PARA USE32 PUBLIC 'CODE'
_TEXT	ENDS
;	COMDAT ?Lock@CComCriticalSection@ATL@@QAEJXZ
_TEXT	SEGMENT PARA USE32 PUBLIC 'CODE'
_TEXT	ENDS
;	COMDAT ?Unlock@CComCriticalSection@ATL@@QAEJXZ
_TEXT	SEGMENT PARA USE32 PUBLIC 'CODE'
_TEXT	ENDS
;	COMDAT ?Init@CComCriticalSection@ATL@@QAEJXZ
_TEXT	SEGMENT PARA USE32 PUBLIC 'CODE'
_TEXT	ENDS
;	COMDAT ?Term@CComCriticalSection@ATL@@QAEJXZ
_TEXT	SEGMENT PARA USE32 PUBLIC 'CODE'
_TEXT	ENDS
;	COMDAT ??0CComAutoCriticalSection@ATL@@QAE@XZ
_TEXT	SEGMENT PARA USE32 PUBLIC 'CODE'
_TEXT	ENDS
;	COMDAT ??1CComAutoCriticalSection@ATL@@QAE@XZ
_TEXT	SEGMENT PARA USE32 PUBLIC 'CODE'
_TEXT	ENDS
;	COMDAT ?GetModuleInstance@CAtlBaseModule@ATL@@QAEPAUHINSTANCE__@@XZ
_TEXT	SEGMENT PARA USE32 PUBLIC 'CODE'
_TEXT	ENDS
;	COMDAT ?SetResourceInstance@CAtlBaseModule@ATL@@QAEPAUHINSTANCE__@@PAU3@@Z
_TEXT	SEGMENT PARA USE32 PUBLIC 'CODE'
_TEXT	ENDS
;	COMDAT ?_AtlGetStringResourceImage@ATL@@YAPBUATLSTRINGRESOURCEIMAGE@1@PAUHINSTANCE__@@PAUHRSRC__@@I@Z
_TEXT	SEGMENT PARA USE32 PUBLIC 'CODE'
_TEXT	ENDS
;	COMDAT ?AtlGetStringResourceImage@ATL@@YAPBUATLSTRINGRESOURCEIMAGE@1@PAUHINSTANCE__@@I@Z
_TEXT	SEGMENT PARA USE32 PUBLIC 'CODE'
_TEXT	ENDS
;	COMDAT ?AtlGetStringResourceImage@ATL@@YAPBUATLSTRINGRESOURCEIMAGE@1@PAUHINSTANCE__@@IG@Z
_TEXT	SEGMENT PARA USE32 PUBLIC 'CODE'
_TEXT	ENDS
;	COMDAT ?AtlGetStringResourceImage@ATL@@YAPBUATLSTRINGRESOURCEIMAGE@1@I@Z
_TEXT	SEGMENT PARA USE32 PUBLIC 'CODE'
_TEXT	ENDS
;	COMDAT ?AtlFindResourceInstance@ATL@@YAPAUHINSTANCE__@@PBD0G@Z
_TEXT	SEGMENT PARA USE32 PUBLIC 'CODE'
_TEXT	ENDS
;	COMDAT ?AtlHresultFromLastError@ATL@@YAJXZ
_TEXT	SEGMENT PARA USE32 PUBLIC 'CODE'
_TEXT	ENDS
;	COMDAT ?AtlHresultFromWin32@ATL@@YAJK@Z
_TEXT	SEGMENT PARA USE32 PUBLIC 'CODE'
_TEXT	ENDS
;	COMDAT ?AtlComPtrAssign@ATL@@YGPAUIUnknown@@PAPAU2@PAU2@@Z
_TEXT	SEGMENT PARA USE32 PUBLIC 'CODE'
_TEXT	ENDS
;	COMDAT ?AtlComQIPtrAssign@ATL@@YGPAUIUnknown@@PAPAU2@PAU2@ABU_GUID@@@Z
_TEXT	SEGMENT PARA USE32 PUBLIC 'CODE'
_TEXT	ENDS
;	COMDAT ?GetProperty@?$CComPtr@UIDispatch@@@ATL@@QAEJJPAUtagVARIANT@@@Z
_TEXT	SEGMENT PARA USE32 PUBLIC 'CODE'
_TEXT	ENDS
;	COMDAT ?PutProperty@?$CComPtr@UIDispatch@@@ATL@@QAEJJPAUtagVARIANT@@@Z
_TEXT	SEGMENT PARA USE32 PUBLIC 'CODE'
_TEXT	ENDS
;	COMDAT ?GetIDOfName@?$CComPtr@UIDispatch@@@ATL@@QAEJPB_WPAJ@Z
_TEXT	SEGMENT PARA USE32 PUBLIC 'CODE'
_TEXT	ENDS
;	COMDAT ?Invoke0@?$CComPtr@UIDispatch@@@ATL@@QAEJJPAUtagVARIANT@@@Z
_TEXT	SEGMENT PARA USE32 PUBLIC 'CODE'
_TEXT	ENDS
;	COMDAT ?Invoke1@?$CComPtr@UIDispatch@@@ATL@@QAEJJPAUtagVARIANT@@0@Z
_TEXT	SEGMENT PARA USE32 PUBLIC 'CODE'
_TEXT	ENDS
;	COMDAT ?InvokeN@?$CComPtr@UIDispatch@@@ATL@@QAEJJPAUtagVARIANT@@H0@Z
_TEXT	SEGMENT PARA USE32 PUBLIC 'CODE'
_TEXT	ENDS
;	COMDAT ?PutProperty@?$CComPtr@UIDispatch@@@ATL@@SAJPAUIDispatch@@JPAUtagVARIANT@@@Z
_TEXT	SEGMENT PARA USE32 PUBLIC 'CODE'
_TEXT	ENDS
;	COMDAT ?GetProperty@?$CComPtr@UIDispatch@@@ATL@@SAJPAUIDispatch@@JPAUtagVARIANT@@@Z
_TEXT	SEGMENT PARA USE32 PUBLIC 'CODE'
_TEXT	ENDS
;	COMDAT ??1?$CComPtr@UIUnknown@@@ATL@@QAE@XZ
_TEXT	SEGMENT PARA USE32 PUBLIC 'CODE'
_TEXT	ENDS
;	COMDAT ??0CComBSTR@ATL@@QAE@XZ
_TEXT	SEGMENT PARA USE32 PUBLIC 'CODE'
_TEXT	ENDS
;	COMDAT ??0CComBSTR@ATL@@QAE@PB_W@Z
_TEXT	SEGMENT PARA USE32 PUBLIC 'CODE'
_TEXT	ENDS
;	COMDAT ??1CComBSTR@ATL@@QAE@XZ
_TEXT	SEGMENT PARA USE32 PUBLIC 'CODE'
_TEXT	ENDS
;	COMDAT ?Length@CComBSTR@ATL@@QBEIXZ
_TEXT	SEGMENT PARA USE32 PUBLIC 'CODE'
_TEXT	ENDS
;	COMDAT ?ByteLength@CComBSTR@ATL@@QBEIXZ
_TEXT	SEGMENT PARA USE32 PUBLIC 'CODE'
_TEXT	ENDS
;	COMDAT ??BCComBSTR@ATL@@QBEPA_WXZ
_TEXT	SEGMENT PARA USE32 PUBLIC 'CODE'
_TEXT	ENDS
;	COMDAT ??ICComBSTR@ATL@@QAEPAPA_WXZ
_TEXT	SEGMENT PARA USE32 PUBLIC 'CODE'
_TEXT	ENDS
;	COMDAT ?Copy@CComBSTR@ATL@@QBEPA_WXZ
_TEXT	SEGMENT PARA USE32 PUBLIC 'CODE'
_TEXT	ENDS
;	COMDAT ?Attach@CComBSTR@ATL@@QAEXPA_W@Z
_TEXT	SEGMENT PARA USE32 PUBLIC 'CODE'
_TEXT	ENDS
;	COMDAT ?Detach@CComBSTR@ATL@@QAEPA_WXZ
_TEXT	SEGMENT PARA USE32 PUBLIC 'CODE'
_TEXT	ENDS
;	COMDAT ?Empty@CComBSTR@ATL@@QAEXXZ
_TEXT	SEGMENT PARA USE32 PUBLIC 'CODE'
_TEXT	ENDS
;	COMDAT ??7CComBSTR@ATL@@QBE_NXZ
_TEXT	SEGMENT PARA USE32 PUBLIC 'CODE'
_TEXT	ENDS
;	COMDAT ?Append@CComBSTR@ATL@@QAEJABV12@@Z
_TEXT	SEGMENT PARA USE32 PUBLIC 'CODE'
_TEXT	ENDS
;	COMDAT ?Append@CComBSTR@ATL@@QAEJPB_W@Z
_TEXT	SEGMENT PARA USE32 PUBLIC 'CODE'
_TEXT	ENDS
;	COMDAT ?AppendBSTR@CComBSTR@ATL@@QAEJPA_W@Z
_TEXT	SEGMENT PARA USE32 PUBLIC 'CODE'
_TEXT	ENDS
;	COMDAT ?Append@CComBSTR@ATL@@QAEJPB_WH@Z
_TEXT	SEGMENT PARA USE32 PUBLIC 'CODE'
_TEXT	ENDS
;	COMDAT ??MCComBSTR@ATL@@QBE_NABV01@@Z
_TEXT	SEGMENT PARA USE32 PUBLIC 'CODE'
_TEXT	ENDS
;	COMDAT ??MCComBSTR@ATL@@QBE_NPB_W@Z
_TEXT	SEGMENT PARA USE32 PUBLIC 'CODE'
_TEXT	ENDS
;	COMDAT ??OCComBSTR@ATL@@QBE_NABV01@@Z
_TEXT	SEGMENT PARA USE32 PUBLIC 'CODE'
_TEXT	ENDS
;	COMDAT ??OCComBSTR@ATL@@QBE_NPB_W@Z
_TEXT	SEGMENT PARA USE32 PUBLIC 'CODE'
_TEXT	ENDS
;	COMDAT ??9CComBSTR@ATL@@QBE_NPB_W@Z
_TEXT	SEGMENT PARA USE32 PUBLIC 'CODE'
_TEXT	ENDS
;	COMDAT ??8CComBSTR@ATL@@QBE_NABV01@@Z
_TEXT	SEGMENT PARA USE32 PUBLIC 'CODE'
_TEXT	ENDS
;	COMDAT ??8CComBSTR@ATL@@QBE_NPB_W@Z
_TEXT	SEGMENT PARA USE32 PUBLIC 'CODE'
_TEXT	ENDS
;	COMDAT ??8CComBSTR@ATL@@QBE_NH@Z
_TEXT	SEGMENT PARA USE32 PUBLIC 'CODE'
_TEXT	ENDS
;	COMDAT ??0CComBSTR@ATL@@QAE@PBD@Z
_TEXT	SEGMENT PARA USE32 PUBLIC 'CODE'
_TEXT	ENDS
;	COMDAT ??4CComBSTR@ATL@@QAEAAV01@PBD@Z
_TEXT	SEGMENT PARA USE32 PUBLIC 'CODE'
_TEXT	ENDS
;	COMDAT ??8CComBSTR@ATL@@QBE_NPBD@Z
_TEXT	SEGMENT PARA USE32 PUBLIC 'CODE'
_TEXT	ENDS
;	COMDAT ?WriteToStream@CComBSTR@ATL@@QAEJPAUIStream@@@Z
_TEXT	SEGMENT PARA USE32 PUBLIC 'CODE'
_TEXT	ENDS
;	COMDAT ?ReadFromStream@CComBSTR@ATL@@QAEJPAUIStream@@@Z
_TEXT	SEGMENT PARA USE32 PUBLIC 'CODE'
_TEXT	ENDS
;	COMDAT ?LoadStringResource@CComBSTR@ATL@@SA_NPAUHINSTANCE__@@IAAPA_W@Z
_TEXT	SEGMENT PARA USE32 PUBLIC 'CODE'
_TEXT	ENDS
;	COMDAT ?LoadStringResource@CComBSTR@ATL@@SA_NIAAPA_W@Z
_TEXT	SEGMENT PARA USE32 PUBLIC 'CODE'
_TEXT	ENDS
;	COMDAT ??0CComVariant@ATL@@QAE@XZ
_TEXT	SEGMENT PARA USE32 PUBLIC 'CODE'
_TEXT	ENDS
;	COMDAT ??1CComVariant@ATL@@QAE@XZ
_TEXT	SEGMENT PARA USE32 PUBLIC 'CODE'
_TEXT	ENDS
;	COMDAT ??0CComVariant@ATL@@QAE@ABUtagVARIANT@@@Z
_TEXT	SEGMENT PARA USE32 PUBLIC 'CODE'
_TEXT	ENDS
;	COMDAT ??4CComVariant@ATL@@QAEAAV01@ABVCComBSTR@1@@Z
_TEXT	SEGMENT PARA USE32 PUBLIC 'CODE'
_TEXT	ENDS
;	COMDAT ??4CComVariant@ATL@@QAEAAV01@PB_W@Z
_TEXT	SEGMENT PARA USE32 PUBLIC 'CODE'
_TEXT	ENDS
;	COMDAT ??4CComVariant@ATL@@QAEAAV01@PBD@Z
_TEXT	SEGMENT PARA USE32 PUBLIC 'CODE'
_TEXT	ENDS
;	COMDAT ??8CComVariant@ATL@@QBE_NABUtagVARIANT@@@Z
_TEXT	SEGMENT PARA USE32 PUBLIC 'CODE'
_TEXT	ENDS
;	COMDAT ?Clear@CComVariant@ATL@@QAEJXZ
_TEXT	SEGMENT PARA USE32 PUBLIC 'CODE'
_TEXT	ENDS
;	COMDAT ?Copy@CComVariant@ATL@@QAEJPBUtagVARIANT@@@Z
_TEXT	SEGMENT PARA USE32 PUBLIC 'CODE'
_TEXT	ENDS
;	COMDAT ?ChangeType@CComVariant@ATL@@QAEJGPBUtagVARIANT@@@Z
_TEXT	SEGMENT PARA USE32 PUBLIC 'CODE'
_TEXT	ENDS
;	COMDAT ?InternalCopy@CComVariant@ATL@@QAEXPBUtagVARIANT@@@Z
_TEXT	SEGMENT PARA USE32 PUBLIC 'CODE'
_TEXT	ENDS
;	COMDAT ??1?$CComPtr@UIPersistStream@@@ATL@@QAE@XZ
_TEXT	SEGMENT PARA USE32 PUBLIC 'CODE'
_TEXT	ENDS
;	COMDAT ?Invoke2@?$CComPtr@UIDispatch@@@ATL@@QAEJJPAUtagVARIANT@@00@Z
_TEXT	SEGMENT PARA USE32 PUBLIC 'CODE'
_TEXT	ENDS
;	COMDAT ?RevokeClassObject@_ATL_OBJMAP_ENTRY30@ATL@@QAGJXZ
_TEXT	SEGMENT PARA USE32 PUBLIC 'CODE'
_TEXT	ENDS
;	COMDAT ?RegisterClassObject@_ATL_OBJMAP_ENTRY30@ATL@@QAGJKK@Z
_TEXT	SEGMENT PARA USE32 PUBLIC 'CODE'
_TEXT	ENDS
;	COMDAT ?Increment@CComMultiThreadModel@ATL@@SGKPAJ@Z
_TEXT	SEGMENT PARA USE32 PUBLIC 'CODE'
_TEXT	ENDS
;	COMDAT ?Decrement@CComMultiThreadModel@ATL@@SGKPAJ@Z
_TEXT	SEGMENT PARA USE32 PUBLIC 'CODE'
_TEXT	ENDS
;	COMDAT ?Init@_stdcallthunk@ATL@@QAEXKPAX@Z
_TEXT	SEGMENT PARA USE32 PUBLIC 'CODE'
_TEXT	ENDS
;	COMDAT ?GetCodeAddress@_stdcallthunk@ATL@@QAEPAXXZ
_TEXT	SEGMENT PARA USE32 PUBLIC 'CODE'
_TEXT	ENDS
;	COMDAT ?InlineIsEqualUnknown@ATL@@YGHABU_GUID@@@Z
_TEXT	SEGMENT PARA USE32 PUBLIC 'CODE'
_TEXT	ENDS
;	COMDAT ?Attach@CHandle@ATL@@QAEXPAX@Z
_TEXT	SEGMENT PARA USE32 PUBLIC 'CODE'
_TEXT	ENDS
;	COMDAT ?Detach@CHandle@ATL@@QAEPAXXZ
_TEXT	SEGMENT PARA USE32 PUBLIC 'CODE'
_TEXT	ENDS
;	COMDAT ?Close@CHandle@ATL@@QAEXXZ
_TEXT	SEGMENT PARA USE32 PUBLIC 'CODE'
_TEXT	ENDS
;	COMDAT ?Lock@CCritSecLock@ATL@@QAEXXZ
_TEXT	SEGMENT PARA USE32 PUBLIC 'CODE'
_TEXT	ENDS
;	COMDAT ?Unlock@CCritSecLock@ATL@@QAEXXZ
_TEXT	SEGMENT PARA USE32 PUBLIC 'CODE'
_TEXT	ENDS
;	COMDAT ?Term@CAtlComModule@ATL@@QAEXXZ
_TEXT	SEGMENT PARA USE32 PUBLIC 'CODE'
_TEXT	ENDS
;	COMDAT ?RegisterTypeLib@CAtlComModule@ATL@@QAEJXZ
_TEXT	SEGMENT PARA USE32 PUBLIC 'CODE'
_TEXT	ENDS
;	COMDAT ?RegisterTypeLib@CAtlComModule@ATL@@QAEJPBD@Z
_TEXT	SEGMENT PARA USE32 PUBLIC 'CODE'
_TEXT	ENDS
;	COMDAT ?UnRegisterTypeLib@CAtlComModule@ATL@@QAEJXZ
_TEXT	SEGMENT PARA USE32 PUBLIC 'CODE'
_TEXT	ENDS
;	COMDAT ?UnRegisterTypeLib@CAtlComModule@ATL@@QAEJPBD@Z
_TEXT	SEGMENT PARA USE32 PUBLIC 'CODE'
_TEXT	ENDS
;	COMDAT ?RegisterServer@CAtlComModule@ATL@@QAEJHPBU_GUID@@@Z
_TEXT	SEGMENT PARA USE32 PUBLIC 'CODE'
_TEXT	ENDS
;	COMDAT ?UnregisterServer@CAtlComModule@ATL@@QAEJHPBU_GUID@@@Z
_TEXT	SEGMENT PARA USE32 PUBLIC 'CODE'
_TEXT	ENDS
;	COMDAT ??0_ATL_COM_MODULE70@ATL@@QAE@XZ
_TEXT	SEGMENT PARA USE32 PUBLIC 'CODE'
_TEXT	ENDS
;	COMDAT ??0CAtlWinModule@ATL@@QAE@XZ
_TEXT	SEGMENT PARA USE32 PUBLIC 'CODE'
_TEXT	ENDS
;	COMDAT ??1CAtlWinModule@ATL@@QAE@XZ
_TEXT	SEGMENT PARA USE32 PUBLIC 'CODE'
_TEXT	ENDS
;	COMDAT ?Term@CAtlWinModule@ATL@@QAEXXZ
_TEXT	SEGMENT PARA USE32 PUBLIC 'CODE'
_TEXT	ENDS
;	COMDAT ?AddCreateWndData@CAtlWinModule@ATL@@QAEXPAU_AtlCreateWndData@2@PAX@Z
_TEXT	SEGMENT PARA USE32 PUBLIC 'CODE'
_TEXT	ENDS
;	COMDAT ?ExtractCreateWndData@CAtlWinModule@ATL@@QAEPAXXZ
_TEXT	SEGMENT PARA USE32 PUBLIC 'CODE'
_TEXT	ENDS
;	COMDAT ??0_ATL_WIN_MODULE70@ATL@@QAE@XZ
_TEXT	SEGMENT PARA USE32 PUBLIC 'CODE'
_TEXT	ENDS
;	COMDAT ??1_ATL_WIN_MODULE70@ATL@@QAE@XZ
_TEXT	SEGMENT PARA USE32 PUBLIC 'CODE'
_TEXT	ENDS
;	COMDAT _$E1
text$yc	SEGMENT PARA USE32 PUBLIC 'CODE'
text$yc	ENDS
;	COMDAT _$E2
text$yd	SEGMENT PARA USE32 PUBLIC 'CODE'
text$yd	ENDS
;	COMDAT ??0CAtlModule@ATL@@QAE@XZ
_TEXT	SEGMENT PARA USE32 PUBLIC 'CODE'
_TEXT	ENDS
;	COMDAT ?Term@CAtlModule@ATL@@QAEXXZ
_TEXT	SEGMENT PARA USE32 PUBLIC 'CODE'
_TEXT	ENDS
;	COMDAT ??1CAtlModule@ATL@@UAE@XZ
_TEXT	SEGMENT PARA USE32 PUBLIC 'CODE'
_TEXT	ENDS
;	COMDAT ?Lock@CAtlModule@ATL@@UAEJXZ
_TEXT	SEGMENT PARA USE32 PUBLIC 'CODE'
_TEXT	ENDS
;	COMDAT ?Unlock@CAtlModule@ATL@@UAEJXZ
_TEXT	SEGMENT PARA USE32 PUBLIC 'CODE'
_TEXT	ENDS
;	COMDAT ?GetLockCount@CAtlModule@ATL@@UAEJXZ
_TEXT	SEGMENT PARA USE32 PUBLIC 'CODE'
_TEXT	ENDS
;	COMDAT ?GetGITPtr@CAtlModule@ATL@@UAEJPAPAUIGlobalInterfaceTable@@@Z
_TEXT	SEGMENT PARA USE32 PUBLIC 'CODE'
_TEXT	ENDS
;	COMDAT ?EscapeSingleQuote@CAtlModule@ATL@@SAXPA_WPB_W@Z
_TEXT	SEGMENT PARA USE32 PUBLIC 'CODE'
_TEXT	ENDS
;	COMDAT ??_GCAtlModule@ATL@@UAEPAXI@Z
_TEXT	SEGMENT PARA USE32 PUBLIC 'CODE'
_TEXT	ENDS
;	COMDAT ??0_ATL_MODULE70@ATL@@QAE@XZ
_TEXT	SEGMENT PARA USE32 PUBLIC 'CODE'
_TEXT	ENDS
;	COMDAT ?get_m_hInst@CComModule@ATL@@QBEAAPAUHINSTANCE__@@XZ
_TEXT	SEGMENT PARA USE32 PUBLIC 'CODE'
_TEXT	ENDS
;	COMDAT ?GetModuleInstance@CComModule@ATL@@QAEPAUHINSTANCE__@@XZ
_TEXT	SEGMENT PARA USE32 PUBLIC 'CODE'
_TEXT	ENDS
;	COMDAT ?UpdateRegistryFromResourceD@CComModule@ATL@@UAGJPBDHPAU_ATL_REGMAP_ENTRY@2@@Z
_TEXT	SEGMENT PARA USE32 PUBLIC 'CODE'
_TEXT	ENDS
;	COMDAT ?UpdateRegistryFromResourceD@CComModule@ATL@@UAGJIHPAU_ATL_REGMAP_ENTRY@2@@Z
_TEXT	SEGMENT PARA USE32 PUBLIC 'CODE'
_TEXT	ENDS
;	COMDAT ?UpdateRegistryFromResourceS@CComModule@ATL@@UAGJPBDHPAU_ATL_REGMAP_ENTRY@2@@Z
_TEXT	SEGMENT PARA USE32 PUBLIC 'CODE'
_TEXT	ENDS
;	COMDAT ?UpdateRegistryFromResourceS@CComModule@ATL@@UAGJIHPAU_ATL_REGMAP_ENTRY@2@@Z
_TEXT	SEGMENT PARA USE32 PUBLIC 'CODE'
_TEXT	ENDS
;	COMDAT ??_GCComModule@ATL@@UAEPAXI@Z
_TEXT	SEGMENT PARA USE32 PUBLIC 'CODE'
_TEXT	ENDS
;	COMDAT ??1?$CAtlModuleT@VCComModule@ATL@@@ATL@@UAE@XZ
_TEXT	SEGMENT PARA USE32 PUBLIC 'CODE'
_TEXT	ENDS
;	COMDAT ??1CComModule@ATL@@UAE@XZ
_TEXT	SEGMENT PARA USE32 PUBLIC 'CODE'
_TEXT	ENDS
;	COMDAT ?Apartment@CComApartment@ATL@@QAEKXZ
_TEXT	SEGMENT PARA USE32 PUBLIC 'CODE'
_TEXT	ENDS
;	COMDAT ?GetThread@CComSimpleThreadAllocator@ATL@@QAEHPAVCComApartment@2@H@Z
_TEXT	SEGMENT PARA USE32 PUBLIC 'CODE'
_TEXT	ENDS
;	COMDAT ??0CRegKey@ATL@@QAE@XZ
_TEXT	SEGMENT PARA USE32 PUBLIC 'CODE'
_TEXT	ENDS
;	COMDAT ??0CRegKey@ATL@@QAE@PAUHKEY__@@@Z
_TEXT	SEGMENT PARA USE32 PUBLIC 'CODE'
_TEXT	ENDS
;	COMDAT ??1CRegKey@ATL@@QAE@XZ
_TEXT	SEGMENT PARA USE32 PUBLIC 'CODE'
_TEXT	ENDS
;	COMDAT ??BCRegKey@ATL@@QBEPAUHKEY__@@XZ
_TEXT	SEGMENT PARA USE32 PUBLIC 'CODE'
_TEXT	ENDS
;	COMDAT ?Detach@CRegKey@ATL@@QAEPAUHKEY__@@XZ
_TEXT	SEGMENT PARA USE32 PUBLIC 'CODE'
_TEXT	ENDS
;	COMDAT ?Attach@CRegKey@ATL@@QAEXPAUHKEY__@@@Z
_TEXT	SEGMENT PARA USE32 PUBLIC 'CODE'
_TEXT	ENDS
;	COMDAT ?DeleteSubKey@CRegKey@ATL@@QAEJPBD@Z
_TEXT	SEGMENT PARA USE32 PUBLIC 'CODE'
_TEXT	ENDS
;	COMDAT ?DeleteValue@CRegKey@ATL@@QAEJPBD@Z
_TEXT	SEGMENT PARA USE32 PUBLIC 'CODE'
_TEXT	ENDS
;	COMDAT ?Close@CRegKey@ATL@@QAEJXZ
_TEXT	SEGMENT PARA USE32 PUBLIC 'CODE'
_TEXT	ENDS
;	COMDAT ?Create@CRegKey@ATL@@QAEJPAUHKEY__@@PBDPADKKPAU_SECURITY_ATTRIBUTES@@PAK@Z
_TEXT	SEGMENT PARA USE32 PUBLIC 'CODE'
_TEXT	ENDS
;	COMDAT ?Open@CRegKey@ATL@@QAEJPAUHKEY__@@PBDK@Z
_TEXT	SEGMENT PARA USE32 PUBLIC 'CODE'
_TEXT	ENDS
;	COMDAT ?QueryStringValue@CRegKey@ATL@@QAEJPBDPADPAK@Z
_TEXT	SEGMENT PARA USE32 PUBLIC 'CODE'
_TEXT	ENDS
;	COMDAT ?SetKeyValue@CRegKey@ATL@@QAEJPBD00@Z
_TEXT	SEGMENT PARA USE32 PUBLIC 'CODE'
_TEXT	ENDS
;	COMDAT ?SetDWORDValue@CRegKey@ATL@@QAEJPBDK@Z
_TEXT	SEGMENT PARA USE32 PUBLIC 'CODE'
_TEXT	ENDS
;	COMDAT ?SetStringValue@CRegKey@ATL@@QAEJPBD0K@Z
_TEXT	SEGMENT PARA USE32 PUBLIC 'CODE'
_TEXT	ENDS
;	COMDAT ?SetMultiStringValue@CRegKey@ATL@@QAEJPBD0@Z
_TEXT	SEGMENT PARA USE32 PUBLIC 'CODE'
_TEXT	ENDS
;	COMDAT ?RecurseDeleteKey@CRegKey@ATL@@QAEJPBD@Z
_TEXT	SEGMENT PARA USE32 PUBLIC 'CODE'
_TEXT	ENDS
;	COMDAT ?RegisterProgID@CComModule@ATL@@SAJPBD00@Z
_TEXT	SEGMENT PARA USE32 PUBLIC 'CODE'
_TEXT	ENDS
;	COMDAT ?IsEqualKey@CExpansionVectorEqualHelper@ATL@@SA_NQAD0@Z
_TEXT	SEGMENT PARA USE32 PUBLIC 'CODE'
_TEXT	ENDS
;	COMDAT ??1CExpansionVector@ATL@@QAE@XZ
_TEXT	SEGMENT PARA USE32 PUBLIC 'CODE'
_TEXT	ENDS
;	COMDAT ?Add@CExpansionVector@ATL@@QAEHPBDPB_W@Z
_TEXT	SEGMENT PARA USE32 PUBLIC 'CODE'
_TEXT	ENDS
;	COMDAT ?ClearReplacements@CExpansionVector@ATL@@QAEJXZ
_TEXT	SEGMENT PARA USE32 PUBLIC 'CODE'
_TEXT	ENDS
;	COMDAT ?GenerateError@CRegParser@ATL@@IAEJI@Z
_TEXT	SEGMENT PARA USE32 PUBLIC 'CODE'
_TEXT	ENDS
;	COMDAT ?EndOfVar@CRegParser@ATL@@IAEHXZ
_TEXT	SEGMENT PARA USE32 PUBLIC 'CODE'
_TEXT	ENDS
;	COMDAT ??0CParseBuffer@CRegParser@ATL@@QAE@H@Z
_TEXT	SEGMENT PARA USE32 PUBLIC 'CODE'
_TEXT	ENDS
;	COMDAT ??1CParseBuffer@CRegParser@ATL@@QAE@XZ
_TEXT	SEGMENT PARA USE32 PUBLIC 'CODE'
_TEXT	ENDS
;	COMDAT ?Append@CParseBuffer@CRegParser@ATL@@QAEHPBDH@Z
_TEXT	SEGMENT PARA USE32 PUBLIC 'CODE'
_TEXT	ENDS
;	COMDAT ?AddChar@CParseBuffer@CRegParser@ATL@@QAEHPBD@Z
_TEXT	SEGMENT PARA USE32 PUBLIC 'CODE'
_TEXT	ENDS
;	COMDAT ?AddString@CParseBuffer@CRegParser@ATL@@QAEHPB_W@Z
_TEXT	SEGMENT PARA USE32 PUBLIC 'CODE'
_TEXT	ENDS
;	COMDAT ?Detach@CParseBuffer@CRegParser@ATL@@QAEPADXZ
_TEXT	SEGMENT PARA USE32 PUBLIC 'CODE'
_TEXT	ENDS
;	COMDAT ?QueryInterface@CRegObject@ATL@@UAGJABU_GUID@@PAPAX@Z
_TEXT	SEGMENT PARA USE32 PUBLIC 'CODE'
_TEXT	ENDS
;	COMDAT ?AddRef@CRegObject@ATL@@UAGKXZ
_TEXT	SEGMENT PARA USE32 PUBLIC 'CODE'
_TEXT	ENDS
;	COMDAT ?Release@CRegObject@ATL@@UAGKXZ
_TEXT	SEGMENT PARA USE32 PUBLIC 'CODE'
_TEXT	ENDS
;	COMDAT ??1CRegObject@ATL@@UAE@XZ
_TEXT	SEGMENT PARA USE32 PUBLIC 'CODE'
_TEXT	ENDS
;	COMDAT ??_GCRegObject@ATL@@UAEPAXI@Z
_TEXT	SEGMENT PARA USE32 PUBLIC 'CODE'
_TEXT	ENDS
;	COMDAT ?AddReplacement@CRegObject@ATL@@UAGJPB_W0@Z
_TEXT	SEGMENT PARA USE32 PUBLIC 'CODE'
_TEXT	ENDS
;	COMDAT ?RegisterFromResource@CRegObject@ATL@@IAEJPB_WPBD1H@Z
_TEXT	SEGMENT PARA USE32 PUBLIC 'CODE'
_TEXT	ENDS
;	COMDAT ?ResourceRegister@CRegObject@ATL@@QAGJPB_WI0@Z
_TEXT	SEGMENT PARA USE32 PUBLIC 'CODE'
_TEXT	ENDS
;	COMDAT ?ResourceRegisterSz@CRegObject@ATL@@QAGJPB_W00@Z
_TEXT	SEGMENT PARA USE32 PUBLIC 'CODE'
_TEXT	ENDS
;	COMDAT ?ResourceUnregister@CRegObject@ATL@@QAGJPB_WI0@Z
_TEXT	SEGMENT PARA USE32 PUBLIC 'CODE'
_TEXT	ENDS
;	COMDAT ?ResourceUnregisterSz@CRegObject@ATL@@QAGJPB_W00@Z
_TEXT	SEGMENT PARA USE32 PUBLIC 'CODE'
_TEXT	ENDS
;	COMDAT ?RegisterWithString@CRegObject@ATL@@IAEJPB_WH@Z
_TEXT	SEGMENT PARA USE32 PUBLIC 'CODE'
_TEXT	ENDS
;	COMDAT ?ClearReplacements@CRegObject@ATL@@UAGJXZ
_TEXT	SEGMENT PARA USE32 PUBLIC 'CODE'
_TEXT	ENDS
;	COMDAT ?StrFromMap@CRegObject@ATL@@QAEPB_WPAD@Z
_TEXT	SEGMENT PARA USE32 PUBLIC 'CODE'
_TEXT	ENDS
;	COMDAT ?CommonFileRegister@CRegObject@ATL@@IAEJPB_WH@Z
_TEXT	SEGMENT PARA USE32 PUBLIC 'CODE'
_TEXT	ENDS
;	COMDAT ?VTFromRegType@CRegParser@ATL@@KAHPBDAAG@Z
_TEXT	SEGMENT PARA USE32 PUBLIC 'CODE'
_TEXT	ENDS
;	COMDAT ?ChToByte@CRegParser@ATL@@KAED@Z
_TEXT	SEGMENT PARA USE32 PUBLIC 'CODE'
_TEXT	ENDS
;	COMDAT ?HKeyFromString@CRegParser@ATL@@KAPAUHKEY__@@PAD@Z
_TEXT	SEGMENT PARA USE32 PUBLIC 'CODE'
_TEXT	ENDS
;	COMDAT ?StrChrA@CRegParser@ATL@@KAPADPADD@Z
_TEXT	SEGMENT PARA USE32 PUBLIC 'CODE'
_TEXT	ENDS
;	COMDAT ??0CRegParser@ATL@@QAE@PAVCRegObject@1@@Z
_TEXT	SEGMENT PARA USE32 PUBLIC 'CODE'
_TEXT	ENDS
;	COMDAT ?IsSpace@CRegParser@ATL@@IAEHD@Z
_TEXT	SEGMENT PARA USE32 PUBLIC 'CODE'
_TEXT	ENDS
;	COMDAT ?SkipWhiteSpace@CRegParser@ATL@@IAEXXZ
_TEXT	SEGMENT PARA USE32 PUBLIC 'CODE'
_TEXT	ENDS
;	COMDAT ?NextToken@CRegParser@ATL@@IAEJPAD@Z
_TEXT	SEGMENT PARA USE32 PUBLIC 'CODE'
_TEXT	ENDS
;	COMDAT ?AddValue@CRegParser@ATL@@IAEJAAVCRegKey@2@PBDPAD@Z
_TEXT	SEGMENT PARA USE32 PUBLIC 'CODE'
_TEXT	ENDS
;	COMDAT ?CanForceRemoveKey@CRegParser@ATL@@IAEHPBD@Z
_TEXT	SEGMENT PARA USE32 PUBLIC 'CODE'
_TEXT	ENDS
;	COMDAT ?HasSubKeys@CRegParser@ATL@@IAEHPAUHKEY__@@@Z
_TEXT	SEGMENT PARA USE32 PUBLIC 'CODE'
_TEXT	ENDS
;	COMDAT ?SkipAssignment@CRegParser@ATL@@IAEJPAD@Z
_TEXT	SEGMENT PARA USE32 PUBLIC 'CODE'
_TEXT	ENDS
;	COMDAT ?PreProcessBuffer@CRegParser@ATL@@QAEJPADPAPAD@Z
_TEXT	SEGMENT PARA USE32 PUBLIC 'CODE'
_TEXT	ENDS
;	COMDAT ?RegisterBuffer@CRegParser@ATL@@QAEJPADH@Z
_TEXT	SEGMENT PARA USE32 PUBLIC 'CODE'
_TEXT	ENDS
;	COMDAT ?RegisterSubkeys@CRegParser@ATL@@IAEJPADPAUHKEY__@@HH@Z
_TEXT	SEGMENT PARA USE32 PUBLIC 'CODE'
_TEXT	ENDS
;	COMDAT ?UpdateRegistryFromResourceS@CAtlModule@ATL@@QAGJPBDHPAU_ATL_REGMAP_ENTRY@2@@Z
_TEXT	SEGMENT PARA USE32 PUBLIC 'CODE'
_TEXT	ENDS
;	COMDAT ??0CRegObject@ATL@@QAE@XZ
_TEXT	SEGMENT PARA USE32 PUBLIC 'CODE'
_TEXT	ENDS
;	COMDAT ??0IRegistrarBase@@QAE@XZ
_TEXT	SEGMENT PARA USE32 PUBLIC 'CODE'
_TEXT	ENDS
;	COMDAT ??0CExpansionVector@ATL@@QAE@XZ
_TEXT	SEGMENT PARA USE32 PUBLIC 'CODE'
_TEXT	ENDS
;	COMDAT ??0IUnknown@@QAE@XZ
_TEXT	SEGMENT PARA USE32 PUBLIC 'CODE'
_TEXT	ENDS
;	COMDAT ?UpdateRegistryFromResourceS@CAtlModule@ATL@@QAGJIHPAU_ATL_REGMAP_ENTRY@2@@Z
_TEXT	SEGMENT PARA USE32 PUBLIC 'CODE'
_TEXT	ENDS
;	COMDAT ?RegisterClassHelper@CComModule@ATL@@QAGJABU_GUID@@PBD11K@Z
_TEXT	SEGMENT PARA USE32 PUBLIC 'CODE'
_TEXT	ENDS
;	COMDAT ?UnregisterClassHelper@CComModule@ATL@@QAGJABU_GUID@@PBD1@Z
_TEXT	SEGMENT PARA USE32 PUBLIC 'CODE'
_TEXT	ENDS
;	COMDAT ?AtlLoadTypeLib@ATL@@YGJPAUHINSTANCE__@@PB_WPAPA_WPAPAUITypeLib@@@Z
_TEXT	SEGMENT PARA USE32 PUBLIC 'CODE'
_TEXT	ENDS
;	COMDAT ?AtlUnRegisterTypeLib@ATL@@YGJPAUHINSTANCE__@@PB_W@Z
_TEXT	SEGMENT PARA USE32 PUBLIC 'CODE'
_TEXT	ENDS
;	COMDAT ??1?$CComPtr@UITypeLib@@@ATL@@QAE@XZ
_TEXT	SEGMENT PARA USE32 PUBLIC 'CODE'
_TEXT	ENDS
;	COMDAT ?AtlRegisterTypeLib@ATL@@YGJPAUHINSTANCE__@@PB_W@Z
_TEXT	SEGMENT PARA USE32 PUBLIC 'CODE'
_TEXT	ENDS
;	COMDAT ?AtlComModuleRegisterServer@ATL@@YGJPAU_ATL_COM_MODULE70@1@HPBU_GUID@@@Z
_TEXT	SEGMENT PARA USE32 PUBLIC 'CODE'
_TEXT	ENDS
;	COMDAT ?AtlComModuleUnregisterServer@ATL@@YGJPAU_ATL_COM_MODULE70@1@HPBU_GUID@@@Z
_TEXT	SEGMENT PARA USE32 PUBLIC 'CODE'
_TEXT	ENDS
;	COMDAT ?AtlRegisterClassCategoriesHelper@ATL@@YGJABU_GUID@@PBU_ATL_CATMAP_ENTRY@1@H@Z
_TEXT	SEGMENT PARA USE32 PUBLIC 'CODE'
_TEXT	ENDS
;	COMDAT ??1?$CComPtr@UICatRegister@@@ATL@@QAE@XZ
_TEXT	SEGMENT PARA USE32 PUBLIC 'CODE'
_TEXT	ENDS
;	COMDAT ?AtlWinModuleTerm@ATL@@YGJPAU_ATL_WIN_MODULE70@1@PAUHINSTANCE__@@@Z
_TEXT	SEGMENT PARA USE32 PUBLIC 'CODE'
_TEXT	ENDS
;	COMDAT ?AtlGetDllVersion@ATL@@YAJPAUHINSTANCE__@@PAU_DLLVERSIONINFO@@@Z
_TEXT	SEGMENT PARA USE32 PUBLIC 'CODE'
_TEXT	ENDS
;	COMDAT ?AtlGetDllVersion@ATL@@YAJPBDPAU_DLLVERSIONINFO@@@Z
_TEXT	SEGMENT PARA USE32 PUBLIC 'CODE'
_TEXT	ENDS
;	COMDAT ?get_m_csStaticDataInit@CComModule@ATL@@QAEAAU_RTL_CRITICAL_SECTION@@XZ
_TEXT	SEGMENT PARA USE32 PUBLIC 'CODE'
_TEXT	ENDS
;	COMDAT ?Init@CComModule@ATL@@QAEJPAU_ATL_OBJMAP_ENTRY30@2@PAUHINSTANCE__@@PBU_GUID@@@Z
_TEXT	SEGMENT PARA USE32 PUBLIC 'CODE'
_TEXT	ENDS
;	COMDAT ?Term@CComModule@ATL@@QAEXXZ
_TEXT	SEGMENT PARA USE32 PUBLIC 'CODE'
_TEXT	ENDS
;	COMDAT ?GetClassObject@CComModule@ATL@@QAEJABU_GUID@@0PAPAX@Z
_TEXT	SEGMENT PARA USE32 PUBLIC 'CODE'
_TEXT	ENDS
;	COMDAT ?RegisterServer@CComModule@ATL@@QAEJHPBU_GUID@@@Z
_TEXT	SEGMENT PARA USE32 PUBLIC 'CODE'
_TEXT	ENDS
;	COMDAT ?UnregisterServer@CComModule@ATL@@QAEJHPBU_GUID@@@Z
_TEXT	SEGMENT PARA USE32 PUBLIC 'CODE'
_TEXT	ENDS
;	COMDAT ??1?$CComPtr@UIConnectionPointContainer@@@ATL@@QAE@XZ
_TEXT	SEGMENT PARA USE32 PUBLIC 'CODE'
_TEXT	ENDS
;	COMDAT ??1?$CComPtr@UIConnectionPoint@@@ATL@@QAE@XZ
_TEXT	SEGMENT PARA USE32 PUBLIC 'CODE'
_TEXT	ENDS
;	COMDAT ?AtlComModuleGetClassObject@ATL@@YGJPAU_ATL_COM_MODULE70@1@ABU_GUID@@1PAPAX@Z
_TEXT	SEGMENT PARA USE32 PUBLIC 'CODE'
_TEXT	ENDS
;	COMDAT ?AtlComModuleRegisterClassObjects@ATL@@YGJPAU_ATL_COM_MODULE70@1@KK@Z
_TEXT	SEGMENT PARA USE32 PUBLIC 'CODE'
_TEXT	ENDS
;	COMDAT ?AtlComModuleRevokeClassObjects@ATL@@YGJPAU_ATL_COM_MODULE70@1@@Z
_TEXT	SEGMENT PARA USE32 PUBLIC 'CODE'
_TEXT	ENDS
;	COMDAT ?AtlWaitWithMessageLoop@ATL@@YGHPAX@Z
_TEXT	SEGMENT PARA USE32 PUBLIC 'CODE'
_TEXT	ENDS
;	COMDAT ?AtlWinModuleAddCreateWndData@ATL@@YGXPAU_ATL_WIN_MODULE70@1@PAU_AtlCreateWndData@1@PAX@Z
_TEXT	SEGMENT PARA USE32 PUBLIC 'CODE'
_TEXT	ENDS
;	COMDAT ?AtlWinModuleExtractCreateWndData@ATL@@YGPAXPAU_ATL_WIN_MODULE70@1@@Z
_TEXT	SEGMENT PARA USE32 PUBLIC 'CODE'
_TEXT	ENDS
;	COMDAT ?AtlWinModuleInit@ATL@@YGJPAU_ATL_WIN_MODULE70@1@@Z
_TEXT	SEGMENT PARA USE32 PUBLIC 'CODE'
_TEXT	ENDS
;	COMDAT ?AtlModuleAddTermFunc@ATL@@YGJPAU_ATL_MODULE70@1@P6GXK@ZK@Z
_TEXT	SEGMENT PARA USE32 PUBLIC 'CODE'
_TEXT	ENDS
;	COMDAT ?AtlCallTermFunc@ATL@@YGXPAU_ATL_MODULE70@1@@Z
_TEXT	SEGMENT PARA USE32 PUBLIC 'CODE'
_TEXT	ENDS
;	COMDAT ??1CWin32Heap@ATL@@UAE@XZ
_TEXT	SEGMENT PARA USE32 PUBLIC 'CODE'
_TEXT	ENDS
;	COMDAT ?Allocate@CWin32Heap@ATL@@UAEPAXI@Z
_TEXT	SEGMENT PARA USE32 PUBLIC 'CODE'
_TEXT	ENDS
;	COMDAT ?Free@CWin32Heap@ATL@@UAEXPAX@Z
_TEXT	SEGMENT PARA USE32 PUBLIC 'CODE'
_TEXT	ENDS
;	COMDAT ?Reallocate@CWin32Heap@ATL@@UAEPAXPAXI@Z
_TEXT	SEGMENT PARA USE32 PUBLIC 'CODE'
_TEXT	ENDS
;	COMDAT ?GetSize@CWin32Heap@ATL@@UAEIPAX@Z
_TEXT	SEGMENT PARA USE32 PUBLIC 'CODE'
_TEXT	ENDS
;	COMDAT ??_GCWin32Heap@ATL@@UAEPAXI@Z
_TEXT	SEGMENT PARA USE32 PUBLIC 'CODE'
_TEXT	ENDS
;	COMDAT ??1?$CComPtr@UIMalloc@@@ATL@@QAE@XZ
_TEXT	SEGMENT PARA USE32 PUBLIC 'CODE'
_TEXT	ENDS
;	COMDAT ?data@CStringData@ATL@@QAEPAXXZ
_TEXT	SEGMENT PARA USE32 PUBLIC 'CODE'
_TEXT	ENDS
;	COMDAT ?AddRef@CStringData@ATL@@QAEXXZ
_TEXT	SEGMENT PARA USE32 PUBLIC 'CODE'
_TEXT	ENDS
;	COMDAT ?IsLocked@CStringData@ATL@@QBE_NXZ
_TEXT	SEGMENT PARA USE32 PUBLIC 'CODE'
_TEXT	ENDS
;	COMDAT ??0CNilStringData@ATL@@QAE@XZ
_TEXT	SEGMENT PARA USE32 PUBLIC 'CODE'
_TEXT	ENDS
;	COMDAT ?SetManager@CNilStringData@ATL@@QAEXPAUIAtlStringMgr@2@@Z
_TEXT	SEGMENT PARA USE32 PUBLIC 'CODE'
_TEXT	ENDS
;	COMDAT ?_AtlInstallStringThunk@ATL@@YAXPAPAXPAX1@Z
_TEXT	SEGMENT PARA USE32 PUBLIC 'CODE'
_TEXT	ENDS
;	COMDAT ?GetEnvironmentVariableWFake@ATL@@YGKPB_WPA_WK@Z
_TEXT	SEGMENT PARA USE32 PUBLIC 'CODE'
_TEXT	ENDS
;	COMDAT ?GetEnvironmentVariableWThunk@ATL@@YGKPB_WPA_WK@Z
_TEXT	SEGMENT PARA USE32 PUBLIC 'CODE'
_TEXT	ENDS
;	COMDAT ?CompareStringWFake@ATL@@YGHKKPB_WH0H@Z
_TEXT	SEGMENT PARA USE32 PUBLIC 'CODE'
_TEXT	ENDS
;	COMDAT ?CompareStringWThunk@ATL@@YGHKKPB_WH0H@Z
_TEXT	SEGMENT PARA USE32 PUBLIC 'CODE'
_TEXT	ENDS
;	COMDAT ?GetStringTypeExWFake@ATL@@YGHKKPB_WHPAG@Z
_TEXT	SEGMENT PARA USE32 PUBLIC 'CODE'
_TEXT	ENDS
;	COMDAT ?GetStringTypeExWThunk@ATL@@YGHKKPB_WHPAG@Z
_TEXT	SEGMENT PARA USE32 PUBLIC 'CODE'
_TEXT	ENDS
;	COMDAT ?lstrcmpiWFake@ATL@@YGHPB_W0@Z
_TEXT	SEGMENT PARA USE32 PUBLIC 'CODE'
_TEXT	ENDS
;	COMDAT ?lstrcmpiWThunk@ATL@@YGHPB_W0@Z
_TEXT	SEGMENT PARA USE32 PUBLIC 'CODE'
_TEXT	ENDS
;	COMDAT ?CharLowerWFake@ATL@@YGPA_WPA_W@Z
_TEXT	SEGMENT PARA USE32 PUBLIC 'CODE'
_TEXT	ENDS
;	COMDAT ?CharLowerWThunk@ATL@@YGPA_WPA_W@Z
_TEXT	SEGMENT PARA USE32 PUBLIC 'CODE'
_TEXT	ENDS
;	COMDAT ?CharUpperWFake@ATL@@YGPA_WPA_W@Z
_TEXT	SEGMENT PARA USE32 PUBLIC 'CODE'
_TEXT	ENDS
;	COMDAT ?CharUpperWThunk@ATL@@YGPA_WPA_W@Z
_TEXT	SEGMENT PARA USE32 PUBLIC 'CODE'
_TEXT	ENDS
;	COMDAT ?_GetEnvironmentVariableW@?$ChTraitsCRT@_W@ATL@@CGKPB_WPA_WK@Z
_TEXT	SEGMENT PARA USE32 PUBLIC 'CODE'
_TEXT	ENDS
;	COMDAT ?StringFindString@?$ChTraitsCRT@_W@ATL@@SAPB_WPB_W0@Z
_TEXT	SEGMENT PARA USE32 PUBLIC 'CODE'
_TEXT	ENDS
;	COMDAT ??1CFixedStringMgr@ATL@@UAE@XZ
_TEXT	SEGMENT PARA USE32 PUBLIC 'CODE'
_TEXT	ENDS
;	COMDAT ?Allocate@CFixedStringMgr@ATL@@UAEPAUCStringData@2@HH@Z
_TEXT	SEGMENT PARA USE32 PUBLIC 'CODE'
_TEXT	ENDS
;	COMDAT ?Free@CFixedStringMgr@ATL@@UAEXPAUCStringData@2@@Z
_TEXT	SEGMENT PARA USE32 PUBLIC 'CODE'
_TEXT	ENDS
;	COMDAT ?Reallocate@CFixedStringMgr@ATL@@UAEPAUCStringData@2@PAU32@HH@Z
_TEXT	SEGMENT PARA USE32 PUBLIC 'CODE'
_TEXT	ENDS
;	COMDAT ?GetNilString@CFixedStringMgr@ATL@@UAEPAUCStringData@2@XZ
_TEXT	SEGMENT PARA USE32 PUBLIC 'CODE'
_TEXT	ENDS
;	COMDAT ?Clone@CFixedStringMgr@ATL@@UAEPAUIAtlStringMgr@2@XZ
_TEXT	SEGMENT PARA USE32 PUBLIC 'CODE'
_TEXT	ENDS
;	COMDAT ??_GCFixedStringMgr@ATL@@UAEPAXI@Z
_TEXT	SEGMENT PARA USE32 PUBLIC 'CODE'
_TEXT	ENDS
;	COMDAT ??1CFixedStringLog@ATL@@UAE@XZ
_TEXT	SEGMENT PARA USE32 PUBLIC 'CODE'
_TEXT	ENDS
;	COMDAT ?OnAllocateSpill@CFixedStringLog@ATL@@UAEXHHPBUCStringData@2@@Z
_TEXT	SEGMENT PARA USE32 PUBLIC 'CODE'
_TEXT	ENDS
;	COMDAT ?OnReallocateSpill@CFixedStringLog@ATL@@UAEXHHPBUCStringData@2@@Z
_TEXT	SEGMENT PARA USE32 PUBLIC 'CODE'
_TEXT	ENDS
;	COMDAT ??_GCFixedStringLog@ATL@@UAEPAXI@Z
_TEXT	SEGMENT PARA USE32 PUBLIC 'CODE'
_TEXT	ENDS
;	COMDAT ??0IFixedStringLog@ATL@@QAE@XZ
_TEXT	SEGMENT PARA USE32 PUBLIC 'CODE'
_TEXT	ENDS
;	COMDAT ??1CAtlStringMgr@ATL@@UAE@XZ
_TEXT	SEGMENT PARA USE32 PUBLIC 'CODE'
_TEXT	ENDS
;	COMDAT ?Allocate@CAtlStringMgr@ATL@@UAEPAUCStringData@2@HH@Z
_TEXT	SEGMENT PARA USE32 PUBLIC 'CODE'
_TEXT	ENDS
;	COMDAT ?Free@CAtlStringMgr@ATL@@UAEXPAUCStringData@2@@Z
_TEXT	SEGMENT PARA USE32 PUBLIC 'CODE'
_TEXT	ENDS
;	COMDAT ?Reallocate@CAtlStringMgr@ATL@@UAEPAUCStringData@2@PAU32@HH@Z
_TEXT	SEGMENT PARA USE32 PUBLIC 'CODE'
_TEXT	ENDS
;	COMDAT ?GetNilString@CAtlStringMgr@ATL@@UAEPAUCStringData@2@XZ
_TEXT	SEGMENT PARA USE32 PUBLIC 'CODE'
_TEXT	ENDS
;	COMDAT ?Clone@CAtlStringMgr@ATL@@UAEPAUIAtlStringMgr@2@XZ
_TEXT	SEGMENT PARA USE32 PUBLIC 'CODE'
_TEXT	ENDS
;	COMDAT ??_GCAtlStringMgr@ATL@@UAEPAXI@Z
_TEXT	SEGMENT PARA USE32 PUBLIC 'CODE'
_TEXT	ENDS
;	COMDAT ?CompareStringW@?$ChTraitsOS@_W@ATL@@KGHKKPB_WH0H@Z
_TEXT	SEGMENT PARA USE32 PUBLIC 'CODE'
_TEXT	ENDS
;	COMDAT ?GetStringTypeExW@?$ChTraitsOS@_W@ATL@@KGHKKPB_WHPAG@Z
_TEXT	SEGMENT PARA USE32 PUBLIC 'CODE'
_TEXT	ENDS
;	COMDAT ?lstrcmpiW@?$ChTraitsOS@_W@ATL@@KGHPB_W0@Z
_TEXT	SEGMENT PARA USE32 PUBLIC 'CODE'
_TEXT	ENDS
;	COMDAT ?CharLowerW@?$ChTraitsOS@_W@ATL@@KGPA_WPA_W@Z
_TEXT	SEGMENT PARA USE32 PUBLIC 'CODE'
_TEXT	ENDS
;	COMDAT ?CharUpperW@?$ChTraitsOS@_W@ATL@@KGPA_WPA_W@Z
_TEXT	SEGMENT PARA USE32 PUBLIC 'CODE'
_TEXT	ENDS
;	COMDAT ?strchr@?$ChTraitsOS@_W@ATL@@SAPB_WPB_W_W@Z
_TEXT	SEGMENT PARA USE32 PUBLIC 'CODE'
_TEXT	ENDS
;	COMDAT ?strrchr@?$ChTraitsOS@_W@ATL@@SAPB_WPB_W_W@Z
_TEXT	SEGMENT PARA USE32 PUBLIC 'CODE'
_TEXT	ENDS
;	COMDAT ?_strrev@?$ChTraitsOS@_W@ATL@@SAPA_WPA_W@Z
_TEXT	SEGMENT PARA USE32 PUBLIC 'CODE'
_TEXT	ENDS
;	COMDAT ?strstr@?$ChTraitsOS@_W@ATL@@SAPB_WPB_W0@Z
_TEXT	SEGMENT PARA USE32 PUBLIC 'CODE'
_TEXT	ENDS
;	COMDAT ?strspn@?$ChTraitsOS@_W@ATL@@SAHPB_W0@Z
_TEXT	SEGMENT PARA USE32 PUBLIC 'CODE'
_TEXT	ENDS
;	COMDAT ?strcspn@?$ChTraitsOS@_W@ATL@@SAHPB_W0@Z
_TEXT	SEGMENT PARA USE32 PUBLIC 'CODE'
_TEXT	ENDS
;	COMDAT ?strpbrk@?$ChTraitsOS@_W@ATL@@SAPB_WPB_W0@Z
_TEXT	SEGMENT PARA USE32 PUBLIC 'CODE'
_TEXT	ENDS
;	COMDAT ?StringFindString@?$ChTraitsOS@_W@ATL@@SAPB_WPB_W0@Z
_TEXT	SEGMENT PARA USE32 PUBLIC 'CODE'
_TEXT	ENDS
;	COMDAT ??0?$allocator@D@std@@QAE@XZ
_TEXT	SEGMENT PARA USE32 PUBLIC 'CODE'
_TEXT	ENDS
;	COMDAT ??0?$allocator@D@std@@QAE@ABV01@@Z
_TEXT	SEGMENT PARA USE32 PUBLIC 'CODE'
_TEXT	ENDS
;	COMDAT ??0?$allocator@_W@std@@QAE@XZ
_TEXT	SEGMENT PARA USE32 PUBLIC 'CODE'
_TEXT	ENDS
;	COMDAT ??0?$allocator@_W@std@@QAE@ABV01@@Z
_TEXT	SEGMENT PARA USE32 PUBLIC 'CODE'
_TEXT	ENDS
;	COMDAT ??0sentry@?$basic_istream@DU?$char_traits@D@std@@@std@@QAE@AAV12@_N@Z
_TEXT	SEGMENT PARA USE32 PUBLIC 'CODE'
_TEXT	ENDS
;	COMDAT ??Bsentry@?$basic_istream@DU?$char_traits@D@std@@@std@@QBE_NXZ
_TEXT	SEGMENT PARA USE32 PUBLIC 'CODE'
_TEXT	ENDS
;	COMDAT ??1_Sentry_base@?$basic_istream@DU?$char_traits@D@std@@@std@@QAE@XZ
_TEXT	SEGMENT PARA USE32 PUBLIC 'CODE'
_TEXT	ENDS
;	COMDAT ??0sentry@?$basic_istream@_WU?$char_traits@_W@std@@@std@@QAE@AAV12@_N@Z
_TEXT	SEGMENT PARA USE32 PUBLIC 'CODE'
_TEXT	ENDS
;	COMDAT ??Bsentry@?$basic_istream@_WU?$char_traits@_W@std@@@std@@QBE_NXZ
_TEXT	SEGMENT PARA USE32 PUBLIC 'CODE'
_TEXT	ENDS
;	COMDAT ??1_Sentry_base@?$basic_istream@_WU?$char_traits@_W@std@@@std@@QAE@XZ
_TEXT	SEGMENT PARA USE32 PUBLIC 'CODE'
_TEXT	ENDS
;	COMDAT ??0?$CAtlSafeAllocBufferManager@VCCRTAllocator@ATL@@@_ATL_SAFE_ALLOCA_IMPL@ATL@@QAE@XZ
_TEXT	SEGMENT PARA USE32 PUBLIC 'CODE'
_TEXT	ENDS
;	COMDAT ?Allocate@?$CAtlSafeAllocBufferManager@VCCRTAllocator@ATL@@@_ATL_SAFE_ALLOCA_IMPL@ATL@@QAEPAXK@Z
_TEXT	SEGMENT PARA USE32 PUBLIC 'CODE'
_TEXT	ENDS
;	COMDAT ??1?$CAtlSafeAllocBufferManager@VCCRTAllocator@ATL@@@_ATL_SAFE_ALLOCA_IMPL@ATL@@QAE@XZ
_TEXT	SEGMENT PARA USE32 PUBLIC 'CODE'
_TEXT	ENDS
;	COMDAT ??0?$CComPtrBase@UIDispatch@@@ATL@@IAE@XZ
_TEXT	SEGMENT PARA USE32 PUBLIC 'CODE'
_TEXT	ENDS
;	COMDAT ??0?$CComPtrBase@UIDispatch@@@ATL@@IAE@PAUIDispatch@@@Z
_TEXT	SEGMENT PARA USE32 PUBLIC 'CODE'
_TEXT	ENDS
;	COMDAT ??1?$CComPtrBase@UIDispatch@@@ATL@@QAE@XZ
_TEXT	SEGMENT PARA USE32 PUBLIC 'CODE'
_TEXT	ENDS
;	COMDAT ??0?$CComPtr@UIUnknown@@@ATL@@QAE@XZ
_TEXT	SEGMENT PARA USE32 PUBLIC 'CODE'
_TEXT	ENDS
;	COMDAT ??0?$CComPtr@UIUnknown@@@ATL@@QAE@PAUIUnknown@@@Z
_TEXT	SEGMENT PARA USE32 PUBLIC 'CODE'
_TEXT	ENDS
;	COMDAT ??1?$CComPtrBase@UIUnknown@@@ATL@@QAE@XZ
_TEXT	SEGMENT PARA USE32 PUBLIC 'CODE'
_TEXT	ENDS
;	COMDAT ??0?$CTempBuffer@D$0IA@VCCRTAllocator@ATL@@@ATL@@QAE@XZ
_TEXT	SEGMENT PARA USE32 PUBLIC 'CODE'
_TEXT	ENDS
;	COMDAT ??1?$CTempBuffer@D$0IA@VCCRTAllocator@ATL@@@ATL@@QAE@XZ
_TEXT	SEGMENT PARA USE32 PUBLIC 'CODE'
_TEXT	ENDS
;	COMDAT ??B?$CTempBuffer@D$0IA@VCCRTAllocator@ATL@@@ATL@@QBEPADXZ
_TEXT	SEGMENT PARA USE32 PUBLIC 'CODE'
_TEXT	ENDS
;	COMDAT ?Allocate@?$CTempBuffer@D$0IA@VCCRTAllocator@ATL@@@ATL@@QAEPADI@Z
_TEXT	SEGMENT PARA USE32 PUBLIC 'CODE'
_TEXT	ENDS
;	COMDAT ??0?$CTempBuffer@_W$0IA@VCCRTAllocator@ATL@@@ATL@@QAE@XZ
_TEXT	SEGMENT PARA USE32 PUBLIC 'CODE'
_TEXT	ENDS
;	COMDAT ??1?$CTempBuffer@_W$0IA@VCCRTAllocator@ATL@@@ATL@@QAE@XZ
_TEXT	SEGMENT PARA USE32 PUBLIC 'CODE'
_TEXT	ENDS
;	COMDAT ??B?$CTempBuffer@_W$0IA@VCCRTAllocator@ATL@@@ATL@@QBEPA_WXZ
_TEXT	SEGMENT PARA USE32 PUBLIC 'CODE'
_TEXT	ENDS
;	COMDAT ?Allocate@?$CTempBuffer@_W$0IA@VCCRTAllocator@ATL@@@ATL@@QAEPA_WI@Z
_TEXT	SEGMENT PARA USE32 PUBLIC 'CODE'
_TEXT	ENDS
;	COMDAT ??0?$CComPtr@UIPersistStream@@@ATL@@QAE@XZ
_TEXT	SEGMENT PARA USE32 PUBLIC 'CODE'
_TEXT	ENDS
;	COMDAT ??1?$CComPtrBase@UIPersistStream@@@ATL@@QAE@XZ
_TEXT	SEGMENT PARA USE32 PUBLIC 'CODE'
_TEXT	ENDS
;	COMDAT ??B?$CComPtrBase@UIPersistStream@@@ATL@@QBEPAUIPersistStream@@XZ
_TEXT	SEGMENT PARA USE32 PUBLIC 'CODE'
_TEXT	ENDS
;	COMDAT ??I?$CComPtrBase@UIPersistStream@@@ATL@@QAEPAPAUIPersistStream@@XZ
_TEXT	SEGMENT PARA USE32 PUBLIC 'CODE'
_TEXT	ENDS
;	COMDAT ??C?$CComPtrBase@UIPersistStream@@@ATL@@QBEPAV?$_NoAddRefReleaseOnCComPtr@UIPersistStream@@@1@XZ
_TEXT	SEGMENT PARA USE32 PUBLIC 'CODE'
_TEXT	ENDS
;	COMDAT ??0?$CSimpleArray@GV?$CSimpleArrayEqualHelper@G@ATL@@@ATL@@QAE@XZ
_TEXT	SEGMENT PARA USE32 PUBLIC 'CODE'
_TEXT	ENDS
;	COMDAT ??1?$CSimpleArray@GV?$CSimpleArrayEqualHelper@G@ATL@@@ATL@@QAE@XZ
_TEXT	SEGMENT PARA USE32 PUBLIC 'CODE'
_TEXT	ENDS
;	COMDAT ?GetSize@?$CSimpleArray@GV?$CSimpleArrayEqualHelper@G@ATL@@@ATL@@QBEHXZ
_TEXT	SEGMENT PARA USE32 PUBLIC 'CODE'
_TEXT	ENDS
;	COMDAT ?RemoveAll@?$CSimpleArray@GV?$CSimpleArrayEqualHelper@G@ATL@@@ATL@@QAEXXZ
_TEXT	SEGMENT PARA USE32 PUBLIC 'CODE'
_TEXT	ENDS
;	COMDAT ??A?$CSimpleArray@GV?$CSimpleArrayEqualHelper@G@ATL@@@ATL@@QAEAAGH@Z
_TEXT	SEGMENT PARA USE32 PUBLIC 'CODE'
_TEXT	ENDS
;	COMDAT ??0?$CAtlModuleT@VCComModule@ATL@@@ATL@@QAE@XZ
_TEXT	SEGMENT PARA USE32 PUBLIC 'CODE'
_TEXT	ENDS
;	COMDAT ?RegisterServer@?$CAtlModuleT@VCComModule@ATL@@@ATL@@QAEJHPBU_GUID@@@Z
_TEXT	SEGMENT PARA USE32 PUBLIC 'CODE'
_TEXT	ENDS
;	COMDAT ?UnregisterServer@?$CAtlModuleT@VCComModule@ATL@@@ATL@@QAEJHPBU_GUID@@@Z
_TEXT	SEGMENT PARA USE32 PUBLIC 'CODE'
_TEXT	ENDS
;	COMDAT ?AddCommonRGSReplacements@?$CAtlModuleT@VCComModule@ATL@@@ATL@@UAEJPAUIRegistrarBase@@@Z
_TEXT	SEGMENT PARA USE32 PUBLIC 'CODE'
_TEXT	ENDS
;	COMDAT ??1?$CAtlAutoThreadModuleT@VCAtlAutoThreadModule@ATL@@VCComSimpleThreadAllocator@2@$0PPPPPPPP@@ATL@@UAE@XZ
_TEXT	SEGMENT PARA USE32 PUBLIC 'CODE'
_TEXT	ENDS
;	COMDAT ?CreateInstance@?$CAtlAutoThreadModuleT@VCAtlAutoThreadModule@ATL@@VCComSimpleThreadAllocator@2@$0PPPPPPPP@@ATL@@UAEJPAXABU_GUID@@PAPAX@Z
_TEXT	SEGMENT PARA USE32 PUBLIC 'CODE'
_TEXT	ENDS
;	COMDAT ??0?$CSimpleMap@PADPA_WVCExpansionVectorEqualHelper@ATL@@@ATL@@QAE@XZ
_TEXT	SEGMENT PARA USE32 PUBLIC 'CODE'
_TEXT	ENDS
;	COMDAT ??1?$CSimpleMap@PADPA_WVCExpansionVectorEqualHelper@ATL@@@ATL@@QAE@XZ
_TEXT	SEGMENT PARA USE32 PUBLIC 'CODE'
_TEXT	ENDS
;	COMDAT ?GetSize@?$CSimpleMap@PADPA_WVCExpansionVectorEqualHelper@ATL@@@ATL@@QBEHXZ
_TEXT	SEGMENT PARA USE32 PUBLIC 'CODE'
_TEXT	ENDS
;	COMDAT ?Add@?$CSimpleMap@PADPA_WVCExpansionVectorEqualHelper@ATL@@@ATL@@QAEHABQADABQA_W@Z
_TEXT	SEGMENT PARA USE32 PUBLIC 'CODE'
_TEXT	ENDS
;	COMDAT ?RemoveAll@?$CSimpleMap@PADPA_WVCExpansionVectorEqualHelper@ATL@@@ATL@@QAEXXZ
_TEXT	SEGMENT PARA USE32 PUBLIC 'CODE'
_TEXT	ENDS
;	COMDAT ?Lookup@?$CSimpleMap@PADPA_WVCExpansionVectorEqualHelper@ATL@@@ATL@@QBEPA_WABQAD@Z
_TEXT	SEGMENT PARA USE32 PUBLIC 'CODE'
_TEXT	ENDS
;	COMDAT ?GetKeyAt@?$CSimpleMap@PADPA_WVCExpansionVectorEqualHelper@ATL@@@ATL@@QBEAAPADH@Z
_TEXT	SEGMENT PARA USE32 PUBLIC 'CODE'
_TEXT	ENDS
;	COMDAT ?GetValueAt@?$CSimpleMap@PADPA_WVCExpansionVectorEqualHelper@ATL@@@ATL@@QBEAAPA_WH@Z
_TEXT	SEGMENT PARA USE32 PUBLIC 'CODE'
_TEXT	ENDS
;	COMDAT ??0?$CTempBuffer@D$0EAA@VCCRTAllocator@ATL@@@ATL@@QAE@XZ
_TEXT	SEGMENT PARA USE32 PUBLIC 'CODE'
_TEXT	ENDS
;	COMDAT ??1?$CTempBuffer@D$0EAA@VCCRTAllocator@ATL@@@ATL@@QAE@XZ
_TEXT	SEGMENT PARA USE32 PUBLIC 'CODE'
_TEXT	ENDS
;	COMDAT ??B?$CTempBuffer@D$0EAA@VCCRTAllocator@ATL@@@ATL@@QBEPADXZ
_TEXT	SEGMENT PARA USE32 PUBLIC 'CODE'
_TEXT	ENDS
;	COMDAT ?Allocate@?$CTempBuffer@D$0EAA@VCCRTAllocator@ATL@@@ATL@@QAEPADI@Z
_TEXT	SEGMENT PARA USE32 PUBLIC 'CODE'
_TEXT	ENDS
;	COMDAT ??0?$CTempBuffer@D$0BAA@VCCRTAllocator@ATL@@@ATL@@QAE@XZ
_TEXT	SEGMENT PARA USE32 PUBLIC 'CODE'
_TEXT	ENDS
;	COMDAT ??1?$CTempBuffer@D$0BAA@VCCRTAllocator@ATL@@@ATL@@QAE@XZ
_TEXT	SEGMENT PARA USE32 PUBLIC 'CODE'
_TEXT	ENDS
;	COMDAT ??B?$CTempBuffer@D$0BAA@VCCRTAllocator@ATL@@@ATL@@QBEPADXZ
_TEXT	SEGMENT PARA USE32 PUBLIC 'CODE'
_TEXT	ENDS
;	COMDAT ?Allocate@?$CTempBuffer@D$0BAA@VCCRTAllocator@ATL@@@ATL@@QAEPADI@Z
_TEXT	SEGMENT PARA USE32 PUBLIC 'CODE'
_TEXT	ENDS
;	COMDAT ??0?$CTempBuffer@E$0BAA@VCCRTAllocator@ATL@@@ATL@@QAE@XZ
_TEXT	SEGMENT PARA USE32 PUBLIC 'CODE'
_TEXT	ENDS
;	COMDAT ??1?$CTempBuffer@E$0BAA@VCCRTAllocator@ATL@@@ATL@@QAE@XZ
_TEXT	SEGMENT PARA USE32 PUBLIC 'CODE'
_TEXT	ENDS
;	COMDAT ??B?$CTempBuffer@E$0BAA@VCCRTAllocator@ATL@@@ATL@@QBEPAEXZ
_TEXT	SEGMENT PARA USE32 PUBLIC 'CODE'
_TEXT	ENDS
;	COMDAT ?Allocate@?$CTempBuffer@E$0BAA@VCCRTAllocator@ATL@@@ATL@@QAEPAEI@Z
_TEXT	SEGMENT PARA USE32 PUBLIC 'CODE'
_TEXT	ENDS
;	COMDAT ??0?$CComPtr@UITypeLib@@@ATL@@QAE@XZ
_TEXT	SEGMENT PARA USE32 PUBLIC 'CODE'
_TEXT	ENDS
;	COMDAT ??1?$CComPtrBase@UITypeLib@@@ATL@@QAE@XZ
_TEXT	SEGMENT PARA USE32 PUBLIC 'CODE'
_TEXT	ENDS
;	COMDAT ??B?$CComPtrBase@UITypeLib@@@ATL@@QBEPAUITypeLib@@XZ
_TEXT	SEGMENT PARA USE32 PUBLIC 'CODE'
_TEXT	ENDS
;	COMDAT ??I?$CComPtrBase@UITypeLib@@@ATL@@QAEPAPAUITypeLib@@XZ
_TEXT	SEGMENT PARA USE32 PUBLIC 'CODE'
_TEXT	ENDS
;	COMDAT ??C?$CComPtrBase@UITypeLib@@@ATL@@QBEPAV?$_NoAddRefReleaseOnCComPtr@UITypeLib@@@1@XZ
_TEXT	SEGMENT PARA USE32 PUBLIC 'CODE'
_TEXT	ENDS
;	COMDAT ??0?$CComPtr@UICatRegister@@@ATL@@QAE@XZ
_TEXT	SEGMENT PARA USE32 PUBLIC 'CODE'
_TEXT	ENDS
;	COMDAT ??1?$CComPtrBase@UICatRegister@@@ATL@@QAE@XZ
_TEXT	SEGMENT PARA USE32 PUBLIC 'CODE'
_TEXT	ENDS
;	COMDAT ??I?$CComPtrBase@UICatRegister@@@ATL@@QAEPAPAUICatRegister@@XZ
_TEXT	SEGMENT PARA USE32 PUBLIC 'CODE'
_TEXT	ENDS
;	COMDAT ??C?$CComPtrBase@UICatRegister@@@ATL@@QBEPAV?$_NoAddRefReleaseOnCComPtr@UICatRegister@@@1@XZ
_TEXT	SEGMENT PARA USE32 PUBLIC 'CODE'
_TEXT	ENDS
;	COMDAT ??0?$CComPtr@UIConnectionPointContainer@@@ATL@@QAE@XZ
_TEXT	SEGMENT PARA USE32 PUBLIC 'CODE'
_TEXT	ENDS
;	COMDAT ??1?$CComPtrBase@UIConnectionPointContainer@@@ATL@@QAE@XZ
_TEXT	SEGMENT PARA USE32 PUBLIC 'CODE'
_TEXT	ENDS
;	COMDAT ??I?$CComPtrBase@UIConnectionPointContainer@@@ATL@@QAEPAPAUIConnectionPointContainer@@XZ
_TEXT	SEGMENT PARA USE32 PUBLIC 'CODE'
_TEXT	ENDS
;	COMDAT ??C?$CComPtrBase@UIConnectionPointContainer@@@ATL@@QBEPAV?$_NoAddRefReleaseOnCComPtr@UIConnectionPointContainer@@@1@XZ
_TEXT	SEGMENT PARA USE32 PUBLIC 'CODE'
_TEXT	ENDS
;	COMDAT ??0?$CComPtr@UIConnectionPoint@@@ATL@@QAE@XZ
_TEXT	SEGMENT PARA USE32 PUBLIC 'CODE'
_TEXT	ENDS
;	COMDAT ??1?$CComPtrBase@UIConnectionPoint@@@ATL@@QAE@XZ
_TEXT	SEGMENT PARA USE32 PUBLIC 'CODE'
_TEXT	ENDS
;	COMDAT ??I?$CComPtrBase@UIConnectionPoint@@@ATL@@QAEPAPAUIConnectionPoint@@XZ
_TEXT	SEGMENT PARA USE32 PUBLIC 'CODE'
_TEXT	ENDS
;	COMDAT ??C?$CComPtrBase@UIConnectionPoint@@@ATL@@QBEPAV?$_NoAddRefReleaseOnCComPtr@UIConnectionPoint@@@1@XZ
_TEXT	SEGMENT PARA USE32 PUBLIC 'CODE'
_TEXT	ENDS
;	COMDAT ??0?$CComPtr@UIMalloc@@@ATL@@QAE@XZ
_TEXT	SEGMENT PARA USE32 PUBLIC 'CODE'
_TEXT	ENDS
;	COMDAT ??1?$CComPtrBase@UIMalloc@@@ATL@@QAE@XZ
_TEXT	SEGMENT PARA USE32 PUBLIC 'CODE'
_TEXT	ENDS
;	COMDAT ??I?$CComPtrBase@UIMalloc@@@ATL@@QAEPAPAUIMalloc@@XZ
_TEXT	SEGMENT PARA USE32 PUBLIC 'CODE'
_TEXT	ENDS
;	COMDAT ??C?$CComPtrBase@UIMalloc@@@ATL@@QBEPAV?$_NoAddRefReleaseOnCComPtr@UIMalloc@@@1@XZ
_TEXT	SEGMENT PARA USE32 PUBLIC 'CODE'
_TEXT	ENDS
;	COMDAT ??0?$CW2AEX@$0IA@@ATL@@QAE@PB_W@Z
_TEXT	SEGMENT PARA USE32 PUBLIC 'CODE'
_TEXT	ENDS
;	COMDAT ??1?$CW2AEX@$0IA@@ATL@@QAE@XZ
_TEXT	SEGMENT PARA USE32 PUBLIC 'CODE'
_TEXT	ENDS
;	COMDAT ??B?$CW2AEX@$0IA@@ATL@@QBEPADXZ
_TEXT	SEGMENT PARA USE32 PUBLIC 'CODE'
_TEXT	ENDS
;	COMDAT ??_Glocale@std@@QAEPAXI@Z
_TEXT	SEGMENT PARA USE32 PUBLIC 'CODE'
_TEXT	ENDS
;	COMDAT ??_G?$numpunct@D@std@@MAEPAXI@Z
_TEXT	SEGMENT PARA USE32 PUBLIC 'CODE'
_TEXT	ENDS
;	COMDAT ??_G?$numpunct@_W@std@@MAEPAXI@Z
_TEXT	SEGMENT PARA USE32 PUBLIC 'CODE'
_TEXT	ENDS
;	COMDAT ??_G?$CAtlModuleT@VCComModule@ATL@@@ATL@@UAEPAXI@Z
_TEXT	SEGMENT PARA USE32 PUBLIC 'CODE'
_TEXT	ENDS
;	COMDAT ??_G?$CAtlAutoThreadModuleT@VCAtlAutoThreadModule@ATL@@VCComSimpleThreadAllocator@2@$0PPPPPPPP@@ATL@@UAEPAXI@Z
_TEXT	SEGMENT PARA USE32 PUBLIC 'CODE'
_TEXT	ENDS
;	COMDAT ??0_Sentry_base@?$basic_istream@DU?$char_traits@D@std@@@std@@QAE@AAV12@@Z
_TEXT	SEGMENT PARA USE32 PUBLIC 'CODE'
_TEXT	ENDS
;	COMDAT ??0_Sentry_base@?$basic_istream@_WU?$char_traits@_W@std@@@std@@QAE@AAV12@@Z
_TEXT	SEGMENT PARA USE32 PUBLIC 'CODE'
_TEXT	ENDS
;	COMDAT ??0?$CComPtrBase@UIUnknown@@@ATL@@IAE@XZ
_TEXT	SEGMENT PARA USE32 PUBLIC 'CODE'
_TEXT	ENDS
;	COMDAT ??0?$CComPtrBase@UIUnknown@@@ATL@@IAE@PAUIUnknown@@@Z
_TEXT	SEGMENT PARA USE32 PUBLIC 'CODE'
_TEXT	ENDS
;	COMDAT ?AllocateBytes@?$CTempBuffer@D$0IA@VCCRTAllocator@ATL@@@ATL@@QAEPADI@Z
_TEXT	SEGMENT PARA USE32 PUBLIC 'CODE'
_TEXT	ENDS
;	COMDAT ?FreeHeap@?$CTempBuffer@D$0IA@VCCRTAllocator@ATL@@@ATL@@AAEXXZ
_TEXT	SEGMENT PARA USE32 PUBLIC 'CODE'
_TEXT	ENDS
;	COMDAT ?AllocateBytes@?$CTempBuffer@_W$0IA@VCCRTAllocator@ATL@@@ATL@@QAEPA_WI@Z
_TEXT	SEGMENT PARA USE32 PUBLIC 'CODE'
_TEXT	ENDS
;	COMDAT ?FreeHeap@?$CTempBuffer@_W$0IA@VCCRTAllocator@ATL@@@ATL@@AAEXXZ
_TEXT	SEGMENT PARA USE32 PUBLIC 'CODE'
_TEXT	ENDS
;	COMDAT ??0?$CComPtrBase@UIPersistStream@@@ATL@@IAE@XZ
_TEXT	SEGMENT PARA USE32 PUBLIC 'CODE'
_TEXT	ENDS
;	COMDAT ?InitLibId@?$CAtlModuleT@VCComModule@ATL@@@ATL@@SAXXZ
_TEXT	SEGMENT PARA USE32 PUBLIC 'CODE'
_TEXT	ENDS
;	COMDAT ?GetAppId@?$CAtlModuleT@VCComModule@ATL@@@ATL@@SAPB_WXZ
_TEXT	SEGMENT PARA USE32 PUBLIC 'CODE'
_TEXT	ENDS
;	COMDAT ?FindKey@?$CSimpleMap@PADPA_WVCExpansionVectorEqualHelper@ATL@@@ATL@@QBEHABQAD@Z
_TEXT	SEGMENT PARA USE32 PUBLIC 'CODE'
_TEXT	ENDS
;	COMDAT ?InternalSetAtIndex@?$CSimpleMap@PADPA_WVCExpansionVectorEqualHelper@ATL@@@ATL@@QAEXHABQADABQA_W@Z
_TEXT	SEGMENT PARA USE32 PUBLIC 'CODE'
_TEXT	ENDS
;	COMDAT ?AllocateBytes@?$CTempBuffer@D$0EAA@VCCRTAllocator@ATL@@@ATL@@QAEPADI@Z
_TEXT	SEGMENT PARA USE32 PUBLIC 'CODE'
_TEXT	ENDS
;	COMDAT ?FreeHeap@?$CTempBuffer@D$0EAA@VCCRTAllocator@ATL@@@ATL@@AAEXXZ
_TEXT	SEGMENT PARA USE32 PUBLIC 'CODE'
_TEXT	ENDS
;	COMDAT ?AllocateBytes@?$CTempBuffer@D$0BAA@VCCRTAllocator@ATL@@@ATL@@QAEPADI@Z
_TEXT	SEGMENT PARA USE32 PUBLIC 'CODE'
_TEXT	ENDS
;	COMDAT ?FreeHeap@?$CTempBuffer@D$0BAA@VCCRTAllocator@ATL@@@ATL@@AAEXXZ
_TEXT	SEGMENT PARA USE32 PUBLIC 'CODE'
_TEXT	ENDS
;	COMDAT ?AllocateBytes@?$CTempBuffer@E$0BAA@VCCRTAllocator@ATL@@@ATL@@QAEPAEI@Z
_TEXT	SEGMENT PARA USE32 PUBLIC 'CODE'
_TEXT	ENDS
;	COMDAT ?FreeHeap@?$CTempBuffer@E$0BAA@VCCRTAllocator@ATL@@@ATL@@AAEXXZ
_TEXT	SEGMENT PARA USE32 PUBLIC 'CODE'
_TEXT	ENDS
;	COMDAT ??0?$CComPtrBase@UITypeLib@@@ATL@@IAE@XZ
_TEXT	SEGMENT PARA USE32 PUBLIC 'CODE'
_TEXT	ENDS
;	COMDAT ??0?$CComPtrBase@UICatRegister@@@ATL@@IAE@XZ
_TEXT	SEGMENT PARA USE32 PUBLIC 'CODE'
_TEXT	ENDS
;	COMDAT ??0?$CComPtrBase@UIConnectionPointContainer@@@ATL@@IAE@XZ
_TEXT	SEGMENT PARA USE32 PUBLIC 'CODE'
_TEXT	ENDS
;	COMDAT ??0?$CComPtrBase@UIConnectionPoint@@@ATL@@IAE@XZ
_TEXT	SEGMENT PARA USE32 PUBLIC 'CODE'
_TEXT	ENDS
;	COMDAT ??0?$CComPtrBase@UIMalloc@@@ATL@@IAE@XZ
_TEXT	SEGMENT PARA USE32 PUBLIC 'CODE'
_TEXT	ENDS
;	COMDAT ?Init@?$CW2AEX@$0IA@@ATL@@AAEXPB_WI@Z
_TEXT	SEGMENT PARA USE32 PUBLIC 'CODE'
_TEXT	ENDS
;	COMDAT ??0?$fpos@H@std@@QAE@J@Z
_TEXT	SEGMENT PARA USE32 PUBLIC 'CODE'
_TEXT	ENDS
;	COMDAT ??0sentry@?$basic_ostream@DU?$char_traits@D@std@@@std@@QAE@AAV12@@Z
_TEXT	SEGMENT PARA USE32 PUBLIC 'CODE'
_TEXT	ENDS
;	COMDAT ??1sentry@?$basic_ostream@DU?$char_traits@D@std@@@std@@QAE@XZ
_TEXT	SEGMENT PARA USE32 PUBLIC 'CODE'
_TEXT	ENDS
;	COMDAT ??Bsentry@?$basic_ostream@DU?$char_traits@D@std@@@std@@QBE_NXZ
_TEXT	SEGMENT PARA USE32 PUBLIC 'CODE'
_TEXT	ENDS
;	COMDAT ??0sentry@?$basic_ostream@_WU?$char_traits@_W@std@@@std@@QAE@AAV12@@Z
_TEXT	SEGMENT PARA USE32 PUBLIC 'CODE'
_TEXT	ENDS
;	COMDAT ??1sentry@?$basic_ostream@_WU?$char_traits@_W@std@@@std@@QAE@XZ
_TEXT	SEGMENT PARA USE32 PUBLIC 'CODE'
_TEXT	ENDS
;	COMDAT ??Bsentry@?$basic_ostream@_WU?$char_traits@_W@std@@@std@@QBE_NXZ
_TEXT	SEGMENT PARA USE32 PUBLIC 'CODE'
_TEXT	ENDS
;	COMDAT ?GetData@CAtlSafeAllocBufferNode@?$CAtlSafeAllocBufferManager@VCCRTAllocator@ATL@@@_ATL_SAFE_ALLOCA_IMPL@ATL@@QAEPAXXZ
_TEXT	SEGMENT PARA USE32 PUBLIC 'CODE'
_TEXT	ENDS
;	COMDAT ?deallocate@?$allocator@D@std@@QAEXPADI@Z
_TEXT	SEGMENT PARA USE32 PUBLIC 'CODE'
_TEXT	ENDS
;	COMDAT ?AllocateHeap@?$CTempBuffer@D$0IA@VCCRTAllocator@ATL@@@ATL@@AAEXI@Z
_TEXT	SEGMENT PARA USE32 PUBLIC 'CODE'
_TEXT	ENDS
;	COMDAT ?AllocateHeap@?$CTempBuffer@_W$0IA@VCCRTAllocator@ATL@@@ATL@@AAEXI@Z
_TEXT	SEGMENT PARA USE32 PUBLIC 'CODE'
_TEXT	ENDS
;	COMDAT ?AllocateHeap@?$CTempBuffer@D$0EAA@VCCRTAllocator@ATL@@@ATL@@AAEXI@Z
_TEXT	SEGMENT PARA USE32 PUBLIC 'CODE'
_TEXT	ENDS
;	COMDAT ?AllocateHeap@?$CTempBuffer@D$0BAA@VCCRTAllocator@ATL@@@ATL@@AAEXI@Z
_TEXT	SEGMENT PARA USE32 PUBLIC 'CODE'
_TEXT	ENDS
;	COMDAT ?AllocateHeap@?$CTempBuffer@E$0BAA@VCCRTAllocator@ATL@@@ATL@@AAEXI@Z
_TEXT	SEGMENT PARA USE32 PUBLIC 'CODE'
_TEXT	ENDS
;	COMDAT ??0iterator@?$basic_string@DU?$char_traits@D@std@@V?$allocator@D@2@@std@@QAE@PAD@Z
_TEXT	SEGMENT PARA USE32 PUBLIC 'CODE'
_TEXT	ENDS
;	COMDAT ??D?$istreambuf_iterator@DU?$char_traits@D@std@@@std@@QBEDXZ
_TEXT	SEGMENT PARA USE32 PUBLIC 'CODE'
_TEXT	ENDS
;	COMDAT ??E?$istreambuf_iterator@DU?$char_traits@D@std@@@std@@QAEAAV01@XZ
_TEXT	SEGMENT PARA USE32 PUBLIC 'CODE'
_TEXT	ENDS
;	COMDAT ??4?$ostreambuf_iterator@DU?$char_traits@D@std@@@std@@QAEAAV01@D@Z
_TEXT	SEGMENT PARA USE32 PUBLIC 'CODE'
_TEXT	ENDS
;	COMDAT ??D?$ostreambuf_iterator@DU?$char_traits@D@std@@@std@@QAEAAV01@XZ
_TEXT	SEGMENT PARA USE32 PUBLIC 'CODE'
_TEXT	ENDS
;	COMDAT ??E?$ostreambuf_iterator@DU?$char_traits@D@std@@@std@@QAEAAV01@XZ
_TEXT	SEGMENT PARA USE32 PUBLIC 'CODE'
_TEXT	ENDS
;	COMDAT ??D?$istreambuf_iterator@_WU?$char_traits@_W@std@@@std@@QBE_WXZ
_TEXT	SEGMENT PARA USE32 PUBLIC 'CODE'
_TEXT	ENDS
;	COMDAT ??E?$istreambuf_iterator@_WU?$char_traits@_W@std@@@std@@QAEAAV01@XZ
_TEXT	SEGMENT PARA USE32 PUBLIC 'CODE'
_TEXT	ENDS
;	COMDAT ??4?$ostreambuf_iterator@_WU?$char_traits@_W@std@@@std@@QAEAAV01@_W@Z
_TEXT	SEGMENT PARA USE32 PUBLIC 'CODE'
_TEXT	ENDS
;	COMDAT ??D?$ostreambuf_iterator@_WU?$char_traits@_W@std@@@std@@QAEAAV01@XZ
_TEXT	SEGMENT PARA USE32 PUBLIC 'CODE'
_TEXT	ENDS
;	COMDAT ??E?$ostreambuf_iterator@_WU?$char_traits@_W@std@@@std@@QAEAAV01@XZ
_TEXT	SEGMENT PARA USE32 PUBLIC 'CODE'
_TEXT	ENDS
;	COMDAT ??0_Sentry_base@?$basic_ostream@DU?$char_traits@D@std@@@std@@QAE@AAV12@@Z
_TEXT	SEGMENT PARA USE32 PUBLIC 'CODE'
_TEXT	ENDS
;	COMDAT ??1_Sentry_base@?$basic_ostream@DU?$char_traits@D@std@@@std@@QAE@XZ
_TEXT	SEGMENT PARA USE32 PUBLIC 'CODE'
_TEXT	ENDS
;	COMDAT ??0_Sentry_base@?$basic_ostream@_WU?$char_traits@_W@std@@@std@@QAE@AAV12@@Z
_TEXT	SEGMENT PARA USE32 PUBLIC 'CODE'
_TEXT	ENDS
;	COMDAT ??1_Sentry_base@?$basic_ostream@_WU?$char_traits@_W@std@@@std@@QAE@XZ
_TEXT	SEGMENT PARA USE32 PUBLIC 'CODE'
_TEXT	ENDS
;	COMDAT ??0?$Wrapper@PAD@?$CSimpleMap@PADPA_WVCExpansionVectorEqualHelper@ATL@@@ATL@@QAE@ABQAD@Z
_TEXT	SEGMENT PARA USE32 PUBLIC 'CODE'
_TEXT	ENDS
;	COMDAT ??0?$Wrapper@PA_W@?$CSimpleMap@PADPA_WVCExpansionVectorEqualHelper@ATL@@@ATL@@QAE@ABQA_W@Z
_TEXT	SEGMENT PARA USE32 PUBLIC 'CODE'
_TEXT	ENDS
;	COMDAT ?deallocate@?$allocator@_W@std@@QAEXPA_WI@Z
_TEXT	SEGMENT PARA USE32 PUBLIC 'CODE'
_TEXT	ENDS
;	COMDAT ??0const_iterator@?$basic_string@DU?$char_traits@D@std@@V?$allocator@D@2@@std@@QAE@PBD@Z
_TEXT	SEGMENT PARA USE32 PUBLIC 'CODE'
_TEXT	ENDS
;	COMDAT ??Gconst_iterator@?$basic_string@DU?$char_traits@D@std@@V?$allocator@D@2@@std@@QBEHABV012@@Z
_TEXT	SEGMENT PARA USE32 PUBLIC 'CODE'
_TEXT	ENDS
;	COMDAT ?_Inc@?$istreambuf_iterator@DU?$char_traits@D@std@@@std@@AAEXXZ
_TEXT	SEGMENT PARA USE32 PUBLIC 'CODE'
_TEXT	ENDS
;	COMDAT ?_Peek@?$istreambuf_iterator@DU?$char_traits@D@std@@@std@@AAEDXZ
_TEXT	SEGMENT PARA USE32 PUBLIC 'CODE'
_TEXT	ENDS
;	COMDAT ?_Inc@?$istreambuf_iterator@_WU?$char_traits@_W@std@@@std@@AAEXXZ
_TEXT	SEGMENT PARA USE32 PUBLIC 'CODE'
_TEXT	ENDS
;	COMDAT ?_Peek@?$istreambuf_iterator@_WU?$char_traits@_W@std@@@std@@AAE_WXZ
_TEXT	SEGMENT PARA USE32 PUBLIC 'CODE'
_TEXT	ENDS
;	COMDAT ?allocate@?$allocator@D@std@@QAEPADI@Z
_TEXT	SEGMENT PARA USE32 PUBLIC 'CODE'
_TEXT	ENDS
;	COMDAT ?max_size@?$allocator@D@std@@QBEIXZ
_TEXT	SEGMENT PARA USE32 PUBLIC 'CODE'
_TEXT	ENDS
;	COMDAT ?allocate@?$allocator@_W@std@@QAEPA_WI@Z
_TEXT	SEGMENT PARA USE32 PUBLIC 'CODE'
_TEXT	ENDS
;	COMDAT ?max_size@?$allocator@_W@std@@QBEIXZ
_TEXT	SEGMENT PARA USE32 PUBLIC 'CODE'
_TEXT	ENDS
;	COMDAT ??$use_facet@V?$ctype@D@std@@@std@@YAABV?$ctype@D@0@ABVlocale@0@@Z
_TEXT	SEGMENT PARA USE32 PUBLIC 'CODE'
_TEXT	ENDS
;	COMDAT ??$use_facet@V?$ctype@_W@std@@@std@@YAABV?$ctype@_W@0@ABVlocale@0@@Z
_TEXT	SEGMENT PARA USE32 PUBLIC 'CODE'
_TEXT	ENDS
;	COMDAT ??$?HDU?$char_traits@D@std@@V?$allocator@D@1@@std@@YA?AV?$basic_string@DU?$char_traits@D@std@@V?$allocator@D@2@@0@ABV10@0@Z
_TEXT	SEGMENT PARA USE32 PUBLIC 'CODE'
_TEXT	ENDS
;	COMDAT ??$?HDU?$char_traits@D@std@@V?$allocator@D@1@@std@@YA?AV?$basic_string@DU?$char_traits@D@std@@V?$allocator@D@2@@0@PBDABV10@@Z
_TEXT	SEGMENT PARA USE32 PUBLIC 'CODE'
_TEXT	ENDS
;	COMDAT ??$?HDU?$char_traits@D@std@@V?$allocator@D@1@@std@@YA?AV?$basic_string@DU?$char_traits@D@std@@V?$allocator@D@2@@0@DABV10@@Z
_TEXT	SEGMENT PARA USE32 PUBLIC 'CODE'
_TEXT	ENDS
;	COMDAT ??$?HDU?$char_traits@D@std@@V?$allocator@D@1@@std@@YA?AV?$basic_string@DU?$char_traits@D@std@@V?$allocator@D@2@@0@ABV10@PBD@Z
_TEXT	SEGMENT PARA USE32 PUBLIC 'CODE'
_TEXT	ENDS
;	COMDAT ??$?HDU?$char_traits@D@std@@V?$allocator@D@1@@std@@YA?AV?$basic_string@DU?$char_traits@D@std@@V?$allocator@D@2@@0@ABV10@D@Z
_TEXT	SEGMENT PARA USE32 PUBLIC 'CODE'
_TEXT	ENDS
;	COMDAT ??$?H_WU?$char_traits@_W@std@@V?$allocator@_W@1@@std@@YA?AV?$basic_string@_WU?$char_traits@_W@std@@V?$allocator@_W@2@@0@ABV10@0@Z
_TEXT	SEGMENT PARA USE32 PUBLIC 'CODE'
_TEXT	ENDS
;	COMDAT ??$?H_WU?$char_traits@_W@std@@V?$allocator@_W@1@@std@@YA?AV?$basic_string@_WU?$char_traits@_W@std@@V?$allocator@_W@2@@0@PB_WABV10@@Z
_TEXT	SEGMENT PARA USE32 PUBLIC 'CODE'
_TEXT	ENDS
;	COMDAT ??$?H_WU?$char_traits@_W@std@@V?$allocator@_W@1@@std@@YA?AV?$basic_string@_WU?$char_traits@_W@std@@V?$allocator@_W@2@@0@_WABV10@@Z
_TEXT	SEGMENT PARA USE32 PUBLIC 'CODE'
_TEXT	ENDS
;	COMDAT ??$?H_WU?$char_traits@_W@std@@V?$allocator@_W@1@@std@@YA?AV?$basic_string@_WU?$char_traits@_W@std@@V?$allocator@_W@2@@0@ABV10@PB_W@Z
_TEXT	SEGMENT PARA USE32 PUBLIC 'CODE'
_TEXT	ENDS
;	COMDAT ??$?H_WU?$char_traits@_W@std@@V?$allocator@_W@1@@std@@YA?AV?$basic_string@_WU?$char_traits@_W@std@@V?$allocator@_W@2@@0@ABV10@_W@Z
_TEXT	SEGMENT PARA USE32 PUBLIC 'CODE'
_TEXT	ENDS
;	COMDAT ??$?5DU?$char_traits@D@std@@V?$allocator@D@1@@std@@YAAAV?$basic_istream@DU?$char_traits@D@std@@@0@AAV10@AAV?$basic_string@DU?$char_traits@D@std@@V?$allocator@D@2@@0@@Z
_TEXT	SEGMENT PARA USE32 PUBLIC 'CODE'
_TEXT	ENDS
;	COMDAT ??$getline@DU?$char_traits@D@std@@V?$allocator@D@2@@std@@YAAAV?$basic_istream@DU?$char_traits@D@std@@@0@AAV10@AAV?$basic_string@DU?$char_traits@D@std@@V?$allocator@D@2@@0@@Z
_TEXT	SEGMENT PARA USE32 PUBLIC 'CODE'
_TEXT	ENDS
;	COMDAT ??$getline@DU?$char_traits@D@std@@V?$allocator@D@2@@std@@YAAAV?$basic_istream@DU?$char_traits@D@std@@@0@AAV10@AAV?$basic_string@DU?$char_traits@D@std@@V?$allocator@D@2@@0@D@Z
_TEXT	SEGMENT PARA USE32 PUBLIC 'CODE'
_TEXT	ENDS
;	COMDAT ??$?6DU?$char_traits@D@std@@V?$allocator@D@1@@std@@YAAAV?$basic_ostream@DU?$char_traits@D@std@@@0@AAV10@ABV?$basic_string@DU?$char_traits@D@std@@V?$allocator@D@2@@0@@Z
_TEXT	SEGMENT PARA USE32 PUBLIC 'CODE'
_TEXT	ENDS
;	COMDAT ??$?5_WU?$char_traits@_W@std@@V?$allocator@_W@1@@std@@YAAAV?$basic_istream@_WU?$char_traits@_W@std@@@0@AAV10@AAV?$basic_string@_WU?$char_traits@_W@std@@V?$allocator@_W@2@@0@@Z
_TEXT	SEGMENT PARA USE32 PUBLIC 'CODE'
_TEXT	ENDS
;	COMDAT ??$getline@_WU?$char_traits@_W@std@@V?$allocator@_W@2@@std@@YAAAV?$basic_istream@_WU?$char_traits@_W@std@@@0@AAV10@AAV?$basic_string@_WU?$char_traits@_W@std@@V?$allocator@_W@2@@0@@Z
_TEXT	SEGMENT PARA USE32 PUBLIC 'CODE'
_TEXT	ENDS
;	COMDAT ??$getline@_WU?$char_traits@_W@std@@V?$allocator@_W@2@@std@@YAAAV?$basic_istream@_WU?$char_traits@_W@std@@@0@AAV10@AAV?$basic_string@_WU?$char_traits@_W@std@@V?$allocator@_W@2@@0@_W@Z
_TEXT	SEGMENT PARA USE32 PUBLIC 'CODE'
_TEXT	ENDS
;	COMDAT ??$?6_WU?$char_traits@_W@std@@V?$allocator@_W@1@@std@@YAAAV?$basic_ostream@_WU?$char_traits@_W@std@@@0@AAV10@ABV?$basic_string@_WU?$char_traits@_W@std@@V?$allocator@_W@2@@0@@Z
_TEXT	SEGMENT PARA USE32 PUBLIC 'CODE'
_TEXT	ENDS
;	COMDAT ??0?$CComCritSecLock@VCComCriticalSection@ATL@@@ATL@@QAE@AAVCComCriticalSection@1@_N@Z
_TEXT	SEGMENT PARA USE32 PUBLIC 'CODE'
_TEXT	ENDS
;	COMDAT ??1?$CComCritSecLock@VCComCriticalSection@ATL@@@ATL@@QAE@XZ
_TEXT	SEGMENT PARA USE32 PUBLIC 'CODE'
_TEXT	ENDS
;	COMDAT ?Lock@?$CComCritSecLock@VCComCriticalSection@ATL@@@ATL@@QAEJXZ
_TEXT	SEGMENT PARA USE32 PUBLIC 'CODE'
_TEXT	ENDS
;	COMDAT ??$AtlAlignUp@H@ATL@@YGHHK@Z
_TEXT	SEGMENT PARA USE32 PUBLIC 'CODE'
_TEXT	ENDS
;	COMDAT ??$use_facet@V?$numpunct@D@std@@@std@@YAABV?$numpunct@D@0@ABVlocale@0@@Z
_TEXT	SEGMENT PARA USE32 PUBLIC 'CODE'
_TEXT	ENDS
;	COMDAT ??$_Getloctxt@DV?$istreambuf_iterator@DU?$char_traits@D@std@@@std@@@std@@YAHAAV?$istreambuf_iterator@DU?$char_traits@D@std@@@0@0IPBD@Z
_TEXT	SEGMENT PARA USE32 PUBLIC 'CODE'
_TEXT	ENDS
;	COMDAT ??$?8DU?$char_traits@D@std@@@std@@YA_NABV?$istreambuf_iterator@DU?$char_traits@D@std@@@0@0@Z
_TEXT	SEGMENT PARA USE32 PUBLIC 'CODE'
_TEXT	ENDS
;	COMDAT ??$use_facet@V?$numpunct@_W@std@@@std@@YAABV?$numpunct@_W@0@ABVlocale@0@@Z
_TEXT	SEGMENT PARA USE32 PUBLIC 'CODE'
_TEXT	ENDS
;	COMDAT ??$_Getloctxt@_WV?$istreambuf_iterator@_WU?$char_traits@_W@std@@@std@@@std@@YAHAAV?$istreambuf_iterator@_WU?$char_traits@_W@std@@@0@0IPB_W@Z
_TEXT	SEGMENT PARA USE32 PUBLIC 'CODE'
_TEXT	ENDS
;	COMDAT ??$?8_WU?$char_traits@_W@std@@@std@@YA_NABV?$istreambuf_iterator@_WU?$char_traits@_W@std@@@0@0@Z
_TEXT	SEGMENT PARA USE32 PUBLIC 'CODE'
_TEXT	ENDS
;	COMDAT ??$_Maklocchr@D@std@@YADDPADABU_Cvtvec@@@Z
_TEXT	SEGMENT PARA USE32 PUBLIC 'CODE'
_TEXT	ENDS
;	COMDAT ??$?9DU?$char_traits@D@std@@@std@@YA_NABV?$istreambuf_iterator@DU?$char_traits@D@std@@@0@0@Z
_TEXT	SEGMENT PARA USE32 PUBLIC 'CODE'
_TEXT	ENDS
;	COMDAT ??$_Maklocbyte@D@std@@YADDABU_Cvtvec@@@Z
_TEXT	SEGMENT PARA USE32 PUBLIC 'CODE'
_TEXT	ENDS
;	COMDAT ??$?9_WU?$char_traits@_W@std@@@std@@YA_NABV?$istreambuf_iterator@_WU?$char_traits@_W@std@@@0@0@Z
_TEXT	SEGMENT PARA USE32 PUBLIC 'CODE'
_TEXT	ENDS
;	COMDAT ??$?2PAD@?$Wrapper@PAD@?$CSimpleMap@PADPA_WVCExpansionVectorEqualHelper@ATL@@@ATL@@SAPAXIPAPAD@Z
_TEXT	SEGMENT PARA USE32 PUBLIC 'CODE'
_TEXT	ENDS
;	COMDAT ??$?3PAD@?$Wrapper@PAD@?$CSimpleMap@PADPA_WVCExpansionVectorEqualHelper@ATL@@@ATL@@SAXPAXPAPAD@Z
_TEXT	SEGMENT PARA USE32 PUBLIC 'CODE'
_TEXT	ENDS
;	COMDAT ??$?2PA_W@?$Wrapper@PA_W@?$CSimpleMap@PADPA_WVCExpansionVectorEqualHelper@ATL@@@ATL@@SAPAXIPAPA_W@Z
_TEXT	SEGMENT PARA USE32 PUBLIC 'CODE'
_TEXT	ENDS
;	COMDAT ??$?3PA_W@?$Wrapper@PA_W@?$CSimpleMap@PADPA_WVCExpansionVectorEqualHelper@ATL@@@ATL@@SAXPAXPAPA_W@Z
_TEXT	SEGMENT PARA USE32 PUBLIC 'CODE'
_TEXT	ENDS
;	COMDAT ??$_Allocate@D@std@@YAPADIPAD@Z
_TEXT	SEGMENT PARA USE32 PUBLIC 'CODE'
_TEXT	ENDS
;	COMDAT ??$_Allocate@_W@std@@YAPA_WIPA_W@Z
_TEXT	SEGMENT PARA USE32 PUBLIC 'CODE'
_TEXT	ENDS
;	COMDAT ?equal@?$istreambuf_iterator@DU?$char_traits@D@std@@@std@@QBE_NABV12@@Z
_TEXT	SEGMENT PARA USE32 PUBLIC 'CODE'
_TEXT	ENDS
;	COMDAT ?equal@?$istreambuf_iterator@_WU?$char_traits@_W@std@@@std@@QBE_NABV12@@Z
_TEXT	SEGMENT PARA USE32 PUBLIC 'CODE'
_TEXT	ENDS
;	COMDAT ?Unlock@?$CComCritSecLock@VCComCriticalSection@ATL@@@ATL@@QAEXXZ
_TEXT	SEGMENT PARA USE32 PUBLIC 'CODE'
_TEXT	ENDS
;	COMDAT ??$_Maklocstr@D@std@@YAPADPBDPADABU_Cvtvec@@@Z
_TEXT	SEGMENT PARA USE32 PUBLIC 'CODE'
_TEXT	ENDS
;	COMDAT ??_R4out_of_range@std@@6B@
rdata$r	SEGMENT DWORD USE32 PUBLIC 'CONST'
rdata$r	ENDS
;	COMDAT ??_R0?AVout_of_range@std@@@8
_DATA	SEGMENT DWORD USE32 PUBLIC 'DATA'
_DATA	ENDS
;	COMDAT __GUID_00020400_0000_0000_c000_000000000046
CONST	SEGMENT DWORD USE32 PUBLIC 'CONST'
CONST	ENDS
;	COMDAT ??_R0?AVCWin32Heap@ATL@@@8
_DATA	SEGMENT DWORD USE32 PUBLIC 'DATA'
_DATA	ENDS
;	COMDAT ??_R4IFixedStringLog@ATL@@6B@
rdata$r	SEGMENT DWORD USE32 PUBLIC 'CONST'
rdata$r	ENDS
;	COMDAT ??_R3?$ctype@D@std@@8
rdata$r	SEGMENT DWORD USE32 PUBLIC 'CONST'
rdata$r	ENDS
;	COMDAT ??_R3CAtlStringMgr@ATL@@8
rdata$r	SEGMENT DWORD USE32 PUBLIC 'CONST'
rdata$r	ENDS
;	COMDAT ??_R1A@?0A@A@overflow_error@std@@8
rdata$r	SEGMENT DWORD USE32 PUBLIC 'CONST'
rdata$r	ENDS
;	COMDAT ??_R1A@?0A@A@out_of_range@std@@8
rdata$r	SEGMENT DWORD USE32 PUBLIC 'CONST'
rdata$r	ENDS
;	COMDAT ??_R1A@?0A@A@?$numpunct@D@std@@8
rdata$r	SEGMENT DWORD USE32 PUBLIC 'CONST'
rdata$r	ENDS
;	COMDAT ?szThreadingModel@?1??RegisterClassHelper@CComModule@ATL@@QAGJABU_GUID@@PBD11K@Z@4QBDB
CONST	SEGMENT DWORD USE32 PUBLIC 'CONST'
CONST	ENDS
;	COMDAT __GUID_00000000_0000_0000_c000_000000000046
CONST	SEGMENT DWORD USE32 PUBLIC 'CONST'
CONST	ENDS
;	COMDAT ??_R2domain_error@std@@8
rdata$r	SEGMENT DWORD USE32 PUBLIC 'CONST'
rdata$r	ENDS
;	COMDAT ??_R1A@?0A@A@facet@locale@std@@8
rdata$r	SEGMENT DWORD USE32 PUBLIC 'CONST'
rdata$r	ENDS
;	COMDAT __GUID_0002e012_0000_0000_c000_000000000046
CONST	SEGMENT DWORD USE32 PUBLIC 'CONST'
CONST	ENDS
;	COMDAT ??_R0?AVdomain_error@std@@@8
_DATA	SEGMENT DWORD USE32 PUBLIC 'DATA'
_DATA	ENDS
;	COMDAT ??_R3underflow_error@std@@8
rdata$r	SEGMENT DWORD USE32 PUBLIC 'CONST'
rdata$r	ENDS
;	COMDAT ??_R0?AV?$numpunct@_W@std@@@8
_DATA	SEGMENT DWORD USE32 PUBLIC 'DATA'
_DATA	ENDS
;	COMDAT ??_R1A@?0A@A@CComModule@ATL@@8
rdata$r	SEGMENT DWORD USE32 PUBLIC 'CONST'
rdata$r	ENDS
;	COMDAT ?s_bWin9x@?1??_AtlInstallStringThunk@ATL@@YAXPAPAXPAX1@Z@4_NA
_BSS	SEGMENT DWORD USE32 PUBLIC 'BSS'
_BSS	ENDS
;	COMDAT ??_R0?AVrange_error@std@@@8
_DATA	SEGMENT DWORD USE32 PUBLIC 'DATA'
_DATA	ENDS
;	COMDAT ?szBoth@?1??RegisterClassHelper@CComModule@ATL@@QAGJABU_GUID@@PBD11K@Z@4QBDB
CONST	SEGMENT DWORD USE32 PUBLIC 'CONST'
CONST	ENDS
;	COMDAT ??_R2?$numpunct@D@std@@8
rdata$r	SEGMENT DWORD USE32 PUBLIC 'CONST'
rdata$r	ENDS
;	COMDAT ??_R1A@?0A@A@codecvt_base@std@@8
rdata$r	SEGMENT DWORD USE32 PUBLIC 'CONST'
rdata$r	ENDS
;	COMDAT ??_R4CComModule@ATL@@6B@
rdata$r	SEGMENT DWORD USE32 PUBLIC 'CONST'
rdata$r	ENDS
;	COMDAT ??_R2length_error@std@@8
rdata$r	SEGMENT DWORD USE32 PUBLIC 'CONST'
rdata$r	ENDS
;	COMDAT ??_R2runtime_error@std@@8
rdata$r	SEGMENT DWORD USE32 PUBLIC 'CONST'
rdata$r	ENDS
;	COMDAT ??_R0?AVCAtlModule@ATL@@@8
_DATA	SEGMENT DWORD USE32 PUBLIC 'DATA'
_DATA	ENDS
;	COMDAT __GUID_b196b284_bab4_101a_b69c_00aa00341d07
CONST	SEGMENT DWORD USE32 PUBLIC 'CONST'
CONST	ENDS
;	COMDAT ??_R3?$CAtlAutoThreadModuleT@VCAtlAutoThreadModule@ATL@@VCComSimpleThreadAllocator@2@$0PPPPPPPP@@ATL@@8
rdata$r	SEGMENT DWORD USE32 PUBLIC 'CONST'
rdata$r	ENDS
;	COMDAT ??_R3CRegObject@ATL@@8
rdata$r	SEGMENT DWORD USE32 PUBLIC 'CONST'
rdata$r	ENDS
;	COMDAT ??_R2failure@ios_base@std@@8
rdata$r	SEGMENT DWORD USE32 PUBLIC 'CONST'
rdata$r	ENDS
;	COMDAT ??_R1A@?0A@A@bad_alloc@std@@8
rdata$r	SEGMENT DWORD USE32 PUBLIC 'CONST'
rdata$r	ENDS
;	COMDAT ??_R4?$numpunct@D@std@@6B@
rdata$r	SEGMENT DWORD USE32 PUBLIC 'CONST'
rdata$r	ENDS
;	COMDAT ??_R0?AVcodecvt_base@std@@@8
_DATA	SEGMENT DWORD USE32 PUBLIC 'DATA'
_DATA	ENDS
;	COMDAT ??_R0?AVCFixedStringLog@ATL@@@8
_DATA	SEGMENT DWORD USE32 PUBLIC 'DATA'
_DATA	ENDS
;	COMDAT ??_R2bad_alloc@std@@8
rdata$r	SEGMENT DWORD USE32 PUBLIC 'CONST'
rdata$r	ENDS
;	COMDAT ??_R2?$ctype@_W@std@@8
rdata$r	SEGMENT DWORD USE32 PUBLIC 'CONST'
rdata$r	ENDS
;	COMDAT ??_R0?AU_ATL_MODULE70@ATL@@@8
_DATA	SEGMENT DWORD USE32 PUBLIC 'DATA'
_DATA	ENDS
;	COMDAT ??_R0?AV?$codecvt@_WDH@std@@@8
_DATA	SEGMENT DWORD USE32 PUBLIC 'DATA'
_DATA	ENDS
;	COMDAT ??_R1A@?0A@A@exception@@8
rdata$r	SEGMENT DWORD USE32 PUBLIC 'CONST'
rdata$r	ENDS
;	COMDAT __CT??_R0?AVexception@@@8??0exception@@QAE@ABV0@@Z12
xdata$x	SEGMENT DWORD USE32 PUBLIC 'CONST'
xdata$x	ENDS
;	COMDAT ??_R1A@?0A@A@?$codecvt@_WDH@std@@8
rdata$r	SEGMENT DWORD USE32 PUBLIC 'CONST'
rdata$r	ENDS
;	COMDAT ??_R0?AUIAtlMemMgr@ATL@@@8
_DATA	SEGMENT DWORD USE32 PUBLIC 'DATA'
_DATA	ENDS
;	COMDAT ??_R3CWin32Heap@ATL@@8
rdata$r	SEGMENT DWORD USE32 PUBLIC 'CONST'
rdata$r	ENDS
;	COMDAT ??_R4underflow_error@std@@6B@
rdata$r	SEGMENT DWORD USE32 PUBLIC 'CONST'
rdata$r	ENDS
;	COMDAT ??_R1A@?0A@A@IRegistrarBase@@8
rdata$r	SEGMENT DWORD USE32 PUBLIC 'CONST'
rdata$r	ENDS
;	COMDAT ??_R2overflow_error@std@@8
rdata$r	SEGMENT DWORD USE32 PUBLIC 'CONST'
rdata$r	ENDS
;	COMDAT ??_R0?AV?$CAtlAutoThreadModuleT@VCAtlAutoThreadModule@ATL@@VCComSimpleThreadAllocator@2@$0PPPPPPPP@@ATL@@@8
_DATA	SEGMENT DWORD USE32 PUBLIC 'DATA'
_DATA	ENDS
;	COMDAT ??_R3IUnknown@@8
rdata$r	SEGMENT DWORD USE32 PUBLIC 'CONST'
rdata$r	ENDS
;	COMDAT ??_R1A@?0A@A@range_error@std@@8
rdata$r	SEGMENT DWORD USE32 PUBLIC 'CONST'
rdata$r	ENDS
;	COMDAT ??_R4length_error@std@@6B@
rdata$r	SEGMENT DWORD USE32 PUBLIC 'CONST'
rdata$r	ENDS
;	COMDAT ??_R4CFixedStringMgr@ATL@@6B@
rdata$r	SEGMENT DWORD USE32 PUBLIC 'CONST'
rdata$r	ENDS
;	COMDAT ??_R4?$ctype@D@std@@6B@
rdata$r	SEGMENT DWORD USE32 PUBLIC 'CONST'
rdata$r	ENDS
;	COMDAT ??_R0?AV?$ctype@_W@std@@@8
_DATA	SEGMENT DWORD USE32 PUBLIC 'DATA'
_DATA	ENDS
;	COMDAT ??_R3invalid_argument@std@@8
rdata$r	SEGMENT DWORD USE32 PUBLIC 'CONST'
rdata$r	ENDS
;	COMDAT ??_R0?AVfailure@ios_base@std@@@8
_DATA	SEGMENT DWORD USE32 PUBLIC 'DATA'
_DATA	ENDS
;	COMDAT ??_R3overflow_error@std@@8
rdata$r	SEGMENT DWORD USE32 PUBLIC 'CONST'
rdata$r	ENDS
;	COMDAT ??_R2out_of_range@std@@8
rdata$r	SEGMENT DWORD USE32 PUBLIC 'CONST'
rdata$r	ENDS
;	COMDAT _IID_IAxWinHostWindow
CONST	SEGMENT DWORD USE32 PUBLIC 'CONST'
CONST	ENDS
;	COMDAT ?szAUTPRX32@?1??RegisterClassHelper@CComModule@ATL@@QAGJABU_GUID@@PBD11K@Z@4QBDB
CONST	SEGMENT DWORD USE32 PUBLIC 'CONST'
CONST	ENDS
;	COMDAT ??_R0?AVruntime_error@std@@@8
_DATA	SEGMENT DWORD USE32 PUBLIC 'DATA'
_DATA	ENDS
;	COMDAT ??_R0?AVCRegObject@ATL@@@8
_DATA	SEGMENT DWORD USE32 PUBLIC 'DATA'
_DATA	ENDS
;	COMDAT ??_R4overflow_error@std@@6B@
rdata$r	SEGMENT DWORD USE32 PUBLIC 'CONST'
rdata$r	ENDS
;	COMDAT __TI2?AVbad_cast@@
xdata$x	SEGMENT DWORD USE32 PUBLIC 'CONST'
xdata$x	ENDS
;	COMDAT ??_R1A@?0A@A@IAtlMemMgr@ATL@@8
rdata$r	SEGMENT DWORD USE32 PUBLIC 'CONST'
rdata$r	ENDS
;	COMDAT ??_R0?AVunderflow_error@std@@@8
_DATA	SEGMENT DWORD USE32 PUBLIC 'DATA'
_DATA	ENDS
;	COMDAT ??_R3runtime_error@std@@8
rdata$r	SEGMENT DWORD USE32 PUBLIC 'CONST'
rdata$r	ENDS
;	COMDAT ??_R3CFixedStringMgr@ATL@@8
rdata$r	SEGMENT DWORD USE32 PUBLIC 'CONST'
rdata$r	ENDS
;	COMDAT _IID_IAxWinHostWindowLic
CONST	SEGMENT DWORD USE32 PUBLIC 'CONST'
CONST	ENDS
;	COMDAT ??_R0?AV?$ctype@D@std@@@8
_DATA	SEGMENT DWORD USE32 PUBLIC 'DATA'
_DATA	ENDS
;	COMDAT ??_B?1??_AtlInstallStringThunk@ATL@@YAXPAPAXPAX1@Z@51
_BSS	SEGMENT DWORD USE32 PUBLIC 'BSS'
_BSS	ENDS
;	COMDAT ??_R2IFixedStringLog@ATL@@8
rdata$r	SEGMENT DWORD USE32 PUBLIC 'CONST'
rdata$r	ENDS
;	COMDAT ??_R1A@?0A@A@IAtlAutoThreadModule@ATL@@8
rdata$r	SEGMENT DWORD USE32 PUBLIC 'CONST'
rdata$r	ENDS
;	COMDAT _CLSID_Registrar
CONST	SEGMENT DWORD USE32 PUBLIC 'CONST'
CONST	ENDS
;	COMDAT ??_R2CAtlStringMgr@ATL@@8
rdata$r	SEGMENT DWORD USE32 PUBLIC 'CONST'
rdata$r	ENDS
;	COMDAT ??_R2CAtlModule@ATL@@8
rdata$r	SEGMENT DWORD USE32 PUBLIC 'CONST'
rdata$r	ENDS
;	COMDAT ??_R0?AVIFixedStringLog@ATL@@@8
_DATA	SEGMENT DWORD USE32 PUBLIC 'DATA'
_DATA	ENDS
;	COMDAT ??_R4domain_error@std@@6B@
rdata$r	SEGMENT DWORD USE32 PUBLIC 'CONST'
rdata$r	ENDS
;	COMDAT ??_R0?AV?$CAtlModuleT@VCComModule@ATL@@@ATL@@@8
_DATA	SEGMENT DWORD USE32 PUBLIC 'DATA'
_DATA	ENDS
;	COMDAT ??_R4CWin32Heap@ATL@@6B@
rdata$r	SEGMENT DWORD USE32 PUBLIC 'CONST'
rdata$r	ENDS
;	COMDAT ??_R4?$CAtlAutoThreadModuleT@VCAtlAutoThreadModule@ATL@@VCComSimpleThreadAllocator@2@$0PPPPPPPP@@ATL@@6B@
rdata$r	SEGMENT DWORD USE32 PUBLIC 'CONST'
rdata$r	ENDS
;	COMDAT ??_R2IUnknown@@8
rdata$r	SEGMENT DWORD USE32 PUBLIC 'CONST'
rdata$r	ENDS
;	COMDAT ??_R3bad_exception@std@@8
rdata$r	SEGMENT DWORD USE32 PUBLIC 'CONST'
rdata$r	ENDS
;	COMDAT ??_R4?$CAtlModuleT@VCComModule@ATL@@@ATL@@6B@
rdata$r	SEGMENT DWORD USE32 PUBLIC 'CONST'
rdata$r	ENDS
;	COMDAT ??_R1A@?0A@A@?$numpunct@_W@std@@8
rdata$r	SEGMENT DWORD USE32 PUBLIC 'CONST'
rdata$r	ENDS
;	COMDAT ??_R2range_error@std@@8
rdata$r	SEGMENT DWORD USE32 PUBLIC 'CONST'
rdata$r	ENDS
;	COMDAT ??_R0?AVexception@@@8
_DATA	SEGMENT DWORD USE32 PUBLIC 'DATA'
_DATA	ENDS
;	COMDAT ?szApartment@?1??RegisterClassHelper@CComModule@ATL@@QAGJABU_GUID@@PBD11K@Z@4QBDB
CONST	SEGMENT DWORD USE32 PUBLIC 'CONST'
CONST	ENDS
;	COMDAT ??_R1A@?0A@A@?$ctype@D@std@@8
rdata$r	SEGMENT DWORD USE32 PUBLIC 'CONST'
rdata$r	ENDS
;	COMDAT __CT??_R0?AVbad_cast@@@8??0bad_cast@@QAE@ABV0@@Z12
xdata$x	SEGMENT DWORD USE32 PUBLIC 'CONST'
xdata$x	ENDS
;	COMDAT ??_R1A@?0A@A@CAtlModule@ATL@@8
rdata$r	SEGMENT DWORD USE32 PUBLIC 'CONST'
rdata$r	ENDS
;	COMDAT ??_R3?$ctype@_W@std@@8
rdata$r	SEGMENT DWORD USE32 PUBLIC 'CONST'
rdata$r	ENDS
;	COMDAT ??_R3CFixedStringLog@ATL@@8
rdata$r	SEGMENT DWORD USE32 PUBLIC 'CONST'
rdata$r	ENDS
;	COMDAT ??_R3bad_alloc@std@@8
rdata$r	SEGMENT DWORD USE32 PUBLIC 'CONST'
rdata$r	ENDS
;	COMDAT ??_R3domain_error@std@@8
rdata$r	SEGMENT DWORD USE32 PUBLIC 'CONST'
rdata$r	ENDS
;	COMDAT _IID_IInternalConnection
CONST	SEGMENT DWORD USE32 PUBLIC 'CONST'
CONST	ENDS
;	COMDAT ?szLS32@?1??RegisterClassHelper@CComModule@ATL@@QAGJABU_GUID@@PBD11K@Z@4QBDB
CONST	SEGMENT DWORD USE32 PUBLIC 'CONST'
CONST	ENDS
;	COMDAT ??_R0?AVbad_exception@std@@@8
_DATA	SEGMENT DWORD USE32 PUBLIC 'DATA'
_DATA	ENDS
;	COMDAT __CTA1?AVCAtlException@ATL@@
xdata$x	SEGMENT DWORD USE32 PUBLIC 'CONST'
xdata$x	ENDS
;	COMDAT ??_R0?AUIAtlAutoThreadModule@ATL@@@8
_DATA	SEGMENT DWORD USE32 PUBLIC 'DATA'
_DATA	ENDS
;	COMDAT ??_R0?AUIAtlStringMgr@ATL@@@8
_DATA	SEGMENT DWORD USE32 PUBLIC 'DATA'
_DATA	ENDS
;	COMDAT ??_R2bad_exception@std@@8
rdata$r	SEGMENT DWORD USE32 PUBLIC 'CONST'
rdata$r	ENDS
;	COMDAT ??_R0?AV?$numpunct@D@std@@@8
_DATA	SEGMENT DWORD USE32 PUBLIC 'DATA'
_DATA	ENDS
;	COMDAT ??_R2CWin32Heap@ATL@@8
rdata$r	SEGMENT DWORD USE32 PUBLIC 'CONST'
rdata$r	ENDS
;	COMDAT ??_R3?$CAtlModuleT@VCComModule@ATL@@@ATL@@8
rdata$r	SEGMENT DWORD USE32 PUBLIC 'CONST'
rdata$r	ENDS
;	COMDAT ?_AtlWinModule@ATL@@3VCAtlWinModule@1@A
_BSS	SEGMENT DWORD USE32 PUBLIC 'BSS'
_BSS	ENDS
;	COMDAT CRT$XCU
CRT$XCU	SEGMENT DWORD USE32 PUBLIC 'DATA'
CRT$XCU	ENDS
;	COMDAT ??_R0?AVCAtlStringMgr@ATL@@@8
_DATA	SEGMENT DWORD USE32 PUBLIC 'DATA'
_DATA	ENDS
;	COMDAT ??_R0?AVbad_alloc@std@@@8
_DATA	SEGMENT DWORD USE32 PUBLIC 'DATA'
_DATA	ENDS
;	COMDAT ?szProgID@?1??RegisterClassHelper@CComModule@ATL@@QAGJABU_GUID@@PBD11K@Z@4QBDB
CONST	SEGMENT DWORD USE32 PUBLIC 'CONST'
CONST	ENDS
;	COMDAT ??_R2CFixedStringLog@ATL@@8
rdata$r	SEGMENT DWORD USE32 PUBLIC 'CONST'
rdata$r	ENDS
;	COMDAT ??_R4invalid_argument@std@@6B@
rdata$r	SEGMENT DWORD USE32 PUBLIC 'CONST'
rdata$r	ENDS
;	COMDAT ??_R4?$codecvt@_WDH@std@@6B@
rdata$r	SEGMENT DWORD USE32 PUBLIC 'CONST'
rdata$r	ENDS
;	COMDAT ??_R4range_error@std@@6B@
rdata$r	SEGMENT DWORD USE32 PUBLIC 'CONST'
rdata$r	ENDS
;	COMDAT ??_R1A@?0A@A@IFixedStringLog@ATL@@8
rdata$r	SEGMENT DWORD USE32 PUBLIC 'CONST'
rdata$r	ENDS
;	COMDAT ??_R3?$codecvt@_WDH@std@@8
rdata$r	SEGMENT DWORD USE32 PUBLIC 'CONST'
rdata$r	ENDS
;	COMDAT ??_R1A@?0A@A@logic_error@std@@8
rdata$r	SEGMENT DWORD USE32 PUBLIC 'CONST'
rdata$r	ENDS
;	COMDAT __GUID_00000146_0000_0000_c000_000000000046
CONST	SEGMENT DWORD USE32 PUBLIC 'CONST'
CONST	ENDS
;	COMDAT ??_R1A@?0A@A@IUnknown@@8
rdata$r	SEGMENT DWORD USE32 PUBLIC 'CONST'
rdata$r	ENDS
;	COMDAT __CTA2?AVbad_cast@@
xdata$x	SEGMENT DWORD USE32 PUBLIC 'CONST'
xdata$x	ENDS
;	COMDAT ??_R4logic_error@std@@6B@
rdata$r	SEGMENT DWORD USE32 PUBLIC 'CONST'
rdata$r	ENDS
;	COMDAT ?map@?2??HKeyFromString@CRegParser@ATL@@KAPAUHKEY__@@PAD@Z@4QBUkeymap@23@B
CONST	SEGMENT DWORD USE32 PUBLIC 'CONST'
CONST	ENDS
;	COMDAT ??_R0?AVlength_error@std@@@8
_DATA	SEGMENT DWORD USE32 PUBLIC 'DATA'
_DATA	ENDS
;	COMDAT ??_R1A@?0A@A@CRegObject@ATL@@8
rdata$r	SEGMENT DWORD USE32 PUBLIC 'CONST'
rdata$r	ENDS
;	COMDAT ??_R2CFixedStringMgr@ATL@@8
rdata$r	SEGMENT DWORD USE32 PUBLIC 'CONST'
rdata$r	ENDS
;	COMDAT _IID_IAxWinAmbientDispatch
CONST	SEGMENT DWORD USE32 PUBLIC 'CONST'
CONST	ENDS
;	COMDAT ??_R3out_of_range@std@@8
rdata$r	SEGMENT DWORD USE32 PUBLIC 'CONST'
rdata$r	ENDS
;	COMDAT ??_R2?$numpunct@_W@std@@8
rdata$r	SEGMENT DWORD USE32 PUBLIC 'CONST'
rdata$r	ENDS
;	COMDAT ??_R0?AVbad_cast@@@8
_DATA	SEGMENT DWORD USE32 PUBLIC 'DATA'
_DATA	ENDS
;	COMDAT ??_R1A@?0A@A@runtime_error@std@@8
rdata$r	SEGMENT DWORD USE32 PUBLIC 'CONST'
rdata$r	ENDS
;	COMDAT ??_R1A@?0A@A@invalid_argument@std@@8
rdata$r	SEGMENT DWORD USE32 PUBLIC 'CONST'
rdata$r	ENDS
;	COMDAT ??_R1A@?0A@A@ctype_base@std@@8
rdata$r	SEGMENT DWORD USE32 PUBLIC 'CONST'
rdata$r	ENDS
;	COMDAT _IID_IDocHostUIHandlerDispatch
CONST	SEGMENT DWORD USE32 PUBLIC 'CONST'
CONST	ENDS
;	COMDAT ??_R4CFixedStringLog@ATL@@6B@
rdata$r	SEGMENT DWORD USE32 PUBLIC 'CONST'
rdata$r	ENDS
;	COMDAT ??_R2IRegistrarBase@@8
rdata$r	SEGMENT DWORD USE32 PUBLIC 'CONST'
rdata$r	ENDS
;	COMDAT ??_R2logic_error@std@@8
rdata$r	SEGMENT DWORD USE32 PUBLIC 'CONST'
rdata$r	ENDS
;	COMDAT ??_R13?0A@A@_ATL_MODULE70@ATL@@8
rdata$r	SEGMENT DWORD USE32 PUBLIC 'CONST'
rdata$r	ENDS
;	COMDAT ??_R0?AVCFixedStringMgr@ATL@@@8
_DATA	SEGMENT DWORD USE32 PUBLIC 'DATA'
_DATA	ENDS
;	COMDAT ??_R1A@?0A@A@failure@ios_base@std@@8
rdata$r	SEGMENT DWORD USE32 PUBLIC 'CONST'
rdata$r	ENDS
;	COMDAT ??_R3logic_error@std@@8
rdata$r	SEGMENT DWORD USE32 PUBLIC 'CONST'
rdata$r	ENDS
;	COMDAT ??_R0?AUIUnknown@@@8
_DATA	SEGMENT DWORD USE32 PUBLIC 'DATA'
_DATA	ENDS
;	COMDAT ??_R3CAtlModule@ATL@@8
rdata$r	SEGMENT DWORD USE32 PUBLIC 'CONST'
rdata$r	ENDS
;	COMDAT ??_R0?AVlogic_error@std@@@8
_DATA	SEGMENT DWORD USE32 PUBLIC 'DATA'
_DATA	ENDS
;	COMDAT ??_R4?$ctype@_W@std@@6B@
rdata$r	SEGMENT DWORD USE32 PUBLIC 'CONST'
rdata$r	ENDS
;	COMDAT ??_R3length_error@std@@8
rdata$r	SEGMENT DWORD USE32 PUBLIC 'CONST'
rdata$r	ENDS
;	COMDAT ??_7IUnknown@@6B@
CONST	SEGMENT DWORD USE32 PUBLIC 'CONST'
CONST	ENDS
;	COMDAT ??_R4bad_exception@std@@6B@
rdata$r	SEGMENT DWORD USE32 PUBLIC 'CONST'
rdata$r	ENDS
;	COMDAT ??_R4CRegObject@ATL@@6B@
rdata$r	SEGMENT DWORD USE32 PUBLIC 'CONST'
rdata$r	ENDS
;	COMDAT __GUID_fc4801a3_2ba9_11cf_a229_00aa003d7352
CONST	SEGMENT DWORD USE32 PUBLIC 'CONST'
CONST	ENDS
;	COMDAT ??_R1A@?0A@A@CFixedStringLog@ATL@@8
rdata$r	SEGMENT DWORD USE32 PUBLIC 'CONST'
rdata$r	ENDS
;	COMDAT ??_R2?$CAtlAutoThreadModuleT@VCAtlAutoThreadModule@ATL@@VCComSimpleThreadAllocator@2@$0PPPPPPPP@@ATL@@8
rdata$r	SEGMENT DWORD USE32 PUBLIC 'CONST'
rdata$r	ENDS
;	COMDAT ??_R2CComModule@ATL@@8
rdata$r	SEGMENT DWORD USE32 PUBLIC 'CONST'
rdata$r	ENDS
;	COMDAT ??_R1A@?0A@A@?$CAtlAutoThreadModuleT@VCAtlAutoThreadModule@ATL@@VCComSimpleThreadAllocator@2@$0PPPPPPPP@@ATL@@8
rdata$r	SEGMENT DWORD USE32 PUBLIC 'CONST'
rdata$r	ENDS
;	COMDAT _LIBID_ATLLib
CONST	SEGMENT DWORD USE32 PUBLIC 'CONST'
CONST	ENDS
;	COMDAT __GUID_7fd52380_4e07_101b_ae2d_08002b2ec713
CONST	SEGMENT DWORD USE32 PUBLIC 'CONST'
CONST	ENDS
;	COMDAT ??_R1A@?0A@A@underflow_error@std@@8
rdata$r	SEGMENT DWORD USE32 PUBLIC 'CONST'
rdata$r	ENDS
;	COMDAT ??_R3failure@ios_base@std@@8
rdata$r	SEGMENT DWORD USE32 PUBLIC 'CONST'
rdata$r	ENDS
;	COMDAT ??_R3IRegistrarBase@@8
rdata$r	SEGMENT DWORD USE32 PUBLIC 'CONST'
rdata$r	ENDS
;	COMDAT ??_R1A@?0A@A@?$ctype@_W@std@@8
rdata$r	SEGMENT DWORD USE32 PUBLIC 'CONST'
rdata$r	ENDS
;	COMDAT ??_R4bad_alloc@std@@6B@
rdata$r	SEGMENT DWORD USE32 PUBLIC 'CONST'
rdata$r	ENDS
;	COMDAT ?$S4@?2??VTFromRegType@CRegParser@ATL@@KAHPBDAAG@Z@4IA
_BSS	SEGMENT DWORD USE32 PUBLIC 'BSS'
_BSS	ENDS
;	COMDAT ??_R1A@?0A@A@bad_exception@std@@8
rdata$r	SEGMENT DWORD USE32 PUBLIC 'CONST'
rdata$r	ENDS
;	COMDAT ??_R2underflow_error@std@@8
rdata$r	SEGMENT DWORD USE32 PUBLIC 'CONST'
rdata$r	ENDS
;	COMDAT ??_R0?AUctype_base@std@@@8
_DATA	SEGMENT DWORD USE32 PUBLIC 'DATA'
_DATA	ENDS
;	COMDAT ??_R4IUnknown@@6B@
rdata$r	SEGMENT DWORD USE32 PUBLIC 'CONST'
rdata$r	ENDS
;	COMDAT __TI1?AVCAtlException@ATL@@
xdata$x	SEGMENT DWORD USE32 PUBLIC 'CONST'
xdata$x	ENDS
;	COMDAT ??_R4CAtlModule@ATL@@6B@
rdata$r	SEGMENT DWORD USE32 PUBLIC 'CONST'
rdata$r	ENDS
;	COMDAT ??_R1A@?0A@A@IAtlStringMgr@ATL@@8
rdata$r	SEGMENT DWORD USE32 PUBLIC 'CONST'
rdata$r	ENDS
;	COMDAT _IID_IRegistrar
CONST	SEGMENT DWORD USE32 PUBLIC 'CONST'
CONST	ENDS
;	COMDAT ??_7IRegistrarBase@@6B@
CONST	SEGMENT DWORD USE32 PUBLIC 'CONST'
CONST	ENDS
;	COMDAT _CLSID_StdGlobalInterfaceTable
CONST	SEGMENT DWORD USE32 PUBLIC 'CONST'
CONST	ENDS
;	COMDAT ?szIPS32@?1??RegisterClassHelper@CComModule@ATL@@QAGJABU_GUID@@PBD11K@Z@4QBDB
CONST	SEGMENT DWORD USE32 PUBLIC 'CONST'
CONST	ENDS
;	COMDAT ??_R4failure@ios_base@std@@6B@
rdata$r	SEGMENT DWORD USE32 PUBLIC 'CONST'
rdata$r	ENDS
;	COMDAT ??_R1A@?0A@A@CWin32Heap@ATL@@8
rdata$r	SEGMENT DWORD USE32 PUBLIC 'CONST'
rdata$r	ENDS
;	COMDAT __CT??_R0?AVCAtlException@ATL@@@84
xdata$x	SEGMENT DWORD USE32 PUBLIC 'CONST'
xdata$x	ENDS
;	COMDAT ??_R1A@?0A@A@?$CAtlModuleT@VCComModule@ATL@@@ATL@@8
rdata$r	SEGMENT DWORD USE32 PUBLIC 'CONST'
rdata$r	ENDS
;	COMDAT _IID_IAxWinAmbientDispatchEx
CONST	SEGMENT DWORD USE32 PUBLIC 'CONST'
CONST	ENDS
;	COMDAT ??_R2?$ctype@D@std@@8
rdata$r	SEGMENT DWORD USE32 PUBLIC 'CONST'
rdata$r	ENDS
;	COMDAT ?map@?2??VTFromRegType@CRegParser@ATL@@KAHPBDAAG@Z@4QBUtypemap@23@B
_DATA	SEGMENT DWORD USE32 PUBLIC 'DATA'
_DATA	ENDS
;	COMDAT ??_R4?$numpunct@_W@std@@6B@
rdata$r	SEGMENT DWORD USE32 PUBLIC 'CONST'
rdata$r	ENDS
;	COMDAT ??_R3range_error@std@@8
rdata$r	SEGMENT DWORD USE32 PUBLIC 'CONST'
rdata$r	ENDS
;	COMDAT ?szVIProgID@?1??RegisterClassHelper@CComModule@ATL@@QAGJABU_GUID@@PBD11K@Z@4QBDB
CONST	SEGMENT DWORD USE32 PUBLIC 'CONST'
CONST	ENDS
;	COMDAT ?VT@?$CVarTypeInfo@PAF@ATL@@2GB
CONST	SEGMENT DWORD USE32 PUBLIC 'CONST'
CONST	ENDS
;	COMDAT ?VT@?$CVarTypeInfo@PAJ@ATL@@2GB
CONST	SEGMENT DWORD USE32 PUBLIC 'CONST'
CONST	ENDS
;	COMDAT ?VT@?$CVarTypeInfo@PAE@ATL@@2GB
CONST	SEGMENT DWORD USE32 PUBLIC 'CONST'
CONST	ENDS
;	COMDAT ?VT@?$CVarTypeInfo@PAUIDispatch@@@ATL@@2GB
CONST	SEGMENT DWORD USE32 PUBLIC 'CONST'
CONST	ENDS
;	COMDAT ?pmField@?$CVarTypeInfo@PAK@ATL@@2QQtagVARIANT@@PAKQ3@
CONST	SEGMENT DWORD USE32 PUBLIC 'CONST'
CONST	ENDS
;	COMDAT ?cbNeverDelete@CRegParser@ATL@@1HB
CONST	SEGMENT DWORD USE32 PUBLIC 'CONST'
CONST	ENDS
;	COMDAT ?VT@?$CVarTypeInfo@PAM@ATL@@2GB
CONST	SEGMENT DWORD USE32 PUBLIC 'CONST'
CONST	ENDS
;	COMDAT ?VT@?$CVarTypeInfo@D@ATL@@2GB
CONST	SEGMENT DWORD USE32 PUBLIC 'CONST'
CONST	ENDS
;	COMDAT ?pmField@?$CVarTypeInfo@K@ATL@@2QQtagVARIANT@@KQ3@
CONST	SEGMENT DWORD USE32 PUBLIC 'CONST'
CONST	ENDS
;	COMDAT ??_7CFixedStringMgr@ATL@@6B@
CONST	SEGMENT DWORD USE32 PUBLIC 'CONST'
CONST	ENDS
;	COMDAT ?s_pLog@CFixedStringMgr@ATL@@2PAVIFixedStringLog@2@A
_DATA	SEGMENT DWORD USE32 PUBLIC 'DATA'
_DATA	ENDS
;	COMDAT ?ATL_CREATE_OBJECT@CComApartment@ATL@@2IA
_DATA	SEGMENT DWORD USE32 PUBLIC 'DATA'
_DATA	ENDS
;	COMDAT ?pmField@?$CVarTypeInfo@TtagCY@@@ATL@@2QQtagVARIANT@@TtagCY@@Q3@
CONST	SEGMENT DWORD USE32 PUBLIC 'CONST'
CONST	ENDS
;	COMDAT ?pmField@?$CVarTypeInfo@I@ATL@@2QQtagVARIANT@@IQ3@
CONST	SEGMENT DWORD USE32 PUBLIC 'CONST'
CONST	ENDS
;	COMDAT ?MAX_VALUE@CRegParser@ATL@@1HB
CONST	SEGMENT DWORD USE32 PUBLIC 'CONST'
CONST	ENDS
;	COMDAT ?VT@?$CVarTypeInfo@PAPAUIDispatch@@@ATL@@2GB
CONST	SEGMENT DWORD USE32 PUBLIC 'CONST'
CONST	ENDS
;	COMDAT ??_7CComModule@ATL@@6B@
CONST	SEGMENT DWORD USE32 PUBLIC 'CONST'
CONST	ENDS
;	COMDAT ?VT@?$CVarTypeInfo@PAPAUIUnknown@@@ATL@@2GB
CONST	SEGMENT DWORD USE32 PUBLIC 'CONST'
CONST	ENDS
;	COMDAT ?VT@?$CVarTypeInfo@K@ATL@@2GB
CONST	SEGMENT DWORD USE32 PUBLIC 'CONST'
CONST	ENDS
;	COMDAT ?pmField@?$CVarTypeInfo@N@ATL@@2QQtagVARIANT@@NQ3@
CONST	SEGMENT DWORD USE32 PUBLIC 'CONST'
CONST	ENDS
;	COMDAT ??_7CAtlModule@ATL@@6B@
CONST	SEGMENT DWORD USE32 PUBLIC 'CONST'
CONST	ENDS
;	COMDAT ?VT@?$CVarTypeInfo@PAD@ATL@@2GB
CONST	SEGMENT DWORD USE32 PUBLIC 'CONST'
CONST	ENDS
;	COMDAT ??_7CFixedStringLog@ATL@@6B@
CONST	SEGMENT DWORD USE32 PUBLIC 'CONST'
CONST	ENDS
;	COMDAT ?pmField@?$CVarTypeInfo@PAD@ATL@@2QQtagVARIANT@@PADQ3@
CONST	SEGMENT DWORD USE32 PUBLIC 'CONST'
CONST	ENDS
;	COMDAT ?pmField@?$CVarTypeInfo@PA_K@ATL@@2QQtagVARIANT@@PA_KQ3@
CONST	SEGMENT DWORD USE32 PUBLIC 'CONST'
CONST	ENDS
;	COMDAT ?VT@?$CVarTypeInfo@PAPA_W@ATL@@2GB
CONST	SEGMENT DWORD USE32 PUBLIC 'CONST'
CONST	ENDS
;	COMDAT ?VT@?$CVarTypeInfo@M@ATL@@2GB
CONST	SEGMENT DWORD USE32 PUBLIC 'CONST'
CONST	ENDS
;	COMDAT ?pmField@?$CVarTypeInfo@PAE@ATL@@2QQtagVARIANT@@PAEQ3@
CONST	SEGMENT DWORD USE32 PUBLIC 'CONST'
CONST	ENDS
;	COMDAT ___pobjMapEntryLast
ATL$__z	SEGMENT DWORD USE32 PUBLIC ''
ATL$__z	ENDS
;	COMDAT ___pobjMapEntryFirst
ATL$__a	SEGMENT DWORD USE32 PUBLIC ''
ATL$__a	ENDS
;	COMDAT ?VT@?$CVarTypeInfo@J@ATL@@2GB
CONST	SEGMENT DWORD USE32 PUBLIC 'CONST'
CONST	ENDS
;	COMDAT ?pmField@?$CVarTypeInfo@PAPAUIDispatch@@@ATL@@2QQtagVARIANT@@PAPAUIDispatch@@Q3@
CONST	SEGMENT DWORD USE32 PUBLIC 'CONST'
CONST	ENDS
;	COMDAT ?VT@?$CVarTypeInfo@PAI@ATL@@2GB
CONST	SEGMENT DWORD USE32 PUBLIC 'CONST'
CONST	ENDS
;	COMDAT ?rgszNeverDelete@CRegParser@ATL@@1QBQBDB
CONST	SEGMENT DWORD USE32 PUBLIC 'CONST'
CONST	ENDS
;	COMDAT ?VT@?$CVarTypeInfo@PA_K@ATL@@2GB
CONST	SEGMENT DWORD USE32 PUBLIC 'CONST'
CONST	ENDS
;	COMDAT ?m_bInitFailed@CAtlBaseModule@ATL@@2_NA
_DATA	SEGMENT DWORD USE32 PUBLIC 'DATA'
_DATA	ENDS
;	COMDAT ?VT@?$CVarTypeInfo@I@ATL@@2GB
CONST	SEGMENT DWORD USE32 PUBLIC 'CONST'
CONST	ENDS
;	COMDAT ?VT@?$CVarTypeInfo@H@ATL@@2GB
CONST	SEGMENT DWORD USE32 PUBLIC 'CONST'
CONST	ENDS
;	COMDAT ?m_libid@CAtlModule@ATL@@2U_GUID@@A
_DATA	SEGMENT DWORD USE32 PUBLIC 'DATA'
_DATA	ENDS
;	COMDAT ?VT@?$CVarTypeInfo@_K@ATL@@2GB
CONST	SEGMENT DWORD USE32 PUBLIC 'CONST'
CONST	ENDS
;	COMDAT ?VT@?$CVarTypeInfo@PAG@ATL@@2GB
CONST	SEGMENT DWORD USE32 PUBLIC 'CONST'
CONST	ENDS
;	COMDAT ??_7IFixedStringLog@ATL@@6B@
CONST	SEGMENT DWORD USE32 PUBLIC 'CONST'
CONST	ENDS
;	COMDAT ??_7CRegObject@ATL@@6B@
CONST	SEGMENT DWORD USE32 PUBLIC 'CONST'
CONST	ENDS
;	COMDAT ?pmField@?$CVarTypeInfo@PAI@ATL@@2QQtagVARIANT@@PAIQ3@
CONST	SEGMENT DWORD USE32 PUBLIC 'CONST'
CONST	ENDS
;	COMDAT ??_7CAtlStringMgr@ATL@@6B@
CONST	SEGMENT DWORD USE32 PUBLIC 'CONST'
CONST	ENDS
;	COMDAT ?pmField@?$CVarTypeInfo@E@ATL@@2QQtagVARIANT@@EQ3@
CONST	SEGMENT DWORD USE32 PUBLIC 'CONST'
CONST	ENDS
;	COMDAT ?_pAtlModule@ATL@@3PAVCAtlModule@1@A
_DATA	SEGMENT DWORD USE32 PUBLIC 'DATA'
_DATA	ENDS
;	COMDAT ?VT@?$CVarTypeInfo@N@ATL@@2GB
CONST	SEGMENT DWORD USE32 PUBLIC 'CONST'
CONST	ENDS
;	COMDAT ?VT@?$CVarTypeInfo@PAK@ATL@@2GB
CONST	SEGMENT DWORD USE32 PUBLIC 'CONST'
CONST	ENDS
;	COMDAT ?c_bIsMFCDLLTraits@?$_MFCDLLTraitsCheck@DV?$StrTraitATL@DV?$ChTraitsCRT@D@ATL@@@ATL@@@_CSTRING_IMPL_@ATL@@2_NB
CONST	SEGMENT DWORD USE32 PUBLIC 'CONST'
CONST	ENDS
;	COMDAT ?c_bIsMFCDLLTraits@?$_MFCDLLTraitsCheck@_WV?$StrTraitATL@_WV?$ChTraitsCRT@_W@ATL@@@ATL@@@_CSTRING_IMPL_@ATL@@2_NB
CONST	SEGMENT DWORD USE32 PUBLIC 'CONST'
CONST	ENDS
;	COMDAT ?_pPerfRegFunc@ATL@@3P6AJPAUHINSTANCE__@@@ZA
_DATA	SEGMENT DWORD USE32 PUBLIC 'DATA'
_DATA	ENDS
;	COMDAT ??_7?$CAtlModuleT@VCComModule@ATL@@@ATL@@6B@
CONST	SEGMENT DWORD USE32 PUBLIC 'CONST'
CONST	ENDS
;	COMDAT ?VT@?$CVarTypeInfo@UtagVARIANT@@@ATL@@2GB
CONST	SEGMENT DWORD USE32 PUBLIC 'CONST'
CONST	ENDS
;	COMDAT ?pmField@?$CVarTypeInfo@PA_J@ATL@@2QQtagVARIANT@@PA_JQ3@
CONST	SEGMENT DWORD USE32 PUBLIC 'CONST'
CONST	ENDS
;	COMDAT ?VT@?$CVarTypeInfo@_J@ATL@@2GB
CONST	SEGMENT DWORD USE32 PUBLIC 'CONST'
CONST	ENDS
;	COMDAT ?VT@?$CVarTypeInfo@F@ATL@@2GB
CONST	SEGMENT DWORD USE32 PUBLIC 'CONST'
CONST	ENDS
;	COMDAT ?_strthunks@ATL@@3U_AtlStringThunks@1@A
_DATA	SEGMENT DWORD USE32 PUBLIC 'DATA'
_DATA	ENDS
;	COMDAT ?VT@?$CVarTypeInfo@PA_W@ATL@@2GB
CONST	SEGMENT DWORD USE32 PUBLIC 'CONST'
CONST	ENDS
;	COMDAT ?pmField@?$CVarTypeInfo@PA_W@ATL@@2QQtagVARIANT@@PA_WQ3@
CONST	SEGMENT DWORD USE32 PUBLIC 'CONST'
CONST	ENDS
;	COMDAT ?VT@?$CVarTypeInfo@PAUIUnknown@@@ATL@@2GB
CONST	SEGMENT DWORD USE32 PUBLIC 'CONST'
CONST	ENDS
;	COMDAT ?VT@?$CVarTypeInfo@G@ATL@@2GB
CONST	SEGMENT DWORD USE32 PUBLIC 'CONST'
CONST	ENDS
;	COMDAT ?_pPerfUnRegFunc@ATL@@3P6AJXZA
_DATA	SEGMENT DWORD USE32 PUBLIC 'DATA'
_DATA	ENDS
;	COMDAT ?pmField@?$CVarTypeInfo@PAJ@ATL@@2QQtagVARIANT@@PAJQ3@
CONST	SEGMENT DWORD USE32 PUBLIC 'CONST'
CONST	ENDS
;	COMDAT ?pmField@?$CVarTypeInfo@PAF@ATL@@2QQtagVARIANT@@PAFQ3@
CONST	SEGMENT DWORD USE32 PUBLIC 'CONST'
CONST	ENDS
;	COMDAT ?VT@?$CVarTypeInfo@E@ATL@@2GB
CONST	SEGMENT DWORD USE32 PUBLIC 'CONST'
CONST	ENDS
;	COMDAT ?pmField@?$CVarTypeInfo@PAUIUnknown@@@ATL@@2QQtagVARIANT@@PAUIUnknown@@Q3@
CONST	SEGMENT DWORD USE32 PUBLIC 'CONST'
CONST	ENDS
;	COMDAT ?_pModule@ATL@@3PAVCComModule@1@A
_DATA	SEGMENT DWORD USE32 PUBLIC 'DATA'
_DATA	ENDS
;	COMDAT ?pmField@?$CVarTypeInfo@PAUIDispatch@@@ATL@@2QQtagVARIANT@@PAUIDispatch@@Q3@
CONST	SEGMENT DWORD USE32 PUBLIC 'CONST'
CONST	ENDS
;	COMDAT ?VT@?$CVarTypeInfo@PA_J@ATL@@2GB
CONST	SEGMENT DWORD USE32 PUBLIC 'CONST'
CONST	ENDS
;	COMDAT ?VT@?$CVarTypeInfo@TtagCY@@@ATL@@2GB
CONST	SEGMENT DWORD USE32 PUBLIC 'CONST'
CONST	ENDS
;	COMDAT ?pmField@?$CVarTypeInfo@PAPAUIUnknown@@@ATL@@2QQtagVARIANT@@PAPAUIUnknown@@Q3@
CONST	SEGMENT DWORD USE32 PUBLIC 'CONST'
CONST	ENDS
;	COMDAT ?pmField@?$CVarTypeInfo@H@ATL@@2QQtagVARIANT@@HQ3@
CONST	SEGMENT DWORD USE32 PUBLIC 'CONST'
CONST	ENDS
;	COMDAT ??_7?$CAtlAutoThreadModuleT@VCAtlAutoThreadModule@ATL@@VCComSimpleThreadAllocator@2@$0PPPPPPPP@@ATL@@6B@
CONST	SEGMENT DWORD USE32 PUBLIC 'CONST'
CONST	ENDS
;	COMDAT ?pmField@?$CVarTypeInfo@PAPA_W@ATL@@2QQtagVARIANT@@PAPA_WQ3@
CONST	SEGMENT DWORD USE32 PUBLIC 'CONST'
CONST	ENDS
;	COMDAT ?pmField@?$CVarTypeInfo@PAG@ATL@@2QQtagVARIANT@@PAGQ3@
CONST	SEGMENT DWORD USE32 PUBLIC 'CONST'
CONST	ENDS
;	COMDAT ?pmField@?$CVarTypeInfo@_K@ATL@@2QQtagVARIANT@@_KQ3@
CONST	SEGMENT DWORD USE32 PUBLIC 'CONST'
CONST	ENDS
;	COMDAT ?MAX_TYPE@CRegParser@ATL@@1HB
CONST	SEGMENT DWORD USE32 PUBLIC 'CONST'
CONST	ENDS
;	COMDAT ?pmField@?$CVarTypeInfo@M@ATL@@2QQtagVARIANT@@MQ3@
CONST	SEGMENT DWORD USE32 PUBLIC 'CONST'
CONST	ENDS
;	COMDAT ?pmField@?$CVarTypeInfo@J@ATL@@2QQtagVARIANT@@JQ3@
CONST	SEGMENT DWORD USE32 PUBLIC 'CONST'
CONST	ENDS
;	COMDAT ?VT@?$CVarTypeInfo@PAN@ATL@@2GB
CONST	SEGMENT DWORD USE32 PUBLIC 'CONST'
CONST	ENDS
;	COMDAT ?pmField@?$CVarTypeInfo@G@ATL@@2QQtagVARIANT@@GQ3@
CONST	SEGMENT DWORD USE32 PUBLIC 'CONST'
CONST	ENDS
;	COMDAT ?pmField@?$CVarTypeInfo@D@ATL@@2QQtagVARIANT@@DQ3@
CONST	SEGMENT DWORD USE32 PUBLIC 'CONST'
CONST	ENDS
;	COMDAT ?pmField@?$CVarTypeInfo@_J@ATL@@2QQtagVARIANT@@_JQ3@
CONST	SEGMENT DWORD USE32 PUBLIC 'CONST'
CONST	ENDS
;	COMDAT ?pmField@?$CVarTypeInfo@PAN@ATL@@2QQtagVARIANT@@PANQ3@
CONST	SEGMENT DWORD USE32 PUBLIC 'CONST'
CONST	ENDS
;	COMDAT ?pmField@?$CVarTypeInfo@PAM@ATL@@2QQtagVARIANT@@PAMQ3@
CONST	SEGMENT DWORD USE32 PUBLIC 'CONST'
CONST	ENDS
;	COMDAT ?pmField@?$CVarTypeInfo@PAH@ATL@@2QQtagVARIANT@@PAHQ3@
CONST	SEGMENT DWORD USE32 PUBLIC 'CONST'
CONST	ENDS
;	COMDAT ?pmField@?$CVarTypeInfo@PATtagCY@@@ATL@@2QQtagVARIANT@@PATtagCY@@Q3@
CONST	SEGMENT DWORD USE32 PUBLIC 'CONST'
CONST	ENDS
;	COMDAT ?VT@?$CVarTypeInfo@PATtagCY@@@ATL@@2GB
CONST	SEGMENT DWORD USE32 PUBLIC 'CONST'
CONST	ENDS
;	COMDAT ?VT@?$CVarTypeInfo@PAH@ATL@@2GB
CONST	SEGMENT DWORD USE32 PUBLIC 'CONST'
CONST	ENDS
;	COMDAT ?pmField@?$CVarTypeInfo@F@ATL@@2QQtagVARIANT@@FQ3@
CONST	SEGMENT DWORD USE32 PUBLIC 'CONST'
CONST	ENDS
;	COMDAT ?g_pfnGetThreadACP@ATL@@3P6GIXZA
_DATA	SEGMENT DWORD USE32 PUBLIC 'DATA'
_DATA	ENDS
;	COMDAT ??_7CWin32Heap@ATL@@6B@
CONST	SEGMENT DWORD USE32 PUBLIC 'CONST'
CONST	ENDS
;	COMDAT ?_pAtlAutoThreadModule@ATL@@3PAUIAtlAutoThreadModule@1@A
_BSS	SEGMENT DWORD USE32 PUBLIC 'BSS'
_BSS	ENDS
;	COMDAT ??_R3CComModule@ATL@@8
rdata$r	SEGMENT DWORD USE32 PUBLIC 'CONST'
rdata$r	ENDS
;	COMDAT ??_R3?$numpunct@D@std@@8
rdata$r	SEGMENT DWORD USE32 PUBLIC 'CONST'
rdata$r	ENDS
;	COMDAT ??_R0?AUIRegistrarBase@@@8
_DATA	SEGMENT DWORD USE32 PUBLIC 'DATA'
_DATA	ENDS
;	COMDAT ??_R2?$CAtlModuleT@VCComModule@ATL@@@ATL@@8
rdata$r	SEGMENT DWORD USE32 PUBLIC 'CONST'
rdata$r	ENDS
;	COMDAT ??_R0?AVfacet@locale@std@@@8
_DATA	SEGMENT DWORD USE32 PUBLIC 'DATA'
_DATA	ENDS
;	COMDAT ??_R1A@?0A@A@CAtlStringMgr@ATL@@8
rdata$r	SEGMENT DWORD USE32 PUBLIC 'CONST'
rdata$r	ENDS
;	COMDAT ?binary@?$_Iosb@H@std@@2W4_Openmode@12@B
CONST	SEGMENT DWORD USE32 PUBLIC 'CONST'
CONST	ENDS
;	COMDAT ?_Hardfail@?$_Iosb@H@std@@2W4_Iostate@12@B
CONST	SEGMENT DWORD USE32 PUBLIC 'CONST'
CONST	ENDS
;	COMDAT ?eofbit@?$_Iosb@H@std@@2W4_Iostate@12@B
CONST	SEGMENT DWORD USE32 PUBLIC 'CONST'
CONST	ENDS
;	COMDAT ??_7invalid_argument@std@@6B@
CONST	SEGMENT DWORD USE32 PUBLIC 'CONST'
CONST	ENDS
;	COMDAT ?app@?$_Iosb@H@std@@2W4_Openmode@12@B
CONST	SEGMENT DWORD USE32 PUBLIC 'CONST'
CONST	ENDS
;	COMDAT ?uppercase@?$_Iosb@H@std@@2W4_Fmtflags@12@B
CONST	SEGMENT DWORD USE32 PUBLIC 'CONST'
CONST	ENDS
;	COMDAT ??_S?$numpunct@_W@std@@6B@
CONST	SEGMENT DWORD USE32 PUBLIC 'CONST'
CONST	ENDS
;	COMDAT ??_7out_of_range@std@@6B@
CONST	SEGMENT DWORD USE32 PUBLIC 'CONST'
CONST	ENDS
;	COMDAT ?trunc@?$_Iosb@H@std@@2W4_Openmode@12@B
CONST	SEGMENT DWORD USE32 PUBLIC 'CONST'
CONST	ENDS
;	COMDAT ??_S?$ctype@_W@std@@6B@
CONST	SEGMENT DWORD USE32 PUBLIC 'CONST'
CONST	ENDS
;	COMDAT ??_S?$numpunct@D@std@@6B@
CONST	SEGMENT DWORD USE32 PUBLIC 'CONST'
CONST	ENDS
;	COMDAT ?skipws@?$_Iosb@H@std@@2W4_Fmtflags@12@B
CONST	SEGMENT DWORD USE32 PUBLIC 'CONST'
CONST	ENDS
;	COMDAT ?basefield@?$_Iosb@H@std@@2W4_Fmtflags@12@B
CONST	SEGMENT DWORD USE32 PUBLIC 'CONST'
CONST	ENDS
;	COMDAT ??_7bad_alloc@std@@6B@
CONST	SEGMENT DWORD USE32 PUBLIC 'CONST'
CONST	ENDS
;	COMDAT ?_Stdio@?$_Iosb@H@std@@2W4_Fmtflags@12@B
CONST	SEGMENT DWORD USE32 PUBLIC 'CONST'
CONST	ENDS
;	COMDAT ?left@?$_Iosb@H@std@@2W4_Fmtflags@12@B
CONST	SEGMENT DWORD USE32 PUBLIC 'CONST'
CONST	ENDS
;	COMDAT ??_7runtime_error@std@@6B@
CONST	SEGMENT DWORD USE32 PUBLIC 'CONST'
CONST	ENDS
;	COMDAT ?showpos@?$_Iosb@H@std@@2W4_Fmtflags@12@B
CONST	SEGMENT DWORD USE32 PUBLIC 'CONST'
CONST	ENDS
;	COMDAT ?_Psave@?$_Facetptr@V?$ctype@D@std@@@std@@2PBVfacet@locale@2@B
_DATA	SEGMENT DWORD USE32 PUBLIC 'DATA'
_DATA	ENDS
;	COMDAT ?adjustfield@?$_Iosb@H@std@@2W4_Fmtflags@12@B
CONST	SEGMENT DWORD USE32 PUBLIC 'CONST'
CONST	ENDS
;	COMDAT ??_S?$ctype@D@std@@6B@
CONST	SEGMENT DWORD USE32 PUBLIC 'CONST'
CONST	ENDS
;	COMDAT ?badbit@?$_Iosb@H@std@@2W4_Iostate@12@B
CONST	SEGMENT DWORD USE32 PUBLIC 'CONST'
CONST	ENDS
;	COMDAT ?in@?$_Iosb@H@std@@2W4_Openmode@12@B
CONST	SEGMENT DWORD USE32 PUBLIC 'CONST'
CONST	ENDS
;	COMDAT ??_7underflow_error@std@@6B@
CONST	SEGMENT DWORD USE32 PUBLIC 'CONST'
CONST	ENDS
;	COMDAT ??_7overflow_error@std@@6B@
CONST	SEGMENT DWORD USE32 PUBLIC 'CONST'
CONST	ENDS
;	COMDAT ?_Psave@?$_Facetptr@V?$ctype@_W@std@@@std@@2PBVfacet@locale@2@B
_DATA	SEGMENT DWORD USE32 PUBLIC 'DATA'
_DATA	ENDS
;	COMDAT ?oct@?$_Iosb@H@std@@2W4_Fmtflags@12@B
CONST	SEGMENT DWORD USE32 PUBLIC 'CONST'
CONST	ENDS
;	COMDAT ?hex@?$_Iosb@H@std@@2W4_Fmtflags@12@B
CONST	SEGMENT DWORD USE32 PUBLIC 'CONST'
CONST	ENDS
;	COMDAT ?showbase@?$_Iosb@H@std@@2W4_Fmtflags@12@B
CONST	SEGMENT DWORD USE32 PUBLIC 'CONST'
CONST	ENDS
;	COMDAT ?showpoint@?$_Iosb@H@std@@2W4_Fmtflags@12@B
CONST	SEGMENT DWORD USE32 PUBLIC 'CONST'
CONST	ENDS
;	COMDAT ?collate@?$_Locbase@H@std@@2HB
CONST	SEGMENT DWORD USE32 PUBLIC 'CONST'
CONST	ENDS
;	COMDAT ??_7length_error@std@@6B@
CONST	SEGMENT DWORD USE32 PUBLIC 'CONST'
CONST	ENDS
;	COMDAT ?beg@?$_Iosb@H@std@@2W4_Seekdir@12@B
CONST	SEGMENT DWORD USE32 PUBLIC 'CONST'
CONST	ENDS
;	COMDAT ?failbit@?$_Iosb@H@std@@2W4_Iostate@12@B
CONST	SEGMENT DWORD USE32 PUBLIC 'CONST'
CONST	ENDS
;	COMDAT ?unitbuf@?$_Iosb@H@std@@2W4_Fmtflags@12@B
CONST	SEGMENT DWORD USE32 PUBLIC 'CONST'
CONST	ENDS
;	COMDAT ?right@?$_Iosb@H@std@@2W4_Fmtflags@12@B
CONST	SEGMENT DWORD USE32 PUBLIC 'CONST'
CONST	ENDS
;	COMDAT ?_Stz@?$fpos@H@std@@0HA
_BSS	SEGMENT DWORD USE32 PUBLIC 'BSS'
_BSS	ENDS
;	COMDAT ?ctype@?$_Locbase@H@std@@2HB
CONST	SEGMENT DWORD USE32 PUBLIC 'CONST'
CONST	ENDS
;	COMDAT ?out@?$_Iosb@H@std@@2W4_Openmode@12@B
CONST	SEGMENT DWORD USE32 PUBLIC 'CONST'
CONST	ENDS
;	COMDAT ?_Psave@?$_Facetptr@V?$numpunct@D@std@@@std@@2PBVfacet@locale@2@B
_DATA	SEGMENT DWORD USE32 PUBLIC 'DATA'
_DATA	ENDS
;	COMDAT ?internal@?$_Iosb@H@std@@2W4_Fmtflags@12@B
CONST	SEGMENT DWORD USE32 PUBLIC 'CONST'
CONST	ENDS
;	COMDAT ??_S?$codecvt@_WDH@std@@6B@
CONST	SEGMENT DWORD USE32 PUBLIC 'CONST'
CONST	ENDS
;	COMDAT ?goodbit@?$_Iosb@H@std@@2W4_Iostate@12@B
CONST	SEGMENT DWORD USE32 PUBLIC 'CONST'
CONST	ENDS
;	COMDAT ??_7bad_exception@std@@6B@
CONST	SEGMENT DWORD USE32 PUBLIC 'CONST'
CONST	ENDS
;	COMDAT ?boolalpha@?$_Iosb@H@std@@2W4_Fmtflags@12@B
CONST	SEGMENT DWORD USE32 PUBLIC 'CONST'
CONST	ENDS
;	COMDAT ?ate@?$_Iosb@H@std@@2W4_Openmode@12@B
CONST	SEGMENT DWORD USE32 PUBLIC 'CONST'
CONST	ENDS
;	COMDAT ?all@?$_Locbase@H@std@@2HB
CONST	SEGMENT DWORD USE32 PUBLIC 'CONST'
CONST	ENDS
;	COMDAT ?numeric@?$_Locbase@H@std@@2HB
CONST	SEGMENT DWORD USE32 PUBLIC 'CONST'
CONST	ENDS
;	COMDAT ?end@?$_Iosb@H@std@@2W4_Seekdir@12@B
CONST	SEGMENT DWORD USE32 PUBLIC 'CONST'
CONST	ENDS
;	COMDAT ?_Noreplace@?$_Iosb@H@std@@2W4_Openmode@12@B
CONST	SEGMENT DWORD USE32 PUBLIC 'CONST'
CONST	ENDS
;	COMDAT ??_7failure@ios_base@std@@6B@
CONST	SEGMENT DWORD USE32 PUBLIC 'CONST'
CONST	ENDS
;	COMDAT ?cur@?$_Iosb@H@std@@2W4_Seekdir@12@B
CONST	SEGMENT DWORD USE32 PUBLIC 'CONST'
CONST	ENDS
;	COMDAT ??_7range_error@std@@6B@
CONST	SEGMENT DWORD USE32 PUBLIC 'CONST'
CONST	ENDS
;	COMDAT ??_7logic_error@std@@6B@
CONST	SEGMENT DWORD USE32 PUBLIC 'CONST'
CONST	ENDS
;	COMDAT ?time@?$_Locbase@H@std@@2HB
CONST	SEGMENT DWORD USE32 PUBLIC 'CONST'
CONST	ENDS
;	COMDAT ?messages@?$_Locbase@H@std@@2HB
CONST	SEGMENT DWORD USE32 PUBLIC 'CONST'
CONST	ENDS
;	COMDAT ??_7domain_error@std@@6B@
CONST	SEGMENT DWORD USE32 PUBLIC 'CONST'
CONST	ENDS
;	COMDAT ?fixed@?$_Iosb@H@std@@2W4_Fmtflags@12@B
CONST	SEGMENT DWORD USE32 PUBLIC 'CONST'
CONST	ENDS
;	COMDAT ?none@?$_Locbase@H@std@@2HB
CONST	SEGMENT DWORD USE32 PUBLIC 'CONST'
CONST	ENDS
;	COMDAT ?floatfield@?$_Iosb@H@std@@2W4_Fmtflags@12@B
CONST	SEGMENT DWORD USE32 PUBLIC 'CONST'
CONST	ENDS
;	COMDAT ?_Nocreate@?$_Iosb@H@std@@2W4_Openmode@12@B
CONST	SEGMENT DWORD USE32 PUBLIC 'CONST'
CONST	ENDS
;	COMDAT ?scientific@?$_Iosb@H@std@@2W4_Fmtflags@12@B
CONST	SEGMENT DWORD USE32 PUBLIC 'CONST'
CONST	ENDS
;	COMDAT ?monetary@?$_Locbase@H@std@@2HB
CONST	SEGMENT DWORD USE32 PUBLIC 'CONST'
CONST	ENDS
;	COMDAT ?_Psave@?$_Facetptr@V?$numpunct@_W@std@@@std@@2PBVfacet@locale@2@B
_DATA	SEGMENT DWORD USE32 PUBLIC 'DATA'
_DATA	ENDS
;	COMDAT ?dec@?$_Iosb@H@std@@2W4_Fmtflags@12@B
CONST	SEGMENT DWORD USE32 PUBLIC 'CONST'
CONST	ENDS
;	COMDAT ??_R3IFixedStringLog@ATL@@8
rdata$r	SEGMENT DWORD USE32 PUBLIC 'CONST'
rdata$r	ENDS
;	COMDAT ??_R1A@?0A@A@CFixedStringMgr@ATL@@8
rdata$r	SEGMENT DWORD USE32 PUBLIC 'CONST'
rdata$r	ENDS
;	COMDAT ??_R2invalid_argument@std@@8
rdata$r	SEGMENT DWORD USE32 PUBLIC 'CONST'
rdata$r	ENDS
;	COMDAT ??_R2?$codecvt@_WDH@std@@8
rdata$r	SEGMENT DWORD USE32 PUBLIC 'CONST'
rdata$r	ENDS
;	COMDAT ??_R4IRegistrarBase@@6B@
rdata$r	SEGMENT DWORD USE32 PUBLIC 'CONST'
rdata$r	ENDS
;	COMDAT ??_R1A@?0A@A@length_error@std@@8
rdata$r	SEGMENT DWORD USE32 PUBLIC 'CONST'
rdata$r	ENDS
;	COMDAT ??_R3?$numpunct@_W@std@@8
rdata$r	SEGMENT DWORD USE32 PUBLIC 'CONST'
rdata$r	ENDS
;	COMDAT ??_R0?AVCComModule@ATL@@@8
_DATA	SEGMENT DWORD USE32 PUBLIC 'DATA'
_DATA	ENDS
;	COMDAT __GUID_00000109_0000_0000_c000_000000000046
CONST	SEGMENT DWORD USE32 PUBLIC 'CONST'
CONST	ENDS
;	COMDAT ??_R4CAtlStringMgr@ATL@@6B@
rdata$r	SEGMENT DWORD USE32 PUBLIC 'CONST'
rdata$r	ENDS
;	COMDAT ??_R4runtime_error@std@@6B@
rdata$r	SEGMENT DWORD USE32 PUBLIC 'CONST'
rdata$r	ENDS
;	COMDAT ??_R0?AVCAtlException@ATL@@@8
_DATA	SEGMENT DWORD USE32 PUBLIC 'DATA'
_DATA	ENDS
;	COMDAT ??_R0?AVinvalid_argument@std@@@8
_DATA	SEGMENT DWORD USE32 PUBLIC 'DATA'
_DATA	ENDS
;	COMDAT ??_R1A@?0A@A@domain_error@std@@8
rdata$r	SEGMENT DWORD USE32 PUBLIC 'CONST'
rdata$r	ENDS
;	COMDAT ??_R0?AVoverflow_error@std@@@8
_DATA	SEGMENT DWORD USE32 PUBLIC 'DATA'
_DATA	ENDS
;	COMDAT ??_R2CRegObject@ATL@@8
rdata$r	SEGMENT DWORD USE32 PUBLIC 'CONST'
rdata$r	ENDS
sxdata	SEGMENT DWORD USE32 'SXDATA'
sxdata	ENDS
FLAT	GROUP _DATA, CONST, _BSS, CRT$XCU
	ASSUME	CS: FLAT, DS: FLAT, SS: FLAT
endif

INCLUDELIB MSVCRT
INCLUDELIB OLDNAMES

PUBLIC	?VT@?$CVarTypeInfo@PAPA_W@ATL@@2GB		; ATL::CVarTypeInfo<wchar_t * *>::VT
PUBLIC	?pmField@?$CVarTypeInfo@PAPA_W@ATL@@2QQtagVARIANT@@PAPA_WQ3@ ; ATL::CVarTypeInfo<wchar_t * *>::pmField
PUBLIC	?VT@?$CVarTypeInfo@PAUIUnknown@@@ATL@@2GB	; ATL::CVarTypeInfo<IUnknown *>::VT
PUBLIC	?pmField@?$CVarTypeInfo@PAUIUnknown@@@ATL@@2QQtagVARIANT@@PAUIUnknown@@Q3@ ; ATL::CVarTypeInfo<IUnknown *>::pmField
PUBLIC	?VT@?$CVarTypeInfo@PAPAUIUnknown@@@ATL@@2GB	; ATL::CVarTypeInfo<IUnknown * *>::VT
PUBLIC	?pmField@?$CVarTypeInfo@PAPAUIUnknown@@@ATL@@2QQtagVARIANT@@PAPAUIUnknown@@Q3@ ; ATL::CVarTypeInfo<IUnknown * *>::pmField
PUBLIC	?VT@?$CVarTypeInfo@PAUIDispatch@@@ATL@@2GB	; ATL::CVarTypeInfo<IDispatch *>::VT
PUBLIC	?pmField@?$CVarTypeInfo@PAUIDispatch@@@ATL@@2QQtagVARIANT@@PAUIDispatch@@Q3@ ; ATL::CVarTypeInfo<IDispatch *>::pmField
PUBLIC	?VT@?$CVarTypeInfo@PAPAUIDispatch@@@ATL@@2GB	; ATL::CVarTypeInfo<IDispatch * *>::VT
PUBLIC	?pmField@?$CVarTypeInfo@PAPAUIDispatch@@@ATL@@2QQtagVARIANT@@PAPAUIDispatch@@Q3@ ; ATL::CVarTypeInfo<IDispatch * *>::pmField
PUBLIC	?VT@?$CVarTypeInfo@TtagCY@@@ATL@@2GB		; ATL::CVarTypeInfo<tagCY>::VT
PUBLIC	?_pAtlModule@ATL@@3PAVCAtlModule@1@A		; ATL::_pAtlModule
PUBLIC	?m_libid@CAtlModule@ATL@@2U_GUID@@A		; ATL::CAtlModule::m_libid
PUBLIC	?pmField@?$CVarTypeInfo@TtagCY@@@ATL@@2QQtagVARIANT@@TtagCY@@Q3@ ; ATL::CVarTypeInfo<tagCY>::pmField
PUBLIC	_IID_IDocHostUIHandlerDispatch
PUBLIC	?VT@?$CVarTypeInfo@PATtagCY@@@ATL@@2GB		; ATL::CVarTypeInfo<tagCY *>::VT
PUBLIC	?pmField@?$CVarTypeInfo@PATtagCY@@@ATL@@2QQtagVARIANT@@PATtagCY@@Q3@ ; ATL::CVarTypeInfo<tagCY *>::pmField
PUBLIC	_IID_IAxWinHostWindow
PUBLIC	?_pModule@ATL@@3PAVCComModule@1@A		; ATL::_pModule
PUBLIC	_CLSID_StdGlobalInterfaceTable
PUBLIC	?collate@?$_Locbase@H@std@@2HB			; std::_Locbase<int>::collate
PUBLIC	?ctype@?$_Locbase@H@std@@2HB			; std::_Locbase<int>::ctype
PUBLIC	?monetary@?$_Locbase@H@std@@2HB			; std::_Locbase<int>::monetary
PUBLIC	?numeric@?$_Locbase@H@std@@2HB			; std::_Locbase<int>::numeric
PUBLIC	?time@?$_Locbase@H@std@@2HB			; std::_Locbase<int>::time
PUBLIC	?messages@?$_Locbase@H@std@@2HB			; std::_Locbase<int>::messages
PUBLIC	?all@?$_Locbase@H@std@@2HB			; std::_Locbase<int>::all
PUBLIC	?none@?$_Locbase@H@std@@2HB			; std::_Locbase<int>::none
PUBLIC	_LIBID_ATLLib
PUBLIC	_IID_IAxWinHostWindowLic
PUBLIC	?s_pLog@CFixedStringMgr@ATL@@2PAVIFixedStringLog@2@A ; ATL::CFixedStringMgr::s_pLog
PUBLIC	_IID_IAxWinAmbientDispatch
PUBLIC	___pobjMapEntryFirst
PUBLIC	___pobjMapEntryLast
PUBLIC	?_pPerfRegFunc@ATL@@3P6AJPAUHINSTANCE__@@@ZA	; ATL::_pPerfRegFunc
PUBLIC	?_pPerfUnRegFunc@ATL@@3P6AJXZA			; ATL::_pPerfUnRegFunc
PUBLIC	?m_bInitFailed@CAtlBaseModule@ATL@@2_NA		; ATL::CAtlBaseModule::m_bInitFailed
PUBLIC	?rgszNeverDelete@CRegParser@ATL@@1QBQBDB	; ATL::CRegParser::rgszNeverDelete
PUBLIC	?cbNeverDelete@CRegParser@ATL@@1HB		; ATL::CRegParser::cbNeverDelete
PUBLIC	?MAX_VALUE@CRegParser@ATL@@1HB			; ATL::CRegParser::MAX_VALUE
PUBLIC	?MAX_TYPE@CRegParser@ATL@@1HB			; ATL::CRegParser::MAX_TYPE
PUBLIC	?skipws@?$_Iosb@H@std@@2W4_Fmtflags@12@B	; std::_Iosb<int>::skipws
PUBLIC	?unitbuf@?$_Iosb@H@std@@2W4_Fmtflags@12@B	; std::_Iosb<int>::unitbuf
PUBLIC	?uppercase@?$_Iosb@H@std@@2W4_Fmtflags@12@B	; std::_Iosb<int>::uppercase
PUBLIC	?ATL_CREATE_OBJECT@CComApartment@ATL@@2IA	; ATL::CComApartment::ATL_CREATE_OBJECT
PUBLIC	?showbase@?$_Iosb@H@std@@2W4_Fmtflags@12@B	; std::_Iosb<int>::showbase
PUBLIC	?showpoint@?$_Iosb@H@std@@2W4_Fmtflags@12@B	; std::_Iosb<int>::showpoint
PUBLIC	?showpos@?$_Iosb@H@std@@2W4_Fmtflags@12@B	; std::_Iosb<int>::showpos
PUBLIC	?left@?$_Iosb@H@std@@2W4_Fmtflags@12@B		; std::_Iosb<int>::left
PUBLIC	?right@?$_Iosb@H@std@@2W4_Fmtflags@12@B		; std::_Iosb<int>::right
PUBLIC	?_strthunks@ATL@@3U_AtlStringThunks@1@A		; ATL::_strthunks
PUBLIC	?internal@?$_Iosb@H@std@@2W4_Fmtflags@12@B	; std::_Iosb<int>::internal
PUBLIC	?dec@?$_Iosb@H@std@@2W4_Fmtflags@12@B		; std::_Iosb<int>::dec
PUBLIC	?oct@?$_Iosb@H@std@@2W4_Fmtflags@12@B		; std::_Iosb<int>::oct
PUBLIC	?hex@?$_Iosb@H@std@@2W4_Fmtflags@12@B		; std::_Iosb<int>::hex
PUBLIC	?scientific@?$_Iosb@H@std@@2W4_Fmtflags@12@B	; std::_Iosb<int>::scientific
PUBLIC	?fixed@?$_Iosb@H@std@@2W4_Fmtflags@12@B		; std::_Iosb<int>::fixed
PUBLIC	?boolalpha@?$_Iosb@H@std@@2W4_Fmtflags@12@B	; std::_Iosb<int>::boolalpha
PUBLIC	?c_bIsMFCDLLTraits@?$_MFCDLLTraitsCheck@_WV?$StrTraitATL@_WV?$ChTraitsCRT@_W@ATL@@@ATL@@@_CSTRING_IMPL_@ATL@@2_NB ; ATL::_CSTRING_IMPL_::_MFCDLLTraitsCheck<wchar_t,ATL::StrTraitATL<wchar_t,ATL::ChTraitsCRT<wchar_t> > >::c_bIsMFCDLLTraits
PUBLIC	?_Stdio@?$_Iosb@H@std@@2W4_Fmtflags@12@B	; std::_Iosb<int>::_Stdio
PUBLIC	?adjustfield@?$_Iosb@H@std@@2W4_Fmtflags@12@B	; std::_Iosb<int>::adjustfield
PUBLIC	?basefield@?$_Iosb@H@std@@2W4_Fmtflags@12@B	; std::_Iosb<int>::basefield
PUBLIC	?floatfield@?$_Iosb@H@std@@2W4_Fmtflags@12@B	; std::_Iosb<int>::floatfield
PUBLIC	?goodbit@?$_Iosb@H@std@@2W4_Iostate@12@B	; std::_Iosb<int>::goodbit
PUBLIC	?eofbit@?$_Iosb@H@std@@2W4_Iostate@12@B		; std::_Iosb<int>::eofbit
PUBLIC	?GetEnvironmentVariableWThunk@ATL@@YGKPB_WPA_WK@Z ; ATL::GetEnvironmentVariableWThunk
PUBLIC	?failbit@?$_Iosb@H@std@@2W4_Iostate@12@B	; std::_Iosb<int>::failbit
PUBLIC	?badbit@?$_Iosb@H@std@@2W4_Iostate@12@B		; std::_Iosb<int>::badbit
PUBLIC	?_Hardfail@?$_Iosb@H@std@@2W4_Iostate@12@B	; std::_Iosb<int>::_Hardfail
PUBLIC	?_pAtlAutoThreadModule@ATL@@3PAUIAtlAutoThreadModule@1@A ; ATL::_pAtlAutoThreadModule
PUBLIC	?in@?$_Iosb@H@std@@2W4_Openmode@12@B		; std::_Iosb<int>::in
PUBLIC	?out@?$_Iosb@H@std@@2W4_Openmode@12@B		; std::_Iosb<int>::out
PUBLIC	?ate@?$_Iosb@H@std@@2W4_Openmode@12@B		; std::_Iosb<int>::ate
PUBLIC	_IID_IAxWinAmbientDispatchEx
PUBLIC	?app@?$_Iosb@H@std@@2W4_Openmode@12@B		; std::_Iosb<int>::app
PUBLIC	?trunc@?$_Iosb@H@std@@2W4_Openmode@12@B		; std::_Iosb<int>::trunc
PUBLIC	?_Nocreate@?$_Iosb@H@std@@2W4_Openmode@12@B	; std::_Iosb<int>::_Nocreate
PUBLIC	?_Noreplace@?$_Iosb@H@std@@2W4_Openmode@12@B	; std::_Iosb<int>::_Noreplace
PUBLIC	?binary@?$_Iosb@H@std@@2W4_Openmode@12@B	; std::_Iosb<int>::binary
PUBLIC	?CompareStringWThunk@ATL@@YGHKKPB_WH0H@Z	; ATL::CompareStringWThunk
PUBLIC	?beg@?$_Iosb@H@std@@2W4_Seekdir@12@B		; std::_Iosb<int>::beg
PUBLIC	_IID_IInternalConnection
PUBLIC	?cur@?$_Iosb@H@std@@2W4_Seekdir@12@B		; std::_Iosb<int>::cur
PUBLIC	?end@?$_Iosb@H@std@@2W4_Seekdir@12@B		; std::_Iosb<int>::end
PUBLIC	?GetStringTypeExWThunk@ATL@@YGHKKPB_WHPAG@Z	; ATL::GetStringTypeExWThunk
PUBLIC	?g_pfnGetThreadACP@ATL@@3P6GIXZA		; ATL::g_pfnGetThreadACP
PUBLIC	?_AtlGetThreadACPThunk@ATL@@YGIXZ		; ATL::_AtlGetThreadACPThunk
PUBLIC	?VT@?$CVarTypeInfo@D@ATL@@2GB			; ATL::CVarTypeInfo<char>::VT
PUBLIC	?pmField@?$CVarTypeInfo@D@ATL@@2QQtagVARIANT@@DQ3@ ; ATL::CVarTypeInfo<char>::pmField
PUBLIC	?lstrcmpiWThunk@ATL@@YGHPB_W0@Z			; ATL::lstrcmpiWThunk
PUBLIC	?VT@?$CVarTypeInfo@E@ATL@@2GB			; ATL::CVarTypeInfo<unsigned char>::VT
PUBLIC	?pmField@?$CVarTypeInfo@E@ATL@@2QQtagVARIANT@@EQ3@ ; ATL::CVarTypeInfo<unsigned char>::pmField
PUBLIC	?CharLowerWThunk@ATL@@YGPA_WPA_W@Z		; ATL::CharLowerWThunk
PUBLIC	?VT@?$CVarTypeInfo@PAD@ATL@@2GB			; ATL::CVarTypeInfo<char *>::VT
PUBLIC	?pmField@?$CVarTypeInfo@PAD@ATL@@2QQtagVARIANT@@PADQ3@ ; ATL::CVarTypeInfo<char *>::pmField
PUBLIC	?CharUpperWThunk@ATL@@YGPA_WPA_W@Z		; ATL::CharUpperWThunk
PUBLIC	?VT@?$CVarTypeInfo@PAE@ATL@@2GB			; ATL::CVarTypeInfo<unsigned char *>::VT
PUBLIC	?pmField@?$CVarTypeInfo@PAE@ATL@@2QQtagVARIANT@@PAEQ3@ ; ATL::CVarTypeInfo<unsigned char *>::pmField
PUBLIC	?VT@?$CVarTypeInfo@F@ATL@@2GB			; ATL::CVarTypeInfo<short>::VT
PUBLIC	?pmField@?$CVarTypeInfo@F@ATL@@2QQtagVARIANT@@FQ3@ ; ATL::CVarTypeInfo<short>::pmField
PUBLIC	?VT@?$CVarTypeInfo@PAF@ATL@@2GB			; ATL::CVarTypeInfo<short *>::VT
PUBLIC	?pmField@?$CVarTypeInfo@PAF@ATL@@2QQtagVARIANT@@PAFQ3@ ; ATL::CVarTypeInfo<short *>::pmField
PUBLIC	?VT@?$CVarTypeInfo@G@ATL@@2GB			; ATL::CVarTypeInfo<unsigned short>::VT
PUBLIC	?pmField@?$CVarTypeInfo@G@ATL@@2QQtagVARIANT@@GQ3@ ; ATL::CVarTypeInfo<unsigned short>::pmField
PUBLIC	?VT@?$CVarTypeInfo@PAG@ATL@@2GB			; ATL::CVarTypeInfo<unsigned short *>::VT
PUBLIC	?pmField@?$CVarTypeInfo@PAG@ATL@@2QQtagVARIANT@@PAGQ3@ ; ATL::CVarTypeInfo<unsigned short *>::pmField
PUBLIC	?VT@?$CVarTypeInfo@H@ATL@@2GB			; ATL::CVarTypeInfo<int>::VT
PUBLIC	?pmField@?$CVarTypeInfo@H@ATL@@2QQtagVARIANT@@HQ3@ ; ATL::CVarTypeInfo<int>::pmField
PUBLIC	?VT@?$CVarTypeInfo@PAH@ATL@@2GB			; ATL::CVarTypeInfo<int *>::VT
PUBLIC	?pmField@?$CVarTypeInfo@PAH@ATL@@2QQtagVARIANT@@PAHQ3@ ; ATL::CVarTypeInfo<int *>::pmField
PUBLIC	?VT@?$CVarTypeInfo@I@ATL@@2GB			; ATL::CVarTypeInfo<unsigned int>::VT
PUBLIC	?pmField@?$CVarTypeInfo@I@ATL@@2QQtagVARIANT@@IQ3@ ; ATL::CVarTypeInfo<unsigned int>::pmField
PUBLIC	?VT@?$CVarTypeInfo@PAI@ATL@@2GB			; ATL::CVarTypeInfo<unsigned int *>::VT
PUBLIC	?pmField@?$CVarTypeInfo@PAI@ATL@@2QQtagVARIANT@@PAIQ3@ ; ATL::CVarTypeInfo<unsigned int *>::pmField
PUBLIC	?VT@?$CVarTypeInfo@J@ATL@@2GB			; ATL::CVarTypeInfo<long>::VT
PUBLIC	?pmField@?$CVarTypeInfo@J@ATL@@2QQtagVARIANT@@JQ3@ ; ATL::CVarTypeInfo<long>::pmField
PUBLIC	?VT@?$CVarTypeInfo@PAJ@ATL@@2GB			; ATL::CVarTypeInfo<long *>::VT
PUBLIC	?pmField@?$CVarTypeInfo@PAJ@ATL@@2QQtagVARIANT@@PAJQ3@ ; ATL::CVarTypeInfo<long *>::pmField
PUBLIC	?VT@?$CVarTypeInfo@K@ATL@@2GB			; ATL::CVarTypeInfo<unsigned long>::VT
PUBLIC	?pmField@?$CVarTypeInfo@K@ATL@@2QQtagVARIANT@@KQ3@ ; ATL::CVarTypeInfo<unsigned long>::pmField
PUBLIC	?VT@?$CVarTypeInfo@PAK@ATL@@2GB			; ATL::CVarTypeInfo<unsigned long *>::VT
PUBLIC	?pmField@?$CVarTypeInfo@PAK@ATL@@2QQtagVARIANT@@PAKQ3@ ; ATL::CVarTypeInfo<unsigned long *>::pmField
PUBLIC	?VT@?$CVarTypeInfo@_J@ATL@@2GB			; ATL::CVarTypeInfo<__int64>::VT
PUBLIC	?pmField@?$CVarTypeInfo@_J@ATL@@2QQtagVARIANT@@_JQ3@ ; ATL::CVarTypeInfo<__int64>::pmField
PUBLIC	?VT@?$CVarTypeInfo@PA_J@ATL@@2GB		; ATL::CVarTypeInfo<__int64 *>::VT
PUBLIC	_CLSID_Registrar
PUBLIC	?pmField@?$CVarTypeInfo@PA_J@ATL@@2QQtagVARIANT@@PA_JQ3@ ; ATL::CVarTypeInfo<__int64 *>::pmField
PUBLIC	?VT@?$CVarTypeInfo@_K@ATL@@2GB			; ATL::CVarTypeInfo<unsigned __int64>::VT
PUBLIC	?pmField@?$CVarTypeInfo@_K@ATL@@2QQtagVARIANT@@_KQ3@ ; ATL::CVarTypeInfo<unsigned __int64>::pmField
PUBLIC	?VT@?$CVarTypeInfo@PA_K@ATL@@2GB		; ATL::CVarTypeInfo<unsigned __int64 *>::VT
PUBLIC	?pmField@?$CVarTypeInfo@PA_K@ATL@@2QQtagVARIANT@@PA_KQ3@ ; ATL::CVarTypeInfo<unsigned __int64 *>::pmField
PUBLIC	?VT@?$CVarTypeInfo@M@ATL@@2GB			; ATL::CVarTypeInfo<float>::VT
PUBLIC	_IID_IRegistrar
PUBLIC	?pmField@?$CVarTypeInfo@M@ATL@@2QQtagVARIANT@@MQ3@ ; ATL::CVarTypeInfo<float>::pmField
PUBLIC	?VT@?$CVarTypeInfo@PAM@ATL@@2GB			; ATL::CVarTypeInfo<float *>::VT
PUBLIC	?pmField@?$CVarTypeInfo@PAM@ATL@@2QQtagVARIANT@@PAMQ3@ ; ATL::CVarTypeInfo<float *>::pmField
PUBLIC	?VT@?$CVarTypeInfo@N@ATL@@2GB			; ATL::CVarTypeInfo<double>::VT
PUBLIC	?pmField@?$CVarTypeInfo@N@ATL@@2QQtagVARIANT@@NQ3@ ; ATL::CVarTypeInfo<double>::pmField
PUBLIC	?VT@?$CVarTypeInfo@PAN@ATL@@2GB			; ATL::CVarTypeInfo<double *>::VT
PUBLIC	?pmField@?$CVarTypeInfo@PAN@ATL@@2QQtagVARIANT@@PANQ3@ ; ATL::CVarTypeInfo<double *>::pmField
PUBLIC	?VT@?$CVarTypeInfo@UtagVARIANT@@@ATL@@2GB	; ATL::CVarTypeInfo<tagVARIANT>::VT
PUBLIC	?c_bIsMFCDLLTraits@?$_MFCDLLTraitsCheck@DV?$StrTraitATL@DV?$ChTraitsCRT@D@ATL@@@ATL@@@_CSTRING_IMPL_@ATL@@2_NB ; ATL::_CSTRING_IMPL_::_MFCDLLTraitsCheck<char,ATL::StrTraitATL<char,ATL::ChTraitsCRT<char> > >::c_bIsMFCDLLTraits
PUBLIC	?VT@?$CVarTypeInfo@PA_W@ATL@@2GB		; ATL::CVarTypeInfo<wchar_t *>::VT
PUBLIC	?pmField@?$CVarTypeInfo@PA_W@ATL@@2QQtagVARIANT@@PA_WQ3@ ; ATL::CVarTypeInfo<wchar_t *>::pmField
;	COMDAT ?_pAtlModule@ATL@@3PAVCAtlModule@1@A
_BSS	SEGMENT
?_pAtlModule@ATL@@3PAVCAtlModule@1@A DD 01H DUP (?)	; ATL::_pAtlModule
_BSS	ENDS
;	COMDAT ?m_libid@CAtlModule@ATL@@2U_GUID@@A
_BSS	SEGMENT
?m_libid@CAtlModule@ATL@@2U_GUID@@A DB 010H DUP (?)	; ATL::CAtlModule::m_libid
_BSS	ENDS
;	COMDAT ?_pModule@ATL@@3PAVCComModule@1@A
_BSS	SEGMENT
?_pModule@ATL@@3PAVCComModule@1@A DD 01H DUP (?)	; ATL::_pModule
_BSS	ENDS
;	COMDAT ?s_pLog@CFixedStringMgr@ATL@@2PAVIFixedStringLog@2@A
_BSS	SEGMENT
?s_pLog@CFixedStringMgr@ATL@@2PAVIFixedStringLog@2@A DD 01H DUP (?) ; ATL::CFixedStringMgr::s_pLog
_BSS	ENDS
;	COMDAT ?_pPerfRegFunc@ATL@@3P6AJPAUHINSTANCE__@@@ZA
_BSS	SEGMENT
?_pPerfRegFunc@ATL@@3P6AJPAUHINSTANCE__@@@ZA DD 01H DUP (?) ; ATL::_pPerfRegFunc
_BSS	ENDS
;	COMDAT ?_pPerfUnRegFunc@ATL@@3P6AJXZA
_BSS	SEGMENT
?_pPerfUnRegFunc@ATL@@3P6AJXZA DD 01H DUP (?)		; ATL::_pPerfUnRegFunc
_BSS	ENDS
;	COMDAT ?m_bInitFailed@CAtlBaseModule@ATL@@2_NA
_BSS	SEGMENT
?m_bInitFailed@CAtlBaseModule@ATL@@2_NA DB 01H DUP (?)	; ATL::CAtlBaseModule::m_bInitFailed
_BSS	ENDS
;	COMDAT ?ATL_CREATE_OBJECT@CComApartment@ATL@@2IA
_BSS	SEGMENT
?ATL_CREATE_OBJECT@CComApartment@ATL@@2IA DD 01H DUP (?) ; ATL::CComApartment::ATL_CREATE_OBJECT
_BSS	ENDS
;	COMDAT ?_pAtlAutoThreadModule@ATL@@3PAUIAtlAutoThreadModule@1@A
_BSS	SEGMENT
?_pAtlAutoThreadModule@ATL@@3PAUIAtlAutoThreadModule@1@A DD 01H DUP (?) ; ATL::_pAtlAutoThreadModule
_BSS	ENDS
;	COMDAT ?collate@?$_Locbase@H@std@@2HB
CONST	SEGMENT
?collate@?$_Locbase@H@std@@2HB DD 01H			; std::_Locbase<int>::collate
CONST	ENDS
;	COMDAT ?ctype@?$_Locbase@H@std@@2HB
CONST	SEGMENT
?ctype@?$_Locbase@H@std@@2HB DD 02H			; std::_Locbase<int>::ctype
CONST	ENDS
;	COMDAT ?monetary@?$_Locbase@H@std@@2HB
CONST	SEGMENT
?monetary@?$_Locbase@H@std@@2HB DD 04H			; std::_Locbase<int>::monetary
CONST	ENDS
;	COMDAT ?numeric@?$_Locbase@H@std@@2HB
CONST	SEGMENT
?numeric@?$_Locbase@H@std@@2HB DD 08H			; std::_Locbase<int>::numeric
CONST	ENDS
;	COMDAT ?time@?$_Locbase@H@std@@2HB
CONST	SEGMENT
?time@?$_Locbase@H@std@@2HB DD 010H			; std::_Locbase<int>::time
CONST	ENDS
;	COMDAT ?messages@?$_Locbase@H@std@@2HB
CONST	SEGMENT
?messages@?$_Locbase@H@std@@2HB DD 020H			; std::_Locbase<int>::messages
CONST	ENDS
;	COMDAT ?all@?$_Locbase@H@std@@2HB
CONST	SEGMENT
?all@?$_Locbase@H@std@@2HB DD 03fH			; std::_Locbase<int>::all
CONST	ENDS
;	COMDAT ?none@?$_Locbase@H@std@@2HB
CONST	SEGMENT
?none@?$_Locbase@H@std@@2HB DD 00H			; std::_Locbase<int>::none
CONST	ENDS
;	COMDAT ?skipws@?$_Iosb@H@std@@2W4_Fmtflags@12@B
CONST	SEGMENT
?skipws@?$_Iosb@H@std@@2W4_Fmtflags@12@B DD 01H		; std::_Iosb<int>::skipws
CONST	ENDS
;	COMDAT ?unitbuf@?$_Iosb@H@std@@2W4_Fmtflags@12@B
CONST	SEGMENT
?unitbuf@?$_Iosb@H@std@@2W4_Fmtflags@12@B DD 02H	; std::_Iosb<int>::unitbuf
CONST	ENDS
;	COMDAT ?uppercase@?$_Iosb@H@std@@2W4_Fmtflags@12@B
CONST	SEGMENT
?uppercase@?$_Iosb@H@std@@2W4_Fmtflags@12@B DD 04H	; std::_Iosb<int>::uppercase
CONST	ENDS
;	COMDAT ?showbase@?$_Iosb@H@std@@2W4_Fmtflags@12@B
CONST	SEGMENT
?showbase@?$_Iosb@H@std@@2W4_Fmtflags@12@B DD 08H	; std::_Iosb<int>::showbase
CONST	ENDS
;	COMDAT ?showpoint@?$_Iosb@H@std@@2W4_Fmtflags@12@B
CONST	SEGMENT
?showpoint@?$_Iosb@H@std@@2W4_Fmtflags@12@B DD 010H	; std::_Iosb<int>::showpoint
CONST	ENDS
;	COMDAT ?showpos@?$_Iosb@H@std@@2W4_Fmtflags@12@B
CONST	SEGMENT
?showpos@?$_Iosb@H@std@@2W4_Fmtflags@12@B DD 020H	; std::_Iosb<int>::showpos
CONST	ENDS
;	COMDAT ?left@?$_Iosb@H@std@@2W4_Fmtflags@12@B
CONST	SEGMENT
?left@?$_Iosb@H@std@@2W4_Fmtflags@12@B DD 040H		; std::_Iosb<int>::left
CONST	ENDS
;	COMDAT ?right@?$_Iosb@H@std@@2W4_Fmtflags@12@B
CONST	SEGMENT
?right@?$_Iosb@H@std@@2W4_Fmtflags@12@B DD 080H		; std::_Iosb<int>::right
CONST	ENDS
;	COMDAT ?internal@?$_Iosb@H@std@@2W4_Fmtflags@12@B
CONST	SEGMENT
?internal@?$_Iosb@H@std@@2W4_Fmtflags@12@B DD 0100H	; std::_Iosb<int>::internal
CONST	ENDS
;	COMDAT ?dec@?$_Iosb@H@std@@2W4_Fmtflags@12@B
CONST	SEGMENT
?dec@?$_Iosb@H@std@@2W4_Fmtflags@12@B DD 0200H		; std::_Iosb<int>::dec
CONST	ENDS
;	COMDAT ?oct@?$_Iosb@H@std@@2W4_Fmtflags@12@B
CONST	SEGMENT
?oct@?$_Iosb@H@std@@2W4_Fmtflags@12@B DD 0400H		; std::_Iosb<int>::oct
CONST	ENDS
;	COMDAT ?hex@?$_Iosb@H@std@@2W4_Fmtflags@12@B
CONST	SEGMENT
?hex@?$_Iosb@H@std@@2W4_Fmtflags@12@B DD 0800H		; std::_Iosb<int>::hex
CONST	ENDS
;	COMDAT ?scientific@?$_Iosb@H@std@@2W4_Fmtflags@12@B
CONST	SEGMENT
?scientific@?$_Iosb@H@std@@2W4_Fmtflags@12@B DD 01000H	; std::_Iosb<int>::scientific
CONST	ENDS
;	COMDAT ?fixed@?$_Iosb@H@std@@2W4_Fmtflags@12@B
CONST	SEGMENT
?fixed@?$_Iosb@H@std@@2W4_Fmtflags@12@B DD 02000H	; std::_Iosb<int>::fixed
CONST	ENDS
;	COMDAT ?boolalpha@?$_Iosb@H@std@@2W4_Fmtflags@12@B
CONST	SEGMENT
?boolalpha@?$_Iosb@H@std@@2W4_Fmtflags@12@B DD 04000H	; std::_Iosb<int>::boolalpha
CONST	ENDS
;	COMDAT ?_Stdio@?$_Iosb@H@std@@2W4_Fmtflags@12@B
CONST	SEGMENT
?_Stdio@?$_Iosb@H@std@@2W4_Fmtflags@12@B DD 08000H	; std::_Iosb<int>::_Stdio
CONST	ENDS
;	COMDAT ?adjustfield@?$_Iosb@H@std@@2W4_Fmtflags@12@B
CONST	SEGMENT
?adjustfield@?$_Iosb@H@std@@2W4_Fmtflags@12@B DD 01c0H	; std::_Iosb<int>::adjustfield
CONST	ENDS
;	COMDAT ?basefield@?$_Iosb@H@std@@2W4_Fmtflags@12@B
CONST	SEGMENT
?basefield@?$_Iosb@H@std@@2W4_Fmtflags@12@B DD 0e00H	; std::_Iosb<int>::basefield
CONST	ENDS
;	COMDAT ?floatfield@?$_Iosb@H@std@@2W4_Fmtflags@12@B
CONST	SEGMENT
?floatfield@?$_Iosb@H@std@@2W4_Fmtflags@12@B DD 03000H	; std::_Iosb<int>::floatfield
CONST	ENDS
;	COMDAT ?goodbit@?$_Iosb@H@std@@2W4_Iostate@12@B
CONST	SEGMENT
?goodbit@?$_Iosb@H@std@@2W4_Iostate@12@B DD 00H		; std::_Iosb<int>::goodbit
CONST	ENDS
;	COMDAT ?eofbit@?$_Iosb@H@std@@2W4_Iostate@12@B
CONST	SEGMENT
?eofbit@?$_Iosb@H@std@@2W4_Iostate@12@B DD 01H		; std::_Iosb<int>::eofbit
CONST	ENDS
;	COMDAT ?failbit@?$_Iosb@H@std@@2W4_Iostate@12@B
CONST	SEGMENT
?failbit@?$_Iosb@H@std@@2W4_Iostate@12@B DD 02H		; std::_Iosb<int>::failbit
CONST	ENDS
;	COMDAT ?badbit@?$_Iosb@H@std@@2W4_Iostate@12@B
CONST	SEGMENT
?badbit@?$_Iosb@H@std@@2W4_Iostate@12@B DD 04H		; std::_Iosb<int>::badbit
CONST	ENDS
;	COMDAT ?_Hardfail@?$_Iosb@H@std@@2W4_Iostate@12@B
CONST	SEGMENT
?_Hardfail@?$_Iosb@H@std@@2W4_Iostate@12@B DD 010H	; std::_Iosb<int>::_Hardfail
CONST	ENDS
;	COMDAT ?in@?$_Iosb@H@std@@2W4_Openmode@12@B
CONST	SEGMENT
?in@?$_Iosb@H@std@@2W4_Openmode@12@B DD 01H		; std::_Iosb<int>::in
CONST	ENDS
;	COMDAT ?out@?$_Iosb@H@std@@2W4_Openmode@12@B
CONST	SEGMENT
?out@?$_Iosb@H@std@@2W4_Openmode@12@B DD 02H		; std::_Iosb<int>::out
CONST	ENDS
;	COMDAT ?ate@?$_Iosb@H@std@@2W4_Openmode@12@B
CONST	SEGMENT
?ate@?$_Iosb@H@std@@2W4_Openmode@12@B DD 04H		; std::_Iosb<int>::ate
CONST	ENDS
;	COMDAT ?app@?$_Iosb@H@std@@2W4_Openmode@12@B
CONST	SEGMENT
?app@?$_Iosb@H@std@@2W4_Openmode@12@B DD 08H		; std::_Iosb<int>::app
CONST	ENDS
;	COMDAT ?trunc@?$_Iosb@H@std@@2W4_Openmode@12@B
CONST	SEGMENT
?trunc@?$_Iosb@H@std@@2W4_Openmode@12@B DD 010H		; std::_Iosb<int>::trunc
CONST	ENDS
;	COMDAT ?_Nocreate@?$_Iosb@H@std@@2W4_Openmode@12@B
CONST	SEGMENT
?_Nocreate@?$_Iosb@H@std@@2W4_Openmode@12@B DD 040H	; std::_Iosb<int>::_Nocreate
CONST	ENDS
;	COMDAT ?_Noreplace@?$_Iosb@H@std@@2W4_Openmode@12@B
CONST	SEGMENT
?_Noreplace@?$_Iosb@H@std@@2W4_Openmode@12@B DD 080H	; std::_Iosb<int>::_Noreplace
CONST	ENDS
;	COMDAT ?binary@?$_Iosb@H@std@@2W4_Openmode@12@B
CONST	SEGMENT
?binary@?$_Iosb@H@std@@2W4_Openmode@12@B DD 020H	; std::_Iosb<int>::binary
CONST	ENDS
;	COMDAT ?beg@?$_Iosb@H@std@@2W4_Seekdir@12@B
CONST	SEGMENT
?beg@?$_Iosb@H@std@@2W4_Seekdir@12@B DD 00H		; std::_Iosb<int>::beg
CONST	ENDS
;	COMDAT ?cur@?$_Iosb@H@std@@2W4_Seekdir@12@B
CONST	SEGMENT
?cur@?$_Iosb@H@std@@2W4_Seekdir@12@B DD 01H		; std::_Iosb<int>::cur
CONST	ENDS
;	COMDAT ?end@?$_Iosb@H@std@@2W4_Seekdir@12@B
CONST	SEGMENT
?end@?$_Iosb@H@std@@2W4_Seekdir@12@B DD 02H		; std::_Iosb<int>::end
CONST	ENDS
CONST	SEGMENT
$SG65516 DB	'YPLAYBOX', 00H
CONST	ENDS
_DATA	SEGMENT
_g_szSoftName DD FLAT:$SG65516
_DATA	ENDS
CONST	SEGMENT
	ORG $+3
$SG65518 DB	'SOFTWARE\YPLAYBOX', 00H
CONST	ENDS
_DATA	SEGMENT
_STR_REG_SOFT DD FLAT:$SG65518
_DATA	ENDS
CONST	SEGMENT
	ORG $+2
$SG65520 DB	'S', 00H, 'O', 00H, 'F', 00H, 'T', 00H, 'W', 00H, 'A', 00H
	DB	'R', 00H, 'E', 00H, '\', 00H, 'Y', 00H, 'P', 00H, 'L', 00H, 'A'
	DB	00H, 'Y', 00H, 'B', 00H, 'O', 00H, 'X', 00H, 00H, 00H
CONST	ENDS
_DATA	SEGMENT
_STR_WCHAR_REG_SOFT DD FLAT:$SG65520
_DATA	ENDS
CONST	SEGMENT
$SG65522 DB	'SOFTWARE\YPLAYBOX\LOGMSG', 00H
CONST	ENDS
_DATA	SEGMENT
_STR_REG_SOFT_MSG DD FLAT:$SG65522
_DATA	ENDS
CONST	SEGMENT
	ORG $+3
$SG65524 DB	'SOFTWARE\YPLAYBOX\UPDATE', 00H
CONST	ENDS
_DATA	SEGMENT
_STR_REG_UPDATE DD FLAT:$SG65524
_DATA	ENDS
CONST	SEGMENT
	ORG $+3
$SG65526 DB	'SOFTWARE\YPLAYBOX\BHO', 00H
CONST	ENDS
_DATA	SEGMENT
_STR_REG_BHO DD	FLAT:$SG65526
_DATA	ENDS
CONST	SEGMENT
	ORG $+2
$SG65528 DB	'path', 00H
CONST	ENDS
_DATA	SEGMENT
_STR_SOFT_HOME_KEY DD FLAT:$SG65528
_DATA	ENDS
;	COMDAT ?g_pfnGetThreadACP@ATL@@3P6GIXZA
_DATA	SEGMENT
?g_pfnGetThreadACP@ATL@@3P6GIXZA DD FLAT:?_AtlGetThreadACPThunk@ATL@@YGIXZ ; ATL::g_pfnGetThreadACP
_DATA	ENDS
;	COMDAT ?VT@?$CVarTypeInfo@D@ATL@@2GB
CONST	SEGMENT
?VT@?$CVarTypeInfo@D@ATL@@2GB DW 010H			; ATL::CVarTypeInfo<char>::VT
CONST	ENDS
;	COMDAT ?pmField@?$CVarTypeInfo@D@ATL@@2QQtagVARIANT@@DQ3@
CONST	SEGMENT
?pmField@?$CVarTypeInfo@D@ATL@@2QQtagVARIANT@@DQ3@ DD 08H ; ATL::CVarTypeInfo<char>::pmField
CONST	ENDS
;	COMDAT ?VT@?$CVarTypeInfo@E@ATL@@2GB
CONST	SEGMENT
?VT@?$CVarTypeInfo@E@ATL@@2GB DW 011H			; ATL::CVarTypeInfo<unsigned char>::VT
CONST	ENDS
;	COMDAT ?pmField@?$CVarTypeInfo@E@ATL@@2QQtagVARIANT@@EQ3@
CONST	SEGMENT
?pmField@?$CVarTypeInfo@E@ATL@@2QQtagVARIANT@@EQ3@ DD 08H ; ATL::CVarTypeInfo<unsigned char>::pmField
CONST	ENDS
;	COMDAT ?VT@?$CVarTypeInfo@PAD@ATL@@2GB
CONST	SEGMENT
?VT@?$CVarTypeInfo@PAD@ATL@@2GB DW 04010H		; ATL::CVarTypeInfo<char *>::VT
CONST	ENDS
;	COMDAT ?pmField@?$CVarTypeInfo@PAD@ATL@@2QQtagVARIANT@@PADQ3@
CONST	SEGMENT
?pmField@?$CVarTypeInfo@PAD@ATL@@2QQtagVARIANT@@PADQ3@ DD 08H ; ATL::CVarTypeInfo<char *>::pmField
CONST	ENDS
;	COMDAT ?VT@?$CVarTypeInfo@PAE@ATL@@2GB
CONST	SEGMENT
?VT@?$CVarTypeInfo@PAE@ATL@@2GB DW 04011H		; ATL::CVarTypeInfo<unsigned char *>::VT
CONST	ENDS
;	COMDAT ?pmField@?$CVarTypeInfo@PAE@ATL@@2QQtagVARIANT@@PAEQ3@
CONST	SEGMENT
?pmField@?$CVarTypeInfo@PAE@ATL@@2QQtagVARIANT@@PAEQ3@ DD 08H ; ATL::CVarTypeInfo<unsigned char *>::pmField
CONST	ENDS
;	COMDAT ?VT@?$CVarTypeInfo@F@ATL@@2GB
CONST	SEGMENT
?VT@?$CVarTypeInfo@F@ATL@@2GB DW 02H			; ATL::CVarTypeInfo<short>::VT
CONST	ENDS
;	COMDAT ?pmField@?$CVarTypeInfo@F@ATL@@2QQtagVARIANT@@FQ3@
CONST	SEGMENT
?pmField@?$CVarTypeInfo@F@ATL@@2QQtagVARIANT@@FQ3@ DD 08H ; ATL::CVarTypeInfo<short>::pmField
CONST	ENDS
;	COMDAT ?VT@?$CVarTypeInfo@PAF@ATL@@2GB
CONST	SEGMENT
?VT@?$CVarTypeInfo@PAF@ATL@@2GB DW 04002H		; ATL::CVarTypeInfo<short *>::VT
CONST	ENDS
;	COMDAT ?pmField@?$CVarTypeInfo@PAF@ATL@@2QQtagVARIANT@@PAFQ3@
CONST	SEGMENT
?pmField@?$CVarTypeInfo@PAF@ATL@@2QQtagVARIANT@@PAFQ3@ DD 08H ; ATL::CVarTypeInfo<short *>::pmField
CONST	ENDS
;	COMDAT ?VT@?$CVarTypeInfo@G@ATL@@2GB
CONST	SEGMENT
?VT@?$CVarTypeInfo@G@ATL@@2GB DW 012H			; ATL::CVarTypeInfo<unsigned short>::VT
CONST	ENDS
;	COMDAT ?pmField@?$CVarTypeInfo@G@ATL@@2QQtagVARIANT@@GQ3@
CONST	SEGMENT
?pmField@?$CVarTypeInfo@G@ATL@@2QQtagVARIANT@@GQ3@ DD 08H ; ATL::CVarTypeInfo<unsigned short>::pmField
CONST	ENDS
;	COMDAT ?VT@?$CVarTypeInfo@PAG@ATL@@2GB
CONST	SEGMENT
?VT@?$CVarTypeInfo@PAG@ATL@@2GB DW 04012H		; ATL::CVarTypeInfo<unsigned short *>::VT
CONST	ENDS
;	COMDAT ?pmField@?$CVarTypeInfo@PAG@ATL@@2QQtagVARIANT@@PAGQ3@
CONST	SEGMENT
?pmField@?$CVarTypeInfo@PAG@ATL@@2QQtagVARIANT@@PAGQ3@ DD 08H ; ATL::CVarTypeInfo<unsigned short *>::pmField
CONST	ENDS
;	COMDAT ?VT@?$CVarTypeInfo@H@ATL@@2GB
CONST	SEGMENT
?VT@?$CVarTypeInfo@H@ATL@@2GB DW 03H			; ATL::CVarTypeInfo<int>::VT
CONST	ENDS
;	COMDAT ?pmField@?$CVarTypeInfo@H@ATL@@2QQtagVARIANT@@HQ3@
CONST	SEGMENT
?pmField@?$CVarTypeInfo@H@ATL@@2QQtagVARIANT@@HQ3@ DD 08H ; ATL::CVarTypeInfo<int>::pmField
CONST	ENDS
;	COMDAT ?VT@?$CVarTypeInfo@PAH@ATL@@2GB
CONST	SEGMENT
?VT@?$CVarTypeInfo@PAH@ATL@@2GB DW 04003H		; ATL::CVarTypeInfo<int *>::VT
CONST	ENDS
;	COMDAT ?pmField@?$CVarTypeInfo@PAH@ATL@@2QQtagVARIANT@@PAHQ3@
CONST	SEGMENT
?pmField@?$CVarTypeInfo@PAH@ATL@@2QQtagVARIANT@@PAHQ3@ DD 08H ; ATL::CVarTypeInfo<int *>::pmField
CONST	ENDS
;	COMDAT ?VT@?$CVarTypeInfo@I@ATL@@2GB
CONST	SEGMENT
?VT@?$CVarTypeInfo@I@ATL@@2GB DW 013H			; ATL::CVarTypeInfo<unsigned int>::VT
CONST	ENDS
;	COMDAT ?pmField@?$CVarTypeInfo@I@ATL@@2QQtagVARIANT@@IQ3@
CONST	SEGMENT
?pmField@?$CVarTypeInfo@I@ATL@@2QQtagVARIANT@@IQ3@ DD 08H ; ATL::CVarTypeInfo<unsigned int>::pmField
CONST	ENDS
;	COMDAT ?VT@?$CVarTypeInfo@PAI@ATL@@2GB
CONST	SEGMENT
?VT@?$CVarTypeInfo@PAI@ATL@@2GB DW 04013H		; ATL::CVarTypeInfo<unsigned int *>::VT
CONST	ENDS
;	COMDAT ?pmField@?$CVarTypeInfo@PAI@ATL@@2QQtagVARIANT@@PAIQ3@
CONST	SEGMENT
?pmField@?$CVarTypeInfo@PAI@ATL@@2QQtagVARIANT@@PAIQ3@ DD 08H ; ATL::CVarTypeInfo<unsigned int *>::pmField
CONST	ENDS
;	COMDAT ?VT@?$CVarTypeInfo@J@ATL@@2GB
CONST	SEGMENT
?VT@?$CVarTypeInfo@J@ATL@@2GB DW 03H			; ATL::CVarTypeInfo<long>::VT
CONST	ENDS
;	COMDAT ?pmField@?$CVarTypeInfo@J@ATL@@2QQtagVARIANT@@JQ3@
CONST	SEGMENT
?pmField@?$CVarTypeInfo@J@ATL@@2QQtagVARIANT@@JQ3@ DD 08H ; ATL::CVarTypeInfo<long>::pmField
CONST	ENDS
;	COMDAT ?VT@?$CVarTypeInfo@PAJ@ATL@@2GB
CONST	SEGMENT
?VT@?$CVarTypeInfo@PAJ@ATL@@2GB DW 04003H		; ATL::CVarTypeInfo<long *>::VT
CONST	ENDS
;	COMDAT ?pmField@?$CVarTypeInfo@PAJ@ATL@@2QQtagVARIANT@@PAJQ3@
CONST	SEGMENT
?pmField@?$CVarTypeInfo@PAJ@ATL@@2QQtagVARIANT@@PAJQ3@ DD 08H ; ATL::CVarTypeInfo<long *>::pmField
CONST	ENDS
;	COMDAT ?VT@?$CVarTypeInfo@K@ATL@@2GB
CONST	SEGMENT
?VT@?$CVarTypeInfo@K@ATL@@2GB DW 013H			; ATL::CVarTypeInfo<unsigned long>::VT
CONST	ENDS
;	COMDAT ?pmField@?$CVarTypeInfo@K@ATL@@2QQtagVARIANT@@KQ3@
CONST	SEGMENT
?pmField@?$CVarTypeInfo@K@ATL@@2QQtagVARIANT@@KQ3@ DD 08H ; ATL::CVarTypeInfo<unsigned long>::pmField
CONST	ENDS
;	COMDAT ?VT@?$CVarTypeInfo@PAK@ATL@@2GB
CONST	SEGMENT
?VT@?$CVarTypeInfo@PAK@ATL@@2GB DW 04013H		; ATL::CVarTypeInfo<unsigned long *>::VT
CONST	ENDS
;	COMDAT ?pmField@?$CVarTypeInfo@PAK@ATL@@2QQtagVARIANT@@PAKQ3@
CONST	SEGMENT
?pmField@?$CVarTypeInfo@PAK@ATL@@2QQtagVARIANT@@PAKQ3@ DD 08H ; ATL::CVarTypeInfo<unsigned long *>::pmField
CONST	ENDS
;	COMDAT ?VT@?$CVarTypeInfo@_J@ATL@@2GB
CONST	SEGMENT
?VT@?$CVarTypeInfo@_J@ATL@@2GB DW 014H			; ATL::CVarTypeInfo<__int64>::VT
CONST	ENDS
;	COMDAT ?pmField@?$CVarTypeInfo@_J@ATL@@2QQtagVARIANT@@_JQ3@
CONST	SEGMENT
?pmField@?$CVarTypeInfo@_J@ATL@@2QQtagVARIANT@@_JQ3@ DD 08H ; ATL::CVarTypeInfo<__int64>::pmField
CONST	ENDS
;	COMDAT ?VT@?$CVarTypeInfo@PA_J@ATL@@2GB
CONST	SEGMENT
?VT@?$CVarTypeInfo@PA_J@ATL@@2GB DW 04014H		; ATL::CVarTypeInfo<__int64 *>::VT
CONST	ENDS
;	COMDAT ?pmField@?$CVarTypeInfo@PA_J@ATL@@2QQtagVARIANT@@PA_JQ3@
CONST	SEGMENT
?pmField@?$CVarTypeInfo@PA_J@ATL@@2QQtagVARIANT@@PA_JQ3@ DD 08H ; ATL::CVarTypeInfo<__int64 *>::pmField
CONST	ENDS
;	COMDAT ?VT@?$CVarTypeInfo@_K@ATL@@2GB
CONST	SEGMENT
?VT@?$CVarTypeInfo@_K@ATL@@2GB DW 015H			; ATL::CVarTypeInfo<unsigned __int64>::VT
CONST	ENDS
;	COMDAT ?pmField@?$CVarTypeInfo@_K@ATL@@2QQtagVARIANT@@_KQ3@
CONST	SEGMENT
?pmField@?$CVarTypeInfo@_K@ATL@@2QQtagVARIANT@@_KQ3@ DD 08H ; ATL::CVarTypeInfo<unsigned __int64>::pmField
CONST	ENDS
;	COMDAT ?VT@?$CVarTypeInfo@PA_K@ATL@@2GB
CONST	SEGMENT
?VT@?$CVarTypeInfo@PA_K@ATL@@2GB DW 04015H		; ATL::CVarTypeInfo<unsigned __int64 *>::VT
CONST	ENDS
;	COMDAT ?pmField@?$CVarTypeInfo@PA_K@ATL@@2QQtagVARIANT@@PA_KQ3@
CONST	SEGMENT
?pmField@?$CVarTypeInfo@PA_K@ATL@@2QQtagVARIANT@@PA_KQ3@ DD 08H ; ATL::CVarTypeInfo<unsigned __int64 *>::pmField
CONST	ENDS
;	COMDAT ?VT@?$CVarTypeInfo@M@ATL@@2GB
CONST	SEGMENT
?VT@?$CVarTypeInfo@M@ATL@@2GB DW 04H			; ATL::CVarTypeInfo<float>::VT
CONST	ENDS
;	COMDAT ?pmField@?$CVarTypeInfo@M@ATL@@2QQtagVARIANT@@MQ3@
CONST	SEGMENT
?pmField@?$CVarTypeInfo@M@ATL@@2QQtagVARIANT@@MQ3@ DD 08H ; ATL::CVarTypeInfo<float>::pmField
CONST	ENDS
;	COMDAT ?VT@?$CVarTypeInfo@PAM@ATL@@2GB
CONST	SEGMENT
?VT@?$CVarTypeInfo@PAM@ATL@@2GB DW 04004H		; ATL::CVarTypeInfo<float *>::VT
CONST	ENDS
;	COMDAT ?pmField@?$CVarTypeInfo@PAM@ATL@@2QQtagVARIANT@@PAMQ3@
CONST	SEGMENT
?pmField@?$CVarTypeInfo@PAM@ATL@@2QQtagVARIANT@@PAMQ3@ DD 08H ; ATL::CVarTypeInfo<float *>::pmField
CONST	ENDS
;	COMDAT ?VT@?$CVarTypeInfo@N@ATL@@2GB
CONST	SEGMENT
?VT@?$CVarTypeInfo@N@ATL@@2GB DW 05H			; ATL::CVarTypeInfo<double>::VT
CONST	ENDS
;	COMDAT ?pmField@?$CVarTypeInfo@N@ATL@@2QQtagVARIANT@@NQ3@
CONST	SEGMENT
?pmField@?$CVarTypeInfo@N@ATL@@2QQtagVARIANT@@NQ3@ DD 08H ; ATL::CVarTypeInfo<double>::pmField
CONST	ENDS
;	COMDAT ?VT@?$CVarTypeInfo@PAN@ATL@@2GB
CONST	SEGMENT
?VT@?$CVarTypeInfo@PAN@ATL@@2GB DW 04005H		; ATL::CVarTypeInfo<double *>::VT
CONST	ENDS
;	COMDAT ?pmField@?$CVarTypeInfo@PAN@ATL@@2QQtagVARIANT@@PANQ3@
CONST	SEGMENT
?pmField@?$CVarTypeInfo@PAN@ATL@@2QQtagVARIANT@@PANQ3@ DD 08H ; ATL::CVarTypeInfo<double *>::pmField
CONST	ENDS
;	COMDAT ?VT@?$CVarTypeInfo@UtagVARIANT@@@ATL@@2GB
CONST	SEGMENT
?VT@?$CVarTypeInfo@UtagVARIANT@@@ATL@@2GB DW 0cH	; ATL::CVarTypeInfo<tagVARIANT>::VT
CONST	ENDS
;	COMDAT ?VT@?$CVarTypeInfo@PA_W@ATL@@2GB
CONST	SEGMENT
?VT@?$CVarTypeInfo@PA_W@ATL@@2GB DW 08H			; ATL::CVarTypeInfo<wchar_t *>::VT
CONST	ENDS
;	COMDAT ?pmField@?$CVarTypeInfo@PA_W@ATL@@2QQtagVARIANT@@PA_WQ3@
CONST	SEGMENT
?pmField@?$CVarTypeInfo@PA_W@ATL@@2QQtagVARIANT@@PA_WQ3@ DD 08H ; ATL::CVarTypeInfo<wchar_t *>::pmField
CONST	ENDS
;	COMDAT ?VT@?$CVarTypeInfo@PAPA_W@ATL@@2GB
CONST	SEGMENT
?VT@?$CVarTypeInfo@PAPA_W@ATL@@2GB DW 04008H		; ATL::CVarTypeInfo<wchar_t * *>::VT
CONST	ENDS
;	COMDAT ?pmField@?$CVarTypeInfo@PAPA_W@ATL@@2QQtagVARIANT@@PAPA_WQ3@
CONST	SEGMENT
?pmField@?$CVarTypeInfo@PAPA_W@ATL@@2QQtagVARIANT@@PAPA_WQ3@ DD 08H ; ATL::CVarTypeInfo<wchar_t * *>::pmField
CONST	ENDS
;	COMDAT ?VT@?$CVarTypeInfo@PAUIUnknown@@@ATL@@2GB
CONST	SEGMENT
?VT@?$CVarTypeInfo@PAUIUnknown@@@ATL@@2GB DW 0dH	; ATL::CVarTypeInfo<IUnknown *>::VT
CONST	ENDS
;	COMDAT ?pmField@?$CVarTypeInfo@PAUIUnknown@@@ATL@@2QQtagVARIANT@@PAUIUnknown@@Q3@
CONST	SEGMENT
?pmField@?$CVarTypeInfo@PAUIUnknown@@@ATL@@2QQtagVARIANT@@PAUIUnknown@@Q3@ DD 08H ; ATL::CVarTypeInfo<IUnknown *>::pmField
CONST	ENDS
;	COMDAT ?VT@?$CVarTypeInfo@PAPAUIUnknown@@@ATL@@2GB
CONST	SEGMENT
?VT@?$CVarTypeInfo@PAPAUIUnknown@@@ATL@@2GB DW 0400dH	; ATL::CVarTypeInfo<IUnknown * *>::VT
CONST	ENDS
;	COMDAT ?pmField@?$CVarTypeInfo@PAPAUIUnknown@@@ATL@@2QQtagVARIANT@@PAPAUIUnknown@@Q3@
CONST	SEGMENT
?pmField@?$CVarTypeInfo@PAPAUIUnknown@@@ATL@@2QQtagVARIANT@@PAPAUIUnknown@@Q3@ DD 08H ; ATL::CVarTypeInfo<IUnknown * *>::pmField
CONST	ENDS
;	COMDAT ?VT@?$CVarTypeInfo@PAUIDispatch@@@ATL@@2GB
CONST	SEGMENT
?VT@?$CVarTypeInfo@PAUIDispatch@@@ATL@@2GB DW 09H	; ATL::CVarTypeInfo<IDispatch *>::VT
CONST	ENDS
;	COMDAT ?pmField@?$CVarTypeInfo@PAUIDispatch@@@ATL@@2QQtagVARIANT@@PAUIDispatch@@Q3@
CONST	SEGMENT
?pmField@?$CVarTypeInfo@PAUIDispatch@@@ATL@@2QQtagVARIANT@@PAUIDispatch@@Q3@ DD 08H ; ATL::CVarTypeInfo<IDispatch *>::pmField
CONST	ENDS
;	COMDAT ?VT@?$CVarTypeInfo@PAPAUIDispatch@@@ATL@@2GB
CONST	SEGMENT
?VT@?$CVarTypeInfo@PAPAUIDispatch@@@ATL@@2GB DW 04009H	; ATL::CVarTypeInfo<IDispatch * *>::VT
CONST	ENDS
;	COMDAT ?pmField@?$CVarTypeInfo@PAPAUIDispatch@@@ATL@@2QQtagVARIANT@@PAPAUIDispatch@@Q3@
CONST	SEGMENT
?pmField@?$CVarTypeInfo@PAPAUIDispatch@@@ATL@@2QQtagVARIANT@@PAPAUIDispatch@@Q3@ DD 08H ; ATL::CVarTypeInfo<IDispatch * *>::pmField
CONST	ENDS
;	COMDAT ?VT@?$CVarTypeInfo@TtagCY@@@ATL@@2GB
CONST	SEGMENT
?VT@?$CVarTypeInfo@TtagCY@@@ATL@@2GB DW 06H		; ATL::CVarTypeInfo<tagCY>::VT
CONST	ENDS
;	COMDAT ?pmField@?$CVarTypeInfo@TtagCY@@@ATL@@2QQtagVARIANT@@TtagCY@@Q3@
CONST	SEGMENT
?pmField@?$CVarTypeInfo@TtagCY@@@ATL@@2QQtagVARIANT@@TtagCY@@Q3@ DD 08H ; ATL::CVarTypeInfo<tagCY>::pmField
CONST	ENDS
;	COMDAT ?VT@?$CVarTypeInfo@PATtagCY@@@ATL@@2GB
CONST	SEGMENT
?VT@?$CVarTypeInfo@PATtagCY@@@ATL@@2GB DW 04006H	; ATL::CVarTypeInfo<tagCY *>::VT
CONST	ENDS
;	COMDAT ?pmField@?$CVarTypeInfo@PATtagCY@@@ATL@@2QQtagVARIANT@@PATtagCY@@Q3@
CONST	SEGMENT
?pmField@?$CVarTypeInfo@PATtagCY@@@ATL@@2QQtagVARIANT@@PATtagCY@@Q3@ DD 08H ; ATL::CVarTypeInfo<tagCY *>::pmField
CONST	ENDS
;	COMDAT _LIBID_ATLLib
CONST	SEGMENT
_LIBID_ATLLib DD 044ec0535H
	DW	0400fH
	DW	011d0H
	DB	09dH
	DB	0cdH
	DB	00H
	DB	0a0H
	DB	0c9H
	DB	03H
	DB	091H
	DB	0d3H
CONST	ENDS
;	COMDAT _CLSID_Registrar
CONST	SEGMENT
_CLSID_Registrar DD 044ec053aH
	DW	0400fH
	DW	011d0H
	DB	09dH
	DB	0cdH
	DB	00H
	DB	0a0H
	DB	0c9H
	DB	03H
	DB	091H
	DB	0d3H
CONST	ENDS
;	COMDAT _IID_IRegistrar
CONST	SEGMENT
_IID_IRegistrar DD 044ec053bH
	DW	0400fH
	DW	011d0H
	DB	09dH
	DB	0cdH
	DB	00H
	DB	0a0H
	DB	0c9H
	DB	03H
	DB	091H
	DB	0d3H
CONST	ENDS
;	COMDAT _IID_IAxWinHostWindow
CONST	SEGMENT
_IID_IAxWinHostWindow DD 0b6ea2050H
	DW	048aH
	DW	011d1H
	DB	082H
	DB	0b9H
	DB	00H
	DB	0c0H
	DB	04fH
	DB	0b9H
	DB	094H
	DB	02eH
CONST	ENDS
;	COMDAT _IID_IAxWinAmbientDispatch
CONST	SEGMENT
_IID_IAxWinAmbientDispatch DD 0b6ea2051H
	DW	048aH
	DW	011d1H
	DB	082H
	DB	0b9H
	DB	00H
	DB	0c0H
	DB	04fH
	DB	0b9H
	DB	094H
	DB	02eH
CONST	ENDS
;	COMDAT _IID_IInternalConnection
CONST	SEGMENT
_IID_IInternalConnection DD 072ad0770H
	DW	06a9fH
	DW	011d1H
	DB	0bcH
	DB	0ecH
	DB	00H
	DB	060H
	DB	08H
	DB	08fH
	DB	044H
	DB	04eH
CONST	ENDS
;	COMDAT _IID_IDocHostUIHandlerDispatch
CONST	SEGMENT
_IID_IDocHostUIHandlerDispatch DD 0425b5af0H
	DW	065f1H
	DW	011d1H
	DB	096H
	DB	011H
	DB	00H
	DB	00H
	DB	0f8H
	DB	01eH
	DB	0dH
	DB	0dH
CONST	ENDS
;	COMDAT _IID_IAxWinHostWindowLic
CONST	SEGMENT
_IID_IAxWinHostWindowLic DD 03935bda8H
	DW	04ed9H
	DW	0495cH
	DB	086H
	DB	050H
	DB	0e0H
	DB	01fH
	DB	0c1H
	DB	0e3H
	DB	08aH
	DB	04bH
CONST	ENDS
;	COMDAT _IID_IAxWinAmbientDispatchEx
CONST	SEGMENT
_IID_IAxWinAmbientDispatchEx DD 0b2d0778bH
	DW	0ac99H
	DW	04c58H
	DB	0a5H
	DB	0c8H
	DB	0e7H
	DB	072H
	DB	04eH
	DB	053H
	DB	016H
	DB	0b5H
CONST	ENDS
;	COMDAT _CLSID_StdGlobalInterfaceTable
CONST	SEGMENT
_CLSID_StdGlobalInterfaceTable DD 0323H
	DW	00H
	DW	00H
	DB	0c0H
	DB	00H
	DB	00H
	DB	00H
	DB	00H
	DB	00H
	DB	00H
	DB	046H
CONST	ENDS
;	COMDAT ___pobjMapEntryFirst
ATL$__a	SEGMENT
___pobjMapEntryFirst DD 00H
ATL$__a	ENDS
;	COMDAT ___pobjMapEntryLast
ATL$__z	SEGMENT
___pobjMapEntryLast DD 00H
ATL$__z	ENDS
CONST	SEGMENT
	ORG $+3
$SG78221 DB	'S', 00H
	ORG $+2
_szStringVal DD	FLAT:$SG78221
$SG78223 DB	'M', 00H
	ORG $+2
_multiszStringVal DD FLAT:$SG78223
$SG78225 DB	'D', 00H
	ORG $+2
_szDwordVal DD	FLAT:$SG78225
$SG78227 DB	'B', 00H
	ORG $+2
_szBinaryVal DD	FLAT:$SG78227
$SG78229 DB	'Val', 00H
_szValToken DD	FLAT:$SG78229
$SG78231 DB	'ForceRemove', 00H
_szForceRemove DD FLAT:$SG78231
$SG78233 DB	'NoRemove', 00H
	ORG $+3
_szNoRemove DD	FLAT:$SG78233
$SG78235 DB	'Delete', 00H
	ORG $+1
_szDelete DD	FLAT:$SG78235
CONST	ENDS
;	COMDAT ?MAX_VALUE@CRegParser@ATL@@1HB
CONST	SEGMENT
?MAX_VALUE@CRegParser@ATL@@1HB DD 01000H		; ATL::CRegParser::MAX_VALUE
CONST	ENDS
;	COMDAT ?MAX_TYPE@CRegParser@ATL@@1HB
CONST	SEGMENT
?MAX_TYPE@CRegParser@ATL@@1HB DD 01000H			; ATL::CRegParser::MAX_TYPE
CONST	ENDS
CONST	SEGMENT
$SG78864 DB	'AppID', 00H
	ORG $+2
$SG78865 DB	'CLSID', 00H
	ORG $+2
$SG78866 DB	'Component Categories', 00H
	ORG $+3
$SG78867 DB	'FileType', 00H
	ORG $+3
$SG78868 DB	'Interface', 00H
	ORG $+2
$SG78869 DB	'Hardware', 00H
	ORG $+3
$SG78870 DB	'Mime', 00H
	ORG $+3
$SG78871 DB	'SAM', 00H
$SG78872 DB	'SECURITY', 00H
	ORG $+3
$SG78873 DB	'SYSTEM', 00H
	ORG $+1
$SG78874 DB	'Software', 00H
	ORG $+3
$SG78875 DB	'TypeLib', 00H
CONST	ENDS
;	COMDAT ?rgszNeverDelete@CRegParser@ATL@@1QBQBDB
CONST	SEGMENT
?rgszNeverDelete@CRegParser@ATL@@1QBQBDB DD FLAT:$SG78864 ; ATL::CRegParser::rgszNeverDelete
	DD	FLAT:$SG78865
	DD	FLAT:$SG78866
	DD	FLAT:$SG78867
	DD	FLAT:$SG78868
	DD	FLAT:$SG78869
	DD	FLAT:$SG78870
	DD	FLAT:$SG78871
	DD	FLAT:$SG78872
	DD	FLAT:$SG78873
	DD	FLAT:$SG78874
	DD	FLAT:$SG78875
CONST	ENDS
;	COMDAT ?cbNeverDelete@CRegParser@ATL@@1HB
CONST	SEGMENT
?cbNeverDelete@CRegParser@ATL@@1HB DD 0cH		; ATL::CRegParser::cbNeverDelete
CONST	ENDS
;	COMDAT ?_strthunks@ATL@@3U_AtlStringThunks@1@A
_DATA	SEGMENT
?_strthunks@ATL@@3U_AtlStringThunks@1@A DD FLAT:?CompareStringWThunk@ATL@@YGHKKPB_WH0H@Z ; ATL::_strthunks
	DD	FLAT:?GetStringTypeExWThunk@ATL@@YGHKKPB_WHPAG@Z
	DD	FLAT:?lstrcmpiWThunk@ATL@@YGHPB_W0@Z
	DD	FLAT:?CharLowerWThunk@ATL@@YGPA_WPA_W@Z
	DD	FLAT:?CharUpperWThunk@ATL@@YGPA_WPA_W@Z
	DD	FLAT:?GetEnvironmentVariableWThunk@ATL@@YGKPB_WPA_WK@Z
_DATA	ENDS
;	COMDAT ?c_bIsMFCDLLTraits@?$_MFCDLLTraitsCheck@DV?$StrTraitATL@DV?$ChTraitsCRT@D@ATL@@@ATL@@@_CSTRING_IMPL_@ATL@@2_NB
CONST	SEGMENT
?c_bIsMFCDLLTraits@?$_MFCDLLTraitsCheck@DV?$StrTraitATL@DV?$ChTraitsCRT@D@ATL@@@ATL@@@_CSTRING_IMPL_@ATL@@2_NB DB 00H ; ATL::_CSTRING_IMPL_::_MFCDLLTraitsCheck<char,ATL::StrTraitATL<char,ATL::ChTraitsCRT<char> > >::c_bIsMFCDLLTraits
CONST	ENDS
;	COMDAT ?c_bIsMFCDLLTraits@?$_MFCDLLTraitsCheck@_WV?$StrTraitATL@_WV?$ChTraitsCRT@_W@ATL@@@ATL@@@_CSTRING_IMPL_@ATL@@2_NB
CONST	SEGMENT
?c_bIsMFCDLLTraits@?$_MFCDLLTraitsCheck@_WV?$StrTraitATL@_WV?$ChTraitsCRT@_W@ATL@@@ATL@@@_CSTRING_IMPL_@ATL@@2_NB DB 00H ; ATL::_CSTRING_IMPL_::_MFCDLLTraitsCheck<wchar_t,ATL::StrTraitATL<wchar_t,ATL::ChTraitsCRT<wchar_t> > >::c_bIsMFCDLLTraits
CONST	ENDS
CONST	SEGMENT
$SG84276 DB	'A', 00H
	ORG $+2
$SG84290 DB	'young', 00H
	ORG $+2
$SG84298 DB	'young', 00H
	ORG $+2
$SG84326 DB	'\Resources\Profiles\conf.ini', 00H
$SG84383 DB	00H
$SG84448 DB	00H
	ORG $+1
$SG84478 DB	'%s', 00H
CONST	ENDS
PUBLIC	?InterlockedExchangePointer@@YGPAXPAPAXPAX@Z	; InterlockedExchangePointer
PUBLIC	?_AtlGetThreadACPFake@ATL@@YGIXZ		; ATL::_AtlGetThreadACPFake
PUBLIC	?_AtlGetThreadACPReal@ATL@@YGIXZ		; ATL::_AtlGetThreadACPReal
EXTRN	__imp__GetVersionExA@4:NEAR
EXTRN	___security_cookie:DWORD
EXTRN	@__security_check_cookie@4:NEAR
; Function compile flags: /Odt
; File d:\program files (x86)\microsoft visual studio .net 2003\vc7\atlmfc\include\atlconv.h
;	COMDAT ?_AtlGetThreadACPThunk@ATL@@YGIXZ
_TEXT	SEGMENT
_pfnGetThreadACP$ = -164				; size = 4
_ver$ = -160						; size = 148
__$ArrayPad$ = -4					; size = 4
__$ReturnAddr$ = 4					; size = 4
?_AtlGetThreadACPThunk@ATL@@YGIXZ PROC NEAR		; ATL::_AtlGetThreadACPThunk, COMDAT

; 134  : {

  00000	55		 push	 ebp
  00001	8b ec		 mov	 ebp, esp
  00003	81 ec a4 00 00
	00		 sub	 esp, 164		; 000000a4H
  00009	a1 00 00 00 00	 mov	 eax, DWORD PTR ___security_cookie
  0000e	89 45 fc	 mov	 DWORD PTR __$ArrayPad$[ebp], eax

; 135  : 	OSVERSIONINFO ver;
; 136  : 	ATLGETTHREADACP pfnGetThreadACP;
; 137  : 
; 138  : 	ver.dwOSVersionInfoSize = sizeof( ver );

  00011	c7 85 60 ff ff
	ff 94 00 00 00	 mov	 DWORD PTR _ver$[ebp], 148 ; 00000094H

; 139  : 	::GetVersionEx( &ver );

  0001b	8d 85 60 ff ff
	ff		 lea	 eax, DWORD PTR _ver$[ebp]
  00021	50		 push	 eax
  00022	ff 15 00 00 00
	00		 call	 DWORD PTR __imp__GetVersionExA@4

; 140  : 	if( (ver.dwPlatformId == VER_PLATFORM_WIN32_NT) && (ver.dwMajorVersion >= 5) )

  00028	83 bd 70 ff ff
	ff 02		 cmp	 DWORD PTR _ver$[ebp+16], 2
  0002f	75 15		 jne	 SHORT $L66281
  00031	83 bd 64 ff ff
	ff 05		 cmp	 DWORD PTR _ver$[ebp+4], 5
  00038	72 0c		 jb	 SHORT $L66281

; 141  : 	{
; 142  : 		// On Win2K, CP_THREAD_ACP is supported
; 143  : 		pfnGetThreadACP = _AtlGetThreadACPReal;

  0003a	c7 85 5c ff ff
	ff 00 00 00 00	 mov	 DWORD PTR _pfnGetThreadACP$[ebp], OFFSET FLAT:?_AtlGetThreadACPReal@ATL@@YGIXZ ; ATL::_AtlGetThreadACPReal

; 144  : 	}
; 145  : 	else

  00044	eb 0a		 jmp	 SHORT $L66282
$L66281:

; 146  : 	{
; 147  : 		pfnGetThreadACP = _AtlGetThreadACPFake;

  00046	c7 85 5c ff ff
	ff 00 00 00 00	 mov	 DWORD PTR _pfnGetThreadACP$[ebp], OFFSET FLAT:?_AtlGetThreadACPFake@ATL@@YGIXZ ; ATL::_AtlGetThreadACPFake
$L66282:

; 148  : 	}
; 149  : 	InterlockedExchangePointer( reinterpret_cast< void** >(&g_pfnGetThreadACP), pfnGetThreadACP );

  00050	8b 8d 5c ff ff
	ff		 mov	 ecx, DWORD PTR _pfnGetThreadACP$[ebp]
  00056	51		 push	 ecx
  00057	68 00 00 00 00	 push	 OFFSET FLAT:?g_pfnGetThreadACP@ATL@@3P6GIXZA ; ATL::g_pfnGetThreadACP
  0005c	e8 00 00 00 00	 call	 ?InterlockedExchangePointer@@YGPAXPAPAXPAX@Z ; InterlockedExchangePointer

; 150  : 
; 151  : 	return( g_pfnGetThreadACP() );

  00061	ff 15 00 00 00
	00		 call	 DWORD PTR ?g_pfnGetThreadACP@ATL@@3P6GIXZA ; ATL::g_pfnGetThreadACP

; 152  : }

  00067	8b 4d fc	 mov	 ecx, DWORD PTR __$ArrayPad$[ebp]
  0006a	e8 00 00 00 00	 call	 @__security_check_cookie@4
  0006f	8b e5		 mov	 esp, ebp
  00071	5d		 pop	 ebp
  00072	c3		 ret	 0
?_AtlGetThreadACPThunk@ATL@@YGIXZ ENDP			; ATL::_AtlGetThreadACPThunk
_TEXT	ENDS
EXTRN	__imp__InterlockedExchange@8:NEAR
; Function compile flags: /Odt
;	COMDAT ?InterlockedExchangePointer@@YGPAXPAPAXPAX@Z
_TEXT	SEGMENT
_pp$ = 8						; size = 4
_pNew$ = 12						; size = 4
?InterlockedExchangePointer@@YGPAXPAPAXPAX@Z PROC NEAR	; InterlockedExchangePointer, COMDAT

; 91   : {

  00000	55		 push	 ebp
  00001	8b ec		 mov	 ebp, esp

; 92   : 	return( reinterpret_cast<void*>(static_cast<LONG_PTR>(::InterlockedExchange(reinterpret_cast<LONG*>(pp), static_cast<LONG>(reinterpret_cast<LONG_PTR>(pNew))))) );

  00003	8b 45 0c	 mov	 eax, DWORD PTR _pNew$[ebp]
  00006	50		 push	 eax
  00007	8b 4d 08	 mov	 ecx, DWORD PTR _pp$[ebp]
  0000a	51		 push	 ecx
  0000b	ff 15 00 00 00
	00		 call	 DWORD PTR __imp__InterlockedExchange@8

; 93   : }

  00011	5d		 pop	 ebp
  00012	c2 08 00	 ret	 8
?InterlockedExchangePointer@@YGPAXPAPAXPAX@Z ENDP	; InterlockedExchangePointer
_TEXT	ENDS
EXTRN	__imp__GetACP@0:NEAR
EXTRN	__imp__GetLocaleInfoA@16:NEAR
EXTRN	__imp__GetThreadLocale@0:NEAR
; Function compile flags: /Odt
;	COMDAT ?_AtlGetThreadACPFake@ATL@@YGIXZ
_TEXT	SEGMENT
_pch$66269 = -24					; size = 4
_lcidThread$ = -20					; size = 4
_szACP$ = -16						; size = 7
__$ArrayPad$ = -8					; size = 4
_nACP$ = -4						; size = 4
__$ReturnAddr$ = 4					; size = 4
?_AtlGetThreadACPFake@ATL@@YGIXZ PROC NEAR		; ATL::_AtlGetThreadACPFake, COMDAT

; 101  : {

  00000	55		 push	 ebp
  00001	8b ec		 mov	 ebp, esp
  00003	83 ec 18	 sub	 esp, 24			; 00000018H
  00006	a1 00 00 00 00	 mov	 eax, DWORD PTR ___security_cookie
  0000b	89 45 f8	 mov	 DWORD PTR __$ArrayPad$[ebp], eax

; 102  : 	UINT nACP = 0;

  0000e	c7 45 fc 00 00
	00 00		 mov	 DWORD PTR _nACP$[ebp], 0

; 103  : 
; 104  : 	LCID lcidThread = ::GetThreadLocale();

  00015	ff 15 00 00 00
	00		 call	 DWORD PTR __imp__GetThreadLocale@0
  0001b	89 45 ec	 mov	 DWORD PTR _lcidThread$[ebp], eax

; 105  : 
; 106  : 	char szACP[7];
; 107  : 	// GetLocaleInfoA will fail for a Unicode-only LCID, but those are only supported on 
; 108  : 	// Windows 2000.  Since Windows 2000 supports CP_THREAD_ACP, this code path is never
; 109  : 	// executed on Windows 2000.
; 110  : 	if (::GetLocaleInfoA(lcidThread, LOCALE_IDEFAULTANSICODEPAGE, szACP, 7) != 0)

  0001e	6a 07		 push	 7
  00020	8d 45 f0	 lea	 eax, DWORD PTR _szACP$[ebp]
  00023	50		 push	 eax
  00024	68 04 10 00 00	 push	 4100			; 00001004H
  00029	8b 4d ec	 mov	 ecx, DWORD PTR _lcidThread$[ebp]
  0002c	51		 push	 ecx
  0002d	ff 15 00 00 00
	00		 call	 DWORD PTR __imp__GetLocaleInfoA@16
  00033	85 c0		 test	 eax, eax
  00035	74 34		 je	 SHORT $L66268

; 111  : 	{
; 112  : 		char* pch = szACP;

  00037	8d 55 f0	 lea	 edx, DWORD PTR _szACP$[ebp]
  0003a	89 55 e8	 mov	 DWORD PTR _pch$66269[ebp], edx
$L66271:

; 113  : 		while (*pch != '\0')

  0003d	8b 45 e8	 mov	 eax, DWORD PTR _pch$66269[ebp]
  00040	0f be 08	 movsx	 ecx, BYTE PTR [eax]
  00043	85 c9		 test	 ecx, ecx
  00045	74 24		 je	 SHORT $L66268

; 114  : 		{
; 115  : 			nACP *= 10;

  00047	8b 55 fc	 mov	 edx, DWORD PTR _nACP$[ebp]
  0004a	6b d2 0a	 imul	 edx, 10			; 0000000aH
  0004d	89 55 fc	 mov	 DWORD PTR _nACP$[ebp], edx

; 116  : 			nACP += *pch++ - '0';

  00050	8b 45 e8	 mov	 eax, DWORD PTR _pch$66269[ebp]
  00053	0f be 08	 movsx	 ecx, BYTE PTR [eax]
  00056	8b 55 fc	 mov	 edx, DWORD PTR _nACP$[ebp]
  00059	8d 44 0a d0	 lea	 eax, DWORD PTR [edx+ecx-48]
  0005d	89 45 fc	 mov	 DWORD PTR _nACP$[ebp], eax
  00060	8b 4d e8	 mov	 ecx, DWORD PTR _pch$66269[ebp]
  00063	83 c1 01	 add	 ecx, 1
  00066	89 4d e8	 mov	 DWORD PTR _pch$66269[ebp], ecx

; 117  : 		}

  00069	eb d2		 jmp	 SHORT $L66271
$L66268:

; 118  : 	}
; 119  : 	// Use the Default ANSI Code Page if we were unable to get the thread ACP or if one does not exist.
; 120  : 	if (nACP == 0)

  0006b	83 7d fc 00	 cmp	 DWORD PTR _nACP$[ebp], 0
  0006f	75 09		 jne	 SHORT $L66273

; 121  : 		nACP = ::GetACP();

  00071	ff 15 00 00 00
	00		 call	 DWORD PTR __imp__GetACP@0
  00077	89 45 fc	 mov	 DWORD PTR _nACP$[ebp], eax
$L66273:

; 122  : 
; 123  : 	return nACP;

  0007a	8b 45 fc	 mov	 eax, DWORD PTR _nACP$[ebp]

; 124  : }

  0007d	8b 4d f8	 mov	 ecx, DWORD PTR __$ArrayPad$[ebp]
  00080	e8 00 00 00 00	 call	 @__security_check_cookie@4
  00085	8b e5		 mov	 esp, ebp
  00087	5d		 pop	 ebp
  00088	c3		 ret	 0
?_AtlGetThreadACPFake@ATL@@YGIXZ ENDP			; ATL::_AtlGetThreadACPFake
; Function compile flags: /Odt
_TEXT	ENDS
;	COMDAT ?_AtlGetThreadACPReal@ATL@@YGIXZ
_TEXT	SEGMENT
?_AtlGetThreadACPReal@ATL@@YGIXZ PROC NEAR		; ATL::_AtlGetThreadACPReal, COMDAT

; 127  : {

  00000	55		 push	 ebp
  00001	8b ec		 mov	 ebp, esp

; 128  : 	return( CP_THREAD_ACP );

  00003	b8 03 00 00 00	 mov	 eax, 3

; 129  : }

  00008	5d		 pop	 ebp
  00009	c3		 ret	 0
?_AtlGetThreadACPReal@ATL@@YGIXZ ENDP			; ATL::_AtlGetThreadACPReal
_TEXT	ENDS
PUBLIC	?_AtlInstallStringThunk@ATL@@YAXPAPAXPAX1@Z	; ATL::_AtlInstallStringThunk
PUBLIC	?GetEnvironmentVariableWFake@ATL@@YGKPB_WPA_WK@Z ; ATL::GetEnvironmentVariableWFake
EXTRN	__imp__GetEnvironmentVariableW@12:NEAR
; Function compile flags: /Odt
; File d:\program files (x86)\microsoft visual studio .net 2003\vc7\atlmfc\include\cstringt.h
;	COMDAT ?GetEnvironmentVariableWThunk@ATL@@YGKPB_WPA_WK@Z
_TEXT	SEGMENT
_pszName$ = 8						; size = 4
_pszBuffer$ = 12					; size = 4
_nSize$ = 16						; size = 4
?GetEnvironmentVariableWThunk@ATL@@YGKPB_WPA_WK@Z PROC NEAR ; ATL::GetEnvironmentVariableWThunk, COMDAT

; 183  : {

  00000	55		 push	 ebp
  00001	8b ec		 mov	 ebp, esp

; 184  : 	_AtlInstallStringThunk(reinterpret_cast<void**>(&_strthunks.pfnGetEnvironmentVariableW), 
; 185  : 		GetEnvironmentVariableWFake, ::GetEnvironmentVariableW);

  00003	a1 00 00 00 00	 mov	 eax, DWORD PTR __imp__GetEnvironmentVariableW@12
  00008	50		 push	 eax
  00009	68 00 00 00 00	 push	 OFFSET FLAT:?GetEnvironmentVariableWFake@ATL@@YGKPB_WPA_WK@Z ; ATL::GetEnvironmentVariableWFake
  0000e	68 14 00 00 00	 push	 OFFSET FLAT:?_strthunks@ATL@@3U_AtlStringThunks@1@A+20
  00013	e8 00 00 00 00	 call	 ?_AtlInstallStringThunk@ATL@@YAXPAPAXPAX1@Z ; ATL::_AtlInstallStringThunk
  00018	83 c4 0c	 add	 esp, 12			; 0000000cH

; 186  : 
; 187  : 	return _strthunks.pfnGetEnvironmentVariableW(pszName, pszBuffer, nSize);

  0001b	8b 4d 10	 mov	 ecx, DWORD PTR _nSize$[ebp]
  0001e	51		 push	 ecx
  0001f	8b 55 0c	 mov	 edx, DWORD PTR _pszBuffer$[ebp]
  00022	52		 push	 edx
  00023	8b 45 08	 mov	 eax, DWORD PTR _pszName$[ebp]
  00026	50		 push	 eax
  00027	ff 15 14 00 00
	00		 call	 DWORD PTR ?_strthunks@ATL@@3U_AtlStringThunks@1@A+20

; 188  : }

  0002d	5d		 pop	 ebp
  0002e	c2 0c 00	 ret	 12			; 0000000cH
?GetEnvironmentVariableWThunk@ATL@@YGKPB_WPA_WK@Z ENDP	; ATL::GetEnvironmentVariableWThunk
_TEXT	ENDS
PUBLIC	?s_bWin9x@?1??_AtlInstallStringThunk@ATL@@YAXPAPAXPAX1@Z@4_NA ; `ATL::_AtlInstallStringThunk'::`2'::s_bWin9x
PUBLIC	??_B?1??_AtlInstallStringThunk@ATL@@YAXPAPAXPAX1@Z@51 ; `ATL::_AtlInstallStringThunk'::`2'::`local static guard'
EXTRN	__imp__GetVersion@0:NEAR
;	COMDAT ?s_bWin9x@?1??_AtlInstallStringThunk@ATL@@YAXPAPAXPAX1@Z@4_NA
_BSS	SEGMENT
?s_bWin9x@?1??_AtlInstallStringThunk@ATL@@YAXPAPAXPAX1@Z@4_NA DB 01H DUP (?) ; `ATL::_AtlInstallStringThunk'::`2'::s_bWin9x
_BSS	ENDS
;	COMDAT ??_B?1??_AtlInstallStringThunk@ATL@@YAXPAPAXPAX1@Z@51
_BSS	SEGMENT
??_B?1??_AtlInstallStringThunk@ATL@@YAXPAPAXPAX1@Z@51 DD 01H DUP (?) ; `ATL::_AtlInstallStringThunk'::`2'::`local static guard'
; Function compile flags: /Odt
_BSS	ENDS
;	COMDAT ?_AtlInstallStringThunk@ATL@@YAXPAPAXPAX1@Z
_TEXT	SEGMENT
_pfn$ = -4						; size = 4
_ppThunk$ = 8						; size = 4
_pfnWin9x$ = 12						; size = 4
_pfnNT$ = 16						; size = 4
?_AtlInstallStringThunk@ATL@@YAXPAPAXPAX1@Z PROC NEAR	; ATL::_AtlInstallStringThunk, COMDAT

; 115  : {

  00000	55		 push	 ebp
  00001	8b ec		 mov	 ebp, esp
  00003	51		 push	 ecx

; 116  : #pragma warning (push)
; 117  : #pragma warning (disable : 4640)	// construction of local static object is not thread-safe
; 118  : 
; 119  : 	static bool s_bWin9x = (::GetVersion()&0x80000000) != 0;

  00004	a1 00 00 00 00	 mov	 eax, DWORD PTR ??_B?1??_AtlInstallStringThunk@ATL@@YAXPAPAXPAX1@Z@51
  00009	83 e0 01	 and	 eax, 1
  0000c	75 25		 jne	 SHORT $L81489
  0000e	8b 0d 00 00 00
	00		 mov	 ecx, DWORD PTR ??_B?1??_AtlInstallStringThunk@ATL@@YAXPAPAXPAX1@Z@51
  00014	83 c9 01	 or	 ecx, 1
  00017	89 0d 00 00 00
	00		 mov	 DWORD PTR ??_B?1??_AtlInstallStringThunk@ATL@@YAXPAPAXPAX1@Z@51, ecx
  0001d	ff 15 00 00 00
	00		 call	 DWORD PTR __imp__GetVersion@0
  00023	25 00 00 00 80	 and	 eax, -2147483648	; 80000000H
  00028	f7 d8		 neg	 eax
  0002a	1b c0		 sbb	 eax, eax
  0002c	f7 d8		 neg	 eax
  0002e	a2 00 00 00 00	 mov	 BYTE PTR ?s_bWin9x@?1??_AtlInstallStringThunk@ATL@@YAXPAPAXPAX1@Z@4_NA, al ; `ATL::_AtlInstallStringThunk'::`2'::s_bWin9x
$L81489:

; 120  : 	
; 121  : #pragma warning (pop)
; 122  : 
; 123  : 	void* pfn;
; 124  : 	if (s_bWin9x)

  00033	0f b6 15 00 00
	00 00		 movzx	 edx, BYTE PTR ?s_bWin9x@?1??_AtlInstallStringThunk@ATL@@YAXPAPAXPAX1@Z@4_NA ; `ATL::_AtlInstallStringThunk'::`2'::s_bWin9x
  0003a	85 d2		 test	 edx, edx
  0003c	74 08		 je	 SHORT $L81491

; 125  : 		pfn = pfnWin9x;

  0003e	8b 45 0c	 mov	 eax, DWORD PTR _pfnWin9x$[ebp]
  00041	89 45 fc	 mov	 DWORD PTR _pfn$[ebp], eax

; 126  : 	else

  00044	eb 06		 jmp	 SHORT $L81492
$L81491:

; 127  : 	{
; 128  : #ifdef _CSTRING_ALWAYS_THUNK
; 129  : 		pfn = pfnWin9x;
; 130  : 		(void)pfnNT;
; 131  : #else
; 132  : 		pfn = pfnNT;

  00046	8b 4d 10	 mov	 ecx, DWORD PTR _pfnNT$[ebp]
  00049	89 4d fc	 mov	 DWORD PTR _pfn$[ebp], ecx
$L81492:

; 133  : #endif
; 134  : 	}
; 135  : 	InterlockedExchangePointer(ppThunk, pfn);

  0004c	8b 55 fc	 mov	 edx, DWORD PTR _pfn$[ebp]
  0004f	52		 push	 edx
  00050	8b 45 08	 mov	 eax, DWORD PTR _ppThunk$[ebp]
  00053	50		 push	 eax
  00054	e8 00 00 00 00	 call	 ?InterlockedExchangePointer@@YGPAXPAPAXPAX@Z ; InterlockedExchangePointer

; 136  : }

  00059	8b e5		 mov	 esp, ebp
  0005b	5d		 pop	 ebp
  0005c	c3		 ret	 0
?_AtlInstallStringThunk@ATL@@YAXPAPAXPAX1@Z ENDP	; ATL::_AtlInstallStringThunk
_TEXT	ENDS
PUBLIC	??0?$CTempBuffer@D$0IA@VCCRTAllocator@ATL@@@ATL@@QAE@XZ ; ATL::CTempBuffer<char,128,ATL::CCRTAllocator>::CTempBuffer<char,128,ATL::CCRTAllocator>
PUBLIC	??1?$CTempBuffer@D$0IA@VCCRTAllocator@ATL@@@ATL@@QAE@XZ ; ATL::CTempBuffer<char,128,ATL::CCRTAllocator>::~CTempBuffer<char,128,ATL::CCRTAllocator>
PUBLIC	??B?$CTempBuffer@D$0IA@VCCRTAllocator@ATL@@@ATL@@QBEPADXZ ; ATL::CTempBuffer<char,128,ATL::CCRTAllocator>::operator char *
PUBLIC	?Allocate@?$CTempBuffer@D$0IA@VCCRTAllocator@ATL@@@ATL@@QAEPADI@Z ; ATL::CTempBuffer<char,128,ATL::CCRTAllocator>::Allocate
PUBLIC	??0?$CW2AEX@$0IA@@ATL@@QAE@PB_W@Z		; ATL::CW2AEX<128>::CW2AEX<128>
PUBLIC	??1?$CW2AEX@$0IA@@ATL@@QAE@XZ			; ATL::CW2AEX<128>::~CW2AEX<128>
PUBLIC	??B?$CW2AEX@$0IA@@ATL@@QBEPADXZ			; ATL::CW2AEX<128>::operator char *
PUBLIC	?_AtlGetConversionACP@ATL@@YGIXZ		; ATL::_AtlGetConversionACP
EXTRN	__imp__GetEnvironmentVariableA@12:NEAR
EXTRN	__imp__MultiByteToWideChar@24:NEAR
EXTRN	__except_list:DWORD
EXTRN	___CxxFrameHandler:NEAR
;	COMDAT xdata$x
xdata$x	SEGMENT
$T89903	DD	0ffffffffH
	DD	FLAT:$L89894
	DD	00H
	DD	FLAT:$L89895
$T89899	DD	019930520H
	DD	02H
	DD	FLAT:$T89903
	DD	2 DUP(00H)
	DD	2 DUP(00H)
; Function compile flags: /Odt
xdata$x	ENDS
;	COMDAT ?GetEnvironmentVariableWFake@ATL@@YGKPB_WPA_WK@Z
_TEXT	SEGMENT
$T89893 = -312						; size = 4
$T89892 = -308						; size = 4
$T89891 = -304						; size = 4
_pszBufferA$ = -300					; size = 132
_nSizeW$ = -160						; size = 4
_pszNameA$ = -156					; size = 132
__$ArrayPad$ = -20					; size = 4
_nSizeA$ = -16						; size = 4
__$EHRec$ = -12						; size = 12
__$ReturnAddr$ = 4					; size = 4
_pszName$ = 8						; size = 4
_pszBuffer$ = 12					; size = 4
_nSize$ = 16						; size = 4
?GetEnvironmentVariableWFake@ATL@@YGKPB_WPA_WK@Z PROC NEAR ; ATL::GetEnvironmentVariableWFake, COMDAT

; 159  : {

  00000	55		 push	 ebp
  00001	8b ec		 mov	 ebp, esp
  00003	6a ff		 push	 -1
  00005	68 00 00 00 00	 push	 __ehhandler$?GetEnvironmentVariableWFake@ATL@@YGKPB_WPA_WK@Z
  0000a	64 a1 00 00 00
	00		 mov	 eax, DWORD PTR fs:__except_list
  00010	50		 push	 eax
  00011	64 89 25 00 00
	00 00		 mov	 DWORD PTR fs:__except_list, esp
  00018	81 ec 2c 01 00
	00		 sub	 esp, 300		; 0000012cH
  0001e	a1 00 00 00 00	 mov	 eax, DWORD PTR ___security_cookie
  00023	89 45 ec	 mov	 DWORD PTR __$ArrayPad$[ebp], eax

; 160  : 	ULONG nSizeA;
; 161  : 	ULONG nSizeW;
; 162  : 	CTempBuffer<char> pszBufferA;

  00026	8d 8d d4 fe ff
	ff		 lea	 ecx, DWORD PTR _pszBufferA$[ebp]
  0002c	e8 00 00 00 00	 call	 ??0?$CTempBuffer@D$0IA@VCCRTAllocator@ATL@@@ATL@@QAE@XZ ; ATL::CTempBuffer<char,128,ATL::CCRTAllocator>::CTempBuffer<char,128,ATL::CCRTAllocator>
  00031	c7 45 fc 00 00
	00 00		 mov	 DWORD PTR __$EHRec$[ebp+8], 0

; 163  : 	CW2A pszNameA(pszName);

  00038	8b 45 08	 mov	 eax, DWORD PTR _pszName$[ebp]
  0003b	50		 push	 eax
  0003c	8d 8d 64 ff ff
	ff		 lea	 ecx, DWORD PTR _pszNameA$[ebp]
  00042	e8 00 00 00 00	 call	 ??0?$CW2AEX@$0IA@@ATL@@QAE@PB_W@Z ; ATL::CW2AEX<128>::CW2AEX<128>
  00047	c6 45 fc 01	 mov	 BYTE PTR __$EHRec$[ebp+8], 1

; 164  : 
; 165  : 	nSizeA = ::GetEnvironmentVariableA(pszNameA, NULL, 0);

  0004b	6a 00		 push	 0
  0004d	6a 00		 push	 0
  0004f	8d 8d 64 ff ff
	ff		 lea	 ecx, DWORD PTR _pszNameA$[ebp]
  00055	e8 00 00 00 00	 call	 ??B?$CW2AEX@$0IA@@ATL@@QBEPADXZ ; ATL::CW2AEX<128>::operator char *
  0005a	50		 push	 eax
  0005b	ff 15 00 00 00
	00		 call	 DWORD PTR __imp__GetEnvironmentVariableA@12
  00061	89 45 f0	 mov	 DWORD PTR _nSizeA$[ebp], eax

; 166  : 	if (nSizeA == 0)

  00064	83 7d f0 00	 cmp	 DWORD PTR _nSizeA$[ebp], 0
  00068	75 36		 jne	 SHORT $L81563

; 167  : 		return 0;

  0006a	c7 85 d0 fe ff
	ff 00 00 00 00	 mov	 DWORD PTR $T89891[ebp], 0
  00074	c6 45 fc 00	 mov	 BYTE PTR __$EHRec$[ebp+8], 0
  00078	8d 8d 64 ff ff
	ff		 lea	 ecx, DWORD PTR _pszNameA$[ebp]
  0007e	e8 00 00 00 00	 call	 ??1?$CW2AEX@$0IA@@ATL@@QAE@XZ ; ATL::CW2AEX<128>::~CW2AEX<128>
  00083	c7 45 fc ff ff
	ff ff		 mov	 DWORD PTR __$EHRec$[ebp+8], -1
  0008a	8d 8d d4 fe ff
	ff		 lea	 ecx, DWORD PTR _pszBufferA$[ebp]
  00090	e8 00 00 00 00	 call	 ??1?$CTempBuffer@D$0IA@VCCRTAllocator@ATL@@@ATL@@QAE@XZ ; ATL::CTempBuffer<char,128,ATL::CCRTAllocator>::~CTempBuffer<char,128,ATL::CCRTAllocator>
  00095	8b 85 d0 fe ff
	ff		 mov	 eax, DWORD PTR $T89891[ebp]
  0009b	e9 ee 00 00 00	 jmp	 $L81535
$L81563:

; 168  : 
; 169  : 	pszBufferA.Allocate(nSizeA*2);

  000a0	8b 4d f0	 mov	 ecx, DWORD PTR _nSizeA$[ebp]
  000a3	d1 e1		 shl	 ecx, 1
  000a5	51		 push	 ecx
  000a6	8d 8d d4 fe ff
	ff		 lea	 ecx, DWORD PTR _pszBufferA$[ebp]
  000ac	e8 00 00 00 00	 call	 ?Allocate@?$CTempBuffer@D$0IA@VCCRTAllocator@ATL@@@ATL@@QAEPADI@Z ; ATL::CTempBuffer<char,128,ATL::CCRTAllocator>::Allocate

; 170  : 	::GetEnvironmentVariableA(pszNameA, pszBufferA, nSizeA);

  000b1	8b 55 f0	 mov	 edx, DWORD PTR _nSizeA$[ebp]
  000b4	52		 push	 edx
  000b5	8d 8d d4 fe ff
	ff		 lea	 ecx, DWORD PTR _pszBufferA$[ebp]
  000bb	e8 00 00 00 00	 call	 ??B?$CTempBuffer@D$0IA@VCCRTAllocator@ATL@@@ATL@@QBEPADXZ ; ATL::CTempBuffer<char,128,ATL::CCRTAllocator>::operator char *
  000c0	50		 push	 eax
  000c1	8d 8d 64 ff ff
	ff		 lea	 ecx, DWORD PTR _pszNameA$[ebp]
  000c7	e8 00 00 00 00	 call	 ??B?$CW2AEX@$0IA@@ATL@@QBEPADXZ ; ATL::CW2AEX<128>::operator char *
  000cc	50		 push	 eax
  000cd	ff 15 00 00 00
	00		 call	 DWORD PTR __imp__GetEnvironmentVariableA@12

; 171  : 
; 172  : 	nSizeW = ::MultiByteToWideChar(_AtlGetConversionACP(), 0, pszBufferA, -1, NULL, 0);

  000d3	6a 00		 push	 0
  000d5	6a 00		 push	 0
  000d7	6a ff		 push	 -1
  000d9	8d 8d d4 fe ff
	ff		 lea	 ecx, DWORD PTR _pszBufferA$[ebp]
  000df	e8 00 00 00 00	 call	 ??B?$CTempBuffer@D$0IA@VCCRTAllocator@ATL@@@ATL@@QBEPADXZ ; ATL::CTempBuffer<char,128,ATL::CCRTAllocator>::operator char *
  000e4	50		 push	 eax
  000e5	6a 00		 push	 0
  000e7	e8 00 00 00 00	 call	 ?_AtlGetConversionACP@ATL@@YGIXZ ; ATL::_AtlGetConversionACP
  000ec	50		 push	 eax
  000ed	ff 15 00 00 00
	00		 call	 DWORD PTR __imp__MultiByteToWideChar@24
  000f3	89 85 60 ff ff
	ff		 mov	 DWORD PTR _nSizeW$[ebp], eax

; 173  : 	if (nSize == 0)

  000f9	83 7d 10 00	 cmp	 DWORD PTR _nSize$[ebp], 0
  000fd	75 35		 jne	 SHORT $L81565

; 174  : 		return nSizeW;

  000ff	8b 85 60 ff ff
	ff		 mov	 eax, DWORD PTR _nSizeW$[ebp]
  00105	89 85 cc fe ff
	ff		 mov	 DWORD PTR $T89892[ebp], eax
  0010b	c6 45 fc 00	 mov	 BYTE PTR __$EHRec$[ebp+8], 0
  0010f	8d 8d 64 ff ff
	ff		 lea	 ecx, DWORD PTR _pszNameA$[ebp]
  00115	e8 00 00 00 00	 call	 ??1?$CW2AEX@$0IA@@ATL@@QAE@XZ ; ATL::CW2AEX<128>::~CW2AEX<128>
  0011a	c7 45 fc ff ff
	ff ff		 mov	 DWORD PTR __$EHRec$[ebp+8], -1
  00121	8d 8d d4 fe ff
	ff		 lea	 ecx, DWORD PTR _pszBufferA$[ebp]
  00127	e8 00 00 00 00	 call	 ??1?$CTempBuffer@D$0IA@VCCRTAllocator@ATL@@@ATL@@QAE@XZ ; ATL::CTempBuffer<char,128,ATL::CCRTAllocator>::~CTempBuffer<char,128,ATL::CCRTAllocator>
  0012c	8b 85 cc fe ff
	ff		 mov	 eax, DWORD PTR $T89892[ebp]
  00132	eb 5a		 jmp	 SHORT $L81535
$L81565:

; 175  : 	ATLASSERT(nSize >= nSizeW);
; 176  : 	::MultiByteToWideChar(_AtlGetConversionACP(), 0, pszBufferA, -1, pszBuffer, nSizeW);

  00134	8b 8d 60 ff ff
	ff		 mov	 ecx, DWORD PTR _nSizeW$[ebp]
  0013a	51		 push	 ecx
  0013b	8b 55 0c	 mov	 edx, DWORD PTR _pszBuffer$[ebp]
  0013e	52		 push	 edx
  0013f	6a ff		 push	 -1
  00141	8d 8d d4 fe ff
	ff		 lea	 ecx, DWORD PTR _pszBufferA$[ebp]
  00147	e8 00 00 00 00	 call	 ??B?$CTempBuffer@D$0IA@VCCRTAllocator@ATL@@@ATL@@QBEPADXZ ; ATL::CTempBuffer<char,128,ATL::CCRTAllocator>::operator char *
  0014c	50		 push	 eax
  0014d	6a 00		 push	 0
  0014f	e8 00 00 00 00	 call	 ?_AtlGetConversionACP@ATL@@YGIXZ ; ATL::_AtlGetConversionACP
  00154	50		 push	 eax
  00155	ff 15 00 00 00
	00		 call	 DWORD PTR __imp__MultiByteToWideChar@24

; 177  : 
; 178  : 	return nSizeW;

  0015b	8b 85 60 ff ff
	ff		 mov	 eax, DWORD PTR _nSizeW$[ebp]
  00161	89 85 c8 fe ff
	ff		 mov	 DWORD PTR $T89893[ebp], eax
  00167	c6 45 fc 00	 mov	 BYTE PTR __$EHRec$[ebp+8], 0
  0016b	8d 8d 64 ff ff
	ff		 lea	 ecx, DWORD PTR _pszNameA$[ebp]
  00171	e8 00 00 00 00	 call	 ??1?$CW2AEX@$0IA@@ATL@@QAE@XZ ; ATL::CW2AEX<128>::~CW2AEX<128>
  00176	c7 45 fc ff ff
	ff ff		 mov	 DWORD PTR __$EHRec$[ebp+8], -1
  0017d	8d 8d d4 fe ff
	ff		 lea	 ecx, DWORD PTR _pszBufferA$[ebp]
  00183	e8 00 00 00 00	 call	 ??1?$CTempBuffer@D$0IA@VCCRTAllocator@ATL@@@ATL@@QAE@XZ ; ATL::CTempBuffer<char,128,ATL::CCRTAllocator>::~CTempBuffer<char,128,ATL::CCRTAllocator>
  00188	8b 85 c8 fe ff
	ff		 mov	 eax, DWORD PTR $T89893[ebp]
$L81535:

; 179  : }

  0018e	8b 4d f4	 mov	 ecx, DWORD PTR __$EHRec$[ebp]
  00191	64 89 0d 00 00
	00 00		 mov	 DWORD PTR fs:__except_list, ecx
  00198	8b 4d ec	 mov	 ecx, DWORD PTR __$ArrayPad$[ebp]
  0019b	e8 00 00 00 00	 call	 @__security_check_cookie@4
  001a0	8b e5		 mov	 esp, ebp
  001a2	5d		 pop	 ebp
  001a3	c2 0c 00	 ret	 12			; 0000000cH
_TEXT	ENDS
;	COMDAT text$x
text$x	SEGMENT
$L89894:
  00000	8d 8d d4 fe ff
	ff		 lea	 ecx, DWORD PTR _pszBufferA$[ebp]
  00006	e9 00 00 00 00	 jmp	 ??1?$CTempBuffer@D$0IA@VCCRTAllocator@ATL@@@ATL@@QAE@XZ ; ATL::CTempBuffer<char,128,ATL::CCRTAllocator>::~CTempBuffer<char,128,ATL::CCRTAllocator>
$L89895:
  0000b	8d 8d 64 ff ff
	ff		 lea	 ecx, DWORD PTR _pszNameA$[ebp]
  00011	e9 00 00 00 00	 jmp	 ??1?$CW2AEX@$0IA@@ATL@@QAE@XZ ; ATL::CW2AEX<128>::~CW2AEX<128>
__ehhandler$?GetEnvironmentVariableWFake@ATL@@YGKPB_WPA_WK@Z:
  00016	b8 00 00 00 00	 mov	 eax, OFFSET FLAT:$T89899
  0001b	e9 00 00 00 00	 jmp	 ___CxxFrameHandler
text$x	ENDS
?GetEnvironmentVariableWFake@ATL@@YGKPB_WPA_WK@Z ENDP	; ATL::GetEnvironmentVariableWFake
; Function compile flags: /Odt
; File d:\program files (x86)\microsoft visual studio .net 2003\vc7\atlmfc\include\atlconv.h
;	COMDAT ?_AtlGetConversionACP@ATL@@YGIXZ
_TEXT	SEGMENT
?_AtlGetConversionACP@ATL@@YGIXZ PROC NEAR		; ATL::_AtlGetConversionACP, COMDAT

; 157  : {

  00000	55		 push	 ebp
  00001	8b ec		 mov	 ebp, esp

; 158  : 	return( g_pfnGetThreadACP() );

  00003	ff 15 00 00 00
	00		 call	 DWORD PTR ?g_pfnGetThreadACP@ATL@@3P6GIXZA ; ATL::g_pfnGetThreadACP

; 159  : }

  00009	5d		 pop	 ebp
  0000a	c3		 ret	 0
?_AtlGetConversionACP@ATL@@YGIXZ ENDP			; ATL::_AtlGetConversionACP
_TEXT	ENDS
PUBLIC	?CompareStringWFake@ATL@@YGHKKPB_WH0H@Z		; ATL::CompareStringWFake
EXTRN	__imp__CompareStringW@24:NEAR
; Function compile flags: /Odt
; File d:\program files (x86)\microsoft visual studio .net 2003\vc7\atlmfc\include\cstringt.h
;	COMDAT ?CompareStringWThunk@ATL@@YGHKKPB_WH0H@Z
_TEXT	SEGMENT
_lcid$ = 8						; size = 4
_dwFlags$ = 12						; size = 4
_pszString1$ = 16					; size = 4
_nLength1$ = 20						; size = 4
_pszString2$ = 24					; size = 4
_nLength2$ = 28						; size = 4
?CompareStringWThunk@ATL@@YGHKKPB_WH0H@Z PROC NEAR	; ATL::CompareStringWThunk, COMDAT

; 216  : {

  00000	55		 push	 ebp
  00001	8b ec		 mov	 ebp, esp

; 217  : 	_AtlInstallStringThunk(reinterpret_cast<void**>(&_strthunks.pfnCompareStringW), CompareStringWFake, ::CompareStringW);

  00003	a1 00 00 00 00	 mov	 eax, DWORD PTR __imp__CompareStringW@24
  00008	50		 push	 eax
  00009	68 00 00 00 00	 push	 OFFSET FLAT:?CompareStringWFake@ATL@@YGHKKPB_WH0H@Z ; ATL::CompareStringWFake
  0000e	68 00 00 00 00	 push	 OFFSET FLAT:?_strthunks@ATL@@3U_AtlStringThunks@1@A ; ATL::_strthunks
  00013	e8 00 00 00 00	 call	 ?_AtlInstallStringThunk@ATL@@YAXPAPAXPAX1@Z ; ATL::_AtlInstallStringThunk
  00018	83 c4 0c	 add	 esp, 12			; 0000000cH

; 218  : 
; 219  : 	return _strthunks.pfnCompareStringW(lcid, dwFlags, pszString1, nLength1, pszString2, nLength2);

  0001b	8b 4d 1c	 mov	 ecx, DWORD PTR _nLength2$[ebp]
  0001e	51		 push	 ecx
  0001f	8b 55 18	 mov	 edx, DWORD PTR _pszString2$[ebp]
  00022	52		 push	 edx
  00023	8b 45 14	 mov	 eax, DWORD PTR _nLength1$[ebp]
  00026	50		 push	 eax
  00027	8b 4d 10	 mov	 ecx, DWORD PTR _pszString1$[ebp]
  0002a	51		 push	 ecx
  0002b	8b 55 0c	 mov	 edx, DWORD PTR _dwFlags$[ebp]
  0002e	52		 push	 edx
  0002f	8b 45 08	 mov	 eax, DWORD PTR _lcid$[ebp]
  00032	50		 push	 eax
  00033	ff 15 00 00 00
	00		 call	 DWORD PTR ?_strthunks@ATL@@3U_AtlStringThunks@1@A

; 220  : }

  00039	5d		 pop	 ebp
  0003a	c2 18 00	 ret	 24			; 00000018H
?CompareStringWThunk@ATL@@YGHKKPB_WH0H@Z ENDP		; ATL::CompareStringWThunk
_TEXT	ENDS
PUBLIC	?AtlThrow@ATL@@YGXJ@Z				; ATL::AtlThrow
PUBLIC	?_AtlVerifyStackAvailable@_ATL_SAFE_ALLOCA_IMPL@ATL@@YA_NK@Z ; ATL::_ATL_SAFE_ALLOCA_IMPL::_AtlVerifyStackAvailable
PUBLIC	?AtlW2AHelper@@YGPADPADPB_WHI@Z			; AtlW2AHelper
PUBLIC	??0?$CAtlSafeAllocBufferManager@VCCRTAllocator@ATL@@@_ATL_SAFE_ALLOCA_IMPL@ATL@@QAE@XZ ; ATL::_ATL_SAFE_ALLOCA_IMPL::CAtlSafeAllocBufferManager<ATL::CCRTAllocator>::CAtlSafeAllocBufferManager<ATL::CCRTAllocator>
PUBLIC	?Allocate@?$CAtlSafeAllocBufferManager@VCCRTAllocator@ATL@@@_ATL_SAFE_ALLOCA_IMPL@ATL@@QAEPAXK@Z ; ATL::_ATL_SAFE_ALLOCA_IMPL::CAtlSafeAllocBufferManager<ATL::CCRTAllocator>::Allocate
PUBLIC	??1?$CAtlSafeAllocBufferManager@VCCRTAllocator@ATL@@@_ATL_SAFE_ALLOCA_IMPL@ATL@@QAE@XZ ; ATL::_ATL_SAFE_ALLOCA_IMPL::CAtlSafeAllocBufferManager<ATL::CCRTAllocator>::~CAtlSafeAllocBufferManager<ATL::CCRTAllocator>
EXTRN	__imp__lstrlenW@4:NEAR
EXTRN	__imp__CompareStringA@24:NEAR
EXTRN	__alloca_probe:NEAR
;	COMDAT xdata$x
xdata$x	SEGMENT
$T89927	DD	0ffffffffH
	DD	FLAT:$L89922
$T89924	DD	019930520H
	DD	01H
	DD	FLAT:$T89927
	DD	2 DUP(00H)
	DD	2 DUP(00H)
; Function compile flags: /Odt
xdata$x	ENDS
;	COMDAT ?CompareStringWFake@ATL@@YGHKKPB_WH0H@Z
_TEXT	SEGMENT
tv147 = -68						; size = 4
tv142 = -64						; size = 4
tv149 = -60						; size = 4
tv89 = -56						; size = 4
tv84 = -52						; size = 4
tv91 = -48						; size = 4
$T89921 = -44						; size = 4
_pszAString1$ = -40					; size = 4
__AtlSafeAllocaManager$ = -36				; size = 4
__convert_ex$ = -32					; size = 4
__acp_ex$ = -28						; size = 4
_pszAString2$ = -24					; size = 4
__lpw_ex$ = -16						; size = 4
__$EHRec$ = -12						; size = 12
_lcid$ = 8						; size = 4
_dwFlags$ = 12						; size = 4
_pszString1$ = 16					; size = 4
_nLength1$ = 20						; size = 4
_pszString2$ = 24					; size = 4
_nLength2$ = 28						; size = 4
?CompareStringWFake@ATL@@YGHKKPB_WH0H@Z PROC NEAR	; ATL::CompareStringWFake, COMDAT

; 192  : {

  00000	55		 push	 ebp
  00001	8b ec		 mov	 ebp, esp
  00003	6a ff		 push	 -1
  00005	68 00 00 00 00	 push	 __ehhandler$?CompareStringWFake@ATL@@YGHKKPB_WH0H@Z
  0000a	64 a1 00 00 00
	00		 mov	 eax, DWORD PTR fs:__except_list
  00010	50		 push	 eax
  00011	64 89 25 00 00
	00 00		 mov	 DWORD PTR fs:__except_list, esp
  00018	83 ec 38	 sub	 esp, 56			; 00000038H

; 193  : 	USES_CONVERSION_EX;

  0001b	e8 00 00 00 00	 call	 ?_AtlGetConversionACP@ATL@@YGIXZ ; ATL::_AtlGetConversionACP
  00020	89 45 e4	 mov	 DWORD PTR __acp_ex$[ebp], eax
  00023	8d 4d dc	 lea	 ecx, DWORD PTR __AtlSafeAllocaManager$[ebp]
  00026	e8 00 00 00 00	 call	 ??0?$CAtlSafeAllocBufferManager@VCCRTAllocator@ATL@@@_ATL_SAFE_ALLOCA_IMPL@ATL@@QAE@XZ ; ATL::_ATL_SAFE_ALLOCA_IMPL::CAtlSafeAllocBufferManager<ATL::CCRTAllocator>::CAtlSafeAllocBufferManager<ATL::CCRTAllocator>
  0002b	c7 45 fc 00 00
	00 00		 mov	 DWORD PTR __$EHRec$[ebp+8], 0

; 194  : 	
; 195  : 	LPCSTR pszAString1 = NULL;

  00032	c7 45 d8 00 00
	00 00		 mov	 DWORD PTR _pszAString1$[ebp], 0

; 196  : 	if(pszString1 != NULL)

  00039	83 7d 10 00	 cmp	 DWORD PTR _pszString1$[ebp], 0
  0003d	0f 84 98 00 00
	00		 je	 $L81589

; 197  : 	{
; 198  : 		pszAString1 = W2A_EX(pszString1,_ATL_SAFE_ALLOCA_DEF_THRESHOLD);

  00043	8b 45 10	 mov	 eax, DWORD PTR _pszString1$[ebp]
  00046	89 45 f0	 mov	 DWORD PTR __lpw_ex$[ebp], eax
  00049	83 7d f0 00	 cmp	 DWORD PTR __lpw_ex$[ebp], 0
  0004d	75 09		 jne	 SHORT $L89915
  0004f	c7 45 d0 00 00
	00 00		 mov	 DWORD PTR tv91[ebp], 0
  00056	eb 6d		 jmp	 SHORT $L89916
$L89915:
  00058	8b 4d f0	 mov	 ecx, DWORD PTR __lpw_ex$[ebp]
  0005b	51		 push	 ecx
  0005c	ff 15 00 00 00
	00		 call	 DWORD PTR __imp__lstrlenW@4
  00062	8d 54 00 02	 lea	 edx, DWORD PTR [eax+eax+2]
  00066	89 55 e0	 mov	 DWORD PTR __convert_ex$[ebp], edx
  00069	81 7d e0 00 04
	00 00		 cmp	 DWORD PTR __convert_ex$[ebp], 1024 ; 00000400H
  00070	7f 2c		 jg	 SHORT $L89913
  00072	8b 45 e0	 mov	 eax, DWORD PTR __convert_ex$[ebp]
  00075	50		 push	 eax
  00076	e8 00 00 00 00	 call	 ?_AtlVerifyStackAvailable@_ATL_SAFE_ALLOCA_IMPL@ATL@@YA_NK@Z ; ATL::_ATL_SAFE_ALLOCA_IMPL::_AtlVerifyStackAvailable
  0007b	83 c4 04	 add	 esp, 4
  0007e	0f b6 c8	 movzx	 ecx, al
  00081	85 c9		 test	 ecx, ecx
  00083	74 19		 je	 SHORT $L89913
  00085	8b 45 e0	 mov	 eax, DWORD PTR __convert_ex$[ebp]
  00088	83 c0 03	 add	 eax, 3
  0008b	83 e0 fc	 and	 eax, -4			; fffffffcH
  0008e	e8 00 00 00 00	 call	 __alloca_probe
  00093	89 65 cc	 mov	 DWORD PTR tv84[ebp], esp
  00096	8b 55 cc	 mov	 edx, DWORD PTR tv84[ebp]
  00099	89 55 c8	 mov	 DWORD PTR tv89[ebp], edx
  0009c	eb 0f		 jmp	 SHORT $L89914
$L89913:
  0009e	8b 45 e0	 mov	 eax, DWORD PTR __convert_ex$[ebp]
  000a1	50		 push	 eax
  000a2	8d 4d dc	 lea	 ecx, DWORD PTR __AtlSafeAllocaManager$[ebp]
  000a5	e8 00 00 00 00	 call	 ?Allocate@?$CAtlSafeAllocBufferManager@VCCRTAllocator@ATL@@@_ATL_SAFE_ALLOCA_IMPL@ATL@@QAEPAXK@Z ; ATL::_ATL_SAFE_ALLOCA_IMPL::CAtlSafeAllocBufferManager<ATL::CCRTAllocator>::Allocate
  000aa	89 45 c8	 mov	 DWORD PTR tv89[ebp], eax
$L89914:
  000ad	8b 4d e4	 mov	 ecx, DWORD PTR __acp_ex$[ebp]
  000b0	51		 push	 ecx
  000b1	8b 55 e0	 mov	 edx, DWORD PTR __convert_ex$[ebp]
  000b4	52		 push	 edx
  000b5	8b 45 f0	 mov	 eax, DWORD PTR __lpw_ex$[ebp]
  000b8	50		 push	 eax
  000b9	8b 4d c8	 mov	 ecx, DWORD PTR tv89[ebp]
  000bc	51		 push	 ecx
  000bd	e8 00 00 00 00	 call	 ?AtlW2AHelper@@YGPADPADPB_WHI@Z ; AtlW2AHelper
  000c2	89 45 d0	 mov	 DWORD PTR tv91[ebp], eax
$L89916:
  000c5	8b 55 d0	 mov	 edx, DWORD PTR tv91[ebp]
  000c8	89 55 d8	 mov	 DWORD PTR _pszAString1$[ebp], edx

; 199  : 		if(pszAString1 == NULL)

  000cb	83 7d d8 00	 cmp	 DWORD PTR _pszAString1$[ebp], 0
  000cf	75 0a		 jne	 SHORT $L81589

; 200  : 			AtlThrow(E_OUTOFMEMORY);

  000d1	68 0e 00 07 80	 push	 -2147024882		; 8007000eH
  000d6	e8 00 00 00 00	 call	 ?AtlThrow@ATL@@YGXJ@Z	; ATL::AtlThrow
$L81589:

; 201  : 	}
; 202  : 
; 203  : 	LPCSTR pszAString2 = NULL;

  000db	c7 45 e8 00 00
	00 00		 mov	 DWORD PTR _pszAString2$[ebp], 0

; 204  : 	if(pszString2 != NULL)

  000e2	83 7d 18 00	 cmp	 DWORD PTR _pszString2$[ebp], 0
  000e6	0f 84 98 00 00
	00		 je	 $L81595

; 205  : 	{
; 206  : 		pszAString2 = W2A_EX(pszString2,_ATL_SAFE_ALLOCA_DEF_THRESHOLD);

  000ec	8b 45 18	 mov	 eax, DWORD PTR _pszString2$[ebp]
  000ef	89 45 f0	 mov	 DWORD PTR __lpw_ex$[ebp], eax
  000f2	83 7d f0 00	 cmp	 DWORD PTR __lpw_ex$[ebp], 0
  000f6	75 09		 jne	 SHORT $L89919
  000f8	c7 45 c4 00 00
	00 00		 mov	 DWORD PTR tv149[ebp], 0
  000ff	eb 6d		 jmp	 SHORT $L89920
$L89919:
  00101	8b 4d f0	 mov	 ecx, DWORD PTR __lpw_ex$[ebp]
  00104	51		 push	 ecx
  00105	ff 15 00 00 00
	00		 call	 DWORD PTR __imp__lstrlenW@4
  0010b	8d 54 00 02	 lea	 edx, DWORD PTR [eax+eax+2]
  0010f	89 55 e0	 mov	 DWORD PTR __convert_ex$[ebp], edx
  00112	81 7d e0 00 04
	00 00		 cmp	 DWORD PTR __convert_ex$[ebp], 1024 ; 00000400H
  00119	7f 2c		 jg	 SHORT $L89917
  0011b	8b 45 e0	 mov	 eax, DWORD PTR __convert_ex$[ebp]
  0011e	50		 push	 eax
  0011f	e8 00 00 00 00	 call	 ?_AtlVerifyStackAvailable@_ATL_SAFE_ALLOCA_IMPL@ATL@@YA_NK@Z ; ATL::_ATL_SAFE_ALLOCA_IMPL::_AtlVerifyStackAvailable
  00124	83 c4 04	 add	 esp, 4
  00127	0f b6 c8	 movzx	 ecx, al
  0012a	85 c9		 test	 ecx, ecx
  0012c	74 19		 je	 SHORT $L89917
  0012e	8b 45 e0	 mov	 eax, DWORD PTR __convert_ex$[ebp]
  00131	83 c0 03	 add	 eax, 3
  00134	83 e0 fc	 and	 eax, -4			; fffffffcH
  00137	e8 00 00 00 00	 call	 __alloca_probe
  0013c	89 65 c0	 mov	 DWORD PTR tv142[ebp], esp
  0013f	8b 55 c0	 mov	 edx, DWORD PTR tv142[ebp]
  00142	89 55 bc	 mov	 DWORD PTR tv147[ebp], edx
  00145	eb 0f		 jmp	 SHORT $L89918
$L89917:
  00147	8b 45 e0	 mov	 eax, DWORD PTR __convert_ex$[ebp]
  0014a	50		 push	 eax
  0014b	8d 4d dc	 lea	 ecx, DWORD PTR __AtlSafeAllocaManager$[ebp]
  0014e	e8 00 00 00 00	 call	 ?Allocate@?$CAtlSafeAllocBufferManager@VCCRTAllocator@ATL@@@_ATL_SAFE_ALLOCA_IMPL@ATL@@QAEPAXK@Z ; ATL::_ATL_SAFE_ALLOCA_IMPL::CAtlSafeAllocBufferManager<ATL::CCRTAllocator>::Allocate
  00153	89 45 bc	 mov	 DWORD PTR tv147[ebp], eax
$L89918:
  00156	8b 4d e4	 mov	 ecx, DWORD PTR __acp_ex$[ebp]
  00159	51		 push	 ecx
  0015a	8b 55 e0	 mov	 edx, DWORD PTR __convert_ex$[ebp]
  0015d	52		 push	 edx
  0015e	8b 45 f0	 mov	 eax, DWORD PTR __lpw_ex$[ebp]
  00161	50		 push	 eax
  00162	8b 4d bc	 mov	 ecx, DWORD PTR tv147[ebp]
  00165	51		 push	 ecx
  00166	e8 00 00 00 00	 call	 ?AtlW2AHelper@@YGPADPADPB_WHI@Z ; AtlW2AHelper
  0016b	89 45 c4	 mov	 DWORD PTR tv149[ebp], eax
$L89920:
  0016e	8b 55 c4	 mov	 edx, DWORD PTR tv149[ebp]
  00171	89 55 e8	 mov	 DWORD PTR _pszAString2$[ebp], edx

; 207  : 		if(pszAString2 == NULL)

  00174	83 7d e8 00	 cmp	 DWORD PTR _pszAString2$[ebp], 0
  00178	75 0a		 jne	 SHORT $L81595

; 208  : 			AtlThrow(E_OUTOFMEMORY);

  0017a	68 0e 00 07 80	 push	 -2147024882		; 8007000eH
  0017f	e8 00 00 00 00	 call	 ?AtlThrow@ATL@@YGXJ@Z	; ATL::AtlThrow
$L81595:

; 209  : 	}
; 210  : 
; 211  : 	return ::CompareStringA(lcid, dwFlags, pszAString1, nLength1, pszAString2, nLength2);

  00184	8b 45 1c	 mov	 eax, DWORD PTR _nLength2$[ebp]
  00187	50		 push	 eax
  00188	8b 4d e8	 mov	 ecx, DWORD PTR _pszAString2$[ebp]
  0018b	51		 push	 ecx
  0018c	8b 55 14	 mov	 edx, DWORD PTR _nLength1$[ebp]
  0018f	52		 push	 edx
  00190	8b 45 d8	 mov	 eax, DWORD PTR _pszAString1$[ebp]
  00193	50		 push	 eax
  00194	8b 4d 0c	 mov	 ecx, DWORD PTR _dwFlags$[ebp]
  00197	51		 push	 ecx
  00198	8b 55 08	 mov	 edx, DWORD PTR _lcid$[ebp]
  0019b	52		 push	 edx
  0019c	ff 15 00 00 00
	00		 call	 DWORD PTR __imp__CompareStringA@24
  001a2	89 45 d4	 mov	 DWORD PTR $T89921[ebp], eax
  001a5	c7 45 fc ff ff
	ff ff		 mov	 DWORD PTR __$EHRec$[ebp+8], -1
  001ac	8d 4d dc	 lea	 ecx, DWORD PTR __AtlSafeAllocaManager$[ebp]
  001af	e8 00 00 00 00	 call	 ??1?$CAtlSafeAllocBufferManager@VCCRTAllocator@ATL@@@_ATL_SAFE_ALLOCA_IMPL@ATL@@QAE@XZ ; ATL::_ATL_SAFE_ALLOCA_IMPL::CAtlSafeAllocBufferManager<ATL::CCRTAllocator>::~CAtlSafeAllocBufferManager<ATL::CCRTAllocator>
  001b4	8b 45 d4	 mov	 eax, DWORD PTR $T89921[ebp]
$L89912:

; 212  : }

  001b7	8d 65 bc	 lea	 esp, DWORD PTR [ebp-68]
  001ba	8b 4d f4	 mov	 ecx, DWORD PTR __$EHRec$[ebp]
  001bd	64 89 0d 00 00
	00 00		 mov	 DWORD PTR fs:__except_list, ecx
  001c4	8b e5		 mov	 esp, ebp
  001c6	5d		 pop	 ebp
  001c7	c2 18 00	 ret	 24			; 00000018H
_TEXT	ENDS
;	COMDAT text$x
text$x	SEGMENT
$L89922:
  00000	8d 4d dc	 lea	 ecx, DWORD PTR __AtlSafeAllocaManager$[ebp]
  00003	e9 00 00 00 00	 jmp	 ??1?$CAtlSafeAllocBufferManager@VCCRTAllocator@ATL@@@_ATL_SAFE_ALLOCA_IMPL@ATL@@QAE@XZ ; ATL::_ATL_SAFE_ALLOCA_IMPL::CAtlSafeAllocBufferManager<ATL::CCRTAllocator>::~CAtlSafeAllocBufferManager<ATL::CCRTAllocator>
__ehhandler$?CompareStringWFake@ATL@@YGHKKPB_WH0H@Z:
  00008	b8 00 00 00 00	 mov	 eax, OFFSET FLAT:$T89924
  0000d	e9 00 00 00 00	 jmp	 ___CxxFrameHandler
text$x	ENDS
?CompareStringWFake@ATL@@YGHKKPB_WH0H@Z ENDP		; ATL::CompareStringWFake
EXTRN	__imp___resetstkoflw:NEAR
EXTRN	__except_handler3:NEAR
;	COMDAT CONST
; File d:\program files (x86)\microsoft visual studio .net 2003\vc7\atlmfc\include\atlalloc.h
CONST	SEGMENT
$T89938	DD	0ffffffffH
	DD	FLAT:$L89933
	DD	FLAT:$L89934
; Function compile flags: /Odt
CONST	ENDS
;	COMDAT ?_AtlVerifyStackAvailable@_ATL_SAFE_ALLOCA_IMPL@ATL@@YA_NK@Z
_TEXT	SEGMENT
tv65 = -40						; size = 4
$T89937 = -36						; size = 4
_p$66240 = -32						; size = 4
_bStackAvailable$ = -25					; size = 1
__$SEHRec$ = -24					; size = 24
_Size$ = 8						; size = 4
?_AtlVerifyStackAvailable@_ATL_SAFE_ALLOCA_IMPL@ATL@@YA_NK@Z PROC NEAR ; ATL::_ATL_SAFE_ALLOCA_IMPL::_AtlVerifyStackAvailable, COMDAT

; 331  : {

  00000	55		 push	 ebp
  00001	8b ec		 mov	 ebp, esp
  00003	6a ff		 push	 -1
  00005	68 00 00 00 00	 push	 OFFSET FLAT:$T89938
  0000a	68 00 00 00 00	 push	 OFFSET FLAT:__except_handler3
  0000f	64 a1 00 00 00
	00		 mov	 eax, DWORD PTR fs:__except_list
  00015	50		 push	 eax
  00016	64 89 25 00 00
	00 00		 mov	 DWORD PTR fs:__except_list, esp
  0001d	83 c4 e8	 add	 esp, -24		; ffffffe8H
  00020	53		 push	 ebx
  00021	56		 push	 esi
  00022	57		 push	 edi
  00023	89 65 e8	 mov	 DWORD PTR __$SEHRec$[ebp], esp

; 332  :     bool bStackAvailable = true;

  00026	c6 45 e7 01	 mov	 BYTE PTR _bStackAvailable$[ebp], 1

; 333  : 
; 334  :     __try

  0002a	c7 45 fc 00 00
	00 00		 mov	 DWORD PTR __$SEHRec$[ebp+20], 0

; 335  :     {
; 336  :         PVOID p = _alloca(Size + _ATL_STACK_MARGIN);

  00031	8b 45 08	 mov	 eax, DWORD PTR _Size$[ebp]
  00034	05 03 20 00 00	 add	 eax, 8195		; 00002003H
  00039	83 e0 fc	 and	 eax, -4			; fffffffcH
  0003c	e8 00 00 00 00	 call	 __alloca_probe
  00041	89 65 d8	 mov	 DWORD PTR tv65[ebp], esp
  00044	89 65 e8	 mov	 DWORD PTR __$SEHRec$[ebp], esp
  00047	8b 45 d8	 mov	 eax, DWORD PTR tv65[ebp]
  0004a	89 45 e0	 mov	 DWORD PTR _p$66240[ebp], eax
  0004d	c7 45 fc ff ff
	ff ff		 mov	 DWORD PTR __$SEHRec$[ebp+20], -1
  00054	eb 2c		 jmp	 SHORT $L89936
$L89933:
$L89942:

; 337  :         (p);
; 338  :     }
; 339  :     __except ((EXCEPTION_STACK_OVERFLOW == GetExceptionCode()) ?
; 340  :                    EXCEPTION_EXECUTE_HANDLER :
; 341  :                    EXCEPTION_CONTINUE_SEARCH)

  00056	8b 4d ec	 mov	 ecx, DWORD PTR __$SEHRec$[ebp+4]
  00059	8b 11		 mov	 edx, DWORD PTR [ecx]
  0005b	8b 02		 mov	 eax, DWORD PTR [edx]
  0005d	89 45 dc	 mov	 DWORD PTR $T89937[ebp], eax
  00060	8b 45 dc	 mov	 eax, DWORD PTR $T89937[ebp]
  00063	2d fd 00 00 c0	 sub	 eax, -1073741571	; c00000fdH
  00068	f7 d8		 neg	 eax
  0006a	1b c0		 sbb	 eax, eax
  0006c	40		 inc	 eax
$L89935:
$L89941:
  0006d	c3		 ret	 0
$L89934:
  0006e	8b 65 e8	 mov	 esp, DWORD PTR __$SEHRec$[ebp]

; 342  :     {
; 343  :         bStackAvailable = false;

  00071	c6 45 e7 00	 mov	 BYTE PTR _bStackAvailable$[ebp], 0

; 344  :         _resetstkoflw();

  00075	ff 15 00 00 00
	00		 call	 DWORD PTR __imp___resetstkoflw
  0007b	c7 45 fc ff ff
	ff ff		 mov	 DWORD PTR __$SEHRec$[ebp+20], -1
$L89936:

; 345  :     }
; 346  :     return bStackAvailable;

  00082	8a 45 e7	 mov	 al, BYTE PTR _bStackAvailable$[ebp]
$L89932:

; 347  : }

  00085	8d 65 cc	 lea	 esp, DWORD PTR [ebp-52]
  00088	8b 4d f0	 mov	 ecx, DWORD PTR __$SEHRec$[ebp+8]
  0008b	64 89 0d 00 00
	00 00		 mov	 DWORD PTR fs:__except_list, ecx
  00092	5f		 pop	 edi
  00093	5e		 pop	 esi
  00094	5b		 pop	 ebx
  00095	8b e5		 mov	 esp, ebp
  00097	5d		 pop	 ebp
  00098	c3		 ret	 0
?_AtlVerifyStackAvailable@_ATL_SAFE_ALLOCA_IMPL@ATL@@YA_NK@Z ENDP ; ATL::_ATL_SAFE_ALLOCA_IMPL::_AtlVerifyStackAvailable
_TEXT	ENDS
EXTRN	__imp__WideCharToMultiByte@32:NEAR
; Function compile flags: /Odt
; File d:\program files (x86)\microsoft visual studio .net 2003\vc7\atlmfc\include\atlconv.h
;	COMDAT ?AtlW2AHelper@@YGPADPADPB_WHI@Z
_TEXT	SEGMENT
_ret$ = -4						; size = 4
_lpa$ = 8						; size = 4
_lpw$ = 12						; size = 4
_nChars$ = 16						; size = 4
_acp$ = 20						; size = 4
?AtlW2AHelper@@YGPADPADPB_WHI@Z PROC NEAR		; AtlW2AHelper, COMDAT

; 573  : {

  00000	55		 push	 ebp
  00001	8b ec		 mov	 ebp, esp
  00003	51		 push	 ecx

; 574  : 	ATLASSERT(lpw != NULL);
; 575  : 	ATLASSERT(lpa != NULL);
; 576  : 	if (lpa == NULL || lpw == NULL)

  00004	83 7d 08 00	 cmp	 DWORD PTR _lpa$[ebp], 0
  00008	74 06		 je	 SHORT $L66427
  0000a	83 7d 0c 00	 cmp	 DWORD PTR _lpw$[ebp], 0
  0000e	75 04		 jne	 SHORT $L66426
$L66427:

; 577  : 		return NULL;

  00010	33 c0		 xor	 eax, eax
  00012	eb 34		 jmp	 SHORT $L66423
$L66426:

; 578  : 	// verify that no illegal character present
; 579  : 	// since lpa was allocated based on the size of lpw
; 580  : 	// don't worry about the number of chars
; 581  : 	lpa[0] = '\0';

  00014	8b 45 08	 mov	 eax, DWORD PTR _lpa$[ebp]
  00017	c6 00 00	 mov	 BYTE PTR [eax], 0

; 582  : 	int ret = WideCharToMultiByte(acp, 0, lpw, -1, lpa, nChars, NULL, NULL);

  0001a	6a 00		 push	 0
  0001c	6a 00		 push	 0
  0001e	8b 4d 10	 mov	 ecx, DWORD PTR _nChars$[ebp]
  00021	51		 push	 ecx
  00022	8b 55 08	 mov	 edx, DWORD PTR _lpa$[ebp]
  00025	52		 push	 edx
  00026	6a ff		 push	 -1
  00028	8b 45 0c	 mov	 eax, DWORD PTR _lpw$[ebp]
  0002b	50		 push	 eax
  0002c	6a 00		 push	 0
  0002e	8b 4d 14	 mov	 ecx, DWORD PTR _acp$[ebp]
  00031	51		 push	 ecx
  00032	ff 15 00 00 00
	00		 call	 DWORD PTR __imp__WideCharToMultiByte@32
  00038	89 45 fc	 mov	 DWORD PTR _ret$[ebp], eax

; 583  : 	if(ret == 0)

  0003b	83 7d fc 00	 cmp	 DWORD PTR _ret$[ebp], 0
  0003f	75 04		 jne	 SHORT $L66429

; 584  : 	{
; 585  : 		ATLASSERT(FALSE);
; 586  : 		return NULL;

  00041	33 c0		 xor	 eax, eax
  00043	eb 03		 jmp	 SHORT $L66423
$L66429:

; 587  : 	}
; 588  : 	return lpa;

  00045	8b 45 08	 mov	 eax, DWORD PTR _lpa$[ebp]
$L66423:

; 589  : }

  00048	8b e5		 mov	 esp, ebp
  0004a	5d		 pop	 ebp
  0004b	c2 10 00	 ret	 16			; 00000010H
?AtlW2AHelper@@YGPADPADPB_WHI@Z ENDP			; AtlW2AHelper
_TEXT	ENDS
PUBLIC	??0CAtlException@ATL@@QAE@J@Z			; ATL::CAtlException::CAtlException
PUBLIC	__TI1?AVCAtlException@ATL@@
PUBLIC	__CTA1?AVCAtlException@ATL@@
PUBLIC	??_R0?AVCAtlException@ATL@@@8			; ATL::CAtlException `RTTI Type Descriptor'
PUBLIC	__CT??_R0?AVCAtlException@ATL@@@84
EXTRN	__CxxThrowException@8:NEAR
EXTRN	??_7type_info@@6B@:QWORD			; type_info::`vftable'
;	COMDAT __TI1?AVCAtlException@ATL@@
; File d:\program files (x86)\microsoft visual studio .net 2003\vc7\atlmfc\include\atlexcept.h
xdata$x	SEGMENT
__TI1?AVCAtlException@ATL@@ DD 00H
	DD	00H
	DD	00H
	DD	FLAT:__CTA1?AVCAtlException@ATL@@
xdata$x	ENDS
;	COMDAT __CTA1?AVCAtlException@ATL@@
xdata$x	SEGMENT
__CTA1?AVCAtlException@ATL@@ DD 01H
	DD	FLAT:__CT??_R0?AVCAtlException@ATL@@@84
xdata$x	ENDS
;	COMDAT __CT??_R0?AVCAtlException@ATL@@@84
xdata$x	SEGMENT
__CT??_R0?AVCAtlException@ATL@@@84 DD 00H
	DD	FLAT:??_R0?AVCAtlException@ATL@@@8
	DD	00H
	DD	0ffffffffH
	ORG $+4
	DD	04H
	DD	00H
xdata$x	ENDS
;	COMDAT ??_R0?AVCAtlException@ATL@@@8
_DATA	SEGMENT
??_R0?AVCAtlException@ATL@@@8 DD FLAT:??_7type_info@@6B@ ; ATL::CAtlException `RTTI Type Descriptor'
	DD	00H
	DB	'.?AVCAtlException@ATL@@', 00H
; Function compile flags: /Odt
_DATA	ENDS
;	COMDAT ?AtlThrow@ATL@@YGXJ@Z
_TEXT	SEGMENT
$T89950 = -8						; size = 4
$T89949 = -4						; size = 4
_hr$ = 8						; size = 4
?AtlThrow@ATL@@YGXJ@Z PROC NEAR				; ATL::AtlThrow, COMDAT

; 61   : {

  00000	55		 push	 ebp
  00001	8b ec		 mov	 ebp, esp
  00003	83 ec 08	 sub	 esp, 8

; 62   : 	ATLTRACE(atlTraceException, 0, _T("AtlThrow: hr = 0x%x\n"), hr );
; 63   : #ifdef _AFX
; 64   : 	if( hr == E_OUTOFMEMORY )
; 65   : 	{
; 66   : 		AfxThrowMemoryException();
; 67   : 	}
; 68   : 	else
; 69   : 	{
; 70   : 		AfxThrowOleException( hr );
; 71   : 	}
; 72   : #else
; 73   : 	throw CAtlException( hr );

  00006	8b 45 08	 mov	 eax, DWORD PTR _hr$[ebp]
  00009	50		 push	 eax
  0000a	8d 4d f8	 lea	 ecx, DWORD PTR $T89950[ebp]
  0000d	e8 00 00 00 00	 call	 ??0CAtlException@ATL@@QAE@J@Z ; ATL::CAtlException::CAtlException
  00012	8b 08		 mov	 ecx, DWORD PTR [eax]
  00014	89 4d fc	 mov	 DWORD PTR $T89949[ebp], ecx
  00017	68 00 00 00 00	 push	 OFFSET FLAT:__TI1?AVCAtlException@ATL@@
  0001c	8d 55 fc	 lea	 edx, DWORD PTR $T89949[ebp]
  0001f	52		 push	 edx
  00020	e8 00 00 00 00	 call	 __CxxThrowException@8
$L89948:

; 74   : #endif
; 75   : };

  00025	8b e5		 mov	 esp, ebp
  00027	5d		 pop	 ebp
  00028	c2 04 00	 ret	 4
?AtlThrow@ATL@@YGXJ@Z ENDP				; ATL::AtlThrow
; Function compile flags: /Odt
_TEXT	ENDS
;	COMDAT ??0CAtlException@ATL@@QAE@J@Z
_TEXT	SEGMENT
_this$ = -4						; size = 4
_hr$ = 8						; size = 4
??0CAtlException@ATL@@QAE@J@Z PROC NEAR			; ATL::CAtlException::CAtlException, COMDAT
; _this$ = ecx

; 40   : 	{

  00000	55		 push	 ebp
  00001	8b ec		 mov	 ebp, esp
  00003	51		 push	 ecx
  00004	89 4d fc	 mov	 DWORD PTR _this$[ebp], ecx
  00007	8b 45 fc	 mov	 eax, DWORD PTR _this$[ebp]
  0000a	8b 4d 08	 mov	 ecx, DWORD PTR _hr$[ebp]
  0000d	89 08		 mov	 DWORD PTR [eax], ecx

; 41   : 	}

  0000f	8b 45 fc	 mov	 eax, DWORD PTR _this$[ebp]
  00012	8b e5		 mov	 esp, ebp
  00014	5d		 pop	 ebp
  00015	c2 04 00	 ret	 4
??0CAtlException@ATL@@QAE@J@Z ENDP			; ATL::CAtlException::CAtlException
_TEXT	ENDS
PUBLIC	?GetStringTypeExWFake@ATL@@YGHKKPB_WHPAG@Z	; ATL::GetStringTypeExWFake
EXTRN	__imp__GetStringTypeExW@20:NEAR
; Function compile flags: /Odt
; File d:\program files (x86)\microsoft visual studio .net 2003\vc7\atlmfc\include\cstringt.h
;	COMDAT ?GetStringTypeExWThunk@ATL@@YGHKKPB_WHPAG@Z
_TEXT	SEGMENT
_lcid$ = 8						; size = 4
_dwInfoType$ = 12					; size = 4
_pszSrc$ = 16						; size = 4
_nLength$ = 20						; size = 4
_pwCharType$ = 24					; size = 4
?GetStringTypeExWThunk@ATL@@YGHKKPB_WHPAG@Z PROC NEAR	; ATL::GetStringTypeExWThunk, COMDAT

; 240  : {

  00000	55		 push	 ebp
  00001	8b ec		 mov	 ebp, esp

; 241  : 	_AtlInstallStringThunk(reinterpret_cast<void**>(&_strthunks.pfnGetStringTypeExW), GetStringTypeExWFake, ::GetStringTypeExW);

  00003	a1 00 00 00 00	 mov	 eax, DWORD PTR __imp__GetStringTypeExW@20
  00008	50		 push	 eax
  00009	68 00 00 00 00	 push	 OFFSET FLAT:?GetStringTypeExWFake@ATL@@YGHKKPB_WHPAG@Z ; ATL::GetStringTypeExWFake
  0000e	68 04 00 00 00	 push	 OFFSET FLAT:?_strthunks@ATL@@3U_AtlStringThunks@1@A+4
  00013	e8 00 00 00 00	 call	 ?_AtlInstallStringThunk@ATL@@YAXPAPAXPAX1@Z ; ATL::_AtlInstallStringThunk
  00018	83 c4 0c	 add	 esp, 12			; 0000000cH

; 242  : 
; 243  : 	return _strthunks.pfnGetStringTypeExW(lcid, dwInfoType, pszSrc, nLength, pwCharType);

  0001b	8b 4d 18	 mov	 ecx, DWORD PTR _pwCharType$[ebp]
  0001e	51		 push	 ecx
  0001f	8b 55 14	 mov	 edx, DWORD PTR _nLength$[ebp]
  00022	52		 push	 edx
  00023	8b 45 10	 mov	 eax, DWORD PTR _pszSrc$[ebp]
  00026	50		 push	 eax
  00027	8b 4d 0c	 mov	 ecx, DWORD PTR _dwInfoType$[ebp]
  0002a	51		 push	 ecx
  0002b	8b 55 08	 mov	 edx, DWORD PTR _lcid$[ebp]
  0002e	52		 push	 edx
  0002f	ff 15 04 00 00
	00		 call	 DWORD PTR ?_strthunks@ATL@@3U_AtlStringThunks@1@A+4

; 244  : }

  00035	5d		 pop	 ebp
  00036	c2 14 00	 ret	 20			; 00000014H
?GetStringTypeExWThunk@ATL@@YGHKKPB_WHPAG@Z ENDP	; ATL::GetStringTypeExWThunk
_TEXT	ENDS
EXTRN	__imp__GetStringTypeExA@20:NEAR
;	COMDAT xdata$x
xdata$x	SEGMENT
$T89965	DD	0ffffffffH
	DD	FLAT:$L89960
$T89962	DD	019930520H
	DD	01H
	DD	FLAT:$T89965
	DD	2 DUP(00H)
	DD	2 DUP(00H)
; Function compile flags: /Odt
xdata$x	ENDS
;	COMDAT ?GetStringTypeExWFake@ATL@@YGHKKPB_WHPAG@Z
_TEXT	SEGMENT
$T89959 = -164						; size = 4
_nLengthA$ = -160					; size = 4
_pszA$ = -156						; size = 132
__$ArrayPad$ = -16					; size = 4
__$EHRec$ = -12						; size = 12
__$ReturnAddr$ = 4					; size = 4
_lcid$ = 8						; size = 4
_dwInfoType$ = 12					; size = 4
_pszSrc$ = 16						; size = 4
_nLength$ = 20						; size = 4
_pwCharType$ = 24					; size = 4
?GetStringTypeExWFake@ATL@@YGHKKPB_WHPAG@Z PROC NEAR	; ATL::GetStringTypeExWFake, COMDAT

; 224  : {

  00000	55		 push	 ebp
  00001	8b ec		 mov	 ebp, esp
  00003	6a ff		 push	 -1
  00005	68 00 00 00 00	 push	 __ehhandler$?GetStringTypeExWFake@ATL@@YGHKKPB_WHPAG@Z
  0000a	64 a1 00 00 00
	00		 mov	 eax, DWORD PTR fs:__except_list
  00010	50		 push	 eax
  00011	64 89 25 00 00
	00 00		 mov	 DWORD PTR fs:__except_list, esp
  00018	81 ec 98 00 00
	00		 sub	 esp, 152		; 00000098H
  0001e	a1 00 00 00 00	 mov	 eax, DWORD PTR ___security_cookie
  00023	89 45 f0	 mov	 DWORD PTR __$ArrayPad$[ebp], eax

; 225  : 	int nLengthA;
; 226  : 	CTempBuffer<char> pszA;

  00026	8d 8d 64 ff ff
	ff		 lea	 ecx, DWORD PTR _pszA$[ebp]
  0002c	e8 00 00 00 00	 call	 ??0?$CTempBuffer@D$0IA@VCCRTAllocator@ATL@@@ATL@@QAE@XZ ; ATL::CTempBuffer<char,128,ATL::CCRTAllocator>::CTempBuffer<char,128,ATL::CCRTAllocator>
  00031	c7 45 fc 00 00
	00 00		 mov	 DWORD PTR __$EHRec$[ebp+8], 0

; 227  : 
; 228  : 	nLengthA = ::WideCharToMultiByte(_AtlGetConversionACP(), 0, pszSrc, nLength, NULL, 0, NULL, NULL);

  00038	6a 00		 push	 0
  0003a	6a 00		 push	 0
  0003c	6a 00		 push	 0
  0003e	6a 00		 push	 0
  00040	8b 45 14	 mov	 eax, DWORD PTR _nLength$[ebp]
  00043	50		 push	 eax
  00044	8b 4d 10	 mov	 ecx, DWORD PTR _pszSrc$[ebp]
  00047	51		 push	 ecx
  00048	6a 00		 push	 0
  0004a	e8 00 00 00 00	 call	 ?_AtlGetConversionACP@ATL@@YGIXZ ; ATL::_AtlGetConversionACP
  0004f	50		 push	 eax
  00050	ff 15 00 00 00
	00		 call	 DWORD PTR __imp__WideCharToMultiByte@32
  00056	89 85 60 ff ff
	ff		 mov	 DWORD PTR _nLengthA$[ebp], eax

; 229  : 	pszA.Allocate(nLengthA);

  0005c	8b 95 60 ff ff
	ff		 mov	 edx, DWORD PTR _nLengthA$[ebp]
  00062	52		 push	 edx
  00063	8d 8d 64 ff ff
	ff		 lea	 ecx, DWORD PTR _pszA$[ebp]
  00069	e8 00 00 00 00	 call	 ?Allocate@?$CTempBuffer@D$0IA@VCCRTAllocator@ATL@@@ATL@@QAEPADI@Z ; ATL::CTempBuffer<char,128,ATL::CCRTAllocator>::Allocate

; 230  : 	::WideCharToMultiByte(_AtlGetConversionACP(), 0, pszSrc, nLength, pszA, nLengthA, NULL, NULL);

  0006e	6a 00		 push	 0
  00070	6a 00		 push	 0
  00072	8b 85 60 ff ff
	ff		 mov	 eax, DWORD PTR _nLengthA$[ebp]
  00078	50		 push	 eax
  00079	8d 8d 64 ff ff
	ff		 lea	 ecx, DWORD PTR _pszA$[ebp]
  0007f	e8 00 00 00 00	 call	 ??B?$CTempBuffer@D$0IA@VCCRTAllocator@ATL@@@ATL@@QBEPADXZ ; ATL::CTempBuffer<char,128,ATL::CCRTAllocator>::operator char *
  00084	50		 push	 eax
  00085	8b 4d 14	 mov	 ecx, DWORD PTR _nLength$[ebp]
  00088	51		 push	 ecx
  00089	8b 55 10	 mov	 edx, DWORD PTR _pszSrc$[ebp]
  0008c	52		 push	 edx
  0008d	6a 00		 push	 0
  0008f	e8 00 00 00 00	 call	 ?_AtlGetConversionACP@ATL@@YGIXZ ; ATL::_AtlGetConversionACP
  00094	50		 push	 eax
  00095	ff 15 00 00 00
	00		 call	 DWORD PTR __imp__WideCharToMultiByte@32

; 231  : 
; 232  : 	if (nLength == -1)

  0009b	83 7d 14 ff	 cmp	 DWORD PTR _nLength$[ebp], -1
  0009f	75 0a		 jne	 SHORT $L81621

; 233  : 		nLengthA = -1;

  000a1	c7 85 60 ff ff
	ff ff ff ff ff	 mov	 DWORD PTR _nLengthA$[ebp], -1
$L81621:

; 234  : 
; 235  : 	return ::GetStringTypeExA(lcid, dwInfoType, pszA, nLengthA, pwCharType);

  000ab	8b 45 18	 mov	 eax, DWORD PTR _pwCharType$[ebp]
  000ae	50		 push	 eax
  000af	8b 8d 60 ff ff
	ff		 mov	 ecx, DWORD PTR _nLengthA$[ebp]
  000b5	51		 push	 ecx
  000b6	8d 8d 64 ff ff
	ff		 lea	 ecx, DWORD PTR _pszA$[ebp]
  000bc	e8 00 00 00 00	 call	 ??B?$CTempBuffer@D$0IA@VCCRTAllocator@ATL@@@ATL@@QBEPADXZ ; ATL::CTempBuffer<char,128,ATL::CCRTAllocator>::operator char *
  000c1	50		 push	 eax
  000c2	8b 55 0c	 mov	 edx, DWORD PTR _dwInfoType$[ebp]
  000c5	52		 push	 edx
  000c6	8b 45 08	 mov	 eax, DWORD PTR _lcid$[ebp]
  000c9	50		 push	 eax
  000ca	ff 15 00 00 00
	00		 call	 DWORD PTR __imp__GetStringTypeExA@20
  000d0	89 85 5c ff ff
	ff		 mov	 DWORD PTR $T89959[ebp], eax
  000d6	c7 45 fc ff ff
	ff ff		 mov	 DWORD PTR __$EHRec$[ebp+8], -1
  000dd	8d 8d 64 ff ff
	ff		 lea	 ecx, DWORD PTR _pszA$[ebp]
  000e3	e8 00 00 00 00	 call	 ??1?$CTempBuffer@D$0IA@VCCRTAllocator@ATL@@@ATL@@QAE@XZ ; ATL::CTempBuffer<char,128,ATL::CCRTAllocator>::~CTempBuffer<char,128,ATL::CCRTAllocator>
  000e8	8b 85 5c ff ff
	ff		 mov	 eax, DWORD PTR $T89959[ebp]

; 236  : }

  000ee	8b 4d f4	 mov	 ecx, DWORD PTR __$EHRec$[ebp]
  000f1	64 89 0d 00 00
	00 00		 mov	 DWORD PTR fs:__except_list, ecx
  000f8	8b 4d f0	 mov	 ecx, DWORD PTR __$ArrayPad$[ebp]
  000fb	e8 00 00 00 00	 call	 @__security_check_cookie@4
  00100	8b e5		 mov	 esp, ebp
  00102	5d		 pop	 ebp
  00103	c2 14 00	 ret	 20			; 00000014H
_TEXT	ENDS
;	COMDAT text$x
text$x	SEGMENT
$L89960:
  00000	8d 8d 64 ff ff
	ff		 lea	 ecx, DWORD PTR _pszA$[ebp]
  00006	e9 00 00 00 00	 jmp	 ??1?$CTempBuffer@D$0IA@VCCRTAllocator@ATL@@@ATL@@QAE@XZ ; ATL::CTempBuffer<char,128,ATL::CCRTAllocator>::~CTempBuffer<char,128,ATL::CCRTAllocator>
__ehhandler$?GetStringTypeExWFake@ATL@@YGHKKPB_WHPAG@Z:
  0000b	b8 00 00 00 00	 mov	 eax, OFFSET FLAT:$T89962
  00010	e9 00 00 00 00	 jmp	 ___CxxFrameHandler
text$x	ENDS
?GetStringTypeExWFake@ATL@@YGHKKPB_WHPAG@Z ENDP		; ATL::GetStringTypeExWFake
PUBLIC	?lstrcmpiWFake@ATL@@YGHPB_W0@Z			; ATL::lstrcmpiWFake
EXTRN	__imp__lstrcmpiW@8:NEAR
; Function compile flags: /Odt
;	COMDAT ?lstrcmpiWThunk@ATL@@YGHPB_W0@Z
_TEXT	SEGMENT
_psz1$ = 8						; size = 4
_psz2$ = 12						; size = 4
?lstrcmpiWThunk@ATL@@YGHPB_W0@Z PROC NEAR		; ATL::lstrcmpiWThunk, COMDAT

; 254  : {

  00000	55		 push	 ebp
  00001	8b ec		 mov	 ebp, esp

; 255  : 	_AtlInstallStringThunk(reinterpret_cast<void**>(&_strthunks.pfnlstrcmpiW), lstrcmpiWFake, ::lstrcmpiW);

  00003	a1 00 00 00 00	 mov	 eax, DWORD PTR __imp__lstrcmpiW@8
  00008	50		 push	 eax
  00009	68 00 00 00 00	 push	 OFFSET FLAT:?lstrcmpiWFake@ATL@@YGHPB_W0@Z ; ATL::lstrcmpiWFake
  0000e	68 08 00 00 00	 push	 OFFSET FLAT:?_strthunks@ATL@@3U_AtlStringThunks@1@A+8
  00013	e8 00 00 00 00	 call	 ?_AtlInstallStringThunk@ATL@@YAXPAPAXPAX1@Z ; ATL::_AtlInstallStringThunk
  00018	83 c4 0c	 add	 esp, 12			; 0000000cH

; 256  : 
; 257  : 	return _strthunks.pfnlstrcmpiW(psz1, psz2);

  0001b	8b 4d 0c	 mov	 ecx, DWORD PTR _psz2$[ebp]
  0001e	51		 push	 ecx
  0001f	8b 55 08	 mov	 edx, DWORD PTR _psz1$[ebp]
  00022	52		 push	 edx
  00023	ff 15 08 00 00
	00		 call	 DWORD PTR ?_strthunks@ATL@@3U_AtlStringThunks@1@A+8

; 258  : }

  00029	5d		 pop	 ebp
  0002a	c2 08 00	 ret	 8
?lstrcmpiWThunk@ATL@@YGHPB_W0@Z ENDP			; ATL::lstrcmpiWThunk
_TEXT	ENDS
EXTRN	__imp__lstrcmpiA@8:NEAR
; Function compile flags: /Odt
;	COMDAT ?lstrcmpiWFake@ATL@@YGHPB_W0@Z
_TEXT	SEGMENT
tv91 = -32						; size = 4
tv94 = -28						; size = 4
tv76 = -24						; size = 4
tv79 = -20						; size = 4
__acp$ = -12						; size = 4
__lpw$ = -8						; size = 4
__convert$ = -4						; size = 4
_psz1$ = 8						; size = 4
_psz2$ = 12						; size = 4
?lstrcmpiWFake@ATL@@YGHPB_W0@Z PROC NEAR		; ATL::lstrcmpiWFake, COMDAT

; 247  : {

  00000	55		 push	 ebp
  00001	8b ec		 mov	 ebp, esp
  00003	83 ec 20	 sub	 esp, 32			; 00000020H

; 248  : 	USES_CONVERSION;

  00006	e8 00 00 00 00	 call	 ?_AtlGetConversionACP@ATL@@YGIXZ ; ATL::_AtlGetConversionACP
  0000b	89 45 f4	 mov	 DWORD PTR __acp$[ebp], eax

; 249  : 
; 250  : 	return ::lstrcmpiA(W2A(psz1), W2A(psz2));

  0000e	8b 45 0c	 mov	 eax, DWORD PTR _psz2$[ebp]
  00011	89 45 f8	 mov	 DWORD PTR __lpw$[ebp], eax
  00014	83 7d f8 00	 cmp	 DWORD PTR __lpw$[ebp], 0
  00018	75 09		 jne	 SHORT $L89972
  0001a	c7 45 ec 00 00
	00 00		 mov	 DWORD PTR tv79[ebp], 0
  00021	eb 3a		 jmp	 SHORT $L89973
$L89972:
  00023	8b 4d f8	 mov	 ecx, DWORD PTR __lpw$[ebp]
  00026	51		 push	 ecx
  00027	ff 15 00 00 00
	00		 call	 DWORD PTR __imp__lstrlenW@4
  0002d	8d 54 00 02	 lea	 edx, DWORD PTR [eax+eax+2]
  00031	89 55 fc	 mov	 DWORD PTR __convert$[ebp], edx
  00034	8b 45 fc	 mov	 eax, DWORD PTR __convert$[ebp]
  00037	83 c0 03	 add	 eax, 3
  0003a	83 e0 fc	 and	 eax, -4			; fffffffcH
  0003d	e8 00 00 00 00	 call	 __alloca_probe
  00042	89 65 e8	 mov	 DWORD PTR tv76[ebp], esp
  00045	8b 45 f4	 mov	 eax, DWORD PTR __acp$[ebp]
  00048	50		 push	 eax
  00049	8b 4d fc	 mov	 ecx, DWORD PTR __convert$[ebp]
  0004c	51		 push	 ecx
  0004d	8b 55 f8	 mov	 edx, DWORD PTR __lpw$[ebp]
  00050	52		 push	 edx
  00051	8b 45 e8	 mov	 eax, DWORD PTR tv76[ebp]
  00054	50		 push	 eax
  00055	e8 00 00 00 00	 call	 ?AtlW2AHelper@@YGPADPADPB_WHI@Z ; AtlW2AHelper
  0005a	89 45 ec	 mov	 DWORD PTR tv79[ebp], eax
$L89973:
  0005d	8b 4d 08	 mov	 ecx, DWORD PTR _psz1$[ebp]
  00060	89 4d f8	 mov	 DWORD PTR __lpw$[ebp], ecx
  00063	83 7d f8 00	 cmp	 DWORD PTR __lpw$[ebp], 0
  00067	75 09		 jne	 SHORT $L89974
  00069	c7 45 e4 00 00
	00 00		 mov	 DWORD PTR tv94[ebp], 0
  00070	eb 3a		 jmp	 SHORT $L89975
$L89974:
  00072	8b 55 f8	 mov	 edx, DWORD PTR __lpw$[ebp]
  00075	52		 push	 edx
  00076	ff 15 00 00 00
	00		 call	 DWORD PTR __imp__lstrlenW@4
  0007c	8d 44 00 02	 lea	 eax, DWORD PTR [eax+eax+2]
  00080	89 45 fc	 mov	 DWORD PTR __convert$[ebp], eax
  00083	8b 45 fc	 mov	 eax, DWORD PTR __convert$[ebp]
  00086	83 c0 03	 add	 eax, 3
  00089	83 e0 fc	 and	 eax, -4			; fffffffcH
  0008c	e8 00 00 00 00	 call	 __alloca_probe
  00091	89 65 e0	 mov	 DWORD PTR tv91[ebp], esp
  00094	8b 4d f4	 mov	 ecx, DWORD PTR __acp$[ebp]
  00097	51		 push	 ecx
  00098	8b 55 fc	 mov	 edx, DWORD PTR __convert$[ebp]
  0009b	52		 push	 edx
  0009c	8b 45 f8	 mov	 eax, DWORD PTR __lpw$[ebp]
  0009f	50		 push	 eax
  000a0	8b 4d e0	 mov	 ecx, DWORD PTR tv91[ebp]
  000a3	51		 push	 ecx
  000a4	e8 00 00 00 00	 call	 ?AtlW2AHelper@@YGPADPADPB_WHI@Z ; AtlW2AHelper
  000a9	89 45 e4	 mov	 DWORD PTR tv94[ebp], eax
$L89975:
  000ac	8b 55 ec	 mov	 edx, DWORD PTR tv79[ebp]
  000af	52		 push	 edx
  000b0	8b 45 e4	 mov	 eax, DWORD PTR tv94[ebp]
  000b3	50		 push	 eax
  000b4	ff 15 00 00 00
	00		 call	 DWORD PTR __imp__lstrcmpiA@8

; 251  : }

  000ba	8d 65 e0	 lea	 esp, DWORD PTR [ebp-32]
  000bd	8b e5		 mov	 esp, ebp
  000bf	5d		 pop	 ebp
  000c0	c2 08 00	 ret	 8
?lstrcmpiWFake@ATL@@YGHPB_W0@Z ENDP			; ATL::lstrcmpiWFake
_TEXT	ENDS
PUBLIC	?CharLowerWFake@ATL@@YGPA_WPA_W@Z		; ATL::CharLowerWFake
EXTRN	__imp__CharLowerW@4:NEAR
; Function compile flags: /Odt
;	COMDAT ?CharLowerWThunk@ATL@@YGPA_WPA_W@Z
_TEXT	SEGMENT
_psz$ = 8						; size = 4
?CharLowerWThunk@ATL@@YGPA_WPA_W@Z PROC NEAR		; ATL::CharLowerWThunk, COMDAT

; 273  : {

  00000	55		 push	 ebp
  00001	8b ec		 mov	 ebp, esp

; 274  : 	_AtlInstallStringThunk(reinterpret_cast<void**>(&_strthunks.pfnCharLowerW), CharLowerWFake, ::CharLowerW);

  00003	a1 00 00 00 00	 mov	 eax, DWORD PTR __imp__CharLowerW@4
  00008	50		 push	 eax
  00009	68 00 00 00 00	 push	 OFFSET FLAT:?CharLowerWFake@ATL@@YGPA_WPA_W@Z ; ATL::CharLowerWFake
  0000e	68 0c 00 00 00	 push	 OFFSET FLAT:?_strthunks@ATL@@3U_AtlStringThunks@1@A+12
  00013	e8 00 00 00 00	 call	 ?_AtlInstallStringThunk@ATL@@YAXPAPAXPAX1@Z ; ATL::_AtlInstallStringThunk
  00018	83 c4 0c	 add	 esp, 12			; 0000000cH

; 275  : 
; 276  : 	return _strthunks.pfnCharLowerW(psz);

  0001b	8b 4d 08	 mov	 ecx, DWORD PTR _psz$[ebp]
  0001e	51		 push	 ecx
  0001f	ff 15 0c 00 00
	00		 call	 DWORD PTR ?_strthunks@ATL@@3U_AtlStringThunks@1@A+12

; 277  : }

  00025	5d		 pop	 ebp
  00026	c2 04 00	 ret	 4
?CharLowerWThunk@ATL@@YGPA_WPA_W@Z ENDP			; ATL::CharLowerWThunk
_TEXT	ENDS
PUBLIC	?AtlA2WHelper@@YGPA_WPA_WPBDHI@Z		; AtlA2WHelper
EXTRN	__imp__lstrlenA@4:NEAR
EXTRN	__imp__CharLowerA@4:NEAR
EXTRN	__imp__wcscpy:NEAR
; Function compile flags: /Odt
;	COMDAT ?CharLowerWFake@ATL@@YGPA_WPA_W@Z
_TEXT	SEGMENT
tv90 = -36						; size = 4
tv94 = -32						; size = 4
tv75 = -28						; size = 4
tv78 = -24						; size = 4
__lpa$ = -20						; size = 4
__acp$ = -16						; size = 4
_pszA$ = -12						; size = 4
__lpw$ = -8						; size = 4
__convert$ = -4						; size = 4
_psz$ = 8						; size = 4
?CharLowerWFake@ATL@@YGPA_WPA_W@Z PROC NEAR		; ATL::CharLowerWFake, COMDAT

; 261  : {

  00000	55		 push	 ebp
  00001	8b ec		 mov	 ebp, esp
  00003	83 ec 24	 sub	 esp, 36			; 00000024H

; 262  : 	USES_CONVERSION;

  00006	e8 00 00 00 00	 call	 ?_AtlGetConversionACP@ATL@@YGIXZ ; ATL::_AtlGetConversionACP
  0000b	89 45 f0	 mov	 DWORD PTR __acp$[ebp], eax

; 263  : 	LPSTR pszA;
; 264  : 
; 265  : 	pszA = W2A(psz);

  0000e	8b 45 08	 mov	 eax, DWORD PTR _psz$[ebp]
  00011	89 45 f8	 mov	 DWORD PTR __lpw$[ebp], eax
  00014	83 7d f8 00	 cmp	 DWORD PTR __lpw$[ebp], 0
  00018	75 09		 jne	 SHORT $L89980
  0001a	c7 45 e8 00 00
	00 00		 mov	 DWORD PTR tv78[ebp], 0
  00021	eb 3a		 jmp	 SHORT $L89981
$L89980:
  00023	8b 4d f8	 mov	 ecx, DWORD PTR __lpw$[ebp]
  00026	51		 push	 ecx
  00027	ff 15 00 00 00
	00		 call	 DWORD PTR __imp__lstrlenW@4
  0002d	8d 54 00 02	 lea	 edx, DWORD PTR [eax+eax+2]
  00031	89 55 fc	 mov	 DWORD PTR __convert$[ebp], edx
  00034	8b 45 fc	 mov	 eax, DWORD PTR __convert$[ebp]
  00037	83 c0 03	 add	 eax, 3
  0003a	83 e0 fc	 and	 eax, -4			; fffffffcH
  0003d	e8 00 00 00 00	 call	 __alloca_probe
  00042	89 65 e4	 mov	 DWORD PTR tv75[ebp], esp
  00045	8b 45 f0	 mov	 eax, DWORD PTR __acp$[ebp]
  00048	50		 push	 eax
  00049	8b 4d fc	 mov	 ecx, DWORD PTR __convert$[ebp]
  0004c	51		 push	 ecx
  0004d	8b 55 f8	 mov	 edx, DWORD PTR __lpw$[ebp]
  00050	52		 push	 edx
  00051	8b 45 e4	 mov	 eax, DWORD PTR tv75[ebp]
  00054	50		 push	 eax
  00055	e8 00 00 00 00	 call	 ?AtlW2AHelper@@YGPADPADPB_WHI@Z ; AtlW2AHelper
  0005a	89 45 e8	 mov	 DWORD PTR tv78[ebp], eax
$L89981:
  0005d	8b 4d e8	 mov	 ecx, DWORD PTR tv78[ebp]
  00060	89 4d f4	 mov	 DWORD PTR _pszA$[ebp], ecx

; 266  : 	::CharLowerA(pszA);

  00063	8b 55 f4	 mov	 edx, DWORD PTR _pszA$[ebp]
  00066	52		 push	 edx
  00067	ff 15 00 00 00
	00		 call	 DWORD PTR __imp__CharLowerA@4

; 267  : 	wcscpy(psz, A2W(pszA));

  0006d	8b 45 f4	 mov	 eax, DWORD PTR _pszA$[ebp]
  00070	89 45 ec	 mov	 DWORD PTR __lpa$[ebp], eax
  00073	83 7d ec 00	 cmp	 DWORD PTR __lpa$[ebp], 0
  00077	75 09		 jne	 SHORT $L89982
  00079	c7 45 e0 00 00
	00 00		 mov	 DWORD PTR tv94[ebp], 0
  00080	eb 3b		 jmp	 SHORT $L89983
$L89982:
  00082	8b 4d ec	 mov	 ecx, DWORD PTR __lpa$[ebp]
  00085	51		 push	 ecx
  00086	ff 15 00 00 00
	00		 call	 DWORD PTR __imp__lstrlenA@4
  0008c	83 c0 01	 add	 eax, 1
  0008f	89 45 fc	 mov	 DWORD PTR __convert$[ebp], eax
  00092	8b 45 fc	 mov	 eax, DWORD PTR __convert$[ebp]
  00095	d1 e0		 shl	 eax, 1
  00097	83 c0 03	 add	 eax, 3
  0009a	83 e0 fc	 and	 eax, -4			; fffffffcH
  0009d	e8 00 00 00 00	 call	 __alloca_probe
  000a2	89 65 dc	 mov	 DWORD PTR tv90[ebp], esp
  000a5	8b 55 f0	 mov	 edx, DWORD PTR __acp$[ebp]
  000a8	52		 push	 edx
  000a9	8b 45 fc	 mov	 eax, DWORD PTR __convert$[ebp]
  000ac	50		 push	 eax
  000ad	8b 4d ec	 mov	 ecx, DWORD PTR __lpa$[ebp]
  000b0	51		 push	 ecx
  000b1	8b 55 dc	 mov	 edx, DWORD PTR tv90[ebp]
  000b4	52		 push	 edx
  000b5	e8 00 00 00 00	 call	 ?AtlA2WHelper@@YGPA_WPA_WPBDHI@Z ; AtlA2WHelper
  000ba	89 45 e0	 mov	 DWORD PTR tv94[ebp], eax
$L89983:
  000bd	8b 45 e0	 mov	 eax, DWORD PTR tv94[ebp]
  000c0	50		 push	 eax
  000c1	8b 4d 08	 mov	 ecx, DWORD PTR _psz$[ebp]
  000c4	51		 push	 ecx
  000c5	ff 15 00 00 00
	00		 call	 DWORD PTR __imp__wcscpy
  000cb	83 c4 08	 add	 esp, 8

; 268  : 
; 269  : 	return psz;

  000ce	8b 45 08	 mov	 eax, DWORD PTR _psz$[ebp]

; 270  : }

  000d1	8d 65 dc	 lea	 esp, DWORD PTR [ebp-36]
  000d4	8b e5		 mov	 esp, ebp
  000d6	5d		 pop	 ebp
  000d7	c2 04 00	 ret	 4
?CharLowerWFake@ATL@@YGPA_WPA_W@Z ENDP			; ATL::CharLowerWFake
; Function compile flags: /Odt
; File d:\program files (x86)\microsoft visual studio .net 2003\vc7\atlmfc\include\atlconv.h
_TEXT	ENDS
;	COMDAT ?AtlA2WHelper@@YGPA_WPA_WPBDHI@Z
_TEXT	SEGMENT
_ret$ = -4						; size = 4
_lpw$ = 8						; size = 4
_lpa$ = 12						; size = 4
_nChars$ = 16						; size = 4
_acp$ = 20						; size = 4
?AtlA2WHelper@@YGPA_WPA_WPBDHI@Z PROC NEAR		; AtlA2WHelper, COMDAT

; 554  : {

  00000	55		 push	 ebp
  00001	8b ec		 mov	 ebp, esp
  00003	51		 push	 ecx

; 555  : 	ATLASSERT(lpa != NULL);
; 556  : 	ATLASSERT(lpw != NULL);
; 557  : 	if (lpw == NULL || lpa == NULL)

  00004	83 7d 08 00	 cmp	 DWORD PTR _lpw$[ebp], 0
  00008	74 06		 je	 SHORT $L66414
  0000a	83 7d 0c 00	 cmp	 DWORD PTR _lpa$[ebp], 0
  0000e	75 04		 jne	 SHORT $L66413
$L66414:

; 558  : 		return NULL;

  00010	33 c0		 xor	 eax, eax
  00012	eb 32		 jmp	 SHORT $L66410
$L66413:

; 559  : 	// verify that no illegal character present
; 560  : 	// since lpw was allocated based on the size of lpa
; 561  : 	// don't worry about the number of chars
; 562  : 	lpw[0] = '\0';

  00014	8b 45 08	 mov	 eax, DWORD PTR _lpw$[ebp]
  00017	66 c7 00 00 00	 mov	 WORD PTR [eax], 0

; 563  : 	int ret = MultiByteToWideChar(acp, 0, lpa, -1, lpw, nChars);

  0001c	8b 4d 10	 mov	 ecx, DWORD PTR _nChars$[ebp]
  0001f	51		 push	 ecx
  00020	8b 55 08	 mov	 edx, DWORD PTR _lpw$[ebp]
  00023	52		 push	 edx
  00024	6a ff		 push	 -1
  00026	8b 45 0c	 mov	 eax, DWORD PTR _lpa$[ebp]
  00029	50		 push	 eax
  0002a	6a 00		 push	 0
  0002c	8b 4d 14	 mov	 ecx, DWORD PTR _acp$[ebp]
  0002f	51		 push	 ecx
  00030	ff 15 00 00 00
	00		 call	 DWORD PTR __imp__MultiByteToWideChar@24
  00036	89 45 fc	 mov	 DWORD PTR _ret$[ebp], eax

; 564  : 	if(ret == 0)

  00039	83 7d fc 00	 cmp	 DWORD PTR _ret$[ebp], 0
  0003d	75 04		 jne	 SHORT $L66416

; 565  : 	{
; 566  : 		ATLASSERT(FALSE);
; 567  : 		return NULL;

  0003f	33 c0		 xor	 eax, eax
  00041	eb 03		 jmp	 SHORT $L66410
$L66416:

; 568  : 	}		
; 569  : 	return lpw;

  00043	8b 45 08	 mov	 eax, DWORD PTR _lpw$[ebp]
$L66410:

; 570  : }

  00046	8b e5		 mov	 esp, ebp
  00048	5d		 pop	 ebp
  00049	c2 10 00	 ret	 16			; 00000010H
?AtlA2WHelper@@YGPA_WPA_WPBDHI@Z ENDP			; AtlA2WHelper
_TEXT	ENDS
PUBLIC	?CharUpperWFake@ATL@@YGPA_WPA_W@Z		; ATL::CharUpperWFake
EXTRN	__imp__CharUpperW@4:NEAR
; Function compile flags: /Odt
; File d:\program files (x86)\microsoft visual studio .net 2003\vc7\atlmfc\include\cstringt.h
;	COMDAT ?CharUpperWThunk@ATL@@YGPA_WPA_W@Z
_TEXT	SEGMENT
_psz$ = 8						; size = 4
?CharUpperWThunk@ATL@@YGPA_WPA_W@Z PROC NEAR		; ATL::CharUpperWThunk, COMDAT

; 292  : {

  00000	55		 push	 ebp
  00001	8b ec		 mov	 ebp, esp

; 293  : 	_AtlInstallStringThunk(reinterpret_cast<void**>(&_strthunks.pfnCharUpperW), CharUpperWFake, ::CharUpperW);

  00003	a1 00 00 00 00	 mov	 eax, DWORD PTR __imp__CharUpperW@4
  00008	50		 push	 eax
  00009	68 00 00 00 00	 push	 OFFSET FLAT:?CharUpperWFake@ATL@@YGPA_WPA_W@Z ; ATL::CharUpperWFake
  0000e	68 10 00 00 00	 push	 OFFSET FLAT:?_strthunks@ATL@@3U_AtlStringThunks@1@A+16
  00013	e8 00 00 00 00	 call	 ?_AtlInstallStringThunk@ATL@@YAXPAPAXPAX1@Z ; ATL::_AtlInstallStringThunk
  00018	83 c4 0c	 add	 esp, 12			; 0000000cH

; 294  : 
; 295  : 	return _strthunks.pfnCharUpperW(psz);

  0001b	8b 4d 08	 mov	 ecx, DWORD PTR _psz$[ebp]
  0001e	51		 push	 ecx
  0001f	ff 15 10 00 00
	00		 call	 DWORD PTR ?_strthunks@ATL@@3U_AtlStringThunks@1@A+16

; 296  : }

  00025	5d		 pop	 ebp
  00026	c2 04 00	 ret	 4
?CharUpperWThunk@ATL@@YGPA_WPA_W@Z ENDP			; ATL::CharUpperWThunk
_TEXT	ENDS
EXTRN	__imp__CharUpperA@4:NEAR
; Function compile flags: /Odt
;	COMDAT ?CharUpperWFake@ATL@@YGPA_WPA_W@Z
_TEXT	SEGMENT
tv90 = -36						; size = 4
tv94 = -32						; size = 4
tv75 = -28						; size = 4
tv78 = -24						; size = 4
__lpa$ = -20						; size = 4
__acp$ = -16						; size = 4
_pszA$ = -12						; size = 4
__lpw$ = -8						; size = 4
__convert$ = -4						; size = 4
_psz$ = 8						; size = 4
?CharUpperWFake@ATL@@YGPA_WPA_W@Z PROC NEAR		; ATL::CharUpperWFake, COMDAT

; 280  : {

  00000	55		 push	 ebp
  00001	8b ec		 mov	 ebp, esp
  00003	83 ec 24	 sub	 esp, 36			; 00000024H

; 281  : 	USES_CONVERSION;

  00006	e8 00 00 00 00	 call	 ?_AtlGetConversionACP@ATL@@YGIXZ ; ATL::_AtlGetConversionACP
  0000b	89 45 f0	 mov	 DWORD PTR __acp$[ebp], eax

; 282  : 	LPSTR pszA;
; 283  : 
; 284  : 	pszA = W2A(psz);

  0000e	8b 45 08	 mov	 eax, DWORD PTR _psz$[ebp]
  00011	89 45 f8	 mov	 DWORD PTR __lpw$[ebp], eax
  00014	83 7d f8 00	 cmp	 DWORD PTR __lpw$[ebp], 0
  00018	75 09		 jne	 SHORT $L89990
  0001a	c7 45 e8 00 00
	00 00		 mov	 DWORD PTR tv78[ebp], 0
  00021	eb 3a		 jmp	 SHORT $L89991
$L89990:
  00023	8b 4d f8	 mov	 ecx, DWORD PTR __lpw$[ebp]
  00026	51		 push	 ecx
  00027	ff 15 00 00 00
	00		 call	 DWORD PTR __imp__lstrlenW@4
  0002d	8d 54 00 02	 lea	 edx, DWORD PTR [eax+eax+2]
  00031	89 55 fc	 mov	 DWORD PTR __convert$[ebp], edx
  00034	8b 45 fc	 mov	 eax, DWORD PTR __convert$[ebp]
  00037	83 c0 03	 add	 eax, 3
  0003a	83 e0 fc	 and	 eax, -4			; fffffffcH
  0003d	e8 00 00 00 00	 call	 __alloca_probe
  00042	89 65 e4	 mov	 DWORD PTR tv75[ebp], esp
  00045	8b 45 f0	 mov	 eax, DWORD PTR __acp$[ebp]
  00048	50		 push	 eax
  00049	8b 4d fc	 mov	 ecx, DWORD PTR __convert$[ebp]
  0004c	51		 push	 ecx
  0004d	8b 55 f8	 mov	 edx, DWORD PTR __lpw$[ebp]
  00050	52		 push	 edx
  00051	8b 45 e4	 mov	 eax, DWORD PTR tv75[ebp]
  00054	50		 push	 eax
  00055	e8 00 00 00 00	 call	 ?AtlW2AHelper@@YGPADPADPB_WHI@Z ; AtlW2AHelper
  0005a	89 45 e8	 mov	 DWORD PTR tv78[ebp], eax
$L89991:
  0005d	8b 4d e8	 mov	 ecx, DWORD PTR tv78[ebp]
  00060	89 4d f4	 mov	 DWORD PTR _pszA$[ebp], ecx

; 285  : 	::CharUpperA(pszA);

  00063	8b 55 f4	 mov	 edx, DWORD PTR _pszA$[ebp]
  00066	52		 push	 edx
  00067	ff 15 00 00 00
	00		 call	 DWORD PTR __imp__CharUpperA@4

; 286  : 	wcscpy(psz, A2W(pszA));

  0006d	8b 45 f4	 mov	 eax, DWORD PTR _pszA$[ebp]
  00070	89 45 ec	 mov	 DWORD PTR __lpa$[ebp], eax
  00073	83 7d ec 00	 cmp	 DWORD PTR __lpa$[ebp], 0
  00077	75 09		 jne	 SHORT $L89992
  00079	c7 45 e0 00 00
	00 00		 mov	 DWORD PTR tv94[ebp], 0
  00080	eb 3b		 jmp	 SHORT $L89993
$L89992:
  00082	8b 4d ec	 mov	 ecx, DWORD PTR __lpa$[ebp]
  00085	51		 push	 ecx
  00086	ff 15 00 00 00
	00		 call	 DWORD PTR __imp__lstrlenA@4
  0008c	83 c0 01	 add	 eax, 1
  0008f	89 45 fc	 mov	 DWORD PTR __convert$[ebp], eax
  00092	8b 45 fc	 mov	 eax, DWORD PTR __convert$[ebp]
  00095	d1 e0		 shl	 eax, 1
  00097	83 c0 03	 add	 eax, 3
  0009a	83 e0 fc	 and	 eax, -4			; fffffffcH
  0009d	e8 00 00 00 00	 call	 __alloca_probe
  000a2	89 65 dc	 mov	 DWORD PTR tv90[ebp], esp
  000a5	8b 55 f0	 mov	 edx, DWORD PTR __acp$[ebp]
  000a8	52		 push	 edx
  000a9	8b 45 fc	 mov	 eax, DWORD PTR __convert$[ebp]
  000ac	50		 push	 eax
  000ad	8b 4d ec	 mov	 ecx, DWORD PTR __lpa$[ebp]
  000b0	51		 push	 ecx
  000b1	8b 55 dc	 mov	 edx, DWORD PTR tv90[ebp]
  000b4	52		 push	 edx
  000b5	e8 00 00 00 00	 call	 ?AtlA2WHelper@@YGPA_WPA_WPBDHI@Z ; AtlA2WHelper
  000ba	89 45 e0	 mov	 DWORD PTR tv94[ebp], eax
$L89993:
  000bd	8b 45 e0	 mov	 eax, DWORD PTR tv94[ebp]
  000c0	50		 push	 eax
  000c1	8b 4d 08	 mov	 ecx, DWORD PTR _psz$[ebp]
  000c4	51		 push	 ecx
  000c5	ff 15 00 00 00
	00		 call	 DWORD PTR __imp__wcscpy
  000cb	83 c4 08	 add	 esp, 8

; 287  : 
; 288  : 	return psz;

  000ce	8b 45 08	 mov	 eax, DWORD PTR _psz$[ebp]

; 289  : }

  000d1	8d 65 dc	 lea	 esp, DWORD PTR [ebp-36]
  000d4	8b e5		 mov	 esp, ebp
  000d6	5d		 pop	 ebp
  000d7	c2 04 00	 ret	 4
?CharUpperWFake@ATL@@YGPA_WPA_W@Z ENDP			; ATL::CharUpperWFake
_TEXT	ENDS
PUBLIC	?StrHash@YL_EncFileReg@@SA?AV?$basic_string@DU?$char_traits@D@std@@V?$allocator@D@2@@std@@V23@@Z ; YL_EncFileReg::StrHash
EXTRN	__imp_?c_str@?$basic_string@DU?$char_traits@D@std@@V?$allocator@D@2@@std@@QBEPBDXZ:NEAR
EXTRN	?long2str@@YA?AV?$basic_string@DU?$char_traits@D@std@@V?$allocator@D@2@@std@@J@Z:NEAR ; long2str
EXTRN	?RSHash@@YAJPBD@Z:NEAR				; RSHash
EXTRN	__imp_??0?$basic_string@DU?$char_traits@D@std@@V?$allocator@D@2@@std@@QAE@ABV01@@Z:NEAR
EXTRN	__imp_??0?$basic_string@DU?$char_traits@D@std@@V?$allocator@D@2@@std@@QAE@PBD@Z:NEAR
EXTRN	__imp_??1?$basic_string@DU?$char_traits@D@std@@V?$allocator@D@2@@std@@QAE@XZ:NEAR
EXTRN	__imp_??Y?$basic_string@DU?$char_traits@D@std@@V?$allocator@D@2@@std@@QAEAAV01@ABV01@@Z:NEAR
xdata$x	SEGMENT
$T90008	DD	0ffffffffH
	DD	FLAT:$L90001
	DD	00H
	DD	FLAT:$L89998
	DD	01H
	DD	FLAT:$L89999
	DD	02H
	DD	FLAT:$L90000
$T90005	DD	019930520H
	DD	04H
	DD	FLAT:$T90008
	DD	2 DUP(00H)
	DD	2 DUP(00H)
; Function compile flags: /Odt
; File d:\boxgit\playbox\commonlib\common\yl_encfilereg.cpp
xdata$x	ENDS
_TEXT	SEGMENT
tv87 = -84						; size = 4
tv66 = -80						; size = 4
$T90002 = -76						; size = 4
$T89997 = -72						; size = 28
_strRet$ = -44						; size = 28
__$ArrayPad$ = -16					; size = 4
__$EHRec$ = -12						; size = 12
__$ReturnAddr$ = 4					; size = 4
___$ReturnUdt$ = 8					; size = 4
_str$ = 12						; size = 28
?StrHash@YL_EncFileReg@@SA?AV?$basic_string@DU?$char_traits@D@std@@V?$allocator@D@2@@std@@V23@@Z PROC NEAR ; YL_EncFileReg::StrHash

; 10   : {

  00000	55		 push	 ebp
  00001	8b ec		 mov	 ebp, esp
  00003	6a ff		 push	 -1
  00005	68 00 00 00 00	 push	 __ehhandler$?StrHash@YL_EncFileReg@@SA?AV?$basic_string@DU?$char_traits@D@std@@V?$allocator@D@2@@std@@V23@@Z
  0000a	64 a1 00 00 00
	00		 mov	 eax, DWORD PTR fs:__except_list
  00010	50		 push	 eax
  00011	64 89 25 00 00
	00 00		 mov	 DWORD PTR fs:__except_list, esp
  00018	83 ec 48	 sub	 esp, 72			; 00000048H
  0001b	a1 00 00 00 00	 mov	 eax, DWORD PTR ___security_cookie
  00020	89 45 f0	 mov	 DWORD PTR __$ArrayPad$[ebp], eax
  00023	c7 45 b4 00 00
	00 00		 mov	 DWORD PTR $T90002[ebp], 0
  0002a	c7 45 fc 01 00
	00 00		 mov	 DWORD PTR __$EHRec$[ebp+8], 1

; 11   : 	string strRet = "A";

  00031	68 00 00 00 00	 push	 OFFSET FLAT:$SG84276
  00036	8d 4d d4	 lea	 ecx, DWORD PTR _strRet$[ebp]
  00039	ff 15 00 00 00
	00		 call	 DWORD PTR __imp_??0?$basic_string@DU?$char_traits@D@std@@V?$allocator@D@2@@std@@QAE@PBD@Z
  0003f	c6 45 fc 02	 mov	 BYTE PTR __$EHRec$[ebp+8], 2

; 12   : 	strRet += long2str( RSHash( str.c_str() ) );

  00043	8d 4d 0c	 lea	 ecx, DWORD PTR _str$[ebp]
  00046	ff 15 00 00 00
	00		 call	 DWORD PTR __imp_?c_str@?$basic_string@DU?$char_traits@D@std@@V?$allocator@D@2@@std@@QBEPBDXZ
  0004c	50		 push	 eax
  0004d	e8 00 00 00 00	 call	 ?RSHash@@YAJPBD@Z	; RSHash
  00052	83 c4 04	 add	 esp, 4
  00055	50		 push	 eax
  00056	8d 45 b8	 lea	 eax, DWORD PTR $T89997[ebp]
  00059	50		 push	 eax
  0005a	e8 00 00 00 00	 call	 ?long2str@@YA?AV?$basic_string@DU?$char_traits@D@std@@V?$allocator@D@2@@std@@J@Z ; long2str
  0005f	83 c4 08	 add	 esp, 8
  00062	89 45 b0	 mov	 DWORD PTR tv66[ebp], eax
  00065	8b 4d b0	 mov	 ecx, DWORD PTR tv66[ebp]
  00068	89 4d ac	 mov	 DWORD PTR tv87[ebp], ecx
  0006b	c6 45 fc 03	 mov	 BYTE PTR __$EHRec$[ebp+8], 3
  0006f	8b 55 ac	 mov	 edx, DWORD PTR tv87[ebp]
  00072	52		 push	 edx
  00073	8d 4d d4	 lea	 ecx, DWORD PTR _strRet$[ebp]
  00076	ff 15 00 00 00
	00		 call	 DWORD PTR __imp_??Y?$basic_string@DU?$char_traits@D@std@@V?$allocator@D@2@@std@@QAEAAV01@ABV01@@Z
  0007c	c6 45 fc 02	 mov	 BYTE PTR __$EHRec$[ebp+8], 2
  00080	8d 4d b8	 lea	 ecx, DWORD PTR $T89997[ebp]
  00083	ff 15 00 00 00
	00		 call	 DWORD PTR __imp_??1?$basic_string@DU?$char_traits@D@std@@V?$allocator@D@2@@std@@QAE@XZ

; 13   : 	return strRet;

  00089	8d 45 d4	 lea	 eax, DWORD PTR _strRet$[ebp]
  0008c	50		 push	 eax
  0008d	8b 4d 08	 mov	 ecx, DWORD PTR ___$ReturnUdt$[ebp]
  00090	ff 15 00 00 00
	00		 call	 DWORD PTR __imp_??0?$basic_string@DU?$char_traits@D@std@@V?$allocator@D@2@@std@@QAE@ABV01@@Z
  00096	8b 4d b4	 mov	 ecx, DWORD PTR $T90002[ebp]
  00099	83 c9 01	 or	 ecx, 1
  0009c	89 4d b4	 mov	 DWORD PTR $T90002[ebp], ecx
  0009f	c6 45 fc 01	 mov	 BYTE PTR __$EHRec$[ebp+8], 1
  000a3	8d 4d d4	 lea	 ecx, DWORD PTR _strRet$[ebp]
  000a6	ff 15 00 00 00
	00		 call	 DWORD PTR __imp_??1?$basic_string@DU?$char_traits@D@std@@V?$allocator@D@2@@std@@QAE@XZ
  000ac	c6 45 fc 00	 mov	 BYTE PTR __$EHRec$[ebp+8], 0
  000b0	8d 4d 0c	 lea	 ecx, DWORD PTR _str$[ebp]
  000b3	ff 15 00 00 00
	00		 call	 DWORD PTR __imp_??1?$basic_string@DU?$char_traits@D@std@@V?$allocator@D@2@@std@@QAE@XZ
  000b9	8b 45 08	 mov	 eax, DWORD PTR ___$ReturnUdt$[ebp]

; 14   : }

  000bc	8b 4d f4	 mov	 ecx, DWORD PTR __$EHRec$[ebp]
  000bf	64 89 0d 00 00
	00 00		 mov	 DWORD PTR fs:__except_list, ecx
  000c6	8b 4d f0	 mov	 ecx, DWORD PTR __$ArrayPad$[ebp]
  000c9	e8 00 00 00 00	 call	 @__security_check_cookie@4
  000ce	8b e5		 mov	 esp, ebp
  000d0	5d		 pop	 ebp
  000d1	c3		 ret	 0
_TEXT	ENDS
text$x	SEGMENT
$L89998:
  00000	8d 4d 0c	 lea	 ecx, DWORD PTR _str$[ebp]
  00003	ff 25 00 00 00
	00		 jmp	 DWORD PTR __imp_??1?$basic_string@DU?$char_traits@D@std@@V?$allocator@D@2@@std@@QAE@XZ
$L89999:
  00009	8d 4d d4	 lea	 ecx, DWORD PTR _strRet$[ebp]
  0000c	ff 25 00 00 00
	00		 jmp	 DWORD PTR __imp_??1?$basic_string@DU?$char_traits@D@std@@V?$allocator@D@2@@std@@QAE@XZ
$L90000:
  00012	8d 4d b8	 lea	 ecx, DWORD PTR $T89997[ebp]
  00015	ff 25 00 00 00
	00		 jmp	 DWORD PTR __imp_??1?$basic_string@DU?$char_traits@D@std@@V?$allocator@D@2@@std@@QAE@XZ
$L90001:
  0001b	8b 45 b4	 mov	 eax, DWORD PTR $T90002[ebp]
  0001e	83 e0 01	 and	 eax, 1
  00021	0f 84 0d 00 00
	00		 je	 $L90003
  00027	83 65 b4 fe	 and	 DWORD PTR $T90002[ebp], -2 ; fffffffeH
  0002b	8b 4d 08	 mov	 ecx, DWORD PTR ___$ReturnUdt$[ebp]
  0002e	ff 25 00 00 00
	00		 jmp	 DWORD PTR __imp_??1?$basic_string@DU?$char_traits@D@std@@V?$allocator@D@2@@std@@QAE@XZ
$L90003:
  00034	c3		 ret	 0
__ehhandler$?StrHash@YL_EncFileReg@@SA?AV?$basic_string@DU?$char_traits@D@std@@V?$allocator@D@2@@std@@V23@@Z:
  00035	b8 00 00 00 00	 mov	 eax, OFFSET FLAT:$T90005
  0003a	e9 00 00 00 00	 jmp	 ___CxxFrameHandler
text$x	ENDS
?StrHash@YL_EncFileReg@@SA?AV?$basic_string@DU?$char_traits@D@std@@V?$allocator@D@2@@std@@V23@@Z ENDP ; YL_EncFileReg::StrHash
PUBLIC	?Enc@YL_EncFileReg@@SA?AV?$basic_string@DU?$char_traits@D@std@@V?$allocator@D@2@@std@@I@Z ; YL_EncFileReg::Enc
PUBLIC	?Enc@YL_EncFileReg@@SA?AV?$basic_string@DU?$char_traits@D@std@@V?$allocator@D@2@@std@@V23@@Z ; YL_EncFileReg::Enc
EXTRN	?uint2str@@YA?AV?$basic_string@DU?$char_traits@D@std@@V?$allocator@D@2@@std@@I@Z:NEAR ; uint2str
; Function compile flags: /Odt
_TEXT	SEGMENT
tv83 = -16						; size = 4
tv82 = -12						; size = 4
$T90013 = -8						; size = 4
$T90010 = -4						; size = 4
___$ReturnUdt$ = 8					; size = 4
_i$ = 12						; size = 4
?Enc@YL_EncFileReg@@SA?AV?$basic_string@DU?$char_traits@D@std@@V?$allocator@D@2@@std@@I@Z PROC NEAR ; YL_EncFileReg::Enc

; 17   : {

  000e0	55		 push	 ebp
  000e1	8b ec		 mov	 ebp, esp
  000e3	83 ec 10	 sub	 esp, 16			; 00000010H
  000e6	c7 45 f8 00 00
	00 00		 mov	 DWORD PTR $T90013[ebp], 0

; 18   : 	return Enc( uint2str( i ) );

  000ed	83 ec 1c	 sub	 esp, 28			; 0000001cH
  000f0	8b c4		 mov	 eax, esp
  000f2	89 65 fc	 mov	 DWORD PTR $T90010[ebp], esp
  000f5	8b 4d 0c	 mov	 ecx, DWORD PTR _i$[ebp]
  000f8	51		 push	 ecx
  000f9	50		 push	 eax
  000fa	e8 00 00 00 00	 call	 ?uint2str@@YA?AV?$basic_string@DU?$char_traits@D@std@@V?$allocator@D@2@@std@@I@Z ; uint2str
  000ff	83 c4 08	 add	 esp, 8
  00102	89 45 f4	 mov	 DWORD PTR tv82[ebp], eax
  00105	8b 55 08	 mov	 edx, DWORD PTR ___$ReturnUdt$[ebp]
  00108	52		 push	 edx
  00109	e8 00 00 00 00	 call	 ?Enc@YL_EncFileReg@@SA?AV?$basic_string@DU?$char_traits@D@std@@V?$allocator@D@2@@std@@V23@@Z ; YL_EncFileReg::Enc
  0010e	83 c4 20	 add	 esp, 32			; 00000020H
  00111	89 45 f0	 mov	 DWORD PTR tv83[ebp], eax
  00114	8b 45 f8	 mov	 eax, DWORD PTR $T90013[ebp]
  00117	83 c8 01	 or	 eax, 1
  0011a	89 45 f8	 mov	 DWORD PTR $T90013[ebp], eax
  0011d	8b 45 08	 mov	 eax, DWORD PTR ___$ReturnUdt$[ebp]

; 19   : }

  00120	8b e5		 mov	 esp, ebp
  00122	5d		 pop	 ebp
  00123	c3		 ret	 0
?Enc@YL_EncFileReg@@SA?AV?$basic_string@DU?$char_traits@D@std@@V?$allocator@D@2@@std@@I@Z ENDP ; YL_EncFileReg::Enc
_TEXT	ENDS
EXTRN	__imp_?length@?$basic_string@DU?$char_traits@D@std@@V?$allocator@D@2@@std@@QBEIXZ:NEAR
EXTRN	?YL_Base64Encode@@YAHPADPBDH1@Z:NEAR		; YL_Base64Encode
EXTRN	_memset:NEAR
xdata$x	SEGMENT
$T90026	DD	0ffffffffH
	DD	FLAT:$L90019
	DD	00H
	DD	FLAT:$L90017
	DD	01H
	DD	FLAT:$L90018
$T90023	DD	019930520H
	DD	03H
	DD	FLAT:$T90026
	DD	2 DUP(00H)
	DD	2 DUP(00H)
; Function compile flags: /Odt
xdata$x	ENDS
_TEXT	SEGMENT
$T90020 = -1076						; size = 4
_strRet$ = -1072					; size = 28
_szRet$ = -1044						; size = 1024
__$ArrayPad$ = -16					; size = 4
__$EHRec$ = -12						; size = 12
__$ReturnAddr$ = 4					; size = 4
___$ReturnUdt$ = 8					; size = 4
_str$ = 12						; size = 28
?Enc@YL_EncFileReg@@SA?AV?$basic_string@DU?$char_traits@D@std@@V?$allocator@D@2@@std@@V23@@Z PROC NEAR ; YL_EncFileReg::Enc

; 22   : {

  00130	55		 push	 ebp
  00131	8b ec		 mov	 ebp, esp
  00133	6a ff		 push	 -1
  00135	68 00 00 00 00	 push	 __ehhandler$?Enc@YL_EncFileReg@@SA?AV?$basic_string@DU?$char_traits@D@std@@V?$allocator@D@2@@std@@V23@@Z
  0013a	64 a1 00 00 00
	00		 mov	 eax, DWORD PTR fs:__except_list
  00140	50		 push	 eax
  00141	64 89 25 00 00
	00 00		 mov	 DWORD PTR fs:__except_list, esp
  00148	81 ec 28 04 00
	00		 sub	 esp, 1064		; 00000428H
  0014e	a1 00 00 00 00	 mov	 eax, DWORD PTR ___security_cookie
  00153	89 45 f0	 mov	 DWORD PTR __$ArrayPad$[ebp], eax
  00156	c7 85 cc fb ff
	ff 00 00 00 00	 mov	 DWORD PTR $T90020[ebp], 0
  00160	c7 45 fc 01 00
	00 00		 mov	 DWORD PTR __$EHRec$[ebp+8], 1

; 23   : 	char szRet[1024];
; 24   : 	memset( szRet, 0, 1024 );

  00167	68 00 04 00 00	 push	 1024			; 00000400H
  0016c	6a 00		 push	 0
  0016e	8d 85 ec fb ff
	ff		 lea	 eax, DWORD PTR _szRet$[ebp]
  00174	50		 push	 eax
  00175	e8 00 00 00 00	 call	 _memset
  0017a	83 c4 0c	 add	 esp, 12			; 0000000cH

; 25   : 	YL_Base64Encode( szRet, str.c_str(), str.length(), "young" );

  0017d	68 00 00 00 00	 push	 OFFSET FLAT:$SG84290
  00182	8d 4d 0c	 lea	 ecx, DWORD PTR _str$[ebp]
  00185	ff 15 00 00 00
	00		 call	 DWORD PTR __imp_?length@?$basic_string@DU?$char_traits@D@std@@V?$allocator@D@2@@std@@QBEIXZ
  0018b	50		 push	 eax
  0018c	8d 4d 0c	 lea	 ecx, DWORD PTR _str$[ebp]
  0018f	ff 15 00 00 00
	00		 call	 DWORD PTR __imp_?c_str@?$basic_string@DU?$char_traits@D@std@@V?$allocator@D@2@@std@@QBEPBDXZ
  00195	50		 push	 eax
  00196	8d 8d ec fb ff
	ff		 lea	 ecx, DWORD PTR _szRet$[ebp]
  0019c	51		 push	 ecx
  0019d	e8 00 00 00 00	 call	 ?YL_Base64Encode@@YAHPADPBDH1@Z ; YL_Base64Encode
  001a2	83 c4 10	 add	 esp, 16			; 00000010H

; 26   : 	//=_
; 27   : 	string strRet = string( szRet );

  001a5	8d 95 ec fb ff
	ff		 lea	 edx, DWORD PTR _szRet$[ebp]
  001ab	52		 push	 edx
  001ac	8d 8d d0 fb ff
	ff		 lea	 ecx, DWORD PTR _strRet$[ebp]
  001b2	ff 15 00 00 00
	00		 call	 DWORD PTR __imp_??0?$basic_string@DU?$char_traits@D@std@@V?$allocator@D@2@@std@@QAE@PBD@Z
  001b8	c6 45 fc 02	 mov	 BYTE PTR __$EHRec$[ebp+8], 2

; 28   : 	//YL_StringUtil::ReplaceAll( strRet, "=", "_" );
; 29   : 	return strRet;

  001bc	8d 85 d0 fb ff
	ff		 lea	 eax, DWORD PTR _strRet$[ebp]
  001c2	50		 push	 eax
  001c3	8b 4d 08	 mov	 ecx, DWORD PTR ___$ReturnUdt$[ebp]
  001c6	ff 15 00 00 00
	00		 call	 DWORD PTR __imp_??0?$basic_string@DU?$char_traits@D@std@@V?$allocator@D@2@@std@@QAE@ABV01@@Z
  001cc	8b 8d cc fb ff
	ff		 mov	 ecx, DWORD PTR $T90020[ebp]
  001d2	83 c9 01	 or	 ecx, 1
  001d5	89 8d cc fb ff
	ff		 mov	 DWORD PTR $T90020[ebp], ecx
  001db	c6 45 fc 01	 mov	 BYTE PTR __$EHRec$[ebp+8], 1
  001df	8d 8d d0 fb ff
	ff		 lea	 ecx, DWORD PTR _strRet$[ebp]
  001e5	ff 15 00 00 00
	00		 call	 DWORD PTR __imp_??1?$basic_string@DU?$char_traits@D@std@@V?$allocator@D@2@@std@@QAE@XZ
  001eb	c6 45 fc 00	 mov	 BYTE PTR __$EHRec$[ebp+8], 0
  001ef	8d 4d 0c	 lea	 ecx, DWORD PTR _str$[ebp]
  001f2	ff 15 00 00 00
	00		 call	 DWORD PTR __imp_??1?$basic_string@DU?$char_traits@D@std@@V?$allocator@D@2@@std@@QAE@XZ
  001f8	8b 45 08	 mov	 eax, DWORD PTR ___$ReturnUdt$[ebp]

; 30   : }

  001fb	8b 4d f4	 mov	 ecx, DWORD PTR __$EHRec$[ebp]
  001fe	64 89 0d 00 00
	00 00		 mov	 DWORD PTR fs:__except_list, ecx
  00205	8b 4d f0	 mov	 ecx, DWORD PTR __$ArrayPad$[ebp]
  00208	e8 00 00 00 00	 call	 @__security_check_cookie@4
  0020d	8b e5		 mov	 esp, ebp
  0020f	5d		 pop	 ebp
  00210	c3		 ret	 0
_TEXT	ENDS
text$x	SEGMENT
$L90017:
  0003f	8d 4d 0c	 lea	 ecx, DWORD PTR _str$[ebp]
  00042	ff 25 00 00 00
	00		 jmp	 DWORD PTR __imp_??1?$basic_string@DU?$char_traits@D@std@@V?$allocator@D@2@@std@@QAE@XZ
$L90018:
  00048	8d 8d d0 fb ff
	ff		 lea	 ecx, DWORD PTR _strRet$[ebp]
  0004e	ff 25 00 00 00
	00		 jmp	 DWORD PTR __imp_??1?$basic_string@DU?$char_traits@D@std@@V?$allocator@D@2@@std@@QAE@XZ
$L90019:
  00054	8b 85 cc fb ff
	ff		 mov	 eax, DWORD PTR $T90020[ebp]
  0005a	83 e0 01	 and	 eax, 1
  0005d	0f 84 10 00 00
	00		 je	 $L90021
  00063	83 a5 cc fb ff
	ff fe		 and	 DWORD PTR $T90020[ebp], -2 ; fffffffeH
  0006a	8b 4d 08	 mov	 ecx, DWORD PTR ___$ReturnUdt$[ebp]
  0006d	ff 25 00 00 00
	00		 jmp	 DWORD PTR __imp_??1?$basic_string@DU?$char_traits@D@std@@V?$allocator@D@2@@std@@QAE@XZ
$L90021:
  00073	c3		 ret	 0
__ehhandler$?Enc@YL_EncFileReg@@SA?AV?$basic_string@DU?$char_traits@D@std@@V?$allocator@D@2@@std@@V23@@Z:
  00074	b8 00 00 00 00	 mov	 eax, OFFSET FLAT:$T90023
  00079	e9 00 00 00 00	 jmp	 ___CxxFrameHandler
text$x	ENDS
?Enc@YL_EncFileReg@@SA?AV?$basic_string@DU?$char_traits@D@std@@V?$allocator@D@2@@std@@V23@@Z ENDP ; YL_EncFileReg::Enc
PUBLIC	?Dec2Str@YL_EncFileReg@@SA?AV?$basic_string@DU?$char_traits@D@std@@V?$allocator@D@2@@std@@V23@@Z ; YL_EncFileReg::Dec2Str
EXTRN	?YL_Base64Decode@@YAHPADPBD1@Z:NEAR		; YL_Base64Decode
xdata$x	SEGMENT
$T90037	DD	0ffffffffH
	DD	FLAT:$L90030
	DD	00H
	DD	FLAT:$L90029
$T90034	DD	019930520H
	DD	02H
	DD	FLAT:$T90037
	DD	2 DUP(00H)
	DD	2 DUP(00H)
; Function compile flags: /Odt
xdata$x	ENDS
_TEXT	SEGMENT
$T90031 = -1048						; size = 4
_szRet$ = -1044						; size = 1024
__$ArrayPad$ = -16					; size = 4
__$EHRec$ = -12						; size = 12
__$ReturnAddr$ = 4					; size = 4
___$ReturnUdt$ = 8					; size = 4
_str$ = 12						; size = 28
?Dec2Str@YL_EncFileReg@@SA?AV?$basic_string@DU?$char_traits@D@std@@V?$allocator@D@2@@std@@V23@@Z PROC NEAR ; YL_EncFileReg::Dec2Str

; 33   : {

  00220	55		 push	 ebp
  00221	8b ec		 mov	 ebp, esp
  00223	6a ff		 push	 -1
  00225	68 00 00 00 00	 push	 __ehhandler$?Dec2Str@YL_EncFileReg@@SA?AV?$basic_string@DU?$char_traits@D@std@@V?$allocator@D@2@@std@@V23@@Z
  0022a	64 a1 00 00 00
	00		 mov	 eax, DWORD PTR fs:__except_list
  00230	50		 push	 eax
  00231	64 89 25 00 00
	00 00		 mov	 DWORD PTR fs:__except_list, esp
  00238	81 ec 0c 04 00
	00		 sub	 esp, 1036		; 0000040cH
  0023e	a1 00 00 00 00	 mov	 eax, DWORD PTR ___security_cookie
  00243	89 45 f0	 mov	 DWORD PTR __$ArrayPad$[ebp], eax
  00246	c7 85 e8 fb ff
	ff 00 00 00 00	 mov	 DWORD PTR $T90031[ebp], 0
  00250	c7 45 fc 01 00
	00 00		 mov	 DWORD PTR __$EHRec$[ebp+8], 1

; 34   : 	//_=
; 35   : 	//YL_StringUtil::ReplaceAll( str, "_", "=" );
; 36   : 	char szRet[1024];
; 37   : 	memset( szRet, 0, 1024 );

  00257	68 00 04 00 00	 push	 1024			; 00000400H
  0025c	6a 00		 push	 0
  0025e	8d 85 ec fb ff
	ff		 lea	 eax, DWORD PTR _szRet$[ebp]
  00264	50		 push	 eax
  00265	e8 00 00 00 00	 call	 _memset
  0026a	83 c4 0c	 add	 esp, 12			; 0000000cH

; 38   : 	YL_Base64Decode( szRet, str.c_str(), "young" );

  0026d	68 00 00 00 00	 push	 OFFSET FLAT:$SG84298
  00272	8d 4d 0c	 lea	 ecx, DWORD PTR _str$[ebp]
  00275	ff 15 00 00 00
	00		 call	 DWORD PTR __imp_?c_str@?$basic_string@DU?$char_traits@D@std@@V?$allocator@D@2@@std@@QBEPBDXZ
  0027b	50		 push	 eax
  0027c	8d 8d ec fb ff
	ff		 lea	 ecx, DWORD PTR _szRet$[ebp]
  00282	51		 push	 ecx
  00283	e8 00 00 00 00	 call	 ?YL_Base64Decode@@YAHPADPBD1@Z ; YL_Base64Decode
  00288	83 c4 0c	 add	 esp, 12			; 0000000cH

; 39   : 	return string( szRet );

  0028b	8d 95 ec fb ff
	ff		 lea	 edx, DWORD PTR _szRet$[ebp]
  00291	52		 push	 edx
  00292	8b 4d 08	 mov	 ecx, DWORD PTR ___$ReturnUdt$[ebp]
  00295	ff 15 00 00 00
	00		 call	 DWORD PTR __imp_??0?$basic_string@DU?$char_traits@D@std@@V?$allocator@D@2@@std@@QAE@PBD@Z
  0029b	8b 85 e8 fb ff
	ff		 mov	 eax, DWORD PTR $T90031[ebp]
  002a1	83 c8 01	 or	 eax, 1
  002a4	89 85 e8 fb ff
	ff		 mov	 DWORD PTR $T90031[ebp], eax
  002aa	c6 45 fc 00	 mov	 BYTE PTR __$EHRec$[ebp+8], 0
  002ae	8d 4d 0c	 lea	 ecx, DWORD PTR _str$[ebp]
  002b1	ff 15 00 00 00
	00		 call	 DWORD PTR __imp_??1?$basic_string@DU?$char_traits@D@std@@V?$allocator@D@2@@std@@QAE@XZ
  002b7	8b 45 08	 mov	 eax, DWORD PTR ___$ReturnUdt$[ebp]

; 40   : }

  002ba	8b 4d f4	 mov	 ecx, DWORD PTR __$EHRec$[ebp]
  002bd	64 89 0d 00 00
	00 00		 mov	 DWORD PTR fs:__except_list, ecx
  002c4	8b 4d f0	 mov	 ecx, DWORD PTR __$ArrayPad$[ebp]
  002c7	e8 00 00 00 00	 call	 @__security_check_cookie@4
  002cc	8b e5		 mov	 esp, ebp
  002ce	5d		 pop	 ebp
  002cf	c3		 ret	 0
_TEXT	ENDS
text$x	SEGMENT
$L90029:
  0007e	8d 4d 0c	 lea	 ecx, DWORD PTR _str$[ebp]
  00081	ff 25 00 00 00
	00		 jmp	 DWORD PTR __imp_??1?$basic_string@DU?$char_traits@D@std@@V?$allocator@D@2@@std@@QAE@XZ
$L90030:
  00087	8b 85 e8 fb ff
	ff		 mov	 eax, DWORD PTR $T90031[ebp]
  0008d	83 e0 01	 and	 eax, 1
  00090	0f 84 10 00 00
	00		 je	 $L90032
  00096	83 a5 e8 fb ff
	ff fe		 and	 DWORD PTR $T90031[ebp], -2 ; fffffffeH
  0009d	8b 4d 08	 mov	 ecx, DWORD PTR ___$ReturnUdt$[ebp]
  000a0	ff 25 00 00 00
	00		 jmp	 DWORD PTR __imp_??1?$basic_string@DU?$char_traits@D@std@@V?$allocator@D@2@@std@@QAE@XZ
$L90032:
  000a6	c3		 ret	 0
__ehhandler$?Dec2Str@YL_EncFileReg@@SA?AV?$basic_string@DU?$char_traits@D@std@@V?$allocator@D@2@@std@@V23@@Z:
  000a7	b8 00 00 00 00	 mov	 eax, OFFSET FLAT:$T90034
  000ac	e9 00 00 00 00	 jmp	 ___CxxFrameHandler
text$x	ENDS
?Dec2Str@YL_EncFileReg@@SA?AV?$basic_string@DU?$char_traits@D@std@@V?$allocator@D@2@@std@@V23@@Z ENDP ; YL_EncFileReg::Dec2Str
PUBLIC	?Dec2Int@YL_EncFileReg@@SAIV?$basic_string@DU?$char_traits@D@std@@V?$allocator@D@2@@std@@@Z ; YL_EncFileReg::Dec2Int
EXTRN	?str2int@@YAHABV?$basic_string@DU?$char_traits@D@std@@V?$allocator@D@2@@std@@@Z:NEAR ; str2int
xdata$x	SEGMENT
$T90049	DD	0ffffffffH
	DD	FLAT:$L90042
	DD	00H
	DD	FLAT:$L90044
$T90046	DD	019930520H
	DD	02H
	DD	FLAT:$T90049
	DD	2 DUP(00H)
	DD	2 DUP(00H)
; Function compile flags: /Odt
xdata$x	ENDS
_TEXT	SEGMENT
tv87 = -60						; size = 4
tv86 = -56						; size = 4
$T90041 = -52						; size = 4
$T90040 = -48						; size = 4
_strDes$ = -44						; size = 28
__$ArrayPad$ = -16					; size = 4
__$EHRec$ = -12						; size = 12
__$ReturnAddr$ = 4					; size = 4
_str$ = 8						; size = 28
?Dec2Int@YL_EncFileReg@@SAIV?$basic_string@DU?$char_traits@D@std@@V?$allocator@D@2@@std@@@Z PROC NEAR ; YL_EncFileReg::Dec2Int

; 43   : {

  002d0	55		 push	 ebp
  002d1	8b ec		 mov	 ebp, esp
  002d3	6a ff		 push	 -1
  002d5	68 00 00 00 00	 push	 __ehhandler$?Dec2Int@YL_EncFileReg@@SAIV?$basic_string@DU?$char_traits@D@std@@V?$allocator@D@2@@std@@@Z
  002da	64 a1 00 00 00
	00		 mov	 eax, DWORD PTR fs:__except_list
  002e0	50		 push	 eax
  002e1	64 89 25 00 00
	00 00		 mov	 DWORD PTR fs:__except_list, esp
  002e8	83 ec 30	 sub	 esp, 48			; 00000030H
  002eb	a1 00 00 00 00	 mov	 eax, DWORD PTR ___security_cookie
  002f0	89 45 f0	 mov	 DWORD PTR __$ArrayPad$[ebp], eax
  002f3	c7 45 fc 00 00
	00 00		 mov	 DWORD PTR __$EHRec$[ebp+8], 0

; 44   : 	string strDes = Dec2Str( str );

  002fa	83 ec 1c	 sub	 esp, 28			; 0000001cH
  002fd	8b cc		 mov	 ecx, esp
  002ff	89 65 d0	 mov	 DWORD PTR $T90040[ebp], esp
  00302	8d 45 08	 lea	 eax, DWORD PTR _str$[ebp]
  00305	50		 push	 eax
  00306	ff 15 00 00 00
	00		 call	 DWORD PTR __imp_??0?$basic_string@DU?$char_traits@D@std@@V?$allocator@D@2@@std@@QAE@ABV01@@Z
  0030c	89 45 c8	 mov	 DWORD PTR tv86[ebp], eax
  0030f	8d 4d d4	 lea	 ecx, DWORD PTR _strDes$[ebp]
  00312	51		 push	 ecx
  00313	e8 00 00 00 00	 call	 ?Dec2Str@YL_EncFileReg@@SA?AV?$basic_string@DU?$char_traits@D@std@@V?$allocator@D@2@@std@@V23@@Z ; YL_EncFileReg::Dec2Str
  00318	83 c4 20	 add	 esp, 32			; 00000020H
  0031b	89 45 c4	 mov	 DWORD PTR tv87[ebp], eax
  0031e	c6 45 fc 01	 mov	 BYTE PTR __$EHRec$[ebp+8], 1

; 45   : 	return str2int( strDes );

  00322	8d 55 d4	 lea	 edx, DWORD PTR _strDes$[ebp]
  00325	52		 push	 edx
  00326	e8 00 00 00 00	 call	 ?str2int@@YAHABV?$basic_string@DU?$char_traits@D@std@@V?$allocator@D@2@@std@@@Z ; str2int
  0032b	83 c4 04	 add	 esp, 4
  0032e	89 45 cc	 mov	 DWORD PTR $T90041[ebp], eax
  00331	c6 45 fc 00	 mov	 BYTE PTR __$EHRec$[ebp+8], 0
  00335	8d 4d d4	 lea	 ecx, DWORD PTR _strDes$[ebp]
  00338	ff 15 00 00 00
	00		 call	 DWORD PTR __imp_??1?$basic_string@DU?$char_traits@D@std@@V?$allocator@D@2@@std@@QAE@XZ
  0033e	c7 45 fc ff ff
	ff ff		 mov	 DWORD PTR __$EHRec$[ebp+8], -1
  00345	8d 4d 08	 lea	 ecx, DWORD PTR _str$[ebp]
  00348	ff 15 00 00 00
	00		 call	 DWORD PTR __imp_??1?$basic_string@DU?$char_traits@D@std@@V?$allocator@D@2@@std@@QAE@XZ
  0034e	8b 45 cc	 mov	 eax, DWORD PTR $T90041[ebp]

; 46   : }

  00351	8b 4d f4	 mov	 ecx, DWORD PTR __$EHRec$[ebp]
  00354	64 89 0d 00 00
	00 00		 mov	 DWORD PTR fs:__except_list, ecx
  0035b	8b 4d f0	 mov	 ecx, DWORD PTR __$ArrayPad$[ebp]
  0035e	e8 00 00 00 00	 call	 @__security_check_cookie@4
  00363	8b e5		 mov	 esp, ebp
  00365	5d		 pop	 ebp
  00366	c3		 ret	 0
_TEXT	ENDS
text$x	SEGMENT
$L90042:
  000b1	8d 4d 08	 lea	 ecx, DWORD PTR _str$[ebp]
  000b4	ff 25 00 00 00
	00		 jmp	 DWORD PTR __imp_??1?$basic_string@DU?$char_traits@D@std@@V?$allocator@D@2@@std@@QAE@XZ
$L90044:
  000ba	8d 4d d4	 lea	 ecx, DWORD PTR _strDes$[ebp]
  000bd	ff 25 00 00 00
	00		 jmp	 DWORD PTR __imp_??1?$basic_string@DU?$char_traits@D@std@@V?$allocator@D@2@@std@@QAE@XZ
__ehhandler$?Dec2Int@YL_EncFileReg@@SAIV?$basic_string@DU?$char_traits@D@std@@V?$allocator@D@2@@std@@@Z:
  000c3	b8 00 00 00 00	 mov	 eax, OFFSET FLAT:$T90046
  000c8	e9 00 00 00 00	 jmp	 ___CxxFrameHandler
text$x	ENDS
?Dec2Int@YL_EncFileReg@@SAIV?$basic_string@DU?$char_traits@D@std@@V?$allocator@D@2@@std@@@Z ENDP ; YL_EncFileReg::Dec2Int
PUBLIC	?GetEncFilePath@YL_EncFileReg@@SA_NAAV?$basic_string@DU?$char_traits@D@std@@V?$allocator@D@2@@std@@@Z ; YL_EncFileReg::GetEncFilePath
EXTRN	?ReadString@YL_RegInfo@@SA_NPAUHKEY__@@ABV?$basic_string@DU?$char_traits@D@std@@V?$allocator@D@2@@std@@1AAV34@@Z:NEAR ; YL_RegInfo::ReadString
EXTRN	__imp_?substr@?$basic_string@DU?$char_traits@D@std@@V?$allocator@D@2@@std@@QBE?AV12@II@Z:NEAR
EXTRN	?GetExePath@@YA?AV?$basic_string@DU?$char_traits@D@std@@V?$allocator@D@2@@std@@XZ:NEAR ; GetExePath
EXTRN	__imp_??4?$basic_string@DU?$char_traits@D@std@@V?$allocator@D@2@@std@@QAEAAV01@ABV01@@Z:NEAR
EXTRN	__imp_??Y?$basic_string@DU?$char_traits@D@std@@V?$allocator@D@2@@std@@QAEAAV01@PBD@Z:NEAR
EXTRN	__imp_?clear@?$basic_string@DU?$char_traits@D@std@@V?$allocator@D@2@@std@@QAEXXZ:NEAR
EXTRN	?WriteString@YL_RegInfo@@SA_NPAUHKEY__@@PBD11@Z:NEAR ; YL_RegInfo::WriteString
EXTRN	__imp_??A?$basic_string@DU?$char_traits@D@std@@V?$allocator@D@2@@std@@QAEAADI@Z:NEAR
xdata$x	SEGMENT
$T90064	DD	0ffffffffH
	DD	FLAT:$L90056
	DD	00H
	DD	FLAT:$L90057
	DD	0ffffffffH
	DD	FLAT:$L90058
	DD	02H
	DD	FLAT:$L90059
$T90061	DD	019930520H
	DD	04H
	DD	FLAT:$T90064
	DD	2 DUP(00H)
	DD	2 DUP(00H)
; Function compile flags: /Odt
xdata$x	ENDS
_TEXT	SEGMENT
tv153 = -140						; size = 4
tv80 = -136						; size = 4
$T90055 = -132						; size = 28
$T90054 = -101						; size = 1
$T90053 = -100						; size = 28
$T90052 = -72						; size = 28
_str$84316 = -44					; size = 28
__$ArrayPad$ = -16					; size = 4
__$EHRec$ = -12						; size = 12
__$ReturnAddr$ = 4					; size = 4
_strPath$ = 8						; size = 4
?GetEncFilePath@YL_EncFileReg@@SA_NAAV?$basic_string@DU?$char_traits@D@std@@V?$allocator@D@2@@std@@@Z PROC NEAR ; YL_EncFileReg::GetEncFilePath

; 49   : {

  00370	55		 push	 ebp
  00371	8b ec		 mov	 ebp, esp
  00373	6a ff		 push	 -1
  00375	68 00 00 00 00	 push	 __ehhandler$?GetEncFilePath@YL_EncFileReg@@SA_NAAV?$basic_string@DU?$char_traits@D@std@@V?$allocator@D@2@@std@@@Z
  0037a	64 a1 00 00 00
	00		 mov	 eax, DWORD PTR fs:__except_list
  00380	50		 push	 eax
  00381	64 89 25 00 00
	00 00		 mov	 DWORD PTR fs:__except_list, esp
  00388	81 ec 80 00 00
	00		 sub	 esp, 128		; 00000080H
  0038e	a1 00 00 00 00	 mov	 eax, DWORD PTR ___security_cookie
  00393	89 45 f0	 mov	 DWORD PTR __$ArrayPad$[ebp], eax

; 50   : 	strPath.clear();

  00396	8b 4d 08	 mov	 ecx, DWORD PTR _strPath$[ebp]
  00399	ff 15 00 00 00
	00		 call	 DWORD PTR __imp_?clear@?$basic_string@DU?$char_traits@D@std@@V?$allocator@D@2@@std@@QAEXXZ

; 51   : 	YL_RegInfo::ReadString(HKEY_PLAYBOX_ROOT, STR_REG_SOFT, STR_SOFT_HOME_KEY, strPath);

  0039f	a1 00 00 00 00	 mov	 eax, DWORD PTR _STR_SOFT_HOME_KEY
  003a4	50		 push	 eax
  003a5	8d 4d b8	 lea	 ecx, DWORD PTR $T90052[ebp]
  003a8	ff 15 00 00 00
	00		 call	 DWORD PTR __imp_??0?$basic_string@DU?$char_traits@D@std@@V?$allocator@D@2@@std@@QAE@PBD@Z
  003ae	c7 45 fc 00 00
	00 00		 mov	 DWORD PTR __$EHRec$[ebp+8], 0
  003b5	8b 0d 00 00 00
	00		 mov	 ecx, DWORD PTR _STR_REG_SOFT
  003bb	51		 push	 ecx
  003bc	8d 4d 9c	 lea	 ecx, DWORD PTR $T90053[ebp]
  003bf	ff 15 00 00 00
	00		 call	 DWORD PTR __imp_??0?$basic_string@DU?$char_traits@D@std@@V?$allocator@D@2@@std@@QAE@PBD@Z
  003c5	c6 45 fc 01	 mov	 BYTE PTR __$EHRec$[ebp+8], 1
  003c9	8b 55 08	 mov	 edx, DWORD PTR _strPath$[ebp]
  003cc	52		 push	 edx
  003cd	8d 45 b8	 lea	 eax, DWORD PTR $T90052[ebp]
  003d0	50		 push	 eax
  003d1	8d 4d 9c	 lea	 ecx, DWORD PTR $T90053[ebp]
  003d4	51		 push	 ecx
  003d5	68 02 00 00 80	 push	 -2147483646		; 80000002H
  003da	e8 00 00 00 00	 call	 ?ReadString@YL_RegInfo@@SA_NPAUHKEY__@@ABV?$basic_string@DU?$char_traits@D@std@@V?$allocator@D@2@@std@@1AAV34@@Z ; YL_RegInfo::ReadString
  003df	83 c4 10	 add	 esp, 16			; 00000010H
  003e2	c6 45 fc 00	 mov	 BYTE PTR __$EHRec$[ebp+8], 0
  003e6	8d 4d 9c	 lea	 ecx, DWORD PTR $T90053[ebp]
  003e9	ff 15 00 00 00
	00		 call	 DWORD PTR __imp_??1?$basic_string@DU?$char_traits@D@std@@V?$allocator@D@2@@std@@QAE@XZ
  003ef	c7 45 fc ff ff
	ff ff		 mov	 DWORD PTR __$EHRec$[ebp+8], -1
  003f6	8d 4d b8	 lea	 ecx, DWORD PTR $T90052[ebp]
  003f9	ff 15 00 00 00
	00		 call	 DWORD PTR __imp_??1?$basic_string@DU?$char_traits@D@std@@V?$allocator@D@2@@std@@QAE@XZ

; 52   : 	if(strPath.length() <= 0)

  003ff	8b 4d 08	 mov	 ecx, DWORD PTR _strPath$[ebp]
  00402	ff 15 00 00 00
	00		 call	 DWORD PTR __imp_?length@?$basic_string@DU?$char_traits@D@std@@V?$allocator@D@2@@std@@QBEIXZ
  00408	85 c0		 test	 eax, eax
  0040a	0f 87 f1 00 00
	00		 ja	 $L84315

; 53   : 	{
; 54   : 		string str = GetExePath();

  00410	8d 55 d4	 lea	 edx, DWORD PTR _str$84316[ebp]
  00413	52		 push	 edx
  00414	e8 00 00 00 00	 call	 ?GetExePath@@YA?AV?$basic_string@DU?$char_traits@D@std@@V?$allocator@D@2@@std@@XZ ; GetExePath
  00419	83 c4 04	 add	 esp, 4
  0041c	c7 45 fc 02 00
	00 00		 mov	 DWORD PTR __$EHRec$[ebp+8], 2

; 55   : 		if(str.length() <= 0)

  00423	8d 4d d4	 lea	 ecx, DWORD PTR _str$84316[ebp]
  00426	ff 15 00 00 00
	00		 call	 DWORD PTR __imp_?length@?$basic_string@DU?$char_traits@D@std@@V?$allocator@D@2@@std@@QBEIXZ
  0042c	85 c0		 test	 eax, eax
  0042e	77 1c		 ja	 SHORT $L84318

; 56   : 			return false;

  00430	c6 45 9b 00	 mov	 BYTE PTR $T90054[ebp], 0
  00434	c7 45 fc ff ff
	ff ff		 mov	 DWORD PTR __$EHRec$[ebp+8], -1
  0043b	8d 4d d4	 lea	 ecx, DWORD PTR _str$84316[ebp]
  0043e	ff 15 00 00 00
	00		 call	 DWORD PTR __imp_??1?$basic_string@DU?$char_traits@D@std@@V?$allocator@D@2@@std@@QAE@XZ
  00444	8a 45 9b	 mov	 al, BYTE PTR $T90054[ebp]
  00447	e9 c5 00 00 00	 jmp	 $L84309
$L84318:

; 57   : 		else if(str[str.length()-1] == '\\')

  0044c	8d 4d d4	 lea	 ecx, DWORD PTR _str$84316[ebp]
  0044f	ff 15 00 00 00
	00		 call	 DWORD PTR __imp_?length@?$basic_string@DU?$char_traits@D@std@@V?$allocator@D@2@@std@@QBEIXZ
  00455	83 e8 01	 sub	 eax, 1
  00458	50		 push	 eax
  00459	8d 4d d4	 lea	 ecx, DWORD PTR _str$84316[ebp]
  0045c	ff 15 00 00 00
	00		 call	 DWORD PTR __imp_??A?$basic_string@DU?$char_traits@D@std@@V?$allocator@D@2@@std@@QAEAADI@Z
  00462	0f be 00	 movsx	 eax, BYTE PTR [eax]
  00465	83 f8 5c	 cmp	 eax, 92			; 0000005cH
  00468	75 55		 jne	 SHORT $L84320

; 58   : 		{
; 59   : 			str = str.substr(0, str.length()-1);

  0046a	8d 4d d4	 lea	 ecx, DWORD PTR _str$84316[ebp]
  0046d	ff 15 00 00 00
	00		 call	 DWORD PTR __imp_?length@?$basic_string@DU?$char_traits@D@std@@V?$allocator@D@2@@std@@QBEIXZ
  00473	83 e8 01	 sub	 eax, 1
  00476	50		 push	 eax
  00477	6a 00		 push	 0
  00479	8d 8d 7c ff ff
	ff		 lea	 ecx, DWORD PTR $T90055[ebp]
  0047f	51		 push	 ecx
  00480	8d 4d d4	 lea	 ecx, DWORD PTR _str$84316[ebp]
  00483	ff 15 00 00 00
	00		 call	 DWORD PTR __imp_?substr@?$basic_string@DU?$char_traits@D@std@@V?$allocator@D@2@@std@@QBE?AV12@II@Z
  00489	89 85 78 ff ff
	ff		 mov	 DWORD PTR tv80[ebp], eax
  0048f	8b 95 78 ff ff
	ff		 mov	 edx, DWORD PTR tv80[ebp]
  00495	89 95 74 ff ff
	ff		 mov	 DWORD PTR tv153[ebp], edx
  0049b	c6 45 fc 03	 mov	 BYTE PTR __$EHRec$[ebp+8], 3
  0049f	8b 85 74 ff ff
	ff		 mov	 eax, DWORD PTR tv153[ebp]
  004a5	50		 push	 eax
  004a6	8d 4d d4	 lea	 ecx, DWORD PTR _str$84316[ebp]
  004a9	ff 15 00 00 00
	00		 call	 DWORD PTR __imp_??4?$basic_string@DU?$char_traits@D@std@@V?$allocator@D@2@@std@@QAEAAV01@ABV01@@Z
  004af	c6 45 fc 02	 mov	 BYTE PTR __$EHRec$[ebp+8], 2
  004b3	8d 8d 7c ff ff
	ff		 lea	 ecx, DWORD PTR $T90055[ebp]
  004b9	ff 15 00 00 00
	00		 call	 DWORD PTR __imp_??1?$basic_string@DU?$char_traits@D@std@@V?$allocator@D@2@@std@@QAE@XZ
$L84320:

; 60   : 		}
; 61   : 		YL_RegInfo::WriteString(HKEY_PLAYBOX_ROOT, STR_REG_SOFT, STR_SOFT_HOME_KEY, str.c_str());

  004bf	8d 4d d4	 lea	 ecx, DWORD PTR _str$84316[ebp]
  004c2	ff 15 00 00 00
	00		 call	 DWORD PTR __imp_?c_str@?$basic_string@DU?$char_traits@D@std@@V?$allocator@D@2@@std@@QBEPBDXZ
  004c8	50		 push	 eax
  004c9	8b 0d 00 00 00
	00		 mov	 ecx, DWORD PTR _STR_SOFT_HOME_KEY
  004cf	51		 push	 ecx
  004d0	8b 15 00 00 00
	00		 mov	 edx, DWORD PTR _STR_REG_SOFT
  004d6	52		 push	 edx
  004d7	68 02 00 00 80	 push	 -2147483646		; 80000002H
  004dc	e8 00 00 00 00	 call	 ?WriteString@YL_RegInfo@@SA_NPAUHKEY__@@PBD11@Z ; YL_RegInfo::WriteString
  004e1	83 c4 10	 add	 esp, 16			; 00000010H

; 62   : 		strPath = str;

  004e4	8d 45 d4	 lea	 eax, DWORD PTR _str$84316[ebp]
  004e7	50		 push	 eax
  004e8	8b 4d 08	 mov	 ecx, DWORD PTR _strPath$[ebp]
  004eb	ff 15 00 00 00
	00		 call	 DWORD PTR __imp_??4?$basic_string@DU?$char_traits@D@std@@V?$allocator@D@2@@std@@QAEAAV01@ABV01@@Z

; 63   : 	}

  004f1	c7 45 fc ff ff
	ff ff		 mov	 DWORD PTR __$EHRec$[ebp+8], -1
  004f8	8d 4d d4	 lea	 ecx, DWORD PTR _str$84316[ebp]
  004fb	ff 15 00 00 00
	00		 call	 DWORD PTR __imp_??1?$basic_string@DU?$char_traits@D@std@@V?$allocator@D@2@@std@@QAE@XZ
$L84315:

; 64   : 	strPath += "\\Resources\\Profiles\\conf.ini";

  00501	68 00 00 00 00	 push	 OFFSET FLAT:$SG84326
  00506	8b 4d 08	 mov	 ecx, DWORD PTR _strPath$[ebp]
  00509	ff 15 00 00 00
	00		 call	 DWORD PTR __imp_??Y?$basic_string@DU?$char_traits@D@std@@V?$allocator@D@2@@std@@QAEAAV01@PBD@Z

; 65   : 	return true;

  0050f	b0 01		 mov	 al, 1
$L84309:

; 66   : }

  00511	8b 4d f4	 mov	 ecx, DWORD PTR __$EHRec$[ebp]
  00514	64 89 0d 00 00
	00 00		 mov	 DWORD PTR fs:__except_list, ecx
  0051b	8b 4d f0	 mov	 ecx, DWORD PTR __$ArrayPad$[ebp]
  0051e	e8 00 00 00 00	 call	 @__security_check_cookie@4
  00523	8b e5		 mov	 esp, ebp
  00525	5d		 pop	 ebp
  00526	c3		 ret	 0
_TEXT	ENDS
text$x	SEGMENT
$L90056:
  000cd	8d 4d b8	 lea	 ecx, DWORD PTR $T90052[ebp]
  000d0	ff 25 00 00 00
	00		 jmp	 DWORD PTR __imp_??1?$basic_string@DU?$char_traits@D@std@@V?$allocator@D@2@@std@@QAE@XZ
$L90057:
  000d6	8d 4d 9c	 lea	 ecx, DWORD PTR $T90053[ebp]
  000d9	ff 25 00 00 00
	00		 jmp	 DWORD PTR __imp_??1?$basic_string@DU?$char_traits@D@std@@V?$allocator@D@2@@std@@QAE@XZ
$L90058:
  000df	8d 4d d4	 lea	 ecx, DWORD PTR _str$84316[ebp]
  000e2	ff 25 00 00 00
	00		 jmp	 DWORD PTR __imp_??1?$basic_string@DU?$char_traits@D@std@@V?$allocator@D@2@@std@@QAE@XZ
$L90059:
  000e8	8d 8d 7c ff ff
	ff		 lea	 ecx, DWORD PTR $T90055[ebp]
  000ee	ff 25 00 00 00
	00		 jmp	 DWORD PTR __imp_??1?$basic_string@DU?$char_traits@D@std@@V?$allocator@D@2@@std@@QAE@XZ
__ehhandler$?GetEncFilePath@YL_EncFileReg@@SA_NAAV?$basic_string@DU?$char_traits@D@std@@V?$allocator@D@2@@std@@@Z:
  000f4	b8 00 00 00 00	 mov	 eax, OFFSET FLAT:$T90061
  000f9	e9 00 00 00 00	 jmp	 ___CxxFrameHandler
text$x	ENDS
?GetEncFilePath@YL_EncFileReg@@SA_NAAV?$basic_string@DU?$char_traits@D@std@@V?$allocator@D@2@@std@@@Z ENDP ; YL_EncFileReg::GetEncFilePath
PUBLIC	?DeleteValue@YL_EncFileReg@@SAJPAUHKEY__@@ABV?$basic_string@DU?$char_traits@D@std@@V?$allocator@D@2@@std@@1@Z ; YL_EncFileReg::DeleteValue
EXTRN	__imp__WritePrivateProfileStringA@16:NEAR
EXTRN	__imp_??0?$basic_string@DU?$char_traits@D@std@@V?$allocator@D@2@@std@@QAE@XZ:NEAR
xdata$x	SEGMENT
$T90079	DD	0ffffffffH
	DD	FLAT:$L90070
	DD	00H
	DD	FLAT:$L90072
	DD	01H
	DD	FLAT:$L90074
$T90076	DD	019930520H
	DD	03H
	DD	FLAT:$T90079
	DD	2 DUP(00H)
	DD	2 DUP(00H)
; Function compile flags: /Odt
xdata$x	ENDS
_TEXT	SEGMENT
tv151 = -128						; size = 4
tv150 = -124						; size = 4
tv147 = -120						; size = 4
tv146 = -116						; size = 4
$T90069 = -112						; size = 4
$T90068 = -108						; size = 4
$T90067 = -104						; size = 4
_strSection$ = -100					; size = 28
_strPath$ = -72						; size = 28
_strValue$ = -44					; size = 28
__$ArrayPad$ = -16					; size = 4
__$EHRec$ = -12						; size = 12
__$ReturnAddr$ = 4					; size = 4
_regClass$ = 8						; size = 4
_regEntry$ = 12						; size = 4
_valueName$ = 16					; size = 4
?DeleteValue@YL_EncFileReg@@SAJPAUHKEY__@@ABV?$basic_string@DU?$char_traits@D@std@@V?$allocator@D@2@@std@@1@Z PROC NEAR ; YL_EncFileReg::DeleteValue

; 69   : {

  00530	55		 push	 ebp
  00531	8b ec		 mov	 ebp, esp
  00533	6a ff		 push	 -1
  00535	68 00 00 00 00	 push	 __ehhandler$?DeleteValue@YL_EncFileReg@@SAJPAUHKEY__@@ABV?$basic_string@DU?$char_traits@D@std@@V?$allocator@D@2@@std@@1@Z
  0053a	64 a1 00 00 00
	00		 mov	 eax, DWORD PTR fs:__except_list
  00540	50		 push	 eax
  00541	64 89 25 00 00
	00 00		 mov	 DWORD PTR fs:__except_list, esp
  00548	83 ec 74	 sub	 esp, 116		; 00000074H
  0054b	a1 00 00 00 00	 mov	 eax, DWORD PTR ___security_cookie
  00550	89 45 f0	 mov	 DWORD PTR __$ArrayPad$[ebp], eax

; 70   : 	string strPath;

  00553	8d 4d b8	 lea	 ecx, DWORD PTR _strPath$[ebp]
  00556	ff 15 00 00 00
	00		 call	 DWORD PTR __imp_??0?$basic_string@DU?$char_traits@D@std@@V?$allocator@D@2@@std@@QAE@XZ
  0055c	c7 45 fc 00 00
	00 00		 mov	 DWORD PTR __$EHRec$[ebp+8], 0

; 71   : 	GetEncFilePath( strPath );

  00563	8d 45 b8	 lea	 eax, DWORD PTR _strPath$[ebp]
  00566	50		 push	 eax
  00567	e8 00 00 00 00	 call	 ?GetEncFilePath@YL_EncFileReg@@SA_NAAV?$basic_string@DU?$char_traits@D@std@@V?$allocator@D@2@@std@@@Z ; YL_EncFileReg::GetEncFilePath
  0056c	83 c4 04	 add	 esp, 4

; 72   : 	string strSection = StrHash( regEntry );

  0056f	83 ec 1c	 sub	 esp, 28			; 0000001cH
  00572	8b cc		 mov	 ecx, esp
  00574	89 65 98	 mov	 DWORD PTR $T90067[ebp], esp
  00577	8b 55 0c	 mov	 edx, DWORD PTR _regEntry$[ebp]
  0057a	52		 push	 edx
  0057b	ff 15 00 00 00
	00		 call	 DWORD PTR __imp_??0?$basic_string@DU?$char_traits@D@std@@V?$allocator@D@2@@std@@QAE@ABV01@@Z
  00581	89 45 8c	 mov	 DWORD PTR tv146[ebp], eax
  00584	8d 45 9c	 lea	 eax, DWORD PTR _strSection$[ebp]
  00587	50		 push	 eax
  00588	e8 00 00 00 00	 call	 ?StrHash@YL_EncFileReg@@SA?AV?$basic_string@DU?$char_traits@D@std@@V?$allocator@D@2@@std@@V23@@Z ; YL_EncFileReg::StrHash
  0058d	83 c4 20	 add	 esp, 32			; 00000020H
  00590	89 45 88	 mov	 DWORD PTR tv147[ebp], eax
  00593	c6 45 fc 01	 mov	 BYTE PTR __$EHRec$[ebp+8], 1

; 73   : 	string strValue   = StrHash( valueName );

  00597	83 ec 1c	 sub	 esp, 28			; 0000001cH
  0059a	8b cc		 mov	 ecx, esp
  0059c	89 65 94	 mov	 DWORD PTR $T90068[ebp], esp
  0059f	8b 55 10	 mov	 edx, DWORD PTR _valueName$[ebp]
  005a2	52		 push	 edx
  005a3	ff 15 00 00 00
	00		 call	 DWORD PTR __imp_??0?$basic_string@DU?$char_traits@D@std@@V?$allocator@D@2@@std@@QAE@ABV01@@Z
  005a9	89 45 84	 mov	 DWORD PTR tv150[ebp], eax
  005ac	8d 45 d4	 lea	 eax, DWORD PTR _strValue$[ebp]
  005af	50		 push	 eax
  005b0	e8 00 00 00 00	 call	 ?StrHash@YL_EncFileReg@@SA?AV?$basic_string@DU?$char_traits@D@std@@V?$allocator@D@2@@std@@V23@@Z ; YL_EncFileReg::StrHash
  005b5	83 c4 20	 add	 esp, 32			; 00000020H
  005b8	89 45 80	 mov	 DWORD PTR tv151[ebp], eax
  005bb	c6 45 fc 02	 mov	 BYTE PTR __$EHRec$[ebp+8], 2

; 74   : 	WritePrivateProfileString( strSection.c_str(), strValue.c_str(), NULL, strPath.c_str() );

  005bf	8d 4d b8	 lea	 ecx, DWORD PTR _strPath$[ebp]
  005c2	ff 15 00 00 00
	00		 call	 DWORD PTR __imp_?c_str@?$basic_string@DU?$char_traits@D@std@@V?$allocator@D@2@@std@@QBEPBDXZ
  005c8	50		 push	 eax
  005c9	6a 00		 push	 0
  005cb	8d 4d d4	 lea	 ecx, DWORD PTR _strValue$[ebp]
  005ce	ff 15 00 00 00
	00		 call	 DWORD PTR __imp_?c_str@?$basic_string@DU?$char_traits@D@std@@V?$allocator@D@2@@std@@QBEPBDXZ
  005d4	50		 push	 eax
  005d5	8d 4d 9c	 lea	 ecx, DWORD PTR _strSection$[ebp]
  005d8	ff 15 00 00 00
	00		 call	 DWORD PTR __imp_?c_str@?$basic_string@DU?$char_traits@D@std@@V?$allocator@D@2@@std@@QBEPBDXZ
  005de	50		 push	 eax
  005df	ff 15 00 00 00
	00		 call	 DWORD PTR __imp__WritePrivateProfileStringA@16

; 75   : 	return 0L;

  005e5	c7 45 90 00 00
	00 00		 mov	 DWORD PTR $T90069[ebp], 0
  005ec	c6 45 fc 01	 mov	 BYTE PTR __$EHRec$[ebp+8], 1
  005f0	8d 4d d4	 lea	 ecx, DWORD PTR _strValue$[ebp]
  005f3	ff 15 00 00 00
	00		 call	 DWORD PTR __imp_??1?$basic_string@DU?$char_traits@D@std@@V?$allocator@D@2@@std@@QAE@XZ
  005f9	c6 45 fc 00	 mov	 BYTE PTR __$EHRec$[ebp+8], 0
  005fd	8d 4d 9c	 lea	 ecx, DWORD PTR _strSection$[ebp]
  00600	ff 15 00 00 00
	00		 call	 DWORD PTR __imp_??1?$basic_string@DU?$char_traits@D@std@@V?$allocator@D@2@@std@@QAE@XZ
  00606	c7 45 fc ff ff
	ff ff		 mov	 DWORD PTR __$EHRec$[ebp+8], -1
  0060d	8d 4d b8	 lea	 ecx, DWORD PTR _strPath$[ebp]
  00610	ff 15 00 00 00
	00		 call	 DWORD PTR __imp_??1?$basic_string@DU?$char_traits@D@std@@V?$allocator@D@2@@std@@QAE@XZ
  00616	8b 45 90	 mov	 eax, DWORD PTR $T90069[ebp]

; 76   : }

  00619	8b 4d f4	 mov	 ecx, DWORD PTR __$EHRec$[ebp]
  0061c	64 89 0d 00 00
	00 00		 mov	 DWORD PTR fs:__except_list, ecx
  00623	8b 4d f0	 mov	 ecx, DWORD PTR __$ArrayPad$[ebp]
  00626	e8 00 00 00 00	 call	 @__security_check_cookie@4
  0062b	8b e5		 mov	 esp, ebp
  0062d	5d		 pop	 ebp
  0062e	c3		 ret	 0
_TEXT	ENDS
text$x	SEGMENT
$L90070:
  000fe	8d 4d b8	 lea	 ecx, DWORD PTR _strPath$[ebp]
  00101	ff 25 00 00 00
	00		 jmp	 DWORD PTR __imp_??1?$basic_string@DU?$char_traits@D@std@@V?$allocator@D@2@@std@@QAE@XZ
$L90072:
  00107	8d 4d 9c	 lea	 ecx, DWORD PTR _strSection$[ebp]
  0010a	ff 25 00 00 00
	00		 jmp	 DWORD PTR __imp_??1?$basic_string@DU?$char_traits@D@std@@V?$allocator@D@2@@std@@QAE@XZ
$L90074:
  00110	8d 4d d4	 lea	 ecx, DWORD PTR _strValue$[ebp]
  00113	ff 25 00 00 00
	00		 jmp	 DWORD PTR __imp_??1?$basic_string@DU?$char_traits@D@std@@V?$allocator@D@2@@std@@QAE@XZ
__ehhandler$?DeleteValue@YL_EncFileReg@@SAJPAUHKEY__@@ABV?$basic_string@DU?$char_traits@D@std@@V?$allocator@D@2@@std@@1@Z:
  00119	b8 00 00 00 00	 mov	 eax, OFFSET FLAT:$T90076
  0011e	e9 00 00 00 00	 jmp	 ___CxxFrameHandler
text$x	ENDS
?DeleteValue@YL_EncFileReg@@SAJPAUHKEY__@@ABV?$basic_string@DU?$char_traits@D@std@@V?$allocator@D@2@@std@@1@Z ENDP ; YL_EncFileReg::DeleteValue
PUBLIC	?WriteString@YL_EncFileReg@@SA_NPAUHKEY__@@ABV?$basic_string@DU?$char_traits@D@std@@V?$allocator@D@2@@std@@11@Z ; YL_EncFileReg::WriteString
xdata$x	SEGMENT
$T90097	DD	0ffffffffH
	DD	FLAT:$L90086
	DD	00H
	DD	FLAT:$L90088
	DD	01H
	DD	FLAT:$L90090
	DD	02H
	DD	FLAT:$L90092
$T90094	DD	019930520H
	DD	04H
	DD	FLAT:$T90097
	DD	2 DUP(00H)
	DD	2 DUP(00H)
; Function compile flags: /Odt
xdata$x	ENDS
_TEXT	SEGMENT
tv174 = -168						; size = 4
tv173 = -164						; size = 4
tv170 = -160						; size = 4
tv169 = -156						; size = 4
tv166 = -152						; size = 4
tv165 = -148						; size = 4
$T90085 = -141						; size = 1
$T90084 = -140						; size = 4
$T90083 = -136						; size = 4
$T90082 = -132						; size = 4
_strSection$ = -128					; size = 28
_strPath$ = -100					; size = 28
_strKey$ = -72						; size = 28
_strValue$ = -44					; size = 28
__$ArrayPad$ = -16					; size = 4
__$EHRec$ = -12						; size = 12
__$ReturnAddr$ = 4					; size = 4
_hRegKey$ = 8						; size = 4
_strRegEntry$ = 12					; size = 4
_strKeyName$ = 16					; size = 4
_strKeyValue$ = 20					; size = 4
?WriteString@YL_EncFileReg@@SA_NPAUHKEY__@@ABV?$basic_string@DU?$char_traits@D@std@@V?$allocator@D@2@@std@@11@Z PROC NEAR ; YL_EncFileReg::WriteString

; 79   : {

  00630	55		 push	 ebp
  00631	8b ec		 mov	 ebp, esp
  00633	6a ff		 push	 -1
  00635	68 00 00 00 00	 push	 __ehhandler$?WriteString@YL_EncFileReg@@SA_NPAUHKEY__@@ABV?$basic_string@DU?$char_traits@D@std@@V?$allocator@D@2@@std@@11@Z
  0063a	64 a1 00 00 00
	00		 mov	 eax, DWORD PTR fs:__except_list
  00640	50		 push	 eax
  00641	64 89 25 00 00
	00 00		 mov	 DWORD PTR fs:__except_list, esp
  00648	81 ec 9c 00 00
	00		 sub	 esp, 156		; 0000009cH
  0064e	a1 00 00 00 00	 mov	 eax, DWORD PTR ___security_cookie
  00653	89 45 f0	 mov	 DWORD PTR __$ArrayPad$[ebp], eax

; 80   : 	string strPath;

  00656	8d 4d 9c	 lea	 ecx, DWORD PTR _strPath$[ebp]
  00659	ff 15 00 00 00
	00		 call	 DWORD PTR __imp_??0?$basic_string@DU?$char_traits@D@std@@V?$allocator@D@2@@std@@QAE@XZ
  0065f	c7 45 fc 00 00
	00 00		 mov	 DWORD PTR __$EHRec$[ebp+8], 0

; 81   : 	GetEncFilePath( strPath );

  00666	8d 45 9c	 lea	 eax, DWORD PTR _strPath$[ebp]
  00669	50		 push	 eax
  0066a	e8 00 00 00 00	 call	 ?GetEncFilePath@YL_EncFileReg@@SA_NAAV?$basic_string@DU?$char_traits@D@std@@V?$allocator@D@2@@std@@@Z ; YL_EncFileReg::GetEncFilePath
  0066f	83 c4 04	 add	 esp, 4

; 82   : 	string strSection = StrHash( strRegEntry );

  00672	83 ec 1c	 sub	 esp, 28			; 0000001cH
  00675	8b cc		 mov	 ecx, esp
  00677	89 a5 7c ff ff
	ff		 mov	 DWORD PTR $T90082[ebp], esp
  0067d	8b 55 0c	 mov	 edx, DWORD PTR _strRegEntry$[ebp]
  00680	52		 push	 edx
  00681	ff 15 00 00 00
	00		 call	 DWORD PTR __imp_??0?$basic_string@DU?$char_traits@D@std@@V?$allocator@D@2@@std@@QAE@ABV01@@Z
  00687	89 85 6c ff ff
	ff		 mov	 DWORD PTR tv165[ebp], eax
  0068d	8d 45 80	 lea	 eax, DWORD PTR _strSection$[ebp]
  00690	50		 push	 eax
  00691	e8 00 00 00 00	 call	 ?StrHash@YL_EncFileReg@@SA?AV?$basic_string@DU?$char_traits@D@std@@V?$allocator@D@2@@std@@V23@@Z ; YL_EncFileReg::StrHash
  00696	83 c4 20	 add	 esp, 32			; 00000020H
  00699	89 85 68 ff ff
	ff		 mov	 DWORD PTR tv166[ebp], eax
  0069f	c6 45 fc 01	 mov	 BYTE PTR __$EHRec$[ebp+8], 1

; 83   : 	string strKey     = StrHash( strKeyName );

  006a3	83 ec 1c	 sub	 esp, 28			; 0000001cH
  006a6	8b cc		 mov	 ecx, esp
  006a8	89 a5 78 ff ff
	ff		 mov	 DWORD PTR $T90083[ebp], esp
  006ae	8b 55 10	 mov	 edx, DWORD PTR _strKeyName$[ebp]
  006b1	52		 push	 edx
  006b2	ff 15 00 00 00
	00		 call	 DWORD PTR __imp_??0?$basic_string@DU?$char_traits@D@std@@V?$allocator@D@2@@std@@QAE@ABV01@@Z
  006b8	89 85 64 ff ff
	ff		 mov	 DWORD PTR tv169[ebp], eax
  006be	8d 45 b8	 lea	 eax, DWORD PTR _strKey$[ebp]
  006c1	50		 push	 eax
  006c2	e8 00 00 00 00	 call	 ?StrHash@YL_EncFileReg@@SA?AV?$basic_string@DU?$char_traits@D@std@@V?$allocator@D@2@@std@@V23@@Z ; YL_EncFileReg::StrHash
  006c7	83 c4 20	 add	 esp, 32			; 00000020H
  006ca	89 85 60 ff ff
	ff		 mov	 DWORD PTR tv170[ebp], eax
  006d0	c6 45 fc 02	 mov	 BYTE PTR __$EHRec$[ebp+8], 2

; 84   : 	string strValue   = Enc( strKeyValue );

  006d4	83 ec 1c	 sub	 esp, 28			; 0000001cH
  006d7	8b cc		 mov	 ecx, esp
  006d9	89 a5 74 ff ff
	ff		 mov	 DWORD PTR $T90084[ebp], esp
  006df	8b 55 14	 mov	 edx, DWORD PTR _strKeyValue$[ebp]
  006e2	52		 push	 edx
  006e3	ff 15 00 00 00
	00		 call	 DWORD PTR __imp_??0?$basic_string@DU?$char_traits@D@std@@V?$allocator@D@2@@std@@QAE@ABV01@@Z
  006e9	89 85 5c ff ff
	ff		 mov	 DWORD PTR tv173[ebp], eax
  006ef	8d 45 d4	 lea	 eax, DWORD PTR _strValue$[ebp]
  006f2	50		 push	 eax
  006f3	e8 00 00 00 00	 call	 ?Enc@YL_EncFileReg@@SA?AV?$basic_string@DU?$char_traits@D@std@@V?$allocator@D@2@@std@@V23@@Z ; YL_EncFileReg::Enc
  006f8	83 c4 20	 add	 esp, 32			; 00000020H
  006fb	89 85 58 ff ff
	ff		 mov	 DWORD PTR tv174[ebp], eax
  00701	c6 45 fc 03	 mov	 BYTE PTR __$EHRec$[ebp+8], 3

; 85   : 	WritePrivateProfileString( strSection.c_str(), strKey.c_str(), strValue.c_str(), strPath.c_str() );

  00705	8d 4d 9c	 lea	 ecx, DWORD PTR _strPath$[ebp]
  00708	ff 15 00 00 00
	00		 call	 DWORD PTR __imp_?c_str@?$basic_string@DU?$char_traits@D@std@@V?$allocator@D@2@@std@@QBEPBDXZ
  0070e	50		 push	 eax
  0070f	8d 4d d4	 lea	 ecx, DWORD PTR _strValue$[ebp]
  00712	ff 15 00 00 00
	00		 call	 DWORD PTR __imp_?c_str@?$basic_string@DU?$char_traits@D@std@@V?$allocator@D@2@@std@@QBEPBDXZ
  00718	50		 push	 eax
  00719	8d 4d b8	 lea	 ecx, DWORD PTR _strKey$[ebp]
  0071c	ff 15 00 00 00
	00		 call	 DWORD PTR __imp_?c_str@?$basic_string@DU?$char_traits@D@std@@V?$allocator@D@2@@std@@QBEPBDXZ
  00722	50		 push	 eax
  00723	8d 4d 80	 lea	 ecx, DWORD PTR _strSection$[ebp]
  00726	ff 15 00 00 00
	00		 call	 DWORD PTR __imp_?c_str@?$basic_string@DU?$char_traits@D@std@@V?$allocator@D@2@@std@@QBEPBDXZ
  0072c	50		 push	 eax
  0072d	ff 15 00 00 00
	00		 call	 DWORD PTR __imp__WritePrivateProfileStringA@16

; 86   : 	return true;

  00733	c6 85 73 ff ff
	ff 01		 mov	 BYTE PTR $T90085[ebp], 1
  0073a	c6 45 fc 02	 mov	 BYTE PTR __$EHRec$[ebp+8], 2
  0073e	8d 4d d4	 lea	 ecx, DWORD PTR _strValue$[ebp]
  00741	ff 15 00 00 00
	00		 call	 DWORD PTR __imp_??1?$basic_string@DU?$char_traits@D@std@@V?$allocator@D@2@@std@@QAE@XZ
  00747	c6 45 fc 01	 mov	 BYTE PTR __$EHRec$[ebp+8], 1
  0074b	8d 4d b8	 lea	 ecx, DWORD PTR _strKey$[ebp]
  0074e	ff 15 00 00 00
	00		 call	 DWORD PTR __imp_??1?$basic_string@DU?$char_traits@D@std@@V?$allocator@D@2@@std@@QAE@XZ
  00754	c6 45 fc 00	 mov	 BYTE PTR __$EHRec$[ebp+8], 0
  00758	8d 4d 80	 lea	 ecx, DWORD PTR _strSection$[ebp]
  0075b	ff 15 00 00 00
	00		 call	 DWORD PTR __imp_??1?$basic_string@DU?$char_traits@D@std@@V?$allocator@D@2@@std@@QAE@XZ
  00761	c7 45 fc ff ff
	ff ff		 mov	 DWORD PTR __$EHRec$[ebp+8], -1
  00768	8d 4d 9c	 lea	 ecx, DWORD PTR _strPath$[ebp]
  0076b	ff 15 00 00 00
	00		 call	 DWORD PTR __imp_??1?$basic_string@DU?$char_traits@D@std@@V?$allocator@D@2@@std@@QAE@XZ
  00771	8a 85 73 ff ff
	ff		 mov	 al, BYTE PTR $T90085[ebp]

; 87   : }

  00777	8b 4d f4	 mov	 ecx, DWORD PTR __$EHRec$[ebp]
  0077a	64 89 0d 00 00
	00 00		 mov	 DWORD PTR fs:__except_list, ecx
  00781	8b 4d f0	 mov	 ecx, DWORD PTR __$ArrayPad$[ebp]
  00784	e8 00 00 00 00	 call	 @__security_check_cookie@4
  00789	8b e5		 mov	 esp, ebp
  0078b	5d		 pop	 ebp
  0078c	c3		 ret	 0
_TEXT	ENDS
text$x	SEGMENT
$L90086:
  00123	8d 4d 9c	 lea	 ecx, DWORD PTR _strPath$[ebp]
  00126	ff 25 00 00 00
	00		 jmp	 DWORD PTR __imp_??1?$basic_string@DU?$char_traits@D@std@@V?$allocator@D@2@@std@@QAE@XZ
$L90088:
  0012c	8d 4d 80	 lea	 ecx, DWORD PTR _strSection$[ebp]
  0012f	ff 25 00 00 00
	00		 jmp	 DWORD PTR __imp_??1?$basic_string@DU?$char_traits@D@std@@V?$allocator@D@2@@std@@QAE@XZ
$L90090:
  00135	8d 4d b8	 lea	 ecx, DWORD PTR _strKey$[ebp]
  00138	ff 25 00 00 00
	00		 jmp	 DWORD PTR __imp_??1?$basic_string@DU?$char_traits@D@std@@V?$allocator@D@2@@std@@QAE@XZ
$L90092:
  0013e	8d 4d d4	 lea	 ecx, DWORD PTR _strValue$[ebp]
  00141	ff 25 00 00 00
	00		 jmp	 DWORD PTR __imp_??1?$basic_string@DU?$char_traits@D@std@@V?$allocator@D@2@@std@@QAE@XZ
__ehhandler$?WriteString@YL_EncFileReg@@SA_NPAUHKEY__@@ABV?$basic_string@DU?$char_traits@D@std@@V?$allocator@D@2@@std@@11@Z:
  00147	b8 00 00 00 00	 mov	 eax, OFFSET FLAT:$T90094
  0014c	e9 00 00 00 00	 jmp	 ___CxxFrameHandler
text$x	ENDS
?WriteString@YL_EncFileReg@@SA_NPAUHKEY__@@ABV?$basic_string@DU?$char_traits@D@std@@V?$allocator@D@2@@std@@11@Z ENDP ; YL_EncFileReg::WriteString
PUBLIC	?WriteString@YL_EncFileReg@@SA_NPAUHKEY__@@PBD11@Z ; YL_EncFileReg::WriteString
xdata$x	SEGMENT
$T90109	DD	0ffffffffH
	DD	FLAT:$L90103
	DD	00H
	DD	FLAT:$L90104
	DD	01H
	DD	FLAT:$L90105
$T90107	DD	019930520H
	DD	03H
	DD	FLAT:$T90109
	DD	2 DUP(00H)
	DD	2 DUP(00H)
; Function compile flags: /Odt
xdata$x	ENDS
_TEXT	SEGMENT
tv92 = -124						; size = 4
tv95 = -120						; size = 4
tv90 = -116						; size = 4
tv94 = -112						; size = 4
tv88 = -108						; size = 4
tv93 = -104						; size = 4
$T90102 = -100						; size = 28
$T90101 = -72						; size = 28
$T90100 = -44						; size = 28
$T90099 = -13						; size = 1
__$EHRec$ = -12						; size = 12
_hRegKey$ = 8						; size = 4
_pszRegEntry$ = 12					; size = 4
_pszKeyName$ = 16					; size = 4
_pszKeyValue$ = 20					; size = 4
?WriteString@YL_EncFileReg@@SA_NPAUHKEY__@@PBD11@Z PROC NEAR ; YL_EncFileReg::WriteString

; 90   : {

  00790	55		 push	 ebp
  00791	8b ec		 mov	 ebp, esp
  00793	6a ff		 push	 -1
  00795	68 00 00 00 00	 push	 __ehhandler$?WriteString@YL_EncFileReg@@SA_NPAUHKEY__@@PBD11@Z
  0079a	64 a1 00 00 00
	00		 mov	 eax, DWORD PTR fs:__except_list
  007a0	50		 push	 eax
  007a1	64 89 25 00 00
	00 00		 mov	 DWORD PTR fs:__except_list, esp
  007a8	83 ec 70	 sub	 esp, 112		; 00000070H

; 91   : 	if( pszRegEntry == NULL || pszKeyName == NULL || pszKeyValue == NULL )

  007ab	83 7d 0c 00	 cmp	 DWORD PTR _pszRegEntry$[ebp], 0
  007af	74 0c		 je	 SHORT $L84364
  007b1	83 7d 10 00	 cmp	 DWORD PTR _pszKeyName$[ebp], 0
  007b5	74 06		 je	 SHORT $L84364
  007b7	83 7d 14 00	 cmp	 DWORD PTR _pszKeyValue$[ebp], 0
  007bb	75 07		 jne	 SHORT $L84363
$L84364:

; 92   : 	{
; 93   : 		return false;

  007bd	32 c0		 xor	 al, al
  007bf	e9 99 00 00 00	 jmp	 $L84362
$L84363:

; 94   : 	}
; 95   : 	return WriteString( hRegKey,string(pszRegEntry),string(pszKeyName),string(pszKeyValue) );

  007c4	8b 45 14	 mov	 eax, DWORD PTR _pszKeyValue$[ebp]
  007c7	50		 push	 eax
  007c8	8d 4d d4	 lea	 ecx, DWORD PTR $T90100[ebp]
  007cb	ff 15 00 00 00
	00		 call	 DWORD PTR __imp_??0?$basic_string@DU?$char_traits@D@std@@V?$allocator@D@2@@std@@QAE@PBD@Z
  007d1	89 45 98	 mov	 DWORD PTR tv93[ebp], eax
  007d4	8b 4d 98	 mov	 ecx, DWORD PTR tv93[ebp]
  007d7	89 4d 94	 mov	 DWORD PTR tv88[ebp], ecx
  007da	c7 45 fc 00 00
	00 00		 mov	 DWORD PTR __$EHRec$[ebp+8], 0
  007e1	8b 55 10	 mov	 edx, DWORD PTR _pszKeyName$[ebp]
  007e4	52		 push	 edx
  007e5	8d 4d b8	 lea	 ecx, DWORD PTR $T90101[ebp]
  007e8	ff 15 00 00 00
	00		 call	 DWORD PTR __imp_??0?$basic_string@DU?$char_traits@D@std@@V?$allocator@D@2@@std@@QAE@PBD@Z
  007ee	89 45 90	 mov	 DWORD PTR tv94[ebp], eax
  007f1	8b 45 90	 mov	 eax, DWORD PTR tv94[ebp]
  007f4	89 45 8c	 mov	 DWORD PTR tv90[ebp], eax
  007f7	c6 45 fc 01	 mov	 BYTE PTR __$EHRec$[ebp+8], 1
  007fb	8b 4d 0c	 mov	 ecx, DWORD PTR _pszRegEntry$[ebp]
  007fe	51		 push	 ecx
  007ff	8d 4d 9c	 lea	 ecx, DWORD PTR $T90102[ebp]
  00802	ff 15 00 00 00
	00		 call	 DWORD PTR __imp_??0?$basic_string@DU?$char_traits@D@std@@V?$allocator@D@2@@std@@QAE@PBD@Z
  00808	89 45 88	 mov	 DWORD PTR tv95[ebp], eax
  0080b	8b 55 88	 mov	 edx, DWORD PTR tv95[ebp]
  0080e	89 55 84	 mov	 DWORD PTR tv92[ebp], edx
  00811	c6 45 fc 02	 mov	 BYTE PTR __$EHRec$[ebp+8], 2
  00815	8b 45 94	 mov	 eax, DWORD PTR tv88[ebp]
  00818	50		 push	 eax
  00819	8b 4d 8c	 mov	 ecx, DWORD PTR tv90[ebp]
  0081c	51		 push	 ecx
  0081d	8b 55 84	 mov	 edx, DWORD PTR tv92[ebp]
  00820	52		 push	 edx
  00821	8b 45 08	 mov	 eax, DWORD PTR _hRegKey$[ebp]
  00824	50		 push	 eax
  00825	e8 00 00 00 00	 call	 ?WriteString@YL_EncFileReg@@SA_NPAUHKEY__@@ABV?$basic_string@DU?$char_traits@D@std@@V?$allocator@D@2@@std@@11@Z ; YL_EncFileReg::WriteString
  0082a	83 c4 10	 add	 esp, 16			; 00000010H
  0082d	88 45 f3	 mov	 BYTE PTR $T90099[ebp], al
  00830	c6 45 fc 01	 mov	 BYTE PTR __$EHRec$[ebp+8], 1
  00834	8d 4d 9c	 lea	 ecx, DWORD PTR $T90102[ebp]
  00837	ff 15 00 00 00
	00		 call	 DWORD PTR __imp_??1?$basic_string@DU?$char_traits@D@std@@V?$allocator@D@2@@std@@QAE@XZ
  0083d	c6 45 fc 00	 mov	 BYTE PTR __$EHRec$[ebp+8], 0
  00841	8d 4d b8	 lea	 ecx, DWORD PTR $T90101[ebp]
  00844	ff 15 00 00 00
	00		 call	 DWORD PTR __imp_??1?$basic_string@DU?$char_traits@D@std@@V?$allocator@D@2@@std@@QAE@XZ
  0084a	c7 45 fc ff ff
	ff ff		 mov	 DWORD PTR __$EHRec$[ebp+8], -1
  00851	8d 4d d4	 lea	 ecx, DWORD PTR $T90100[ebp]
  00854	ff 15 00 00 00
	00		 call	 DWORD PTR __imp_??1?$basic_string@DU?$char_traits@D@std@@V?$allocator@D@2@@std@@QAE@XZ
  0085a	8a 45 f3	 mov	 al, BYTE PTR $T90099[ebp]
$L84362:

; 96   : }

  0085d	8b 4d f4	 mov	 ecx, DWORD PTR __$EHRec$[ebp]
  00860	64 89 0d 00 00
	00 00		 mov	 DWORD PTR fs:__except_list, ecx
  00867	8b e5		 mov	 esp, ebp
  00869	5d		 pop	 ebp
  0086a	c3		 ret	 0
_TEXT	ENDS
text$x	SEGMENT
$L90103:
  00151	8d 4d d4	 lea	 ecx, DWORD PTR $T90100[ebp]
  00154	ff 25 00 00 00
	00		 jmp	 DWORD PTR __imp_??1?$basic_string@DU?$char_traits@D@std@@V?$allocator@D@2@@std@@QAE@XZ
$L90104:
  0015a	8d 4d b8	 lea	 ecx, DWORD PTR $T90101[ebp]
  0015d	ff 25 00 00 00
	00		 jmp	 DWORD PTR __imp_??1?$basic_string@DU?$char_traits@D@std@@V?$allocator@D@2@@std@@QAE@XZ
$L90105:
  00163	8d 4d 9c	 lea	 ecx, DWORD PTR $T90102[ebp]
  00166	ff 25 00 00 00
	00		 jmp	 DWORD PTR __imp_??1?$basic_string@DU?$char_traits@D@std@@V?$allocator@D@2@@std@@QAE@XZ
__ehhandler$?WriteString@YL_EncFileReg@@SA_NPAUHKEY__@@PBD11@Z:
  0016c	b8 00 00 00 00	 mov	 eax, OFFSET FLAT:$T90107
  00171	e9 00 00 00 00	 jmp	 ___CxxFrameHandler
text$x	ENDS
?WriteString@YL_EncFileReg@@SA_NPAUHKEY__@@PBD11@Z ENDP	; YL_EncFileReg::WriteString
PUBLIC	?ReadString@YL_EncFileReg@@SA_NPAUHKEY__@@ABV?$basic_string@DU?$char_traits@D@std@@V?$allocator@D@2@@std@@1AAV34@@Z ; YL_EncFileReg::ReadString
EXTRN	__imp__GetPrivateProfileStringA@24:NEAR
EXTRN	_strlen:NEAR
xdata$x	SEGMENT
$T90129	DD	0ffffffffH
	DD	FLAT:$L90118
	DD	00H
	DD	FLAT:$L90120
	DD	01H
	DD	FLAT:$L90122
	DD	02H
	DD	FLAT:$L90124
$T90126	DD	019930520H
	DD	04H
	DD	FLAT:$T90129
	DD	2 DUP(00H)
	DD	2 DUP(00H)
; Function compile flags: /Odt
xdata$x	ENDS
_TEXT	SEGMENT
tv189 = -1204						; size = 4
tv187 = -1200						; size = 4
tv186 = -1196						; size = 4
tv180 = -1192						; size = 4
tv179 = -1188						; size = 4
tv176 = -1184						; size = 4
tv175 = -1180						; size = 4
$T90117 = -1173						; size = 1
$T90116 = -1172						; size = 28
$T90115 = -1144						; size = 4
$T90114 = -1137						; size = 1
$T90113 = -1136						; size = 4
$T90112 = -1132						; size = 4
_strSection$ = -1128					; size = 28
_szValue$ = -1100					; size = 1024
_strPath$ = -72						; size = 28
_strKey$ = -44						; size = 28
__$ArrayPad$ = -16					; size = 4
__$EHRec$ = -12						; size = 12
__$ReturnAddr$ = 4					; size = 4
_hRegKey$ = 8						; size = 4
_strRegEntry$ = 12					; size = 4
_strKeyName$ = 16					; size = 4
_strKeyValue$ = 20					; size = 4
?ReadString@YL_EncFileReg@@SA_NPAUHKEY__@@ABV?$basic_string@DU?$char_traits@D@std@@V?$allocator@D@2@@std@@1AAV34@@Z PROC NEAR ; YL_EncFileReg::ReadString

; 100  : {

  00870	55		 push	 ebp
  00871	8b ec		 mov	 ebp, esp
  00873	6a ff		 push	 -1
  00875	68 00 00 00 00	 push	 __ehhandler$?ReadString@YL_EncFileReg@@SA_NPAUHKEY__@@ABV?$basic_string@DU?$char_traits@D@std@@V?$allocator@D@2@@std@@1AAV34@@Z
  0087a	64 a1 00 00 00
	00		 mov	 eax, DWORD PTR fs:__except_list
  00880	50		 push	 eax
  00881	64 89 25 00 00
	00 00		 mov	 DWORD PTR fs:__except_list, esp
  00888	81 ec a8 04 00
	00		 sub	 esp, 1192		; 000004a8H
  0088e	a1 00 00 00 00	 mov	 eax, DWORD PTR ___security_cookie
  00893	89 45 f0	 mov	 DWORD PTR __$ArrayPad$[ebp], eax

; 101  : 	string strPath;

  00896	8d 4d b8	 lea	 ecx, DWORD PTR _strPath$[ebp]
  00899	ff 15 00 00 00
	00		 call	 DWORD PTR __imp_??0?$basic_string@DU?$char_traits@D@std@@V?$allocator@D@2@@std@@QAE@XZ
  0089f	c7 45 fc 00 00
	00 00		 mov	 DWORD PTR __$EHRec$[ebp+8], 0

; 102  : 	GetEncFilePath( strPath );

  008a6	8d 45 b8	 lea	 eax, DWORD PTR _strPath$[ebp]
  008a9	50		 push	 eax
  008aa	e8 00 00 00 00	 call	 ?GetEncFilePath@YL_EncFileReg@@SA_NAAV?$basic_string@DU?$char_traits@D@std@@V?$allocator@D@2@@std@@@Z ; YL_EncFileReg::GetEncFilePath
  008af	83 c4 04	 add	 esp, 4

; 103  : 	string strSection = StrHash( strRegEntry );

  008b2	83 ec 1c	 sub	 esp, 28			; 0000001cH
  008b5	8b cc		 mov	 ecx, esp
  008b7	89 a5 94 fb ff
	ff		 mov	 DWORD PTR $T90112[ebp], esp
  008bd	8b 55 0c	 mov	 edx, DWORD PTR _strRegEntry$[ebp]
  008c0	52		 push	 edx
  008c1	ff 15 00 00 00
	00		 call	 DWORD PTR __imp_??0?$basic_string@DU?$char_traits@D@std@@V?$allocator@D@2@@std@@QAE@ABV01@@Z
  008c7	89 85 64 fb ff
	ff		 mov	 DWORD PTR tv175[ebp], eax
  008cd	8d 85 98 fb ff
	ff		 lea	 eax, DWORD PTR _strSection$[ebp]
  008d3	50		 push	 eax
  008d4	e8 00 00 00 00	 call	 ?StrHash@YL_EncFileReg@@SA?AV?$basic_string@DU?$char_traits@D@std@@V?$allocator@D@2@@std@@V23@@Z ; YL_EncFileReg::StrHash
  008d9	83 c4 20	 add	 esp, 32			; 00000020H
  008dc	89 85 60 fb ff
	ff		 mov	 DWORD PTR tv176[ebp], eax
  008e2	c6 45 fc 01	 mov	 BYTE PTR __$EHRec$[ebp+8], 1

; 104  : 	string strKey     = StrHash( strKeyName );

  008e6	83 ec 1c	 sub	 esp, 28			; 0000001cH
  008e9	8b cc		 mov	 ecx, esp
  008eb	89 a5 90 fb ff
	ff		 mov	 DWORD PTR $T90113[ebp], esp
  008f1	8b 55 10	 mov	 edx, DWORD PTR _strKeyName$[ebp]
  008f4	52		 push	 edx
  008f5	ff 15 00 00 00
	00		 call	 DWORD PTR __imp_??0?$basic_string@DU?$char_traits@D@std@@V?$allocator@D@2@@std@@QAE@ABV01@@Z
  008fb	89 85 5c fb ff
	ff		 mov	 DWORD PTR tv179[ebp], eax
  00901	8d 45 d4	 lea	 eax, DWORD PTR _strKey$[ebp]
  00904	50		 push	 eax
  00905	e8 00 00 00 00	 call	 ?StrHash@YL_EncFileReg@@SA?AV?$basic_string@DU?$char_traits@D@std@@V?$allocator@D@2@@std@@V23@@Z ; YL_EncFileReg::StrHash
  0090a	83 c4 20	 add	 esp, 32			; 00000020H
  0090d	89 85 58 fb ff
	ff		 mov	 DWORD PTR tv180[ebp], eax
  00913	c6 45 fc 02	 mov	 BYTE PTR __$EHRec$[ebp+8], 2

; 105  : 	char szValue[1024];
; 106  : 	memset(szValue,0,1024);

  00917	68 00 04 00 00	 push	 1024			; 00000400H
  0091c	6a 00		 push	 0
  0091e	8d 8d b4 fb ff
	ff		 lea	 ecx, DWORD PTR _szValue$[ebp]
  00924	51		 push	 ecx
  00925	e8 00 00 00 00	 call	 _memset
  0092a	83 c4 0c	 add	 esp, 12			; 0000000cH

; 107  : 	GetPrivateProfileString( strSection.c_str(), strKey.c_str(), "", szValue, 1024, strPath.c_str() );

  0092d	8d 4d b8	 lea	 ecx, DWORD PTR _strPath$[ebp]
  00930	ff 15 00 00 00
	00		 call	 DWORD PTR __imp_?c_str@?$basic_string@DU?$char_traits@D@std@@V?$allocator@D@2@@std@@QBEPBDXZ
  00936	50		 push	 eax
  00937	68 00 04 00 00	 push	 1024			; 00000400H
  0093c	8d 95 b4 fb ff
	ff		 lea	 edx, DWORD PTR _szValue$[ebp]
  00942	52		 push	 edx
  00943	68 00 00 00 00	 push	 OFFSET FLAT:$SG84383
  00948	8d 4d d4	 lea	 ecx, DWORD PTR _strKey$[ebp]
  0094b	ff 15 00 00 00
	00		 call	 DWORD PTR __imp_?c_str@?$basic_string@DU?$char_traits@D@std@@V?$allocator@D@2@@std@@QBEPBDXZ
  00951	50		 push	 eax
  00952	8d 8d 98 fb ff
	ff		 lea	 ecx, DWORD PTR _strSection$[ebp]
  00958	ff 15 00 00 00
	00		 call	 DWORD PTR __imp_?c_str@?$basic_string@DU?$char_traits@D@std@@V?$allocator@D@2@@std@@QBEPBDXZ
  0095e	50		 push	 eax
  0095f	ff 15 00 00 00
	00		 call	 DWORD PTR __imp__GetPrivateProfileStringA@24

; 108  : 	
; 109  : 	if( strlen(szValue) == 0 )

  00965	8d 85 b4 fb ff
	ff		 lea	 eax, DWORD PTR _szValue$[ebp]
  0096b	50		 push	 eax
  0096c	e8 00 00 00 00	 call	 _strlen
  00971	83 c4 04	 add	 esp, 4
  00974	85 c0		 test	 eax, eax
  00976	75 48		 jne	 SHORT $L84384

; 110  : 	{
; 111  : 		strKeyValue.clear();

  00978	8b 4d 14	 mov	 ecx, DWORD PTR _strKeyValue$[ebp]
  0097b	ff 15 00 00 00
	00		 call	 DWORD PTR __imp_?clear@?$basic_string@DU?$char_traits@D@std@@V?$allocator@D@2@@std@@QAEXXZ

; 112  : 		return false;

  00981	c6 85 8f fb ff
	ff 00		 mov	 BYTE PTR $T90114[ebp], 0
  00988	c6 45 fc 01	 mov	 BYTE PTR __$EHRec$[ebp+8], 1
  0098c	8d 4d d4	 lea	 ecx, DWORD PTR _strKey$[ebp]
  0098f	ff 15 00 00 00
	00		 call	 DWORD PTR __imp_??1?$basic_string@DU?$char_traits@D@std@@V?$allocator@D@2@@std@@QAE@XZ
  00995	c6 45 fc 00	 mov	 BYTE PTR __$EHRec$[ebp+8], 0
  00999	8d 8d 98 fb ff
	ff		 lea	 ecx, DWORD PTR _strSection$[ebp]
  0099f	ff 15 00 00 00
	00		 call	 DWORD PTR __imp_??1?$basic_string@DU?$char_traits@D@std@@V?$allocator@D@2@@std@@QAE@XZ
  009a5	c7 45 fc ff ff
	ff ff		 mov	 DWORD PTR __$EHRec$[ebp+8], -1
  009ac	8d 4d b8	 lea	 ecx, DWORD PTR _strPath$[ebp]
  009af	ff 15 00 00 00
	00		 call	 DWORD PTR __imp_??1?$basic_string@DU?$char_traits@D@std@@V?$allocator@D@2@@std@@QAE@XZ
  009b5	8a 85 8f fb ff
	ff		 mov	 al, BYTE PTR $T90114[ebp]
  009bb	e9 9d 00 00 00	 jmp	 $L84374
$L84384:

; 113  : 	}else
; 114  : 	{
; 115  : 		strKeyValue = Dec2Str( string(szValue) );

  009c0	83 ec 1c	 sub	 esp, 28			; 0000001cH
  009c3	8b cc		 mov	 ecx, esp
  009c5	89 a5 88 fb ff
	ff		 mov	 DWORD PTR $T90115[ebp], esp
  009cb	8d 95 b4 fb ff
	ff		 lea	 edx, DWORD PTR _szValue$[ebp]
  009d1	52		 push	 edx
  009d2	ff 15 00 00 00
	00		 call	 DWORD PTR __imp_??0?$basic_string@DU?$char_traits@D@std@@V?$allocator@D@2@@std@@QAE@PBD@Z
  009d8	89 85 54 fb ff
	ff		 mov	 DWORD PTR tv186[ebp], eax
  009de	8d 85 6c fb ff
	ff		 lea	 eax, DWORD PTR $T90116[ebp]
  009e4	50		 push	 eax
  009e5	e8 00 00 00 00	 call	 ?Dec2Str@YL_EncFileReg@@SA?AV?$basic_string@DU?$char_traits@D@std@@V?$allocator@D@2@@std@@V23@@Z ; YL_EncFileReg::Dec2Str
  009ea	83 c4 20	 add	 esp, 32			; 00000020H
  009ed	89 85 50 fb ff
	ff		 mov	 DWORD PTR tv187[ebp], eax
  009f3	8b 8d 50 fb ff
	ff		 mov	 ecx, DWORD PTR tv187[ebp]
  009f9	89 8d 4c fb ff
	ff		 mov	 DWORD PTR tv189[ebp], ecx
  009ff	c6 45 fc 03	 mov	 BYTE PTR __$EHRec$[ebp+8], 3
  00a03	8b 95 4c fb ff
	ff		 mov	 edx, DWORD PTR tv189[ebp]
  00a09	52		 push	 edx
  00a0a	8b 4d 14	 mov	 ecx, DWORD PTR _strKeyValue$[ebp]
  00a0d	ff 15 00 00 00
	00		 call	 DWORD PTR __imp_??4?$basic_string@DU?$char_traits@D@std@@V?$allocator@D@2@@std@@QAEAAV01@ABV01@@Z
  00a13	c6 45 fc 02	 mov	 BYTE PTR __$EHRec$[ebp+8], 2
  00a17	8d 8d 6c fb ff
	ff		 lea	 ecx, DWORD PTR $T90116[ebp]
  00a1d	ff 15 00 00 00
	00		 call	 DWORD PTR __imp_??1?$basic_string@DU?$char_traits@D@std@@V?$allocator@D@2@@std@@QAE@XZ

; 116  : 		return true;

  00a23	c6 85 6b fb ff
	ff 01		 mov	 BYTE PTR $T90117[ebp], 1
  00a2a	c6 45 fc 01	 mov	 BYTE PTR __$EHRec$[ebp+8], 1
  00a2e	8d 4d d4	 lea	 ecx, DWORD PTR _strKey$[ebp]
  00a31	ff 15 00 00 00
	00		 call	 DWORD PTR __imp_??1?$basic_string@DU?$char_traits@D@std@@V?$allocator@D@2@@std@@QAE@XZ
  00a37	c6 45 fc 00	 mov	 BYTE PTR __$EHRec$[ebp+8], 0
  00a3b	8d 8d 98 fb ff
	ff		 lea	 ecx, DWORD PTR _strSection$[ebp]
  00a41	ff 15 00 00 00
	00		 call	 DWORD PTR __imp_??1?$basic_string@DU?$char_traits@D@std@@V?$allocator@D@2@@std@@QAE@XZ
  00a47	c7 45 fc ff ff
	ff ff		 mov	 DWORD PTR __$EHRec$[ebp+8], -1
  00a4e	8d 4d b8	 lea	 ecx, DWORD PTR _strPath$[ebp]
  00a51	ff 15 00 00 00
	00		 call	 DWORD PTR __imp_??1?$basic_string@DU?$char_traits@D@std@@V?$allocator@D@2@@std@@QAE@XZ
  00a57	8a 85 6b fb ff
	ff		 mov	 al, BYTE PTR $T90117[ebp]
$L84374:

; 117  : 	}	
; 118  : }

  00a5d	8b 4d f4	 mov	 ecx, DWORD PTR __$EHRec$[ebp]
  00a60	64 89 0d 00 00
	00 00		 mov	 DWORD PTR fs:__except_list, ecx
  00a67	8b 4d f0	 mov	 ecx, DWORD PTR __$ArrayPad$[ebp]
  00a6a	e8 00 00 00 00	 call	 @__security_check_cookie@4
  00a6f	8b e5		 mov	 esp, ebp
  00a71	5d		 pop	 ebp
  00a72	c3		 ret	 0
_TEXT	ENDS
text$x	SEGMENT
$L90118:
  00176	8d 4d b8	 lea	 ecx, DWORD PTR _strPath$[ebp]
  00179	ff 25 00 00 00
	00		 jmp	 DWORD PTR __imp_??1?$basic_string@DU?$char_traits@D@std@@V?$allocator@D@2@@std@@QAE@XZ
$L90120:
  0017f	8d 8d 98 fb ff
	ff		 lea	 ecx, DWORD PTR _strSection$[ebp]
  00185	ff 25 00 00 00
	00		 jmp	 DWORD PTR __imp_??1?$basic_string@DU?$char_traits@D@std@@V?$allocator@D@2@@std@@QAE@XZ
$L90122:
  0018b	8d 4d d4	 lea	 ecx, DWORD PTR _strKey$[ebp]
  0018e	ff 25 00 00 00
	00		 jmp	 DWORD PTR __imp_??1?$basic_string@DU?$char_traits@D@std@@V?$allocator@D@2@@std@@QAE@XZ
$L90124:
  00194	8d 8d 6c fb ff
	ff		 lea	 ecx, DWORD PTR $T90116[ebp]
  0019a	ff 25 00 00 00
	00		 jmp	 DWORD PTR __imp_??1?$basic_string@DU?$char_traits@D@std@@V?$allocator@D@2@@std@@QAE@XZ
__ehhandler$?ReadString@YL_EncFileReg@@SA_NPAUHKEY__@@ABV?$basic_string@DU?$char_traits@D@std@@V?$allocator@D@2@@std@@1AAV34@@Z:
  001a0	b8 00 00 00 00	 mov	 eax, OFFSET FLAT:$T90126
  001a5	e9 00 00 00 00	 jmp	 ___CxxFrameHandler
text$x	ENDS
?ReadString@YL_EncFileReg@@SA_NPAUHKEY__@@ABV?$basic_string@DU?$char_traits@D@std@@V?$allocator@D@2@@std@@1AAV34@@Z ENDP ; YL_EncFileReg::ReadString
PUBLIC	?ReadString@YL_EncFileReg@@SA_NPAUHKEY__@@PBD1QADI@Z ; YL_EncFileReg::ReadString
EXTRN	_strcpy:NEAR
xdata$x	SEGMENT
$T90151	DD	0ffffffffH
	DD	FLAT:$L90139
	DD	00H
	DD	FLAT:$L90141
	DD	01H
	DD	FLAT:$L90143
$T90148	DD	019930520H
	DD	03H
	DD	FLAT:$T90151
	DD	2 DUP(00H)
	DD	2 DUP(00H)
; Function compile flags: /Odt
xdata$x	ENDS
_TEXT	SEGMENT
tv90 = -132						; size = 4
tv140 = -128						; size = 4
tv148 = -124						; size = 4
tv135 = -120						; size = 4
tv67 = -116						; size = 4
$T90140 = -112						; size = 4
$T90138 = -106						; size = 1
$T90137 = -105						; size = 1
$T90134 = -104						; size = 28
$T90133 = -76						; size = 28
$T90132 = -45						; size = 1
_strKeyValue$ = -44					; size = 28
__$ArrayPad$ = -16					; size = 4
__$EHRec$ = -12						; size = 12
__$ReturnAddr$ = 4					; size = 4
_hRegKey$ = 8						; size = 4
_pszRegEntry$ = 12					; size = 4
_pszKeyName$ = 16					; size = 4
_szBuffer$ = 20						; size = 4
_unBuffLen$ = 24					; size = 4
?ReadString@YL_EncFileReg@@SA_NPAUHKEY__@@PBD1QADI@Z PROC NEAR ; YL_EncFileReg::ReadString

; 121  : {

  00a80	55		 push	 ebp
  00a81	8b ec		 mov	 ebp, esp
  00a83	6a ff		 push	 -1
  00a85	68 00 00 00 00	 push	 __ehhandler$?ReadString@YL_EncFileReg@@SA_NPAUHKEY__@@PBD1QADI@Z
  00a8a	64 a1 00 00 00
	00		 mov	 eax, DWORD PTR fs:__except_list
  00a90	50		 push	 eax
  00a91	64 89 25 00 00
	00 00		 mov	 DWORD PTR fs:__except_list, esp
  00a98	83 ec 78	 sub	 esp, 120		; 00000078H
  00a9b	a1 00 00 00 00	 mov	 eax, DWORD PTR ___security_cookie
  00aa0	89 45 f0	 mov	 DWORD PTR __$ArrayPad$[ebp], eax
  00aa3	c7 45 90 00 00
	00 00		 mov	 DWORD PTR $T90140[ebp], 0

; 122  : 	if( pszRegEntry == NULL || pszKeyName == NULL)

  00aaa	83 7d 0c 00	 cmp	 DWORD PTR _pszRegEntry$[ebp], 0
  00aae	74 06		 je	 SHORT $L84399
  00ab0	83 7d 10 00	 cmp	 DWORD PTR _pszKeyName$[ebp], 0
  00ab4	75 07		 jne	 SHORT $L84398
$L84399:

; 123  : 	{
; 124  : 		return false;

  00ab6	32 c0		 xor	 al, al
  00ab8	e9 30 01 00 00	 jmp	 $L84397
$L84398:

; 125  : 	}
; 126  : 	string strKeyValue;

  00abd	8d 4d d4	 lea	 ecx, DWORD PTR _strKeyValue$[ebp]
  00ac0	ff 15 00 00 00
	00		 call	 DWORD PTR __imp_??0?$basic_string@DU?$char_traits@D@std@@V?$allocator@D@2@@std@@QAE@XZ
  00ac6	c7 45 fc 00 00
	00 00		 mov	 DWORD PTR __$EHRec$[ebp+8], 0

; 127  : 	if( ReadString( hRegKey,string(pszRegEntry),string(pszKeyName),strKeyValue) && strKeyValue.length() <= unBuffLen - 1  )

  00acd	8b 45 10	 mov	 eax, DWORD PTR _pszKeyName$[ebp]
  00ad0	50		 push	 eax
  00ad1	8d 4d b4	 lea	 ecx, DWORD PTR $T90133[ebp]
  00ad4	ff 15 00 00 00
	00		 call	 DWORD PTR __imp_??0?$basic_string@DU?$char_traits@D@std@@V?$allocator@D@2@@std@@QAE@PBD@Z
  00ada	89 45 8c	 mov	 DWORD PTR tv67[ebp], eax
  00add	8b 4d 8c	 mov	 ecx, DWORD PTR tv67[ebp]
  00ae0	89 4d 88	 mov	 DWORD PTR tv135[ebp], ecx
  00ae3	c6 45 fc 01	 mov	 BYTE PTR __$EHRec$[ebp+8], 1
  00ae7	8b 55 90	 mov	 edx, DWORD PTR $T90140[ebp]
  00aea	83 ca 01	 or	 edx, 1
  00aed	89 55 90	 mov	 DWORD PTR $T90140[ebp], edx
  00af0	8b 45 0c	 mov	 eax, DWORD PTR _pszRegEntry$[ebp]
  00af3	50		 push	 eax
  00af4	8d 4d 98	 lea	 ecx, DWORD PTR $T90134[ebp]
  00af7	ff 15 00 00 00
	00		 call	 DWORD PTR __imp_??0?$basic_string@DU?$char_traits@D@std@@V?$allocator@D@2@@std@@QAE@PBD@Z
  00afd	89 45 84	 mov	 DWORD PTR tv148[ebp], eax
  00b00	8b 4d 84	 mov	 ecx, DWORD PTR tv148[ebp]
  00b03	89 4d 80	 mov	 DWORD PTR tv140[ebp], ecx
  00b06	c7 45 fc 02 00
	00 00		 mov	 DWORD PTR __$EHRec$[ebp+8], 2
  00b0d	8b 55 90	 mov	 edx, DWORD PTR $T90140[ebp]
  00b10	83 ca 02	 or	 edx, 2
  00b13	89 55 90	 mov	 DWORD PTR $T90140[ebp], edx
  00b16	8d 45 d4	 lea	 eax, DWORD PTR _strKeyValue$[ebp]
  00b19	50		 push	 eax
  00b1a	8b 4d 88	 mov	 ecx, DWORD PTR tv135[ebp]
  00b1d	51		 push	 ecx
  00b1e	8b 55 80	 mov	 edx, DWORD PTR tv140[ebp]
  00b21	52		 push	 edx
  00b22	8b 45 08	 mov	 eax, DWORD PTR _hRegKey$[ebp]
  00b25	50		 push	 eax
  00b26	e8 00 00 00 00	 call	 ?ReadString@YL_EncFileReg@@SA_NPAUHKEY__@@ABV?$basic_string@DU?$char_traits@D@std@@V?$allocator@D@2@@std@@1AAV34@@Z ; YL_EncFileReg::ReadString
  00b2b	83 c4 10	 add	 esp, 16			; 00000010H
  00b2e	0f b6 c8	 movzx	 ecx, al
  00b31	85 c9		 test	 ecx, ecx
  00b33	74 1f		 je	 SHORT $L90135
  00b35	8d 4d d4	 lea	 ecx, DWORD PTR _strKeyValue$[ebp]
  00b38	ff 15 00 00 00
	00		 call	 DWORD PTR __imp_?length@?$basic_string@DU?$char_traits@D@std@@V?$allocator@D@2@@std@@QBEIXZ
  00b3e	8b 55 18	 mov	 edx, DWORD PTR _unBuffLen$[ebp]
  00b41	83 ea 01	 sub	 edx, 1
  00b44	3b c2		 cmp	 eax, edx
  00b46	77 0c		 ja	 SHORT $L90135
  00b48	c7 85 7c ff ff
	ff 01 00 00 00	 mov	 DWORD PTR tv90[ebp], 1
  00b52	eb 0a		 jmp	 SHORT $L90136
$L90135:
  00b54	c7 85 7c ff ff
	ff 00 00 00 00	 mov	 DWORD PTR tv90[ebp], 0
$L90136:
  00b5e	8a 85 7c ff ff
	ff		 mov	 al, BYTE PTR tv90[ebp]
  00b64	88 45 d3	 mov	 BYTE PTR $T90132[ebp], al
  00b67	c7 45 fc 01 00
	00 00		 mov	 DWORD PTR __$EHRec$[ebp+8], 1
  00b6e	8b 4d 90	 mov	 ecx, DWORD PTR $T90140[ebp]
  00b71	83 e1 02	 and	 ecx, 2
  00b74	74 0d		 je	 SHORT $L90145
  00b76	83 65 90 fd	 and	 DWORD PTR $T90140[ebp], -3 ; fffffffdH
  00b7a	8d 4d 98	 lea	 ecx, DWORD PTR $T90134[ebp]
  00b7d	ff 15 00 00 00
	00		 call	 DWORD PTR __imp_??1?$basic_string@DU?$char_traits@D@std@@V?$allocator@D@2@@std@@QAE@XZ
$L90145:
  00b83	c7 45 fc 00 00
	00 00		 mov	 DWORD PTR __$EHRec$[ebp+8], 0
  00b8a	8b 55 90	 mov	 edx, DWORD PTR $T90140[ebp]
  00b8d	83 e2 01	 and	 edx, 1
  00b90	74 0d		 je	 SHORT $L90146
  00b92	83 65 90 fe	 and	 DWORD PTR $T90140[ebp], -2 ; fffffffeH
  00b96	8d 4d b4	 lea	 ecx, DWORD PTR $T90133[ebp]
  00b99	ff 15 00 00 00
	00		 call	 DWORD PTR __imp_??1?$basic_string@DU?$char_traits@D@std@@V?$allocator@D@2@@std@@QAE@XZ
$L90146:
  00b9f	0f b6 45 d3	 movzx	 eax, BYTE PTR $T90132[ebp]
  00ba3	85 c0		 test	 eax, eax
  00ba5	74 2f		 je	 SHORT $L84403

; 128  : 	{
; 129  : 		strcpy( szBuffer,strKeyValue.c_str() );

  00ba7	8d 4d d4	 lea	 ecx, DWORD PTR _strKeyValue$[ebp]
  00baa	ff 15 00 00 00
	00		 call	 DWORD PTR __imp_?c_str@?$basic_string@DU?$char_traits@D@std@@V?$allocator@D@2@@std@@QBEPBDXZ
  00bb0	50		 push	 eax
  00bb1	8b 4d 14	 mov	 ecx, DWORD PTR _szBuffer$[ebp]
  00bb4	51		 push	 ecx
  00bb5	e8 00 00 00 00	 call	 _strcpy
  00bba	83 c4 08	 add	 esp, 8

; 130  : 		return true;

  00bbd	c6 45 97 01	 mov	 BYTE PTR $T90137[ebp], 1
  00bc1	c7 45 fc ff ff
	ff ff		 mov	 DWORD PTR __$EHRec$[ebp+8], -1
  00bc8	8d 4d d4	 lea	 ecx, DWORD PTR _strKeyValue$[ebp]
  00bcb	ff 15 00 00 00
	00		 call	 DWORD PTR __imp_??1?$basic_string@DU?$char_traits@D@std@@V?$allocator@D@2@@std@@QAE@XZ
  00bd1	8a 45 97	 mov	 al, BYTE PTR $T90137[ebp]
  00bd4	eb 17		 jmp	 SHORT $L84397
$L84403:

; 131  : 	}
; 132  : 	return false;

  00bd6	c6 45 96 00	 mov	 BYTE PTR $T90138[ebp], 0
  00bda	c7 45 fc ff ff
	ff ff		 mov	 DWORD PTR __$EHRec$[ebp+8], -1
  00be1	8d 4d d4	 lea	 ecx, DWORD PTR _strKeyValue$[ebp]
  00be4	ff 15 00 00 00
	00		 call	 DWORD PTR __imp_??1?$basic_string@DU?$char_traits@D@std@@V?$allocator@D@2@@std@@QAE@XZ
  00bea	8a 45 96	 mov	 al, BYTE PTR $T90138[ebp]
$L84397:

; 133  : }

  00bed	8b 4d f4	 mov	 ecx, DWORD PTR __$EHRec$[ebp]
  00bf0	64 89 0d 00 00
	00 00		 mov	 DWORD PTR fs:__except_list, ecx
  00bf7	8b 4d f0	 mov	 ecx, DWORD PTR __$ArrayPad$[ebp]
  00bfa	e8 00 00 00 00	 call	 @__security_check_cookie@4
  00bff	8b e5		 mov	 esp, ebp
  00c01	5d		 pop	 ebp
  00c02	c3		 ret	 0
_TEXT	ENDS
text$x	SEGMENT
$L90139:
  001aa	8d 4d d4	 lea	 ecx, DWORD PTR _strKeyValue$[ebp]
  001ad	ff 25 00 00 00
	00		 jmp	 DWORD PTR __imp_??1?$basic_string@DU?$char_traits@D@std@@V?$allocator@D@2@@std@@QAE@XZ
$L90141:
  001b3	8b 45 90	 mov	 eax, DWORD PTR $T90140[ebp]
  001b6	83 e0 01	 and	 eax, 1
  001b9	0f 84 0d 00 00
	00		 je	 $L90142
  001bf	83 65 90 fe	 and	 DWORD PTR $T90140[ebp], -2 ; fffffffeH
  001c3	8d 4d b4	 lea	 ecx, DWORD PTR $T90133[ebp]
  001c6	ff 25 00 00 00
	00		 jmp	 DWORD PTR __imp_??1?$basic_string@DU?$char_traits@D@std@@V?$allocator@D@2@@std@@QAE@XZ
$L90142:
  001cc	c3		 ret	 0
$L90143:
  001cd	8b 45 90	 mov	 eax, DWORD PTR $T90140[ebp]
  001d0	83 e0 02	 and	 eax, 2
  001d3	0f 84 0d 00 00
	00		 je	 $L90144
  001d9	83 65 90 fd	 and	 DWORD PTR $T90140[ebp], -3 ; fffffffdH
  001dd	8d 4d 98	 lea	 ecx, DWORD PTR $T90134[ebp]
  001e0	ff 25 00 00 00
	00		 jmp	 DWORD PTR __imp_??1?$basic_string@DU?$char_traits@D@std@@V?$allocator@D@2@@std@@QAE@XZ
$L90144:
  001e6	c3		 ret	 0
__ehhandler$?ReadString@YL_EncFileReg@@SA_NPAUHKEY__@@PBD1QADI@Z:
  001e7	b8 00 00 00 00	 mov	 eax, OFFSET FLAT:$T90148
  001ec	e9 00 00 00 00	 jmp	 ___CxxFrameHandler
text$x	ENDS
?ReadString@YL_EncFileReg@@SA_NPAUHKEY__@@PBD1QADI@Z ENDP ; YL_EncFileReg::ReadString
PUBLIC	?WriteDWORD@YL_EncFileReg@@SA_NPAUHKEY__@@ABV?$basic_string@DU?$char_traits@D@std@@V?$allocator@D@2@@std@@1ABI@Z ; YL_EncFileReg::WriteDWORD
xdata$x	SEGMENT
$T90167	DD	0ffffffffH
	DD	FLAT:$L90157
	DD	00H
	DD	FLAT:$L90159
	DD	01H
	DD	FLAT:$L90161
	DD	02H
	DD	FLAT:$L90162
$T90164	DD	019930520H
	DD	04H
	DD	FLAT:$T90167
	DD	2 DUP(00H)
	DD	2 DUP(00H)
; Function compile flags: /Odt
xdata$x	ENDS
_TEXT	SEGMENT
tv157 = -156						; size = 4
tv156 = -152						; size = 4
tv153 = -148						; size = 4
tv152 = -144						; size = 4
$T90156 = -137						; size = 1
$T90155 = -136						; size = 4
$T90154 = -132						; size = 4
_strSection$ = -128					; size = 28
_strPath$ = -100					; size = 28
_strKey$ = -72						; size = 28
_strValue$ = -44					; size = 28
__$ArrayPad$ = -16					; size = 4
__$EHRec$ = -12						; size = 12
__$ReturnAddr$ = 4					; size = 4
_hRegKey$ = 8						; size = 4
_strRegEntry$ = 12					; size = 4
_strKeyName$ = 16					; size = 4
_unValue$ = 20						; size = 4
?WriteDWORD@YL_EncFileReg@@SA_NPAUHKEY__@@ABV?$basic_string@DU?$char_traits@D@std@@V?$allocator@D@2@@std@@1ABI@Z PROC NEAR ; YL_EncFileReg::WriteDWORD

; 137  : {

  00c10	55		 push	 ebp
  00c11	8b ec		 mov	 ebp, esp
  00c13	6a ff		 push	 -1
  00c15	68 00 00 00 00	 push	 __ehhandler$?WriteDWORD@YL_EncFileReg@@SA_NPAUHKEY__@@ABV?$basic_string@DU?$char_traits@D@std@@V?$allocator@D@2@@std@@1ABI@Z
  00c1a	64 a1 00 00 00
	00		 mov	 eax, DWORD PTR fs:__except_list
  00c20	50		 push	 eax
  00c21	64 89 25 00 00
	00 00		 mov	 DWORD PTR fs:__except_list, esp
  00c28	81 ec 90 00 00
	00		 sub	 esp, 144		; 00000090H
  00c2e	a1 00 00 00 00	 mov	 eax, DWORD PTR ___security_cookie
  00c33	89 45 f0	 mov	 DWORD PTR __$ArrayPad$[ebp], eax

; 138  : 	string strPath;

  00c36	8d 4d 9c	 lea	 ecx, DWORD PTR _strPath$[ebp]
  00c39	ff 15 00 00 00
	00		 call	 DWORD PTR __imp_??0?$basic_string@DU?$char_traits@D@std@@V?$allocator@D@2@@std@@QAE@XZ
  00c3f	c7 45 fc 00 00
	00 00		 mov	 DWORD PTR __$EHRec$[ebp+8], 0

; 139  : 	GetEncFilePath( strPath );

  00c46	8d 45 9c	 lea	 eax, DWORD PTR _strPath$[ebp]
  00c49	50		 push	 eax
  00c4a	e8 00 00 00 00	 call	 ?GetEncFilePath@YL_EncFileReg@@SA_NAAV?$basic_string@DU?$char_traits@D@std@@V?$allocator@D@2@@std@@@Z ; YL_EncFileReg::GetEncFilePath
  00c4f	83 c4 04	 add	 esp, 4

; 140  : 	string strSection = StrHash( strRegEntry );

  00c52	83 ec 1c	 sub	 esp, 28			; 0000001cH
  00c55	8b cc		 mov	 ecx, esp
  00c57	89 a5 7c ff ff
	ff		 mov	 DWORD PTR $T90154[ebp], esp
  00c5d	8b 55 0c	 mov	 edx, DWORD PTR _strRegEntry$[ebp]
  00c60	52		 push	 edx
  00c61	ff 15 00 00 00
	00		 call	 DWORD PTR __imp_??0?$basic_string@DU?$char_traits@D@std@@V?$allocator@D@2@@std@@QAE@ABV01@@Z
  00c67	89 85 70 ff ff
	ff		 mov	 DWORD PTR tv152[ebp], eax
  00c6d	8d 45 80	 lea	 eax, DWORD PTR _strSection$[ebp]
  00c70	50		 push	 eax
  00c71	e8 00 00 00 00	 call	 ?StrHash@YL_EncFileReg@@SA?AV?$basic_string@DU?$char_traits@D@std@@V?$allocator@D@2@@std@@V23@@Z ; YL_EncFileReg::StrHash
  00c76	83 c4 20	 add	 esp, 32			; 00000020H
  00c79	89 85 6c ff ff
	ff		 mov	 DWORD PTR tv153[ebp], eax
  00c7f	c6 45 fc 01	 mov	 BYTE PTR __$EHRec$[ebp+8], 1

; 141  : 	string strKey     = StrHash( strKeyName );

  00c83	83 ec 1c	 sub	 esp, 28			; 0000001cH
  00c86	8b cc		 mov	 ecx, esp
  00c88	89 a5 78 ff ff
	ff		 mov	 DWORD PTR $T90155[ebp], esp
  00c8e	8b 55 10	 mov	 edx, DWORD PTR _strKeyName$[ebp]
  00c91	52		 push	 edx
  00c92	ff 15 00 00 00
	00		 call	 DWORD PTR __imp_??0?$basic_string@DU?$char_traits@D@std@@V?$allocator@D@2@@std@@QAE@ABV01@@Z
  00c98	89 85 68 ff ff
	ff		 mov	 DWORD PTR tv156[ebp], eax
  00c9e	8d 45 b8	 lea	 eax, DWORD PTR _strKey$[ebp]
  00ca1	50		 push	 eax
  00ca2	e8 00 00 00 00	 call	 ?StrHash@YL_EncFileReg@@SA?AV?$basic_string@DU?$char_traits@D@std@@V?$allocator@D@2@@std@@V23@@Z ; YL_EncFileReg::StrHash
  00ca7	83 c4 20	 add	 esp, 32			; 00000020H
  00caa	89 85 64 ff ff
	ff		 mov	 DWORD PTR tv157[ebp], eax
  00cb0	c6 45 fc 02	 mov	 BYTE PTR __$EHRec$[ebp+8], 2

; 142  : 	string strValue   = Enc( unValue );

  00cb4	8b 4d 14	 mov	 ecx, DWORD PTR _unValue$[ebp]
  00cb7	8b 11		 mov	 edx, DWORD PTR [ecx]
  00cb9	52		 push	 edx
  00cba	8d 45 d4	 lea	 eax, DWORD PTR _strValue$[ebp]
  00cbd	50		 push	 eax
  00cbe	e8 00 00 00 00	 call	 ?Enc@YL_EncFileReg@@SA?AV?$basic_string@DU?$char_traits@D@std@@V?$allocator@D@2@@std@@I@Z ; YL_EncFileReg::Enc
  00cc3	83 c4 08	 add	 esp, 8
  00cc6	c6 45 fc 03	 mov	 BYTE PTR __$EHRec$[ebp+8], 3

; 143  : 	WritePrivateProfileString( strSection.c_str(), strKey.c_str(), strValue.c_str(), strPath.c_str() );

  00cca	8d 4d 9c	 lea	 ecx, DWORD PTR _strPath$[ebp]
  00ccd	ff 15 00 00 00
	00		 call	 DWORD PTR __imp_?c_str@?$basic_string@DU?$char_traits@D@std@@V?$allocator@D@2@@std@@QBEPBDXZ
  00cd3	50		 push	 eax
  00cd4	8d 4d d4	 lea	 ecx, DWORD PTR _strValue$[ebp]
  00cd7	ff 15 00 00 00
	00		 call	 DWORD PTR __imp_?c_str@?$basic_string@DU?$char_traits@D@std@@V?$allocator@D@2@@std@@QBEPBDXZ
  00cdd	50		 push	 eax
  00cde	8d 4d b8	 lea	 ecx, DWORD PTR _strKey$[ebp]
  00ce1	ff 15 00 00 00
	00		 call	 DWORD PTR __imp_?c_str@?$basic_string@DU?$char_traits@D@std@@V?$allocator@D@2@@std@@QBEPBDXZ
  00ce7	50		 push	 eax
  00ce8	8d 4d 80	 lea	 ecx, DWORD PTR _strSection$[ebp]
  00ceb	ff 15 00 00 00
	00		 call	 DWORD PTR __imp_?c_str@?$basic_string@DU?$char_traits@D@std@@V?$allocator@D@2@@std@@QBEPBDXZ
  00cf1	50		 push	 eax
  00cf2	ff 15 00 00 00
	00		 call	 DWORD PTR __imp__WritePrivateProfileStringA@16

; 144  : 	return true;

  00cf8	c6 85 77 ff ff
	ff 01		 mov	 BYTE PTR $T90156[ebp], 1
  00cff	c6 45 fc 02	 mov	 BYTE PTR __$EHRec$[ebp+8], 2
  00d03	8d 4d d4	 lea	 ecx, DWORD PTR _strValue$[ebp]
  00d06	ff 15 00 00 00
	00		 call	 DWORD PTR __imp_??1?$basic_string@DU?$char_traits@D@std@@V?$allocator@D@2@@std@@QAE@XZ
  00d0c	c6 45 fc 01	 mov	 BYTE PTR __$EHRec$[ebp+8], 1
  00d10	8d 4d b8	 lea	 ecx, DWORD PTR _strKey$[ebp]
  00d13	ff 15 00 00 00
	00		 call	 DWORD PTR __imp_??1?$basic_string@DU?$char_traits@D@std@@V?$allocator@D@2@@std@@QAE@XZ
  00d19	c6 45 fc 00	 mov	 BYTE PTR __$EHRec$[ebp+8], 0
  00d1d	8d 4d 80	 lea	 ecx, DWORD PTR _strSection$[ebp]
  00d20	ff 15 00 00 00
	00		 call	 DWORD PTR __imp_??1?$basic_string@DU?$char_traits@D@std@@V?$allocator@D@2@@std@@QAE@XZ
  00d26	c7 45 fc ff ff
	ff ff		 mov	 DWORD PTR __$EHRec$[ebp+8], -1
  00d2d	8d 4d 9c	 lea	 ecx, DWORD PTR _strPath$[ebp]
  00d30	ff 15 00 00 00
	00		 call	 DWORD PTR __imp_??1?$basic_string@DU?$char_traits@D@std@@V?$allocator@D@2@@std@@QAE@XZ
  00d36	8a 85 77 ff ff
	ff		 mov	 al, BYTE PTR $T90156[ebp]

; 145  : }

  00d3c	8b 4d f4	 mov	 ecx, DWORD PTR __$EHRec$[ebp]
  00d3f	64 89 0d 00 00
	00 00		 mov	 DWORD PTR fs:__except_list, ecx
  00d46	8b 4d f0	 mov	 ecx, DWORD PTR __$ArrayPad$[ebp]
  00d49	e8 00 00 00 00	 call	 @__security_check_cookie@4
  00d4e	8b e5		 mov	 esp, ebp
  00d50	5d		 pop	 ebp
  00d51	c3		 ret	 0
_TEXT	ENDS
text$x	SEGMENT
$L90157:
  001f1	8d 4d 9c	 lea	 ecx, DWORD PTR _strPath$[ebp]
  001f4	ff 25 00 00 00
	00		 jmp	 DWORD PTR __imp_??1?$basic_string@DU?$char_traits@D@std@@V?$allocator@D@2@@std@@QAE@XZ
$L90159:
  001fa	8d 4d 80	 lea	 ecx, DWORD PTR _strSection$[ebp]
  001fd	ff 25 00 00 00
	00		 jmp	 DWORD PTR __imp_??1?$basic_string@DU?$char_traits@D@std@@V?$allocator@D@2@@std@@QAE@XZ
$L90161:
  00203	8d 4d b8	 lea	 ecx, DWORD PTR _strKey$[ebp]
  00206	ff 25 00 00 00
	00		 jmp	 DWORD PTR __imp_??1?$basic_string@DU?$char_traits@D@std@@V?$allocator@D@2@@std@@QAE@XZ
$L90162:
  0020c	8d 4d d4	 lea	 ecx, DWORD PTR _strValue$[ebp]
  0020f	ff 25 00 00 00
	00		 jmp	 DWORD PTR __imp_??1?$basic_string@DU?$char_traits@D@std@@V?$allocator@D@2@@std@@QAE@XZ
__ehhandler$?WriteDWORD@YL_EncFileReg@@SA_NPAUHKEY__@@ABV?$basic_string@DU?$char_traits@D@std@@V?$allocator@D@2@@std@@1ABI@Z:
  00215	b8 00 00 00 00	 mov	 eax, OFFSET FLAT:$T90164
  0021a	e9 00 00 00 00	 jmp	 ___CxxFrameHandler
text$x	ENDS
?WriteDWORD@YL_EncFileReg@@SA_NPAUHKEY__@@ABV?$basic_string@DU?$char_traits@D@std@@V?$allocator@D@2@@std@@1ABI@Z ENDP ; YL_EncFileReg::WriteDWORD
PUBLIC	?WriteDWORD@YL_EncFileReg@@SA_NPAUHKEY__@@PBD1ABI@Z ; YL_EncFileReg::WriteDWORD
xdata$x	SEGMENT
$T90177	DD	0ffffffffH
	DD	FLAT:$L90172
	DD	00H
	DD	FLAT:$L90173
$T90175	DD	019930520H
	DD	02H
	DD	FLAT:$T90177
	DD	2 DUP(00H)
	DD	2 DUP(00H)
; Function compile flags: /Odt
xdata$x	ENDS
_TEXT	SEGMENT
tv84 = -88						; size = 4
tv86 = -84						; size = 4
tv82 = -80						; size = 4
tv85 = -76						; size = 4
$T90171 = -72						; size = 28
$T90170 = -44						; size = 28
$T90169 = -13						; size = 1
__$EHRec$ = -12						; size = 12
_hRegKey$ = 8						; size = 4
_pszRegEntry$ = 12					; size = 4
_pszKeyName$ = 16					; size = 4
_unValue$ = 20						; size = 4
?WriteDWORD@YL_EncFileReg@@SA_NPAUHKEY__@@PBD1ABI@Z PROC NEAR ; YL_EncFileReg::WriteDWORD

; 147  : {

  00d60	55		 push	 ebp
  00d61	8b ec		 mov	 ebp, esp
  00d63	6a ff		 push	 -1
  00d65	68 00 00 00 00	 push	 __ehhandler$?WriteDWORD@YL_EncFileReg@@SA_NPAUHKEY__@@PBD1ABI@Z
  00d6a	64 a1 00 00 00
	00		 mov	 eax, DWORD PTR fs:__except_list
  00d70	50		 push	 eax
  00d71	64 89 25 00 00
	00 00		 mov	 DWORD PTR fs:__except_list, esp
  00d78	83 ec 4c	 sub	 esp, 76			; 0000004cH

; 148  : 	if( pszRegEntry == NULL || pszKeyName == NULL )

  00d7b	83 7d 0c 00	 cmp	 DWORD PTR _pszRegEntry$[ebp], 0
  00d7f	74 06		 je	 SHORT $L84430
  00d81	83 7d 10 00	 cmp	 DWORD PTR _pszKeyName$[ebp], 0
  00d85	75 04		 jne	 SHORT $L84429
$L84430:

; 149  : 	{
; 150  : 		return false;

  00d87	32 c0		 xor	 al, al
  00d89	eb 72		 jmp	 SHORT $L84428
$L84429:

; 151  : 	}
; 152  : 	return WriteDWORD( hRegKey,string(pszRegEntry),string(pszKeyName),unValue );

  00d8b	8b 45 10	 mov	 eax, DWORD PTR _pszKeyName$[ebp]
  00d8e	50		 push	 eax
  00d8f	8d 4d d4	 lea	 ecx, DWORD PTR $T90170[ebp]
  00d92	ff 15 00 00 00
	00		 call	 DWORD PTR __imp_??0?$basic_string@DU?$char_traits@D@std@@V?$allocator@D@2@@std@@QAE@PBD@Z
  00d98	89 45 b4	 mov	 DWORD PTR tv85[ebp], eax
  00d9b	8b 4d b4	 mov	 ecx, DWORD PTR tv85[ebp]
  00d9e	89 4d b0	 mov	 DWORD PTR tv82[ebp], ecx
  00da1	c7 45 fc 00 00
	00 00		 mov	 DWORD PTR __$EHRec$[ebp+8], 0
  00da8	8b 55 0c	 mov	 edx, DWORD PTR _pszRegEntry$[ebp]
  00dab	52		 push	 edx
  00dac	8d 4d b8	 lea	 ecx, DWORD PTR $T90171[ebp]
  00daf	ff 15 00 00 00
	00		 call	 DWORD PTR __imp_??0?$basic_string@DU?$char_traits@D@std@@V?$allocator@D@2@@std@@QAE@PBD@Z
  00db5	89 45 ac	 mov	 DWORD PTR tv86[ebp], eax
  00db8	8b 45 ac	 mov	 eax, DWORD PTR tv86[ebp]
  00dbb	89 45 a8	 mov	 DWORD PTR tv84[ebp], eax
  00dbe	c6 45 fc 01	 mov	 BYTE PTR __$EHRec$[ebp+8], 1
  00dc2	8b 4d 14	 mov	 ecx, DWORD PTR _unValue$[ebp]
  00dc5	51		 push	 ecx
  00dc6	8b 55 b0	 mov	 edx, DWORD PTR tv82[ebp]
  00dc9	52		 push	 edx
  00dca	8b 45 a8	 mov	 eax, DWORD PTR tv84[ebp]
  00dcd	50		 push	 eax
  00dce	8b 4d 08	 mov	 ecx, DWORD PTR _hRegKey$[ebp]
  00dd1	51		 push	 ecx
  00dd2	e8 00 00 00 00	 call	 ?WriteDWORD@YL_EncFileReg@@SA_NPAUHKEY__@@ABV?$basic_string@DU?$char_traits@D@std@@V?$allocator@D@2@@std@@1ABI@Z ; YL_EncFileReg::WriteDWORD
  00dd7	83 c4 10	 add	 esp, 16			; 00000010H
  00dda	88 45 f3	 mov	 BYTE PTR $T90169[ebp], al
  00ddd	c6 45 fc 00	 mov	 BYTE PTR __$EHRec$[ebp+8], 0
  00de1	8d 4d b8	 lea	 ecx, DWORD PTR $T90171[ebp]
  00de4	ff 15 00 00 00
	00		 call	 DWORD PTR __imp_??1?$basic_string@DU?$char_traits@D@std@@V?$allocator@D@2@@std@@QAE@XZ
  00dea	c7 45 fc ff ff
	ff ff		 mov	 DWORD PTR __$EHRec$[ebp+8], -1
  00df1	8d 4d d4	 lea	 ecx, DWORD PTR $T90170[ebp]
  00df4	ff 15 00 00 00
	00		 call	 DWORD PTR __imp_??1?$basic_string@DU?$char_traits@D@std@@V?$allocator@D@2@@std@@QAE@XZ
  00dfa	8a 45 f3	 mov	 al, BYTE PTR $T90169[ebp]
$L84428:

; 153  : }

  00dfd	8b 4d f4	 mov	 ecx, DWORD PTR __$EHRec$[ebp]
  00e00	64 89 0d 00 00
	00 00		 mov	 DWORD PTR fs:__except_list, ecx
  00e07	8b e5		 mov	 esp, ebp
  00e09	5d		 pop	 ebp
  00e0a	c3		 ret	 0
_TEXT	ENDS
text$x	SEGMENT
$L90172:
  0021f	8d 4d d4	 lea	 ecx, DWORD PTR $T90170[ebp]
  00222	ff 25 00 00 00
	00		 jmp	 DWORD PTR __imp_??1?$basic_string@DU?$char_traits@D@std@@V?$allocator@D@2@@std@@QAE@XZ
$L90173:
  00228	8d 4d b8	 lea	 ecx, DWORD PTR $T90171[ebp]
  0022b	ff 25 00 00 00
	00		 jmp	 DWORD PTR __imp_??1?$basic_string@DU?$char_traits@D@std@@V?$allocator@D@2@@std@@QAE@XZ
__ehhandler$?WriteDWORD@YL_EncFileReg@@SA_NPAUHKEY__@@PBD1ABI@Z:
  00231	b8 00 00 00 00	 mov	 eax, OFFSET FLAT:$T90175
  00236	e9 00 00 00 00	 jmp	 ___CxxFrameHandler
text$x	ENDS
?WriteDWORD@YL_EncFileReg@@SA_NPAUHKEY__@@PBD1ABI@Z ENDP ; YL_EncFileReg::WriteDWORD
PUBLIC	?ReadDWORD@YL_EncFileReg@@SA_NPAUHKEY__@@ABV?$basic_string@DU?$char_traits@D@std@@V?$allocator@D@2@@std@@1AAI@Z ; YL_EncFileReg::ReadDWORD
xdata$x	SEGMENT
$T90195	DD	0ffffffffH
	DD	FLAT:$L90185
	DD	00H
	DD	FLAT:$L90187
	DD	01H
	DD	FLAT:$L90189
$T90192	DD	019930520H
	DD	03H
	DD	FLAT:$T90195
	DD	2 DUP(00H)
	DD	2 DUP(00H)
; Function compile flags: /Odt
xdata$x	ENDS
_TEXT	SEGMENT
tv181 = -1172						; size = 4
tv180 = -1168						; size = 4
tv174 = -1164						; size = 4
tv173 = -1160						; size = 4
tv170 = -1156						; size = 4
tv169 = -1152						; size = 4
$T90184 = -1145						; size = 1
$T90183 = -1144						; size = 4
$T90182 = -1137						; size = 1
$T90181 = -1136						; size = 4
$T90180 = -1132						; size = 4
_strSection$ = -1128					; size = 28
_szValue$ = -1100					; size = 1024
_strPath$ = -72						; size = 28
_strKey$ = -44						; size = 28
__$ArrayPad$ = -16					; size = 4
__$EHRec$ = -12						; size = 12
__$ReturnAddr$ = 4					; size = 4
_hRegKey$ = 8						; size = 4
_strRegEntry$ = 12					; size = 4
_strKeyName$ = 16					; size = 4
_unValue$ = 20						; size = 4
?ReadDWORD@YL_EncFileReg@@SA_NPAUHKEY__@@ABV?$basic_string@DU?$char_traits@D@std@@V?$allocator@D@2@@std@@1AAI@Z PROC NEAR ; YL_EncFileReg::ReadDWORD

; 156  : {

  00e10	55		 push	 ebp
  00e11	8b ec		 mov	 ebp, esp
  00e13	6a ff		 push	 -1
  00e15	68 00 00 00 00	 push	 __ehhandler$?ReadDWORD@YL_EncFileReg@@SA_NPAUHKEY__@@ABV?$basic_string@DU?$char_traits@D@std@@V?$allocator@D@2@@std@@1AAI@Z
  00e1a	64 a1 00 00 00
	00		 mov	 eax, DWORD PTR fs:__except_list
  00e20	50		 push	 eax
  00e21	64 89 25 00 00
	00 00		 mov	 DWORD PTR fs:__except_list, esp
  00e28	81 ec 88 04 00
	00		 sub	 esp, 1160		; 00000488H
  00e2e	a1 00 00 00 00	 mov	 eax, DWORD PTR ___security_cookie
  00e33	89 45 f0	 mov	 DWORD PTR __$ArrayPad$[ebp], eax

; 157  : 	string strPath;

  00e36	8d 4d b8	 lea	 ecx, DWORD PTR _strPath$[ebp]
  00e39	ff 15 00 00 00
	00		 call	 DWORD PTR __imp_??0?$basic_string@DU?$char_traits@D@std@@V?$allocator@D@2@@std@@QAE@XZ
  00e3f	c7 45 fc 00 00
	00 00		 mov	 DWORD PTR __$EHRec$[ebp+8], 0

; 158  : 	GetEncFilePath( strPath );

  00e46	8d 45 b8	 lea	 eax, DWORD PTR _strPath$[ebp]
  00e49	50		 push	 eax
  00e4a	e8 00 00 00 00	 call	 ?GetEncFilePath@YL_EncFileReg@@SA_NAAV?$basic_string@DU?$char_traits@D@std@@V?$allocator@D@2@@std@@@Z ; YL_EncFileReg::GetEncFilePath
  00e4f	83 c4 04	 add	 esp, 4

; 159  : 	string strSection = StrHash( strRegEntry );

  00e52	83 ec 1c	 sub	 esp, 28			; 0000001cH
  00e55	8b cc		 mov	 ecx, esp
  00e57	89 a5 94 fb ff
	ff		 mov	 DWORD PTR $T90180[ebp], esp
  00e5d	8b 55 0c	 mov	 edx, DWORD PTR _strRegEntry$[ebp]
  00e60	52		 push	 edx
  00e61	ff 15 00 00 00
	00		 call	 DWORD PTR __imp_??0?$basic_string@DU?$char_traits@D@std@@V?$allocator@D@2@@std@@QAE@ABV01@@Z
  00e67	89 85 80 fb ff
	ff		 mov	 DWORD PTR tv169[ebp], eax
  00e6d	8d 85 98 fb ff
	ff		 lea	 eax, DWORD PTR _strSection$[ebp]
  00e73	50		 push	 eax
  00e74	e8 00 00 00 00	 call	 ?StrHash@YL_EncFileReg@@SA?AV?$basic_string@DU?$char_traits@D@std@@V?$allocator@D@2@@std@@V23@@Z ; YL_EncFileReg::StrHash
  00e79	83 c4 20	 add	 esp, 32			; 00000020H
  00e7c	89 85 7c fb ff
	ff		 mov	 DWORD PTR tv170[ebp], eax
  00e82	c6 45 fc 01	 mov	 BYTE PTR __$EHRec$[ebp+8], 1

; 160  : 	string strKey     = StrHash( strKeyName );

  00e86	83 ec 1c	 sub	 esp, 28			; 0000001cH
  00e89	8b cc		 mov	 ecx, esp
  00e8b	89 a5 90 fb ff
	ff		 mov	 DWORD PTR $T90181[ebp], esp
  00e91	8b 55 10	 mov	 edx, DWORD PTR _strKeyName$[ebp]
  00e94	52		 push	 edx
  00e95	ff 15 00 00 00
	00		 call	 DWORD PTR __imp_??0?$basic_string@DU?$char_traits@D@std@@V?$allocator@D@2@@std@@QAE@ABV01@@Z
  00e9b	89 85 78 fb ff
	ff		 mov	 DWORD PTR tv173[ebp], eax
  00ea1	8d 45 d4	 lea	 eax, DWORD PTR _strKey$[ebp]
  00ea4	50		 push	 eax
  00ea5	e8 00 00 00 00	 call	 ?StrHash@YL_EncFileReg@@SA?AV?$basic_string@DU?$char_traits@D@std@@V?$allocator@D@2@@std@@V23@@Z ; YL_EncFileReg::StrHash
  00eaa	83 c4 20	 add	 esp, 32			; 00000020H
  00ead	89 85 74 fb ff
	ff		 mov	 DWORD PTR tv174[ebp], eax
  00eb3	c6 45 fc 02	 mov	 BYTE PTR __$EHRec$[ebp+8], 2

; 161  : 	char szValue[1024];
; 162  : 	memset(szValue,0,1024);

  00eb7	68 00 04 00 00	 push	 1024			; 00000400H
  00ebc	6a 00		 push	 0
  00ebe	8d 8d b4 fb ff
	ff		 lea	 ecx, DWORD PTR _szValue$[ebp]
  00ec4	51		 push	 ecx
  00ec5	e8 00 00 00 00	 call	 _memset
  00eca	83 c4 0c	 add	 esp, 12			; 0000000cH

; 163  : 	GetPrivateProfileString( strSection.c_str(), strKey.c_str(), "", szValue, 1024, strPath.c_str() );

  00ecd	8d 4d b8	 lea	 ecx, DWORD PTR _strPath$[ebp]
  00ed0	ff 15 00 00 00
	00		 call	 DWORD PTR __imp_?c_str@?$basic_string@DU?$char_traits@D@std@@V?$allocator@D@2@@std@@QBEPBDXZ
  00ed6	50		 push	 eax
  00ed7	68 00 04 00 00	 push	 1024			; 00000400H
  00edc	8d 95 b4 fb ff
	ff		 lea	 edx, DWORD PTR _szValue$[ebp]
  00ee2	52		 push	 edx
  00ee3	68 00 00 00 00	 push	 OFFSET FLAT:$SG84448
  00ee8	8d 4d d4	 lea	 ecx, DWORD PTR _strKey$[ebp]
  00eeb	ff 15 00 00 00
	00		 call	 DWORD PTR __imp_?c_str@?$basic_string@DU?$char_traits@D@std@@V?$allocator@D@2@@std@@QBEPBDXZ
  00ef1	50		 push	 eax
  00ef2	8d 8d 98 fb ff
	ff		 lea	 ecx, DWORD PTR _strSection$[ebp]
  00ef8	ff 15 00 00 00
	00		 call	 DWORD PTR __imp_?c_str@?$basic_string@DU?$char_traits@D@std@@V?$allocator@D@2@@std@@QBEPBDXZ
  00efe	50		 push	 eax
  00eff	ff 15 00 00 00
	00		 call	 DWORD PTR __imp__GetPrivateProfileStringA@24

; 164  : 	if( strlen(szValue) == 0 )

  00f05	8d 85 b4 fb ff
	ff		 lea	 eax, DWORD PTR _szValue$[ebp]
  00f0b	50		 push	 eax
  00f0c	e8 00 00 00 00	 call	 _strlen
  00f11	83 c4 04	 add	 esp, 4
  00f14	85 c0		 test	 eax, eax
  00f16	75 45		 jne	 SHORT $L84449

; 165  : 	{
; 166  : 		unValue = 0;

  00f18	8b 4d 14	 mov	 ecx, DWORD PTR _unValue$[ebp]
  00f1b	c7 01 00 00 00
	00		 mov	 DWORD PTR [ecx], 0

; 167  : 		return false;

  00f21	c6 85 8f fb ff
	ff 00		 mov	 BYTE PTR $T90182[ebp], 0
  00f28	c6 45 fc 01	 mov	 BYTE PTR __$EHRec$[ebp+8], 1
  00f2c	8d 4d d4	 lea	 ecx, DWORD PTR _strKey$[ebp]
  00f2f	ff 15 00 00 00
	00		 call	 DWORD PTR __imp_??1?$basic_string@DU?$char_traits@D@std@@V?$allocator@D@2@@std@@QAE@XZ
  00f35	c6 45 fc 00	 mov	 BYTE PTR __$EHRec$[ebp+8], 0
  00f39	8d 8d 98 fb ff
	ff		 lea	 ecx, DWORD PTR _strSection$[ebp]
  00f3f	ff 15 00 00 00
	00		 call	 DWORD PTR __imp_??1?$basic_string@DU?$char_traits@D@std@@V?$allocator@D@2@@std@@QAE@XZ
  00f45	c7 45 fc ff ff
	ff ff		 mov	 DWORD PTR __$EHRec$[ebp+8], -1
  00f4c	8d 4d b8	 lea	 ecx, DWORD PTR _strPath$[ebp]
  00f4f	ff 15 00 00 00
	00		 call	 DWORD PTR __imp_??1?$basic_string@DU?$char_traits@D@std@@V?$allocator@D@2@@std@@QAE@XZ
  00f55	8a 85 8f fb ff
	ff		 mov	 al, BYTE PTR $T90182[ebp]
  00f5b	eb 71		 jmp	 SHORT $L84439
$L84449:

; 168  : 	}else
; 169  : 	{
; 170  : 		unValue = Dec2Int( string(szValue) );

  00f5d	83 ec 1c	 sub	 esp, 28			; 0000001cH
  00f60	8b cc		 mov	 ecx, esp
  00f62	89 a5 88 fb ff
	ff		 mov	 DWORD PTR $T90183[ebp], esp
  00f68	8d 95 b4 fb ff
	ff		 lea	 edx, DWORD PTR _szValue$[ebp]
  00f6e	52		 push	 edx
  00f6f	ff 15 00 00 00
	00		 call	 DWORD PTR __imp_??0?$basic_string@DU?$char_traits@D@std@@V?$allocator@D@2@@std@@QAE@PBD@Z
  00f75	89 85 70 fb ff
	ff		 mov	 DWORD PTR tv180[ebp], eax
  00f7b	e8 00 00 00 00	 call	 ?Dec2Int@YL_EncFileReg@@SAIV?$basic_string@DU?$char_traits@D@std@@V?$allocator@D@2@@std@@@Z ; YL_EncFileReg::Dec2Int
  00f80	83 c4 1c	 add	 esp, 28			; 0000001cH
  00f83	89 85 6c fb ff
	ff		 mov	 DWORD PTR tv181[ebp], eax
  00f89	8b 45 14	 mov	 eax, DWORD PTR _unValue$[ebp]
  00f8c	8b 8d 6c fb ff
	ff		 mov	 ecx, DWORD PTR tv181[ebp]
  00f92	89 08		 mov	 DWORD PTR [eax], ecx

; 171  : 		return true;

  00f94	c6 85 87 fb ff
	ff 01		 mov	 BYTE PTR $T90184[ebp], 1
  00f9b	c6 45 fc 01	 mov	 BYTE PTR __$EHRec$[ebp+8], 1
  00f9f	8d 4d d4	 lea	 ecx, DWORD PTR _strKey$[ebp]
  00fa2	ff 15 00 00 00
	00		 call	 DWORD PTR __imp_??1?$basic_string@DU?$char_traits@D@std@@V?$allocator@D@2@@std@@QAE@XZ
  00fa8	c6 45 fc 00	 mov	 BYTE PTR __$EHRec$[ebp+8], 0
  00fac	8d 8d 98 fb ff
	ff		 lea	 ecx, DWORD PTR _strSection$[ebp]
  00fb2	ff 15 00 00 00
	00		 call	 DWORD PTR __imp_??1?$basic_string@DU?$char_traits@D@std@@V?$allocator@D@2@@std@@QAE@XZ
  00fb8	c7 45 fc ff ff
	ff ff		 mov	 DWORD PTR __$EHRec$[ebp+8], -1
  00fbf	8d 4d b8	 lea	 ecx, DWORD PTR _strPath$[ebp]
  00fc2	ff 15 00 00 00
	00		 call	 DWORD PTR __imp_??1?$basic_string@DU?$char_traits@D@std@@V?$allocator@D@2@@std@@QAE@XZ
  00fc8	8a 85 87 fb ff
	ff		 mov	 al, BYTE PTR $T90184[ebp]
$L84439:

; 172  : 	}
; 173  : }

  00fce	8b 4d f4	 mov	 ecx, DWORD PTR __$EHRec$[ebp]
  00fd1	64 89 0d 00 00
	00 00		 mov	 DWORD PTR fs:__except_list, ecx
  00fd8	8b 4d f0	 mov	 ecx, DWORD PTR __$ArrayPad$[ebp]
  00fdb	e8 00 00 00 00	 call	 @__security_check_cookie@4
  00fe0	8b e5		 mov	 esp, ebp
  00fe2	5d		 pop	 ebp
  00fe3	c3		 ret	 0
_TEXT	ENDS
text$x	SEGMENT
$L90185:
  0023b	8d 4d b8	 lea	 ecx, DWORD PTR _strPath$[ebp]
  0023e	ff 25 00 00 00
	00		 jmp	 DWORD PTR __imp_??1?$basic_string@DU?$char_traits@D@std@@V?$allocator@D@2@@std@@QAE@XZ
$L90187:
  00244	8d 8d 98 fb ff
	ff		 lea	 ecx, DWORD PTR _strSection$[ebp]
  0024a	ff 25 00 00 00
	00		 jmp	 DWORD PTR __imp_??1?$basic_string@DU?$char_traits@D@std@@V?$allocator@D@2@@std@@QAE@XZ
$L90189:
  00250	8d 4d d4	 lea	 ecx, DWORD PTR _strKey$[ebp]
  00253	ff 25 00 00 00
	00		 jmp	 DWORD PTR __imp_??1?$basic_string@DU?$char_traits@D@std@@V?$allocator@D@2@@std@@QAE@XZ
__ehhandler$?ReadDWORD@YL_EncFileReg@@SA_NPAUHKEY__@@ABV?$basic_string@DU?$char_traits@D@std@@V?$allocator@D@2@@std@@1AAI@Z:
  00259	b8 00 00 00 00	 mov	 eax, OFFSET FLAT:$T90192
  0025e	e9 00 00 00 00	 jmp	 ___CxxFrameHandler
text$x	ENDS
?ReadDWORD@YL_EncFileReg@@SA_NPAUHKEY__@@ABV?$basic_string@DU?$char_traits@D@std@@V?$allocator@D@2@@std@@1AAI@Z ENDP ; YL_EncFileReg::ReadDWORD
PUBLIC	?ReadDWORD@YL_EncFileReg@@SA_NPAUHKEY__@@PBD1AAI@Z ; YL_EncFileReg::ReadDWORD
xdata$x	SEGMENT
$T90205	DD	0ffffffffH
	DD	FLAT:$L90200
	DD	00H
	DD	FLAT:$L90201
$T90203	DD	019930520H
	DD	02H
	DD	FLAT:$T90205
	DD	2 DUP(00H)
	DD	2 DUP(00H)
; Function compile flags: /Odt
xdata$x	ENDS
_TEXT	SEGMENT
tv84 = -88						; size = 4
tv86 = -84						; size = 4
tv82 = -80						; size = 4
tv85 = -76						; size = 4
$T90199 = -72						; size = 28
$T90198 = -44						; size = 28
$T90197 = -13						; size = 1
__$EHRec$ = -12						; size = 12
_hRegKey$ = 8						; size = 4
_pszRegEntry$ = 12					; size = 4
_pszKeyName$ = 16					; size = 4
_unValue$ = 20						; size = 4
?ReadDWORD@YL_EncFileReg@@SA_NPAUHKEY__@@PBD1AAI@Z PROC NEAR ; YL_EncFileReg::ReadDWORD

; 176  : {

  00ff0	55		 push	 ebp
  00ff1	8b ec		 mov	 ebp, esp
  00ff3	6a ff		 push	 -1
  00ff5	68 00 00 00 00	 push	 __ehhandler$?ReadDWORD@YL_EncFileReg@@SA_NPAUHKEY__@@PBD1AAI@Z
  00ffa	64 a1 00 00 00
	00		 mov	 eax, DWORD PTR fs:__except_list
  01000	50		 push	 eax
  01001	64 89 25 00 00
	00 00		 mov	 DWORD PTR fs:__except_list, esp
  01008	83 ec 4c	 sub	 esp, 76			; 0000004cH

; 177  : 	if( pszRegEntry == NULL || pszKeyName == NULL )

  0100b	83 7d 0c 00	 cmp	 DWORD PTR _pszRegEntry$[ebp], 0
  0100f	74 06		 je	 SHORT $L84462
  01011	83 7d 10 00	 cmp	 DWORD PTR _pszKeyName$[ebp], 0
  01015	75 04		 jne	 SHORT $L84461
$L84462:

; 178  : 	{
; 179  : 		return false;

  01017	32 c0		 xor	 al, al
  01019	eb 72		 jmp	 SHORT $L84460
$L84461:

; 180  : 	}
; 181  : 	return ReadDWORD( hRegKey,string(pszRegEntry),string(pszKeyName),unValue );

  0101b	8b 45 10	 mov	 eax, DWORD PTR _pszKeyName$[ebp]
  0101e	50		 push	 eax
  0101f	8d 4d d4	 lea	 ecx, DWORD PTR $T90198[ebp]
  01022	ff 15 00 00 00
	00		 call	 DWORD PTR __imp_??0?$basic_string@DU?$char_traits@D@std@@V?$allocator@D@2@@std@@QAE@PBD@Z
  01028	89 45 b4	 mov	 DWORD PTR tv85[ebp], eax
  0102b	8b 4d b4	 mov	 ecx, DWORD PTR tv85[ebp]
  0102e	89 4d b0	 mov	 DWORD PTR tv82[ebp], ecx
  01031	c7 45 fc 00 00
	00 00		 mov	 DWORD PTR __$EHRec$[ebp+8], 0
  01038	8b 55 0c	 mov	 edx, DWORD PTR _pszRegEntry$[ebp]
  0103b	52		 push	 edx
  0103c	8d 4d b8	 lea	 ecx, DWORD PTR $T90199[ebp]
  0103f	ff 15 00 00 00
	00		 call	 DWORD PTR __imp_??0?$basic_string@DU?$char_traits@D@std@@V?$allocator@D@2@@std@@QAE@PBD@Z
  01045	89 45 ac	 mov	 DWORD PTR tv86[ebp], eax
  01048	8b 45 ac	 mov	 eax, DWORD PTR tv86[ebp]
  0104b	89 45 a8	 mov	 DWORD PTR tv84[ebp], eax
  0104e	c6 45 fc 01	 mov	 BYTE PTR __$EHRec$[ebp+8], 1
  01052	8b 4d 14	 mov	 ecx, DWORD PTR _unValue$[ebp]
  01055	51		 push	 ecx
  01056	8b 55 b0	 mov	 edx, DWORD PTR tv82[ebp]
  01059	52		 push	 edx
  0105a	8b 45 a8	 mov	 eax, DWORD PTR tv84[ebp]
  0105d	50		 push	 eax
  0105e	8b 4d 08	 mov	 ecx, DWORD PTR _hRegKey$[ebp]
  01061	51		 push	 ecx
  01062	e8 00 00 00 00	 call	 ?ReadDWORD@YL_EncFileReg@@SA_NPAUHKEY__@@ABV?$basic_string@DU?$char_traits@D@std@@V?$allocator@D@2@@std@@1AAI@Z ; YL_EncFileReg::ReadDWORD
  01067	83 c4 10	 add	 esp, 16			; 00000010H
  0106a	88 45 f3	 mov	 BYTE PTR $T90197[ebp], al
  0106d	c6 45 fc 00	 mov	 BYTE PTR __$EHRec$[ebp+8], 0
  01071	8d 4d b8	 lea	 ecx, DWORD PTR $T90199[ebp]
  01074	ff 15 00 00 00
	00		 call	 DWORD PTR __imp_??1?$basic_string@DU?$char_traits@D@std@@V?$allocator@D@2@@std@@QAE@XZ
  0107a	c7 45 fc ff ff
	ff ff		 mov	 DWORD PTR __$EHRec$[ebp+8], -1
  01081	8d 4d d4	 lea	 ecx, DWORD PTR $T90198[ebp]
  01084	ff 15 00 00 00
	00		 call	 DWORD PTR __imp_??1?$basic_string@DU?$char_traits@D@std@@V?$allocator@D@2@@std@@QAE@XZ
  0108a	8a 45 f3	 mov	 al, BYTE PTR $T90197[ebp]
$L84460:

; 182  : }

  0108d	8b 4d f4	 mov	 ecx, DWORD PTR __$EHRec$[ebp]
  01090	64 89 0d 00 00
	00 00		 mov	 DWORD PTR fs:__except_list, ecx
  01097	8b e5		 mov	 esp, ebp
  01099	5d		 pop	 ebp
  0109a	c3		 ret	 0
_TEXT	ENDS
text$x	SEGMENT
$L90200:
  00263	8d 4d d4	 lea	 ecx, DWORD PTR $T90198[ebp]
  00266	ff 25 00 00 00
	00		 jmp	 DWORD PTR __imp_??1?$basic_string@DU?$char_traits@D@std@@V?$allocator@D@2@@std@@QAE@XZ
$L90201:
  0026c	8d 4d b8	 lea	 ecx, DWORD PTR $T90199[ebp]
  0026f	ff 25 00 00 00
	00		 jmp	 DWORD PTR __imp_??1?$basic_string@DU?$char_traits@D@std@@V?$allocator@D@2@@std@@QAE@XZ
__ehhandler$?ReadDWORD@YL_EncFileReg@@SA_NPAUHKEY__@@PBD1AAI@Z:
  00275	b8 00 00 00 00	 mov	 eax, OFFSET FLAT:$T90203
  0027a	e9 00 00 00 00	 jmp	 ___CxxFrameHandler
text$x	ENDS
?ReadDWORD@YL_EncFileReg@@SA_NPAUHKEY__@@PBD1AAI@Z ENDP	; YL_EncFileReg::ReadDWORD
PUBLIC	?GetString@YL_EncFileReg@@SAKPBD0PADK0@Z	; YL_EncFileReg::GetString
EXTRN	__imp___snprintf:NEAR
; Function compile flags: /Odt
_TEXT	SEGMENT
_lpSection$ = 8						; size = 4
_lpKey$ = 12						; size = 4
_lpBuffer$ = 16						; size = 4
_dwBufSize$ = 20					; size = 4
_lpDefault$ = 24					; size = 4
?GetString@YL_EncFileReg@@SAKPBD0PADK0@Z PROC NEAR	; YL_EncFileReg::GetString

; 185  : {

  010a0	55		 push	 ebp
  010a1	8b ec		 mov	 ebp, esp

; 186  : 	if( !ReadString(HKEY_PLAYBOX_ROOT,lpSection,lpKey,lpBuffer,dwBufSize) )

  010a3	8b 45 14	 mov	 eax, DWORD PTR _dwBufSize$[ebp]
  010a6	50		 push	 eax
  010a7	8b 4d 10	 mov	 ecx, DWORD PTR _lpBuffer$[ebp]
  010aa	51		 push	 ecx
  010ab	8b 55 0c	 mov	 edx, DWORD PTR _lpKey$[ebp]
  010ae	52		 push	 edx
  010af	8b 45 08	 mov	 eax, DWORD PTR _lpSection$[ebp]
  010b2	50		 push	 eax
  010b3	68 02 00 00 80	 push	 -2147483646		; 80000002H
  010b8	e8 00 00 00 00	 call	 ?ReadString@YL_EncFileReg@@SA_NPAUHKEY__@@PBD1QADI@Z ; YL_EncFileReg::ReadString
  010bd	83 c4 14	 add	 esp, 20			; 00000014H
  010c0	0f b6 c8	 movzx	 ecx, al
  010c3	85 c9		 test	 ecx, ecx
  010c5	75 32		 jne	 SHORT $L84476

; 187  : 	{
; 188  : 		memset( lpBuffer, 0, dwBufSize );

  010c7	8b 55 14	 mov	 edx, DWORD PTR _dwBufSize$[ebp]
  010ca	52		 push	 edx
  010cb	6a 00		 push	 0
  010cd	8b 45 10	 mov	 eax, DWORD PTR _lpBuffer$[ebp]
  010d0	50		 push	 eax
  010d1	e8 00 00 00 00	 call	 _memset
  010d6	83 c4 0c	 add	 esp, 12			; 0000000cH

; 189  : 		if( lpDefault != NULL )

  010d9	83 7d 18 00	 cmp	 DWORD PTR _lpDefault$[ebp], 0
  010dd	74 1a		 je	 SHORT $L84476

; 190  : 		{
; 191  : 			_snprintf( lpBuffer, dwBufSize, "%s", lpDefault );

  010df	8b 4d 18	 mov	 ecx, DWORD PTR _lpDefault$[ebp]
  010e2	51		 push	 ecx
  010e3	68 00 00 00 00	 push	 OFFSET FLAT:$SG84478
  010e8	8b 55 14	 mov	 edx, DWORD PTR _dwBufSize$[ebp]
  010eb	52		 push	 edx
  010ec	8b 45 10	 mov	 eax, DWORD PTR _lpBuffer$[ebp]
  010ef	50		 push	 eax
  010f0	ff 15 00 00 00
	00		 call	 DWORD PTR __imp___snprintf
  010f6	83 c4 10	 add	 esp, 16			; 00000010H
$L84476:

; 192  : 		}		
; 193  : 	}
; 194  : 	return dwBufSize;

  010f9	8b 45 14	 mov	 eax, DWORD PTR _dwBufSize$[ebp]

; 195  : }

  010fc	5d		 pop	 ebp
  010fd	c3		 ret	 0
?GetString@YL_EncFileReg@@SAKPBD0PADK0@Z ENDP		; YL_EncFileReg::GetString
_TEXT	ENDS
PUBLIC	?WriteString@YL_EncFileReg@@SAHPBD00@Z		; YL_EncFileReg::WriteString
; Function compile flags: /Odt
_TEXT	SEGMENT
_lpSection$ = 8						; size = 4
_lpKey$ = 12						; size = 4
_lpValue$ = 16						; size = 4
?WriteString@YL_EncFileReg@@SAHPBD00@Z PROC NEAR	; YL_EncFileReg::WriteString

; 198  : {

  01100	55		 push	 ebp
  01101	8b ec		 mov	 ebp, esp

; 199  : 	return WriteString(HKEY_PLAYBOX_ROOT,lpSection,lpKey,lpValue);

  01103	8b 45 10	 mov	 eax, DWORD PTR _lpValue$[ebp]
  01106	50		 push	 eax
  01107	8b 4d 0c	 mov	 ecx, DWORD PTR _lpKey$[ebp]
  0110a	51		 push	 ecx
  0110b	8b 55 08	 mov	 edx, DWORD PTR _lpSection$[ebp]
  0110e	52		 push	 edx
  0110f	68 02 00 00 80	 push	 -2147483646		; 80000002H
  01114	e8 00 00 00 00	 call	 ?WriteString@YL_EncFileReg@@SA_NPAUHKEY__@@PBD11@Z ; YL_EncFileReg::WriteString
  01119	83 c4 10	 add	 esp, 16			; 00000010H
  0111c	0f b6 c0	 movzx	 eax, al

; 200  : }

  0111f	5d		 pop	 ebp
  01120	c3		 ret	 0
?WriteString@YL_EncFileReg@@SAHPBD00@Z ENDP		; YL_EncFileReg::WriteString
_TEXT	ENDS
PUBLIC	?GetInt@YL_EncFileReg@@SAHPBD0H@Z		; YL_EncFileReg::GetInt
; Function compile flags: /Odt
_TEXT	SEGMENT
_iRet$ = -4						; size = 4
_lpSection$ = 8						; size = 4
_lpKey$ = 12						; size = 4
_nDefault$ = 16						; size = 4
?GetInt@YL_EncFileReg@@SAHPBD0H@Z PROC NEAR		; YL_EncFileReg::GetInt

; 203  : {

  01130	55		 push	 ebp
  01131	8b ec		 mov	 ebp, esp
  01133	51		 push	 ecx

; 204  : 	unsigned int iRet = 0;

  01134	c7 45 fc 00 00
	00 00		 mov	 DWORD PTR _iRet$[ebp], 0

; 205  : 	if( !ReadDWORD(HKEY_PLAYBOX_ROOT,lpSection,lpKey,iRet) )

  0113b	8d 45 fc	 lea	 eax, DWORD PTR _iRet$[ebp]
  0113e	50		 push	 eax
  0113f	8b 4d 0c	 mov	 ecx, DWORD PTR _lpKey$[ebp]
  01142	51		 push	 ecx
  01143	8b 55 08	 mov	 edx, DWORD PTR _lpSection$[ebp]
  01146	52		 push	 edx
  01147	68 02 00 00 80	 push	 -2147483646		; 80000002H
  0114c	e8 00 00 00 00	 call	 ?ReadDWORD@YL_EncFileReg@@SA_NPAUHKEY__@@PBD1AAI@Z ; YL_EncFileReg::ReadDWORD
  01151	83 c4 10	 add	 esp, 16			; 00000010H
  01154	0f b6 c0	 movzx	 eax, al
  01157	85 c0		 test	 eax, eax
  01159	75 06		 jne	 SHORT $L84496

; 206  : 	{
; 207  : 		iRet = nDefault;

  0115b	8b 4d 10	 mov	 ecx, DWORD PTR _nDefault$[ebp]
  0115e	89 4d fc	 mov	 DWORD PTR _iRet$[ebp], ecx
$L84496:

; 208  : 	}
; 209  : 	return iRet;

  01161	8b 45 fc	 mov	 eax, DWORD PTR _iRet$[ebp]

; 210  : }

  01164	8b e5		 mov	 esp, ebp
  01166	5d		 pop	 ebp
  01167	c3		 ret	 0
?GetInt@YL_EncFileReg@@SAHPBD0H@Z ENDP			; YL_EncFileReg::GetInt
_TEXT	ENDS
PUBLIC	?WriteInt@YL_EncFileReg@@SAHPBD0H@Z		; YL_EncFileReg::WriteInt
; Function compile flags: /Odt
_TEXT	SEGMENT
$T90210 = -4						; size = 4
_lpSection$ = 8						; size = 4
_lpKey$ = 12						; size = 4
_nValue$ = 16						; size = 4
?WriteInt@YL_EncFileReg@@SAHPBD0H@Z PROC NEAR		; YL_EncFileReg::WriteInt

; 213  : {

  01170	55		 push	 ebp
  01171	8b ec		 mov	 ebp, esp
  01173	51		 push	 ecx

; 214  : 	return WriteDWORD(HKEY_PLAYBOX_ROOT,lpSection,lpKey,nValue);

  01174	8b 45 10	 mov	 eax, DWORD PTR _nValue$[ebp]
  01177	89 45 fc	 mov	 DWORD PTR $T90210[ebp], eax
  0117a	8d 4d fc	 lea	 ecx, DWORD PTR $T90210[ebp]
  0117d	51		 push	 ecx
  0117e	8b 55 0c	 mov	 edx, DWORD PTR _lpKey$[ebp]
  01181	52		 push	 edx
  01182	8b 45 08	 mov	 eax, DWORD PTR _lpSection$[ebp]
  01185	50		 push	 eax
  01186	68 02 00 00 80	 push	 -2147483646		; 80000002H
  0118b	e8 00 00 00 00	 call	 ?WriteDWORD@YL_EncFileReg@@SA_NPAUHKEY__@@PBD1ABI@Z ; YL_EncFileReg::WriteDWORD
  01190	83 c4 10	 add	 esp, 16			; 00000010H
  01193	0f b6 c0	 movzx	 eax, al

; 215  : }

  01196	8b e5		 mov	 esp, ebp
  01198	5d		 pop	 ebp
  01199	c3		 ret	 0
?WriteInt@YL_EncFileReg@@SAHPBD0H@Z ENDP		; YL_EncFileReg::WriteInt
_TEXT	ENDS
PUBLIC	?GetBool@YL_EncFileReg@@SAHPBD0H@Z		; YL_EncFileReg::GetBool
; Function compile flags: /Odt
_TEXT	SEGMENT
_lpSection$ = 8						; size = 4
_lpKey$ = 12						; size = 4
_bDefault$ = 16						; size = 4
?GetBool@YL_EncFileReg@@SAHPBD0H@Z PROC NEAR		; YL_EncFileReg::GetBool

; 218  : {

  011a0	55		 push	 ebp
  011a1	8b ec		 mov	 ebp, esp

; 219  : 	return (bool)GetInt( lpSection, lpKey, (int)bDefault );

  011a3	8b 45 10	 mov	 eax, DWORD PTR _bDefault$[ebp]
  011a6	50		 push	 eax
  011a7	8b 4d 0c	 mov	 ecx, DWORD PTR _lpKey$[ebp]
  011aa	51		 push	 ecx
  011ab	8b 55 08	 mov	 edx, DWORD PTR _lpSection$[ebp]
  011ae	52		 push	 edx
  011af	e8 00 00 00 00	 call	 ?GetInt@YL_EncFileReg@@SAHPBD0H@Z ; YL_EncFileReg::GetInt
  011b4	83 c4 0c	 add	 esp, 12			; 0000000cH
  011b7	85 c0		 test	 eax, eax
  011b9	0f 95 c0	 setne	 al
  011bc	0f b6 c0	 movzx	 eax, al

; 220  : 
; 221  : }

  011bf	5d		 pop	 ebp
  011c0	c3		 ret	 0
?GetBool@YL_EncFileReg@@SAHPBD0H@Z ENDP			; YL_EncFileReg::GetBool
_TEXT	ENDS
PUBLIC	?WriteBool@YL_EncFileReg@@SAHPBD0H@Z		; YL_EncFileReg::WriteBool
; Function compile flags: /Odt
_TEXT	SEGMENT
_lpSection$ = 8						; size = 4
_lpKey$ = 12						; size = 4
_bValue$ = 16						; size = 4
?WriteBool@YL_EncFileReg@@SAHPBD0H@Z PROC NEAR		; YL_EncFileReg::WriteBool

; 224  : {

  011d0	55		 push	 ebp
  011d1	8b ec		 mov	 ebp, esp

; 225  : 	return WriteInt( lpSection, lpKey, (int)bValue );

  011d3	8b 45 10	 mov	 eax, DWORD PTR _bValue$[ebp]
  011d6	50		 push	 eax
  011d7	8b 4d 0c	 mov	 ecx, DWORD PTR _lpKey$[ebp]
  011da	51		 push	 ecx
  011db	8b 55 08	 mov	 edx, DWORD PTR _lpSection$[ebp]
  011de	52		 push	 edx
  011df	e8 00 00 00 00	 call	 ?WriteInt@YL_EncFileReg@@SAHPBD0H@Z ; YL_EncFileReg::WriteInt
  011e4	83 c4 0c	 add	 esp, 12			; 0000000cH

; 226  : }

  011e7	5d		 pop	 ebp
  011e8	c3		 ret	 0
?WriteBool@YL_EncFileReg@@SAHPBD0H@Z ENDP		; YL_EncFileReg::WriteBool
; Function compile flags: /Odt
; File d:\program files (x86)\microsoft visual studio .net 2003\vc7\atlmfc\include\atlalloc.h
_TEXT	ENDS
;	COMDAT ??0?$CAtlSafeAllocBufferManager@VCCRTAllocator@ATL@@@_ATL_SAFE_ALLOCA_IMPL@ATL@@QAE@XZ
_TEXT	SEGMENT
_this$ = -4						; size = 4
??0?$CAtlSafeAllocBufferManager@VCCRTAllocator@ATL@@@_ATL_SAFE_ALLOCA_IMPL@ATL@@QAE@XZ PROC NEAR ; ATL::_ATL_SAFE_ALLOCA_IMPL::CAtlSafeAllocBufferManager<ATL::CCRTAllocator>::CAtlSafeAllocBufferManager<ATL::CCRTAllocator>, COMDAT
; _this$ = ecx

; 373  : 	CAtlSafeAllocBufferManager() : m_pHead(NULL) {};

  00000	55		 push	 ebp
  00001	8b ec		 mov	 ebp, esp
  00003	51		 push	 ecx
  00004	89 4d fc	 mov	 DWORD PTR _this$[ebp], ecx
  00007	8b 45 fc	 mov	 eax, DWORD PTR _this$[ebp]
  0000a	c7 00 00 00 00
	00		 mov	 DWORD PTR [eax], 0
  00010	8b 45 fc	 mov	 eax, DWORD PTR _this$[ebp]
  00013	8b e5		 mov	 esp, ebp
  00015	5d		 pop	 ebp
  00016	c3		 ret	 0
??0?$CAtlSafeAllocBufferManager@VCCRTAllocator@ATL@@@_ATL_SAFE_ALLOCA_IMPL@ATL@@QAE@XZ ENDP ; ATL::_ATL_SAFE_ALLOCA_IMPL::CAtlSafeAllocBufferManager<ATL::CCRTAllocator>::CAtlSafeAllocBufferManager<ATL::CCRTAllocator>
_TEXT	ENDS
PUBLIC	?Allocate@CCRTAllocator@ATL@@SAPAXI@Z		; ATL::CCRTAllocator::Allocate
PUBLIC	?GetData@CAtlSafeAllocBufferNode@?$CAtlSafeAllocBufferManager@VCCRTAllocator@ATL@@@_ATL_SAFE_ALLOCA_IMPL@ATL@@QAEPAXXZ ; ATL::_ATL_SAFE_ALLOCA_IMPL::CAtlSafeAllocBufferManager<ATL::CCRTAllocator>::CAtlSafeAllocBufferNode::GetData
; Function compile flags: /Odt
;	COMDAT ?Allocate@?$CAtlSafeAllocBufferManager@VCCRTAllocator@ATL@@@_ATL_SAFE_ALLOCA_IMPL@ATL@@QAEPAXK@Z
_TEXT	SEGMENT
_this$ = -8						; size = 4
_p$ = -4						; size = 4
_nRequestedSize$ = 8					; size = 4
?Allocate@?$CAtlSafeAllocBufferManager@VCCRTAllocator@ATL@@@_ATL_SAFE_ALLOCA_IMPL@ATL@@QAEPAXK@Z PROC NEAR ; ATL::_ATL_SAFE_ALLOCA_IMPL::CAtlSafeAllocBufferManager<ATL::CCRTAllocator>::Allocate, COMDAT
; _this$ = ecx

; 375  : 	{

  00000	55		 push	 ebp
  00001	8b ec		 mov	 ebp, esp
  00003	83 ec 08	 sub	 esp, 8
  00006	89 4d f8	 mov	 DWORD PTR _this$[ebp], ecx

; 376  : 		CAtlSafeAllocBufferNode *p = (CAtlSafeAllocBufferNode*)Allocator::Allocate(nRequestedSize + sizeof(CAtlSafeAllocBufferNode));

  00009	8b 45 08	 mov	 eax, DWORD PTR _nRequestedSize$[ebp]
  0000c	83 c0 08	 add	 eax, 8
  0000f	50		 push	 eax
  00010	e8 00 00 00 00	 call	 ?Allocate@CCRTAllocator@ATL@@SAPAXI@Z ; ATL::CCRTAllocator::Allocate
  00015	83 c4 04	 add	 esp, 4
  00018	89 45 fc	 mov	 DWORD PTR _p$[ebp], eax

; 377  : 		if (p == NULL)

  0001b	83 7d fc 00	 cmp	 DWORD PTR _p$[ebp], 0
  0001f	75 04		 jne	 SHORT $L85792

; 378  : 			return NULL;

  00021	33 c0		 xor	 eax, eax
  00023	eb 1a		 jmp	 SHORT $L85779
$L85792:

; 379  : 		
; 380  : 		// Add buffer to the list
; 381  : 		p->m_pNext = m_pHead;

  00025	8b 4d fc	 mov	 ecx, DWORD PTR _p$[ebp]
  00028	8b 55 f8	 mov	 edx, DWORD PTR _this$[ebp]
  0002b	8b 02		 mov	 eax, DWORD PTR [edx]
  0002d	89 01		 mov	 DWORD PTR [ecx], eax

; 382  : 		m_pHead = p;

  0002f	8b 4d f8	 mov	 ecx, DWORD PTR _this$[ebp]
  00032	8b 55 fc	 mov	 edx, DWORD PTR _p$[ebp]
  00035	89 11		 mov	 DWORD PTR [ecx], edx

; 383  : 		
; 384  : 		return p->GetData();

  00037	8b 4d fc	 mov	 ecx, DWORD PTR _p$[ebp]
  0003a	e8 00 00 00 00	 call	 ?GetData@CAtlSafeAllocBufferNode@?$CAtlSafeAllocBufferManager@VCCRTAllocator@ATL@@@_ATL_SAFE_ALLOCA_IMPL@ATL@@QAEPAXXZ ; ATL::_ATL_SAFE_ALLOCA_IMPL::CAtlSafeAllocBufferManager<ATL::CCRTAllocator>::CAtlSafeAllocBufferNode::GetData
$L85779:

; 385  : 	}

  0003f	8b e5		 mov	 esp, ebp
  00041	5d		 pop	 ebp
  00042	c2 04 00	 ret	 4
?Allocate@?$CAtlSafeAllocBufferManager@VCCRTAllocator@ATL@@@_ATL_SAFE_ALLOCA_IMPL@ATL@@QAEPAXK@Z ENDP ; ATL::_ATL_SAFE_ALLOCA_IMPL::CAtlSafeAllocBufferManager<ATL::CCRTAllocator>::Allocate
_TEXT	ENDS
EXTRN	__imp__malloc:NEAR
; Function compile flags: /Odt
;	COMDAT ?Allocate@CCRTAllocator@ATL@@SAPAXI@Z
_TEXT	SEGMENT
_nBytes$ = 8						; size = 4
?Allocate@CCRTAllocator@ATL@@SAPAXI@Z PROC NEAR		; ATL::CCRTAllocator::Allocate, COMDAT

; 30   : 	{

  00000	55		 push	 ebp
  00001	8b ec		 mov	 ebp, esp

; 31   : 		return malloc(nBytes);

  00003	8b 45 08	 mov	 eax, DWORD PTR _nBytes$[ebp]
  00006	50		 push	 eax
  00007	ff 15 00 00 00
	00		 call	 DWORD PTR __imp__malloc
  0000d	83 c4 04	 add	 esp, 4

; 32   : 	}

  00010	5d		 pop	 ebp
  00011	c3		 ret	 0
?Allocate@CCRTAllocator@ATL@@SAPAXI@Z ENDP		; ATL::CCRTAllocator::Allocate
_TEXT	ENDS
PUBLIC	?Free@CCRTAllocator@ATL@@SAXPAX@Z		; ATL::CCRTAllocator::Free
; Function compile flags: /Odt
;	COMDAT ??1?$CAtlSafeAllocBufferManager@VCCRTAllocator@ATL@@@_ATL_SAFE_ALLOCA_IMPL@ATL@@QAE@XZ
_TEXT	SEGMENT
_this$ = -8						; size = 4
_p$85798 = -4						; size = 4
??1?$CAtlSafeAllocBufferManager@VCCRTAllocator@ATL@@@_ATL_SAFE_ALLOCA_IMPL@ATL@@QAE@XZ PROC NEAR ; ATL::_ATL_SAFE_ALLOCA_IMPL::CAtlSafeAllocBufferManager<ATL::CCRTAllocator>::~CAtlSafeAllocBufferManager<ATL::CCRTAllocator>, COMDAT
; _this$ = ecx

; 387  : 	{

  00000	55		 push	 ebp
  00001	8b ec		 mov	 ebp, esp
  00003	83 ec 08	 sub	 esp, 8
  00006	89 4d f8	 mov	 DWORD PTR _this$[ebp], ecx
$L85796:

; 388  : 		// Walk the list and free the buffers
; 389  : 		while (m_pHead != NULL)

  00009	8b 45 f8	 mov	 eax, DWORD PTR _this$[ebp]
  0000c	83 38 00	 cmp	 DWORD PTR [eax], 0
  0000f	74 22		 je	 SHORT $L85794

; 390  : 		{
; 391  : 			CAtlSafeAllocBufferNode* p = m_pHead;

  00011	8b 4d f8	 mov	 ecx, DWORD PTR _this$[ebp]
  00014	8b 11		 mov	 edx, DWORD PTR [ecx]
  00016	89 55 fc	 mov	 DWORD PTR _p$85798[ebp], edx

; 392  : 			m_pHead = m_pHead->m_pNext;

  00019	8b 45 f8	 mov	 eax, DWORD PTR _this$[ebp]
  0001c	8b 08		 mov	 ecx, DWORD PTR [eax]
  0001e	8b 55 f8	 mov	 edx, DWORD PTR _this$[ebp]
  00021	8b 01		 mov	 eax, DWORD PTR [ecx]
  00023	89 02		 mov	 DWORD PTR [edx], eax

; 393  : 			Allocator::Free(p);

  00025	8b 4d fc	 mov	 ecx, DWORD PTR _p$85798[ebp]
  00028	51		 push	 ecx
  00029	e8 00 00 00 00	 call	 ?Free@CCRTAllocator@ATL@@SAXPAX@Z ; ATL::CCRTAllocator::Free
  0002e	83 c4 04	 add	 esp, 4

; 394  : 		}

  00031	eb d6		 jmp	 SHORT $L85796
$L85794:

; 395  : 	}

  00033	8b e5		 mov	 esp, ebp
  00035	5d		 pop	 ebp
  00036	c3		 ret	 0
??1?$CAtlSafeAllocBufferManager@VCCRTAllocator@ATL@@@_ATL_SAFE_ALLOCA_IMPL@ATL@@QAE@XZ ENDP ; ATL::_ATL_SAFE_ALLOCA_IMPL::CAtlSafeAllocBufferManager<ATL::CCRTAllocator>::~CAtlSafeAllocBufferManager<ATL::CCRTAllocator>
_TEXT	ENDS
EXTRN	__imp__free:NEAR
; Function compile flags: /Odt
;	COMDAT ?Free@CCRTAllocator@ATL@@SAXPAX@Z
_TEXT	SEGMENT
_p$ = 8							; size = 4
?Free@CCRTAllocator@ATL@@SAXPAX@Z PROC NEAR		; ATL::CCRTAllocator::Free, COMDAT

; 35   : 	{

  00000	55		 push	 ebp
  00001	8b ec		 mov	 ebp, esp

; 36   : 		free(p);

  00003	8b 45 08	 mov	 eax, DWORD PTR _p$[ebp]
  00006	50		 push	 eax
  00007	ff 15 00 00 00
	00		 call	 DWORD PTR __imp__free
  0000d	83 c4 04	 add	 esp, 4

; 37   : 	}

  00010	5d		 pop	 ebp
  00011	c3		 ret	 0
?Free@CCRTAllocator@ATL@@SAXPAX@Z ENDP			; ATL::CCRTAllocator::Free
; Function compile flags: /Odt
_TEXT	ENDS
;	COMDAT ??0?$CTempBuffer@D$0IA@VCCRTAllocator@ATL@@@ATL@@QAE@XZ
_TEXT	SEGMENT
_this$ = -4						; size = 4
??0?$CTempBuffer@D$0IA@VCCRTAllocator@ATL@@@ATL@@QAE@XZ PROC NEAR ; ATL::CTempBuffer<char,128,ATL::CCRTAllocator>::CTempBuffer<char,128,ATL::CCRTAllocator>, COMDAT
; _this$ = ecx

; 216  : 	{

  00000	55		 push	 ebp
  00001	8b ec		 mov	 ebp, esp
  00003	51		 push	 ecx
  00004	89 4d fc	 mov	 DWORD PTR _this$[ebp], ecx
  00007	8b 45 fc	 mov	 eax, DWORD PTR _this$[ebp]
  0000a	c7 00 00 00 00
	00		 mov	 DWORD PTR [eax], 0

; 217  : 	}

  00010	8b 45 fc	 mov	 eax, DWORD PTR _this$[ebp]
  00013	8b e5		 mov	 esp, ebp
  00015	5d		 pop	 ebp
  00016	c3		 ret	 0
??0?$CTempBuffer@D$0IA@VCCRTAllocator@ATL@@@ATL@@QAE@XZ ENDP ; ATL::CTempBuffer<char,128,ATL::CCRTAllocator>::CTempBuffer<char,128,ATL::CCRTAllocator>
_TEXT	ENDS
PUBLIC	?FreeHeap@?$CTempBuffer@D$0IA@VCCRTAllocator@ATL@@@ATL@@AAEXXZ ; ATL::CTempBuffer<char,128,ATL::CCRTAllocator>::FreeHeap
; Function compile flags: /Odt
;	COMDAT ??1?$CTempBuffer@D$0IA@VCCRTAllocator@ATL@@@ATL@@QAE@XZ
_TEXT	SEGMENT
_this$ = -4						; size = 4
??1?$CTempBuffer@D$0IA@VCCRTAllocator@ATL@@@ATL@@QAE@XZ PROC NEAR ; ATL::CTempBuffer<char,128,ATL::CCRTAllocator>::~CTempBuffer<char,128,ATL::CCRTAllocator>, COMDAT
; _this$ = ecx

; 225  : 	{

  00000	55		 push	 ebp
  00001	8b ec		 mov	 ebp, esp
  00003	51		 push	 ecx
  00004	89 4d fc	 mov	 DWORD PTR _this$[ebp], ecx

; 226  : 		if( m_p != reinterpret_cast< T* >( m_abFixedBuffer ) )

  00007	8b 45 fc	 mov	 eax, DWORD PTR _this$[ebp]
  0000a	83 c0 04	 add	 eax, 4
  0000d	8b 4d fc	 mov	 ecx, DWORD PTR _this$[ebp]
  00010	39 01		 cmp	 DWORD PTR [ecx], eax
  00012	74 08		 je	 SHORT $L85817

; 227  : 		{
; 228  : 			FreeHeap();

  00014	8b 4d fc	 mov	 ecx, DWORD PTR _this$[ebp]
  00017	e8 00 00 00 00	 call	 ?FreeHeap@?$CTempBuffer@D$0IA@VCCRTAllocator@ATL@@@ATL@@AAEXXZ ; ATL::CTempBuffer<char,128,ATL::CCRTAllocator>::FreeHeap
$L85817:

; 229  : 		}
; 230  : 	}

  0001c	8b e5		 mov	 esp, ebp
  0001e	5d		 pop	 ebp
  0001f	c3		 ret	 0
??1?$CTempBuffer@D$0IA@VCCRTAllocator@ATL@@@ATL@@QAE@XZ ENDP ; ATL::CTempBuffer<char,128,ATL::CCRTAllocator>::~CTempBuffer<char,128,ATL::CCRTAllocator>
; Function compile flags: /Odt
_TEXT	ENDS
;	COMDAT ??B?$CTempBuffer@D$0IA@VCCRTAllocator@ATL@@@ATL@@QBEPADXZ
_TEXT	SEGMENT
_this$ = -4						; size = 4
??B?$CTempBuffer@D$0IA@VCCRTAllocator@ATL@@@ATL@@QBEPADXZ PROC NEAR ; ATL::CTempBuffer<char,128,ATL::CCRTAllocator>::operator char *, COMDAT
; _this$ = ecx

; 233  : 	{

  00000	55		 push	 ebp
  00001	8b ec		 mov	 ebp, esp
  00003	51		 push	 ecx
  00004	89 4d fc	 mov	 DWORD PTR _this$[ebp], ecx

; 234  : 		return( m_p );

  00007	8b 45 fc	 mov	 eax, DWORD PTR _this$[ebp]
  0000a	8b 00		 mov	 eax, DWORD PTR [eax]

; 235  : 	}

  0000c	8b e5		 mov	 esp, ebp
  0000e	5d		 pop	 ebp
  0000f	c3		 ret	 0
??B?$CTempBuffer@D$0IA@VCCRTAllocator@ATL@@@ATL@@QBEPADXZ ENDP ; ATL::CTempBuffer<char,128,ATL::CCRTAllocator>::operator char *
_TEXT	ENDS
PUBLIC	?AllocateBytes@?$CTempBuffer@D$0IA@VCCRTAllocator@ATL@@@ATL@@QAEPADI@Z ; ATL::CTempBuffer<char,128,ATL::CCRTAllocator>::AllocateBytes
; Function compile flags: /Odt
;	COMDAT ?Allocate@?$CTempBuffer@D$0IA@VCCRTAllocator@ATL@@@ATL@@QAEPADI@Z
_TEXT	SEGMENT
_this$ = -4						; size = 4
_nElements$ = 8						; size = 4
?Allocate@?$CTempBuffer@D$0IA@VCCRTAllocator@ATL@@@ATL@@QAEPADI@Z PROC NEAR ; ATL::CTempBuffer<char,128,ATL::CCRTAllocator>::Allocate, COMDAT
; _this$ = ecx

; 243  : 	{

  00000	55		 push	 ebp
  00001	8b ec		 mov	 ebp, esp
  00003	51		 push	 ecx
  00004	89 4d fc	 mov	 DWORD PTR _this$[ebp], ecx

; 244  : 		return( AllocateBytes( nElements*sizeof( T ) ) );

  00007	8b 45 08	 mov	 eax, DWORD PTR _nElements$[ebp]
  0000a	50		 push	 eax
  0000b	8b 4d fc	 mov	 ecx, DWORD PTR _this$[ebp]
  0000e	e8 00 00 00 00	 call	 ?AllocateBytes@?$CTempBuffer@D$0IA@VCCRTAllocator@ATL@@@ATL@@QAEPADI@Z ; ATL::CTempBuffer<char,128,ATL::CCRTAllocator>::AllocateBytes

; 245  : 	}

  00013	8b e5		 mov	 esp, ebp
  00015	5d		 pop	 ebp
  00016	c2 04 00	 ret	 4
?Allocate@?$CTempBuffer@D$0IA@VCCRTAllocator@ATL@@@ATL@@QAEPADI@Z ENDP ; ATL::CTempBuffer<char,128,ATL::CCRTAllocator>::Allocate
_TEXT	ENDS
PUBLIC	?Init@?$CW2AEX@$0IA@@ATL@@AAEXPB_WI@Z		; ATL::CW2AEX<128>::Init
; Function compile flags: /Odt
; File d:\program files (x86)\microsoft visual studio .net 2003\vc7\atlmfc\include\atlconv.h
;	COMDAT ??0?$CW2AEX@$0IA@@ATL@@QAE@PB_W@Z
_TEXT	SEGMENT
_this$ = -4						; size = 4
_psz$ = 8						; size = 4
??0?$CW2AEX@$0IA@@ATL@@QAE@PB_W@Z PROC NEAR		; ATL::CW2AEX<128>::CW2AEX<128>, COMDAT
; _this$ = ecx

; 419  : 	{

  00000	55		 push	 ebp
  00001	8b ec		 mov	 ebp, esp
  00003	51		 push	 ecx
  00004	89 4d fc	 mov	 DWORD PTR _this$[ebp], ecx
  00007	8b 45 fc	 mov	 eax, DWORD PTR _this$[ebp]
  0000a	83 c0 04	 add	 eax, 4
  0000d	8b 4d fc	 mov	 ecx, DWORD PTR _this$[ebp]
  00010	89 01		 mov	 DWORD PTR [ecx], eax

; 420  : 		Init( psz, _AtlGetConversionACP() );

  00012	e8 00 00 00 00	 call	 ?_AtlGetConversionACP@ATL@@YGIXZ ; ATL::_AtlGetConversionACP
  00017	50		 push	 eax
  00018	8b 55 08	 mov	 edx, DWORD PTR _psz$[ebp]
  0001b	52		 push	 edx
  0001c	8b 4d fc	 mov	 ecx, DWORD PTR _this$[ebp]
  0001f	e8 00 00 00 00	 call	 ?Init@?$CW2AEX@$0IA@@ATL@@AAEXPB_WI@Z ; ATL::CW2AEX<128>::Init

; 421  : 	}

  00024	8b 45 fc	 mov	 eax, DWORD PTR _this$[ebp]
  00027	8b e5		 mov	 esp, ebp
  00029	5d		 pop	 ebp
  0002a	c2 04 00	 ret	 4
??0?$CW2AEX@$0IA@@ATL@@QAE@PB_W@Z ENDP			; ATL::CW2AEX<128>::CW2AEX<128>
; Function compile flags: /Odt
_TEXT	ENDS
;	COMDAT ??1?$CW2AEX@$0IA@@ATL@@QAE@XZ
_TEXT	SEGMENT
_this$ = -4						; size = 4
??1?$CW2AEX@$0IA@@ATL@@QAE@XZ PROC NEAR			; ATL::CW2AEX<128>::~CW2AEX<128>, COMDAT
; _this$ = ecx

; 428  : 	{

  00000	55		 push	 ebp
  00001	8b ec		 mov	 ebp, esp
  00003	51		 push	 ecx
  00004	89 4d fc	 mov	 DWORD PTR _this$[ebp], ecx

; 429  : 		if( m_psz != m_szBuffer )

  00007	8b 45 fc	 mov	 eax, DWORD PTR _this$[ebp]
  0000a	83 c0 04	 add	 eax, 4
  0000d	8b 4d fc	 mov	 ecx, DWORD PTR _this$[ebp]
  00010	39 01		 cmp	 DWORD PTR [ecx], eax
  00012	74 0f		 je	 SHORT $L86062

; 430  : 		{
; 431  : 			free( m_psz );

  00014	8b 55 fc	 mov	 edx, DWORD PTR _this$[ebp]
  00017	8b 02		 mov	 eax, DWORD PTR [edx]
  00019	50		 push	 eax
  0001a	ff 15 00 00 00
	00		 call	 DWORD PTR __imp__free
  00020	83 c4 04	 add	 esp, 4
$L86062:

; 432  : 		}
; 433  : 	}

  00023	8b e5		 mov	 esp, ebp
  00025	5d		 pop	 ebp
  00026	c3		 ret	 0
??1?$CW2AEX@$0IA@@ATL@@QAE@XZ ENDP			; ATL::CW2AEX<128>::~CW2AEX<128>
; Function compile flags: /Odt
_TEXT	ENDS
;	COMDAT ??B?$CW2AEX@$0IA@@ATL@@QBEPADXZ
_TEXT	SEGMENT
_this$ = -4						; size = 4
??B?$CW2AEX@$0IA@@ATL@@QBEPADXZ PROC NEAR		; ATL::CW2AEX<128>::operator char *, COMDAT
; _this$ = ecx

; 436  : 	{

  00000	55		 push	 ebp
  00001	8b ec		 mov	 ebp, esp
  00003	51		 push	 ecx
  00004	89 4d fc	 mov	 DWORD PTR _this$[ebp], ecx

; 437  : 		return( m_psz );

  00007	8b 45 fc	 mov	 eax, DWORD PTR _this$[ebp]
  0000a	8b 00		 mov	 eax, DWORD PTR [eax]

; 438  : 	}

  0000c	8b e5		 mov	 esp, ebp
  0000e	5d		 pop	 ebp
  0000f	c3		 ret	 0
??B?$CW2AEX@$0IA@@ATL@@QBEPADXZ ENDP			; ATL::CW2AEX<128>::operator char *
_TEXT	ENDS
PUBLIC	?AllocateHeap@?$CTempBuffer@D$0IA@VCCRTAllocator@ATL@@@ATL@@AAEXI@Z ; ATL::CTempBuffer<char,128,ATL::CCRTAllocator>::AllocateHeap
; Function compile flags: /Odt
; File d:\program files (x86)\microsoft visual studio .net 2003\vc7\atlmfc\include\atlalloc.h
;	COMDAT ?AllocateBytes@?$CTempBuffer@D$0IA@VCCRTAllocator@ATL@@@ATL@@QAEPADI@Z
_TEXT	SEGMENT
_this$ = -4						; size = 4
_nBytes$ = 8						; size = 4
?AllocateBytes@?$CTempBuffer@D$0IA@VCCRTAllocator@ATL@@@ATL@@QAEPADI@Z PROC NEAR ; ATL::CTempBuffer<char,128,ATL::CCRTAllocator>::AllocateBytes, COMDAT
; _this$ = ecx

; 276  : 	{

  00000	55		 push	 ebp
  00001	8b ec		 mov	 ebp, esp
  00003	51		 push	 ecx
  00004	89 4d fc	 mov	 DWORD PTR _this$[ebp], ecx

; 277  : 		ATLASSERT( m_p == NULL );
; 278  : 		if( nBytes > t_nFixedBytes )

  00007	81 7d 08 80 00
	00 00		 cmp	 DWORD PTR _nBytes$[ebp], 128 ; 00000080H
  0000e	76 0e		 jbe	 SHORT $L86949

; 279  : 		{
; 280  : 			AllocateHeap( nBytes );

  00010	8b 45 08	 mov	 eax, DWORD PTR _nBytes$[ebp]
  00013	50		 push	 eax
  00014	8b 4d fc	 mov	 ecx, DWORD PTR _this$[ebp]
  00017	e8 00 00 00 00	 call	 ?AllocateHeap@?$CTempBuffer@D$0IA@VCCRTAllocator@ATL@@@ATL@@AAEXI@Z ; ATL::CTempBuffer<char,128,ATL::CCRTAllocator>::AllocateHeap

; 281  : 		}
; 282  : 		else

  0001c	eb 0b		 jmp	 SHORT $L86950
$L86949:

; 283  : 		{
; 284  : 			m_p = reinterpret_cast< T* >( m_abFixedBuffer );

  0001e	8b 4d fc	 mov	 ecx, DWORD PTR _this$[ebp]
  00021	83 c1 04	 add	 ecx, 4
  00024	8b 55 fc	 mov	 edx, DWORD PTR _this$[ebp]
  00027	89 0a		 mov	 DWORD PTR [edx], ecx
$L86950:

; 285  : 		}
; 286  : 
; 287  : 		return( m_p );

  00029	8b 45 fc	 mov	 eax, DWORD PTR _this$[ebp]
  0002c	8b 00		 mov	 eax, DWORD PTR [eax]

; 288  : 	}

  0002e	8b e5		 mov	 esp, ebp
  00030	5d		 pop	 ebp
  00031	c2 04 00	 ret	 4
?AllocateBytes@?$CTempBuffer@D$0IA@VCCRTAllocator@ATL@@@ATL@@QAEPADI@Z ENDP ; ATL::CTempBuffer<char,128,ATL::CCRTAllocator>::AllocateBytes
; Function compile flags: /Odt
_TEXT	ENDS
;	COMDAT ?FreeHeap@?$CTempBuffer@D$0IA@VCCRTAllocator@ATL@@@ATL@@AAEXXZ
_TEXT	SEGMENT
_this$ = -4						; size = 4
?FreeHeap@?$CTempBuffer@D$0IA@VCCRTAllocator@ATL@@@ATL@@AAEXXZ PROC NEAR ; ATL::CTempBuffer<char,128,ATL::CCRTAllocator>::FreeHeap, COMDAT
; _this$ = ecx

; 312  : 	{

  00000	55		 push	 ebp
  00001	8b ec		 mov	 ebp, esp
  00003	51		 push	 ecx
  00004	89 4d fc	 mov	 DWORD PTR _this$[ebp], ecx

; 313  : 		Allocator::Free( m_p );

  00007	8b 45 fc	 mov	 eax, DWORD PTR _this$[ebp]
  0000a	8b 08		 mov	 ecx, DWORD PTR [eax]
  0000c	51		 push	 ecx
  0000d	e8 00 00 00 00	 call	 ?Free@CCRTAllocator@ATL@@SAXPAX@Z ; ATL::CCRTAllocator::Free
  00012	83 c4 04	 add	 esp, 4

; 314  : 	}

  00015	8b e5		 mov	 esp, ebp
  00017	5d		 pop	 ebp
  00018	c3		 ret	 0
?FreeHeap@?$CTempBuffer@D$0IA@VCCRTAllocator@ATL@@@ATL@@AAEXXZ ENDP ; ATL::CTempBuffer<char,128,ATL::CCRTAllocator>::FreeHeap
_TEXT	ENDS
PUBLIC	?AtlThrowLastWin32@ATL@@YGXXZ			; ATL::AtlThrowLastWin32
; Function compile flags: /Odt
; File d:\program files (x86)\microsoft visual studio .net 2003\vc7\atlmfc\include\atlconv.h
;	COMDAT ?Init@?$CW2AEX@$0IA@@ATL@@AAEXPB_WI@Z
_TEXT	SEGMENT
_this$ = -12						; size = 4
_nLengthW$ = -8						; size = 4
_nLengthA$ = -4						; size = 4
_psz$ = 8						; size = 4
_nCodePage$ = 12					; size = 4
?Init@?$CW2AEX@$0IA@@ATL@@AAEXPB_WI@Z PROC NEAR		; ATL::CW2AEX<128>::Init, COMDAT
; _this$ = ecx

; 442  : 	{

  00000	55		 push	 ebp
  00001	8b ec		 mov	 ebp, esp
  00003	83 ec 0c	 sub	 esp, 12			; 0000000cH
  00006	89 4d f4	 mov	 DWORD PTR _this$[ebp], ecx

; 443  : 		if (psz == NULL)

  00009	83 7d 08 00	 cmp	 DWORD PTR _psz$[ebp], 0
  0000d	75 0b		 jne	 SHORT $L87074

; 444  : 		{
; 445  : 			m_psz = NULL;

  0000f	8b 45 f4	 mov	 eax, DWORD PTR _this$[ebp]
  00012	c7 00 00 00 00
	00		 mov	 DWORD PTR [eax], 0

; 446  : 			return;

  00018	eb 70		 jmp	 SHORT $L90241
$L87074:

; 447  : 		}
; 448  : 		int nLengthW = lstrlenW( psz )+1;

  0001a	8b 4d 08	 mov	 ecx, DWORD PTR _psz$[ebp]
  0001d	51		 push	 ecx
  0001e	ff 15 00 00 00
	00		 call	 DWORD PTR __imp__lstrlenW@4
  00024	83 c0 01	 add	 eax, 1
  00027	89 45 f8	 mov	 DWORD PTR _nLengthW$[ebp], eax

; 449  : 		int nLengthA = nLengthW*2;

  0002a	8b 55 f8	 mov	 edx, DWORD PTR _nLengthW$[ebp]
  0002d	d1 e2		 shl	 edx, 1
  0002f	89 55 fc	 mov	 DWORD PTR _nLengthA$[ebp], edx

; 450  : 
; 451  : 		if( nLengthA > t_nBufferLength )

  00032	81 7d fc 80 00
	00 00		 cmp	 DWORD PTR _nLengthA$[ebp], 128 ; 00000080H
  00039	7e 24		 jle	 SHORT $L87077

; 452  : 		{
; 453  : 			m_psz = static_cast< LPSTR >( malloc( nLengthA*sizeof( char ) ) );

  0003b	8b 45 fc	 mov	 eax, DWORD PTR _nLengthA$[ebp]
  0003e	50		 push	 eax
  0003f	ff 15 00 00 00
	00		 call	 DWORD PTR __imp__malloc
  00045	83 c4 04	 add	 esp, 4
  00048	8b 4d f4	 mov	 ecx, DWORD PTR _this$[ebp]
  0004b	89 01		 mov	 DWORD PTR [ecx], eax

; 454  : 			if (m_psz == NULL)

  0004d	8b 55 f4	 mov	 edx, DWORD PTR _this$[ebp]
  00050	83 3a 00	 cmp	 DWORD PTR [edx], 0
  00053	75 0a		 jne	 SHORT $L87077

; 455  : 			{
; 456  : 				AtlThrow( E_OUTOFMEMORY );

  00055	68 0e 00 07 80	 push	 -2147024882		; 8007000eH
  0005a	e8 00 00 00 00	 call	 ?AtlThrow@ATL@@YGXJ@Z	; ATL::AtlThrow
$L87077:

; 457  : 			}
; 458  : 		}
; 459  : 
; 460  : 		if (::WideCharToMultiByte( nCodePage, 0, psz, nLengthW, m_psz, nLengthA, NULL, NULL ) == 0)

  0005f	6a 00		 push	 0
  00061	6a 00		 push	 0
  00063	8b 45 fc	 mov	 eax, DWORD PTR _nLengthA$[ebp]
  00066	50		 push	 eax
  00067	8b 4d f4	 mov	 ecx, DWORD PTR _this$[ebp]
  0006a	8b 11		 mov	 edx, DWORD PTR [ecx]
  0006c	52		 push	 edx
  0006d	8b 45 f8	 mov	 eax, DWORD PTR _nLengthW$[ebp]
  00070	50		 push	 eax
  00071	8b 4d 08	 mov	 ecx, DWORD PTR _psz$[ebp]
  00074	51		 push	 ecx
  00075	6a 00		 push	 0
  00077	8b 55 0c	 mov	 edx, DWORD PTR _nCodePage$[ebp]
  0007a	52		 push	 edx
  0007b	ff 15 00 00 00
	00		 call	 DWORD PTR __imp__WideCharToMultiByte@32
  00081	85 c0		 test	 eax, eax
  00083	75 05		 jne	 SHORT $L90241

; 461  : 		{
; 462  : 			AtlThrowLastWin32();

  00085	e8 00 00 00 00	 call	 ?AtlThrowLastWin32@ATL@@YGXXZ ; ATL::AtlThrowLastWin32
$L90241:

; 463  : 		}
; 464  : 	}

  0008a	8b e5		 mov	 esp, ebp
  0008c	5d		 pop	 ebp
  0008d	c2 08 00	 ret	 8
?Init@?$CW2AEX@$0IA@@ATL@@AAEXPB_WI@Z ENDP		; ATL::CW2AEX<128>::Init
_TEXT	ENDS
EXTRN	__imp__GetLastError@0:NEAR
; Function compile flags: /Odt
; File d:\program files (x86)\microsoft visual studio .net 2003\vc7\atlmfc\include\atlexcept.h
;	COMDAT ?AtlThrowLastWin32@ATL@@YGXXZ
_TEXT	SEGMENT
tv69 = -8						; size = 4
_dwError$ = -4						; size = 4
?AtlThrowLastWin32@ATL@@YGXXZ PROC NEAR			; ATL::AtlThrowLastWin32, COMDAT

; 80   : {

  00000	55		 push	 ebp
  00001	8b ec		 mov	 ebp, esp
  00003	83 ec 08	 sub	 esp, 8

; 81   : 	DWORD dwError = ::GetLastError();

  00006	ff 15 00 00 00
	00		 call	 DWORD PTR __imp__GetLastError@0
  0000c	89 45 fc	 mov	 DWORD PTR _dwError$[ebp], eax

; 82   : 	AtlThrow( HRESULT_FROM_WIN32( dwError ) );

  0000f	83 7d fc 00	 cmp	 DWORD PTR _dwError$[ebp], 0
  00013	7f 08		 jg	 SHORT $L90244
  00015	8b 45 fc	 mov	 eax, DWORD PTR _dwError$[ebp]
  00018	89 45 f8	 mov	 DWORD PTR tv69[ebp], eax
  0001b	eb 18		 jmp	 SHORT $L90245
$L90244:
  0001d	8b 4d fc	 mov	 ecx, DWORD PTR _dwError$[ebp]
  00020	81 e1 ff ff 00
	00		 and	 ecx, 65535		; 0000ffffH
  00026	81 c9 00 00 07
	00		 or	 ecx, 458752		; 00070000H
  0002c	81 c9 00 00 00
	80		 or	 ecx, -2147483648	; 80000000H
  00032	89 4d f8	 mov	 DWORD PTR tv69[ebp], ecx
$L90245:
  00035	8b 55 f8	 mov	 edx, DWORD PTR tv69[ebp]
  00038	52		 push	 edx
  00039	e8 00 00 00 00	 call	 ?AtlThrow@ATL@@YGXJ@Z	; ATL::AtlThrow
$L90243:

; 83   : }

  0003e	8b e5		 mov	 esp, ebp
  00040	5d		 pop	 ebp
  00041	c3		 ret	 0
?AtlThrowLastWin32@ATL@@YGXXZ ENDP			; ATL::AtlThrowLastWin32
; Function compile flags: /Odt
; File d:\program files (x86)\microsoft visual studio .net 2003\vc7\atlmfc\include\atlalloc.h
_TEXT	ENDS
;	COMDAT ?GetData@CAtlSafeAllocBufferNode@?$CAtlSafeAllocBufferManager@VCCRTAllocator@ATL@@@_ATL_SAFE_ALLOCA_IMPL@ATL@@QAEPAXXZ
_TEXT	SEGMENT
_this$ = -4						; size = 4
?GetData@CAtlSafeAllocBufferNode@?$CAtlSafeAllocBufferManager@VCCRTAllocator@ATL@@@_ATL_SAFE_ALLOCA_IMPL@ATL@@QAEPAXXZ PROC NEAR ; ATL::_ATL_SAFE_ALLOCA_IMPL::CAtlSafeAllocBufferManager<ATL::CCRTAllocator>::CAtlSafeAllocBufferNode::GetData, COMDAT
; _this$ = ecx

; 365  : 		{

  00000	55		 push	 ebp
  00001	8b ec		 mov	 ebp, esp
  00003	51		 push	 ecx
  00004	89 4d fc	 mov	 DWORD PTR _this$[ebp], ecx

; 366  : 			return (this + 1);

  00007	8b 45 fc	 mov	 eax, DWORD PTR _this$[ebp]
  0000a	83 c0 08	 add	 eax, 8

; 367  : 		}

  0000d	8b e5		 mov	 esp, ebp
  0000f	5d		 pop	 ebp
  00010	c3		 ret	 0
?GetData@CAtlSafeAllocBufferNode@?$CAtlSafeAllocBufferManager@VCCRTAllocator@ATL@@@_ATL_SAFE_ALLOCA_IMPL@ATL@@QAEPAXXZ ENDP ; ATL::_ATL_SAFE_ALLOCA_IMPL::CAtlSafeAllocBufferManager<ATL::CCRTAllocator>::CAtlSafeAllocBufferNode::GetData
; Function compile flags: /Odt
_TEXT	ENDS
;	COMDAT ?AllocateHeap@?$CTempBuffer@D$0IA@VCCRTAllocator@ATL@@@ATL@@AAEXI@Z
_TEXT	SEGMENT
_this$ = -8						; size = 4
_p$ = -4						; size = 4
_nBytes$ = 8						; size = 4
?AllocateHeap@?$CTempBuffer@D$0IA@VCCRTAllocator@ATL@@@ATL@@AAEXI@Z PROC NEAR ; ATL::CTempBuffer<char,128,ATL::CCRTAllocator>::AllocateHeap, COMDAT
; _this$ = ecx

; 292  : 	{

  00000	55		 push	 ebp
  00001	8b ec		 mov	 ebp, esp
  00003	83 ec 08	 sub	 esp, 8
  00006	89 4d f8	 mov	 DWORD PTR _this$[ebp], ecx

; 293  : 		T* p = static_cast< T* >( Allocator::Allocate( nBytes ) );

  00009	8b 45 08	 mov	 eax, DWORD PTR _nBytes$[ebp]
  0000c	50		 push	 eax
  0000d	e8 00 00 00 00	 call	 ?Allocate@CCRTAllocator@ATL@@SAPAXI@Z ; ATL::CCRTAllocator::Allocate
  00012	83 c4 04	 add	 esp, 4
  00015	89 45 fc	 mov	 DWORD PTR _p$[ebp], eax

; 294  : 		if( p == NULL )

  00018	83 7d fc 00	 cmp	 DWORD PTR _p$[ebp], 0
  0001c	75 0a		 jne	 SHORT $L87303

; 295  : 		{
; 296  : 			AtlThrow( E_OUTOFMEMORY );

  0001e	68 0e 00 07 80	 push	 -2147024882		; 8007000eH
  00023	e8 00 00 00 00	 call	 ?AtlThrow@ATL@@YGXJ@Z	; ATL::AtlThrow
$L87303:

; 297  : 		}
; 298  : 		m_p = p;

  00028	8b 4d f8	 mov	 ecx, DWORD PTR _this$[ebp]
  0002b	8b 55 fc	 mov	 edx, DWORD PTR _p$[ebp]
  0002e	89 11		 mov	 DWORD PTR [ecx], edx
$L90249:

; 299  : 	}

  00030	8b e5		 mov	 esp, ebp
  00032	5d		 pop	 ebp
  00033	c2 04 00	 ret	 4
?AllocateHeap@?$CTempBuffer@D$0IA@VCCRTAllocator@ATL@@@ATL@@AAEXI@Z ENDP ; ATL::CTempBuffer<char,128,ATL::CCRTAllocator>::AllocateHeap
_TEXT	ENDS
PUBLIC	??$?HDU?$char_traits@D@std@@V?$allocator@D@1@@std@@YA?AV?$basic_string@DU?$char_traits@D@std@@V?$allocator@D@2@@0@ABV10@0@Z ; std::operator+<char,std::char_traits<char>,std::allocator<char> >
;	COMDAT xdata$x
; File d:\program files (x86)\microsoft visual studio .net 2003\vc7\include\string
xdata$x	SEGMENT
$T90260	DD	0ffffffffH
	DD	FLAT:$L90254
	DD	00H
	DD	FLAT:$L90253
$T90258	DD	019930520H
	DD	02H
	DD	FLAT:$T90260
	DD	2 DUP(00H)
	DD	2 DUP(00H)
; Function compile flags: /Odt
xdata$x	ENDS
;	COMDAT ??$?HDU?$char_traits@D@std@@V?$allocator@D@1@@std@@YA?AV?$basic_string@DU?$char_traits@D@std@@V?$allocator@D@2@@0@ABV10@0@Z
_TEXT	SEGMENT
tv77 = -52						; size = 4
tv82 = -48						; size = 4
$T90255 = -44						; size = 4
$T90252 = -40						; size = 28
__$EHRec$ = -12						; size = 12
___$ReturnUdt$ = 8					; size = 4
__Left$ = 12						; size = 4
__Right$ = 16						; size = 4
??$?HDU?$char_traits@D@std@@V?$allocator@D@1@@std@@YA?AV?$basic_string@DU?$char_traits@D@std@@V?$allocator@D@2@@0@ABV10@0@Z PROC NEAR ; std::operator+<char,std::char_traits<char>,std::allocator<char> >, COMDAT

; 21   : 	{	// return string + string

  00000	55		 push	 ebp
  00001	8b ec		 mov	 ebp, esp
  00003	6a ff		 push	 -1
  00005	68 00 00 00 00	 push	 __ehhandler$??$?HDU?$char_traits@D@std@@V?$allocator@D@1@@std@@YA?AV?$basic_string@DU?$char_traits@D@std@@V?$allocator@D@2@@0@ABV10@0@Z
  0000a	64 a1 00 00 00
	00		 mov	 eax, DWORD PTR fs:__except_list
  00010	50		 push	 eax
  00011	64 89 25 00 00
	00 00		 mov	 DWORD PTR fs:__except_list, esp
  00018	83 ec 28	 sub	 esp, 40			; 00000028H
  0001b	c7 45 d4 00 00
	00 00		 mov	 DWORD PTR $T90255[ebp], 0

; 22   : 	return (basic_string<_Elem, _Traits, _Alloc>(_Left) += _Right);

  00022	8b 45 0c	 mov	 eax, DWORD PTR __Left$[ebp]
  00025	50		 push	 eax
  00026	8d 4d d8	 lea	 ecx, DWORD PTR $T90252[ebp]
  00029	ff 15 00 00 00
	00		 call	 DWORD PTR __imp_??0?$basic_string@DU?$char_traits@D@std@@V?$allocator@D@2@@std@@QAE@ABV01@@Z
  0002f	89 45 d0	 mov	 DWORD PTR tv82[ebp], eax
  00032	8b 4d d0	 mov	 ecx, DWORD PTR tv82[ebp]
  00035	89 4d cc	 mov	 DWORD PTR tv77[ebp], ecx
  00038	c7 45 fc 01 00
	00 00		 mov	 DWORD PTR __$EHRec$[ebp+8], 1
  0003f	8b 55 10	 mov	 edx, DWORD PTR __Right$[ebp]
  00042	52		 push	 edx
  00043	8b 4d cc	 mov	 ecx, DWORD PTR tv77[ebp]
  00046	ff 15 00 00 00
	00		 call	 DWORD PTR __imp_??Y?$basic_string@DU?$char_traits@D@std@@V?$allocator@D@2@@std@@QAEAAV01@ABV01@@Z
  0004c	50		 push	 eax
  0004d	8b 4d 08	 mov	 ecx, DWORD PTR ___$ReturnUdt$[ebp]
  00050	ff 15 00 00 00
	00		 call	 DWORD PTR __imp_??0?$basic_string@DU?$char_traits@D@std@@V?$allocator@D@2@@std@@QAE@ABV01@@Z
  00056	8b 45 d4	 mov	 eax, DWORD PTR $T90255[ebp]
  00059	83 c8 01	 or	 eax, 1
  0005c	89 45 d4	 mov	 DWORD PTR $T90255[ebp], eax
  0005f	c6 45 fc 00	 mov	 BYTE PTR __$EHRec$[ebp+8], 0
  00063	8d 4d d8	 lea	 ecx, DWORD PTR $T90252[ebp]
  00066	ff 15 00 00 00
	00		 call	 DWORD PTR __imp_??1?$basic_string@DU?$char_traits@D@std@@V?$allocator@D@2@@std@@QAE@XZ
  0006c	8b 45 08	 mov	 eax, DWORD PTR ___$ReturnUdt$[ebp]

; 23   : 	}

  0006f	8b 4d f4	 mov	 ecx, DWORD PTR __$EHRec$[ebp]
  00072	64 89 0d 00 00
	00 00		 mov	 DWORD PTR fs:__except_list, ecx
  00079	8b e5		 mov	 esp, ebp
  0007b	5d		 pop	 ebp
  0007c	c3		 ret	 0
_TEXT	ENDS
;	COMDAT text$x
text$x	SEGMENT
$L90253:
  00000	8d 4d d8	 lea	 ecx, DWORD PTR $T90252[ebp]
  00003	ff 25 00 00 00
	00		 jmp	 DWORD PTR __imp_??1?$basic_string@DU?$char_traits@D@std@@V?$allocator@D@2@@std@@QAE@XZ
$L90254:
  00009	8b 45 d4	 mov	 eax, DWORD PTR $T90255[ebp]
  0000c	83 e0 01	 and	 eax, 1
  0000f	0f 84 0d 00 00
	00		 je	 $L90256
  00015	83 65 d4 fe	 and	 DWORD PTR $T90255[ebp], -2 ; fffffffeH
  00019	8b 4d 08	 mov	 ecx, DWORD PTR ___$ReturnUdt$[ebp]
  0001c	ff 25 00 00 00
	00		 jmp	 DWORD PTR __imp_??1?$basic_string@DU?$char_traits@D@std@@V?$allocator@D@2@@std@@QAE@XZ
$L90256:
  00022	c3		 ret	 0
__ehhandler$??$?HDU?$char_traits@D@std@@V?$allocator@D@1@@std@@YA?AV?$basic_string@DU?$char_traits@D@std@@V?$allocator@D@2@@0@ABV10@0@Z:
  00023	b8 00 00 00 00	 mov	 eax, OFFSET FLAT:$T90258
  00028	e9 00 00 00 00	 jmp	 ___CxxFrameHandler
text$x	ENDS
??$?HDU?$char_traits@D@std@@V?$allocator@D@1@@std@@YA?AV?$basic_string@DU?$char_traits@D@std@@V?$allocator@D@2@@0@ABV10@0@Z ENDP ; std::operator+<char,std::char_traits<char>,std::allocator<char> >
PUBLIC	??$?HDU?$char_traits@D@std@@V?$allocator@D@1@@std@@YA?AV?$basic_string@DU?$char_traits@D@std@@V?$allocator@D@2@@0@PBDABV10@@Z ; std::operator+<char,std::char_traits<char>,std::allocator<char> >
;	COMDAT xdata$x
xdata$x	SEGMENT
$T90273	DD	0ffffffffH
	DD	FLAT:$L90267
	DD	00H
	DD	FLAT:$L90266
$T90271	DD	019930520H
	DD	02H
	DD	FLAT:$T90273
	DD	2 DUP(00H)
	DD	2 DUP(00H)
; Function compile flags: /Odt
xdata$x	ENDS
;	COMDAT ??$?HDU?$char_traits@D@std@@V?$allocator@D@1@@std@@YA?AV?$basic_string@DU?$char_traits@D@std@@V?$allocator@D@2@@0@PBDABV10@@Z
_TEXT	SEGMENT
tv77 = -52						; size = 4
tv82 = -48						; size = 4
$T90268 = -44						; size = 4
$T90265 = -40						; size = 28
__$EHRec$ = -12						; size = 12
___$ReturnUdt$ = 8					; size = 4
__Left$ = 12						; size = 4
__Right$ = 16						; size = 4
??$?HDU?$char_traits@D@std@@V?$allocator@D@1@@std@@YA?AV?$basic_string@DU?$char_traits@D@std@@V?$allocator@D@2@@0@PBDABV10@@Z PROC NEAR ; std::operator+<char,std::char_traits<char>,std::allocator<char> >, COMDAT

; 31   : 	{	// return NTCS + string

  00000	55		 push	 ebp
  00001	8b ec		 mov	 ebp, esp
  00003	6a ff		 push	 -1
  00005	68 00 00 00 00	 push	 __ehhandler$??$?HDU?$char_traits@D@std@@V?$allocator@D@1@@std@@YA?AV?$basic_string@DU?$char_traits@D@std@@V?$allocator@D@2@@0@PBDABV10@@Z
  0000a	64 a1 00 00 00
	00		 mov	 eax, DWORD PTR fs:__except_list
  00010	50		 push	 eax
  00011	64 89 25 00 00
	00 00		 mov	 DWORD PTR fs:__except_list, esp
  00018	83 ec 28	 sub	 esp, 40			; 00000028H
  0001b	c7 45 d4 00 00
	00 00		 mov	 DWORD PTR $T90268[ebp], 0

; 32   : 	return (basic_string<_Elem, _Traits, _Alloc>(_Left) += _Right);

  00022	8b 45 0c	 mov	 eax, DWORD PTR __Left$[ebp]
  00025	50		 push	 eax
  00026	8d 4d d8	 lea	 ecx, DWORD PTR $T90265[ebp]
  00029	ff 15 00 00 00
	00		 call	 DWORD PTR __imp_??0?$basic_string@DU?$char_traits@D@std@@V?$allocator@D@2@@std@@QAE@PBD@Z
  0002f	89 45 d0	 mov	 DWORD PTR tv82[ebp], eax
  00032	8b 4d d0	 mov	 ecx, DWORD PTR tv82[ebp]
  00035	89 4d cc	 mov	 DWORD PTR tv77[ebp], ecx
  00038	c7 45 fc 01 00
	00 00		 mov	 DWORD PTR __$EHRec$[ebp+8], 1
  0003f	8b 55 10	 mov	 edx, DWORD PTR __Right$[ebp]
  00042	52		 push	 edx
  00043	8b 4d cc	 mov	 ecx, DWORD PTR tv77[ebp]
  00046	ff 15 00 00 00
	00		 call	 DWORD PTR __imp_??Y?$basic_string@DU?$char_traits@D@std@@V?$allocator@D@2@@std@@QAEAAV01@ABV01@@Z
  0004c	50		 push	 eax
  0004d	8b 4d 08	 mov	 ecx, DWORD PTR ___$ReturnUdt$[ebp]
  00050	ff 15 00 00 00
	00		 call	 DWORD PTR __imp_??0?$basic_string@DU?$char_traits@D@std@@V?$allocator@D@2@@std@@QAE@ABV01@@Z
  00056	8b 45 d4	 mov	 eax, DWORD PTR $T90268[ebp]
  00059	83 c8 01	 or	 eax, 1
  0005c	89 45 d4	 mov	 DWORD PTR $T90268[ebp], eax
  0005f	c6 45 fc 00	 mov	 BYTE PTR __$EHRec$[ebp+8], 0
  00063	8d 4d d8	 lea	 ecx, DWORD PTR $T90265[ebp]
  00066	ff 15 00 00 00
	00		 call	 DWORD PTR __imp_??1?$basic_string@DU?$char_traits@D@std@@V?$allocator@D@2@@std@@QAE@XZ
  0006c	8b 45 08	 mov	 eax, DWORD PTR ___$ReturnUdt$[ebp]

; 33   : 	}

  0006f	8b 4d f4	 mov	 ecx, DWORD PTR __$EHRec$[ebp]
  00072	64 89 0d 00 00
	00 00		 mov	 DWORD PTR fs:__except_list, ecx
  00079	8b e5		 mov	 esp, ebp
  0007b	5d		 pop	 ebp
  0007c	c3		 ret	 0
_TEXT	ENDS
;	COMDAT text$x
text$x	SEGMENT
$L90266:
  00000	8d 4d d8	 lea	 ecx, DWORD PTR $T90265[ebp]
  00003	ff 25 00 00 00
	00		 jmp	 DWORD PTR __imp_??1?$basic_string@DU?$char_traits@D@std@@V?$allocator@D@2@@std@@QAE@XZ
$L90267:
  00009	8b 45 d4	 mov	 eax, DWORD PTR $T90268[ebp]
  0000c	83 e0 01	 and	 eax, 1
  0000f	0f 84 0d 00 00
	00		 je	 $L90269
  00015	83 65 d4 fe	 and	 DWORD PTR $T90268[ebp], -2 ; fffffffeH
  00019	8b 4d 08	 mov	 ecx, DWORD PTR ___$ReturnUdt$[ebp]
  0001c	ff 25 00 00 00
	00		 jmp	 DWORD PTR __imp_??1?$basic_string@DU?$char_traits@D@std@@V?$allocator@D@2@@std@@QAE@XZ
$L90269:
  00022	c3		 ret	 0
__ehhandler$??$?HDU?$char_traits@D@std@@V?$allocator@D@1@@std@@YA?AV?$basic_string@DU?$char_traits@D@std@@V?$allocator@D@2@@0@PBDABV10@@Z:
  00023	b8 00 00 00 00	 mov	 eax, OFFSET FLAT:$T90271
  00028	e9 00 00 00 00	 jmp	 ___CxxFrameHandler
text$x	ENDS
??$?HDU?$char_traits@D@std@@V?$allocator@D@1@@std@@YA?AV?$basic_string@DU?$char_traits@D@std@@V?$allocator@D@2@@0@PBDABV10@@Z ENDP ; std::operator+<char,std::char_traits<char>,std::allocator<char> >
PUBLIC	??$?HDU?$char_traits@D@std@@V?$allocator@D@1@@std@@YA?AV?$basic_string@DU?$char_traits@D@std@@V?$allocator@D@2@@0@DABV10@@Z ; std::operator+<char,std::char_traits<char>,std::allocator<char> >
EXTRN	__imp_??0?$basic_string@DU?$char_traits@D@std@@V?$allocator@D@2@@std@@QAE@ID@Z:NEAR
;	COMDAT xdata$x
xdata$x	SEGMENT
$T90286	DD	0ffffffffH
	DD	FLAT:$L90280
	DD	00H
	DD	FLAT:$L90279
$T90284	DD	019930520H
	DD	02H
	DD	FLAT:$T90286
	DD	2 DUP(00H)
	DD	2 DUP(00H)
; Function compile flags: /Odt
xdata$x	ENDS
;	COMDAT ??$?HDU?$char_traits@D@std@@V?$allocator@D@1@@std@@YA?AV?$basic_string@DU?$char_traits@D@std@@V?$allocator@D@2@@0@DABV10@@Z
_TEXT	SEGMENT
tv78 = -52						; size = 4
tv83 = -48						; size = 4
$T90281 = -44						; size = 4
$T90278 = -40						; size = 28
__$EHRec$ = -12						; size = 12
___$ReturnUdt$ = 8					; size = 4
__Left$ = 12						; size = 1
__Right$ = 16						; size = 4
??$?HDU?$char_traits@D@std@@V?$allocator@D@1@@std@@YA?AV?$basic_string@DU?$char_traits@D@std@@V?$allocator@D@2@@0@DABV10@@Z PROC NEAR ; std::operator+<char,std::char_traits<char>,std::allocator<char> >, COMDAT

; 41   : 	{	// return character + string

  00000	55		 push	 ebp
  00001	8b ec		 mov	 ebp, esp
  00003	6a ff		 push	 -1
  00005	68 00 00 00 00	 push	 __ehhandler$??$?HDU?$char_traits@D@std@@V?$allocator@D@1@@std@@YA?AV?$basic_string@DU?$char_traits@D@std@@V?$allocator@D@2@@0@DABV10@@Z
  0000a	64 a1 00 00 00
	00		 mov	 eax, DWORD PTR fs:__except_list
  00010	50		 push	 eax
  00011	64 89 25 00 00
	00 00		 mov	 DWORD PTR fs:__except_list, esp
  00018	83 ec 28	 sub	 esp, 40			; 00000028H
  0001b	c7 45 d4 00 00
	00 00		 mov	 DWORD PTR $T90281[ebp], 0

; 42   : 	return (basic_string<_Elem, _Traits, _Alloc>(1, _Left) += _Right);

  00022	8a 45 0c	 mov	 al, BYTE PTR __Left$[ebp]
  00025	50		 push	 eax
  00026	6a 01		 push	 1
  00028	8d 4d d8	 lea	 ecx, DWORD PTR $T90278[ebp]
  0002b	ff 15 00 00 00
	00		 call	 DWORD PTR __imp_??0?$basic_string@DU?$char_traits@D@std@@V?$allocator@D@2@@std@@QAE@ID@Z
  00031	89 45 d0	 mov	 DWORD PTR tv83[ebp], eax
  00034	8b 4d d0	 mov	 ecx, DWORD PTR tv83[ebp]
  00037	89 4d cc	 mov	 DWORD PTR tv78[ebp], ecx
  0003a	c7 45 fc 01 00
	00 00		 mov	 DWORD PTR __$EHRec$[ebp+8], 1
  00041	8b 55 10	 mov	 edx, DWORD PTR __Right$[ebp]
  00044	52		 push	 edx
  00045	8b 4d cc	 mov	 ecx, DWORD PTR tv78[ebp]
  00048	ff 15 00 00 00
	00		 call	 DWORD PTR __imp_??Y?$basic_string@DU?$char_traits@D@std@@V?$allocator@D@2@@std@@QAEAAV01@ABV01@@Z
  0004e	50		 push	 eax
  0004f	8b 4d 08	 mov	 ecx, DWORD PTR ___$ReturnUdt$[ebp]
  00052	ff 15 00 00 00
	00		 call	 DWORD PTR __imp_??0?$basic_string@DU?$char_traits@D@std@@V?$allocator@D@2@@std@@QAE@ABV01@@Z
  00058	8b 45 d4	 mov	 eax, DWORD PTR $T90281[ebp]
  0005b	83 c8 01	 or	 eax, 1
  0005e	89 45 d4	 mov	 DWORD PTR $T90281[ebp], eax
  00061	c6 45 fc 00	 mov	 BYTE PTR __$EHRec$[ebp+8], 0
  00065	8d 4d d8	 lea	 ecx, DWORD PTR $T90278[ebp]
  00068	ff 15 00 00 00
	00		 call	 DWORD PTR __imp_??1?$basic_string@DU?$char_traits@D@std@@V?$allocator@D@2@@std@@QAE@XZ
  0006e	8b 45 08	 mov	 eax, DWORD PTR ___$ReturnUdt$[ebp]

; 43   : 	}

  00071	8b 4d f4	 mov	 ecx, DWORD PTR __$EHRec$[ebp]
  00074	64 89 0d 00 00
	00 00		 mov	 DWORD PTR fs:__except_list, ecx
  0007b	8b e5		 mov	 esp, ebp
  0007d	5d		 pop	 ebp
  0007e	c3		 ret	 0
_TEXT	ENDS
;	COMDAT text$x
text$x	SEGMENT
$L90279:
  00000	8d 4d d8	 lea	 ecx, DWORD PTR $T90278[ebp]
  00003	ff 25 00 00 00
	00		 jmp	 DWORD PTR __imp_??1?$basic_string@DU?$char_traits@D@std@@V?$allocator@D@2@@std@@QAE@XZ
$L90280:
  00009	8b 45 d4	 mov	 eax, DWORD PTR $T90281[ebp]
  0000c	83 e0 01	 and	 eax, 1
  0000f	0f 84 0d 00 00
	00		 je	 $L90282
  00015	83 65 d4 fe	 and	 DWORD PTR $T90281[ebp], -2 ; fffffffeH
  00019	8b 4d 08	 mov	 ecx, DWORD PTR ___$ReturnUdt$[ebp]
  0001c	ff 25 00 00 00
	00		 jmp	 DWORD PTR __imp_??1?$basic_string@DU?$char_traits@D@std@@V?$allocator@D@2@@std@@QAE@XZ
$L90282:
  00022	c3		 ret	 0
__ehhandler$??$?HDU?$char_traits@D@std@@V?$allocator@D@1@@std@@YA?AV?$basic_string@DU?$char_traits@D@std@@V?$allocator@D@2@@0@DABV10@@Z:
  00023	b8 00 00 00 00	 mov	 eax, OFFSET FLAT:$T90284
  00028	e9 00 00 00 00	 jmp	 ___CxxFrameHandler
text$x	ENDS
??$?HDU?$char_traits@D@std@@V?$allocator@D@1@@std@@YA?AV?$basic_string@DU?$char_traits@D@std@@V?$allocator@D@2@@0@DABV10@@Z ENDP ; std::operator+<char,std::char_traits<char>,std::allocator<char> >
PUBLIC	??$?HDU?$char_traits@D@std@@V?$allocator@D@1@@std@@YA?AV?$basic_string@DU?$char_traits@D@std@@V?$allocator@D@2@@0@ABV10@PBD@Z ; std::operator+<char,std::char_traits<char>,std::allocator<char> >
;	COMDAT xdata$x
xdata$x	SEGMENT
$T90299	DD	0ffffffffH
	DD	FLAT:$L90293
	DD	00H
	DD	FLAT:$L90292
$T90297	DD	019930520H
	DD	02H
	DD	FLAT:$T90299
	DD	2 DUP(00H)
	DD	2 DUP(00H)
; Function compile flags: /Odt
xdata$x	ENDS
;	COMDAT ??$?HDU?$char_traits@D@std@@V?$allocator@D@1@@std@@YA?AV?$basic_string@DU?$char_traits@D@std@@V?$allocator@D@2@@0@ABV10@PBD@Z
_TEXT	SEGMENT
tv77 = -52						; size = 4
tv82 = -48						; size = 4
$T90294 = -44						; size = 4
$T90291 = -40						; size = 28
__$EHRec$ = -12						; size = 12
___$ReturnUdt$ = 8					; size = 4
__Left$ = 12						; size = 4
__Right$ = 16						; size = 4
??$?HDU?$char_traits@D@std@@V?$allocator@D@1@@std@@YA?AV?$basic_string@DU?$char_traits@D@std@@V?$allocator@D@2@@0@ABV10@PBD@Z PROC NEAR ; std::operator+<char,std::char_traits<char>,std::allocator<char> >, COMDAT

; 51   : 	{	// return string + NTCS

  00000	55		 push	 ebp
  00001	8b ec		 mov	 ebp, esp
  00003	6a ff		 push	 -1
  00005	68 00 00 00 00	 push	 __ehhandler$??$?HDU?$char_traits@D@std@@V?$allocator@D@1@@std@@YA?AV?$basic_string@DU?$char_traits@D@std@@V?$allocator@D@2@@0@ABV10@PBD@Z
  0000a	64 a1 00 00 00
	00		 mov	 eax, DWORD PTR fs:__except_list
  00010	50		 push	 eax
  00011	64 89 25 00 00
	00 00		 mov	 DWORD PTR fs:__except_list, esp
  00018	83 ec 28	 sub	 esp, 40			; 00000028H
  0001b	c7 45 d4 00 00
	00 00		 mov	 DWORD PTR $T90294[ebp], 0

; 52   : 	return (basic_string<_Elem, _Traits, _Alloc>(_Left) += _Right);

  00022	8b 45 0c	 mov	 eax, DWORD PTR __Left$[ebp]
  00025	50		 push	 eax
  00026	8d 4d d8	 lea	 ecx, DWORD PTR $T90291[ebp]
  00029	ff 15 00 00 00
	00		 call	 DWORD PTR __imp_??0?$basic_string@DU?$char_traits@D@std@@V?$allocator@D@2@@std@@QAE@ABV01@@Z
  0002f	89 45 d0	 mov	 DWORD PTR tv82[ebp], eax
  00032	8b 4d d0	 mov	 ecx, DWORD PTR tv82[ebp]
  00035	89 4d cc	 mov	 DWORD PTR tv77[ebp], ecx
  00038	c7 45 fc 01 00
	00 00		 mov	 DWORD PTR __$EHRec$[ebp+8], 1
  0003f	8b 55 10	 mov	 edx, DWORD PTR __Right$[ebp]
  00042	52		 push	 edx
  00043	8b 4d cc	 mov	 ecx, DWORD PTR tv77[ebp]
  00046	ff 15 00 00 00
	00		 call	 DWORD PTR __imp_??Y?$basic_string@DU?$char_traits@D@std@@V?$allocator@D@2@@std@@QAEAAV01@PBD@Z
  0004c	50		 push	 eax
  0004d	8b 4d 08	 mov	 ecx, DWORD PTR ___$ReturnUdt$[ebp]
  00050	ff 15 00 00 00
	00		 call	 DWORD PTR __imp_??0?$basic_string@DU?$char_traits@D@std@@V?$allocator@D@2@@std@@QAE@ABV01@@Z
  00056	8b 45 d4	 mov	 eax, DWORD PTR $T90294[ebp]
  00059	83 c8 01	 or	 eax, 1
  0005c	89 45 d4	 mov	 DWORD PTR $T90294[ebp], eax
  0005f	c6 45 fc 00	 mov	 BYTE PTR __$EHRec$[ebp+8], 0
  00063	8d 4d d8	 lea	 ecx, DWORD PTR $T90291[ebp]
  00066	ff 15 00 00 00
	00		 call	 DWORD PTR __imp_??1?$basic_string@DU?$char_traits@D@std@@V?$allocator@D@2@@std@@QAE@XZ
  0006c	8b 45 08	 mov	 eax, DWORD PTR ___$ReturnUdt$[ebp]

; 53   : 	}

  0006f	8b 4d f4	 mov	 ecx, DWORD PTR __$EHRec$[ebp]
  00072	64 89 0d 00 00
	00 00		 mov	 DWORD PTR fs:__except_list, ecx
  00079	8b e5		 mov	 esp, ebp
  0007b	5d		 pop	 ebp
  0007c	c3		 ret	 0
_TEXT	ENDS
;	COMDAT text$x
text$x	SEGMENT
$L90292:
  00000	8d 4d d8	 lea	 ecx, DWORD PTR $T90291[ebp]
  00003	ff 25 00 00 00
	00		 jmp	 DWORD PTR __imp_??1?$basic_string@DU?$char_traits@D@std@@V?$allocator@D@2@@std@@QAE@XZ
$L90293:
  00009	8b 45 d4	 mov	 eax, DWORD PTR $T90294[ebp]
  0000c	83 e0 01	 and	 eax, 1
  0000f	0f 84 0d 00 00
	00		 je	 $L90295
  00015	83 65 d4 fe	 and	 DWORD PTR $T90294[ebp], -2 ; fffffffeH
  00019	8b 4d 08	 mov	 ecx, DWORD PTR ___$ReturnUdt$[ebp]
  0001c	ff 25 00 00 00
	00		 jmp	 DWORD PTR __imp_??1?$basic_string@DU?$char_traits@D@std@@V?$allocator@D@2@@std@@QAE@XZ
$L90295:
  00022	c3		 ret	 0
__ehhandler$??$?HDU?$char_traits@D@std@@V?$allocator@D@1@@std@@YA?AV?$basic_string@DU?$char_traits@D@std@@V?$allocator@D@2@@0@ABV10@PBD@Z:
  00023	b8 00 00 00 00	 mov	 eax, OFFSET FLAT:$T90297
  00028	e9 00 00 00 00	 jmp	 ___CxxFrameHandler
text$x	ENDS
??$?HDU?$char_traits@D@std@@V?$allocator@D@1@@std@@YA?AV?$basic_string@DU?$char_traits@D@std@@V?$allocator@D@2@@0@ABV10@PBD@Z ENDP ; std::operator+<char,std::char_traits<char>,std::allocator<char> >
PUBLIC	??$?HDU?$char_traits@D@std@@V?$allocator@D@1@@std@@YA?AV?$basic_string@DU?$char_traits@D@std@@V?$allocator@D@2@@0@ABV10@D@Z ; std::operator+<char,std::char_traits<char>,std::allocator<char> >
EXTRN	__imp_??Y?$basic_string@DU?$char_traits@D@std@@V?$allocator@D@2@@std@@QAEAAV01@D@Z:NEAR
;	COMDAT xdata$x
xdata$x	SEGMENT
$T90312	DD	0ffffffffH
	DD	FLAT:$L90306
	DD	00H
	DD	FLAT:$L90305
$T90310	DD	019930520H
	DD	02H
	DD	FLAT:$T90312
	DD	2 DUP(00H)
	DD	2 DUP(00H)
; Function compile flags: /Odt
xdata$x	ENDS
;	COMDAT ??$?HDU?$char_traits@D@std@@V?$allocator@D@1@@std@@YA?AV?$basic_string@DU?$char_traits@D@std@@V?$allocator@D@2@@0@ABV10@D@Z
_TEXT	SEGMENT
tv77 = -52						; size = 4
tv82 = -48						; size = 4
$T90307 = -44						; size = 4
$T90304 = -40						; size = 28
__$EHRec$ = -12						; size = 12
___$ReturnUdt$ = 8					; size = 4
__Left$ = 12						; size = 4
__Right$ = 16						; size = 1
??$?HDU?$char_traits@D@std@@V?$allocator@D@1@@std@@YA?AV?$basic_string@DU?$char_traits@D@std@@V?$allocator@D@2@@0@ABV10@D@Z PROC NEAR ; std::operator+<char,std::char_traits<char>,std::allocator<char> >, COMDAT

; 61   : 	{	// return string + character

  00000	55		 push	 ebp
  00001	8b ec		 mov	 ebp, esp
  00003	6a ff		 push	 -1
  00005	68 00 00 00 00	 push	 __ehhandler$??$?HDU?$char_traits@D@std@@V?$allocator@D@1@@std@@YA?AV?$basic_string@DU?$char_traits@D@std@@V?$allocator@D@2@@0@ABV10@D@Z
  0000a	64 a1 00 00 00
	00		 mov	 eax, DWORD PTR fs:__except_list
  00010	50		 push	 eax
  00011	64 89 25 00 00
	00 00		 mov	 DWORD PTR fs:__except_list, esp
  00018	83 ec 28	 sub	 esp, 40			; 00000028H
  0001b	c7 45 d4 00 00
	00 00		 mov	 DWORD PTR $T90307[ebp], 0

; 62   : 	return (basic_string<_Elem, _Traits, _Alloc>(_Left) += _Right);

  00022	8b 45 0c	 mov	 eax, DWORD PTR __Left$[ebp]
  00025	50		 push	 eax
  00026	8d 4d d8	 lea	 ecx, DWORD PTR $T90304[ebp]
  00029	ff 15 00 00 00
	00		 call	 DWORD PTR __imp_??0?$basic_string@DU?$char_traits@D@std@@V?$allocator@D@2@@std@@QAE@ABV01@@Z
  0002f	89 45 d0	 mov	 DWORD PTR tv82[ebp], eax
  00032	8b 4d d0	 mov	 ecx, DWORD PTR tv82[ebp]
  00035	89 4d cc	 mov	 DWORD PTR tv77[ebp], ecx
  00038	c7 45 fc 01 00
	00 00		 mov	 DWORD PTR __$EHRec$[ebp+8], 1
  0003f	8a 55 10	 mov	 dl, BYTE PTR __Right$[ebp]
  00042	52		 push	 edx
  00043	8b 4d cc	 mov	 ecx, DWORD PTR tv77[ebp]
  00046	ff 15 00 00 00
	00		 call	 DWORD PTR __imp_??Y?$basic_string@DU?$char_traits@D@std@@V?$allocator@D@2@@std@@QAEAAV01@D@Z
  0004c	50		 push	 eax
  0004d	8b 4d 08	 mov	 ecx, DWORD PTR ___$ReturnUdt$[ebp]
  00050	ff 15 00 00 00
	00		 call	 DWORD PTR __imp_??0?$basic_string@DU?$char_traits@D@std@@V?$allocator@D@2@@std@@QAE@ABV01@@Z
  00056	8b 45 d4	 mov	 eax, DWORD PTR $T90307[ebp]
  00059	83 c8 01	 or	 eax, 1
  0005c	89 45 d4	 mov	 DWORD PTR $T90307[ebp], eax
  0005f	c6 45 fc 00	 mov	 BYTE PTR __$EHRec$[ebp+8], 0
  00063	8d 4d d8	 lea	 ecx, DWORD PTR $T90304[ebp]
  00066	ff 15 00 00 00
	00		 call	 DWORD PTR __imp_??1?$basic_string@DU?$char_traits@D@std@@V?$allocator@D@2@@std@@QAE@XZ
  0006c	8b 45 08	 mov	 eax, DWORD PTR ___$ReturnUdt$[ebp]

; 63   : 	}

  0006f	8b 4d f4	 mov	 ecx, DWORD PTR __$EHRec$[ebp]
  00072	64 89 0d 00 00
	00 00		 mov	 DWORD PTR fs:__except_list, ecx
  00079	8b e5		 mov	 esp, ebp
  0007b	5d		 pop	 ebp
  0007c	c3		 ret	 0
_TEXT	ENDS
;	COMDAT text$x
text$x	SEGMENT
$L90305:
  00000	8d 4d d8	 lea	 ecx, DWORD PTR $T90304[ebp]
  00003	ff 25 00 00 00
	00		 jmp	 DWORD PTR __imp_??1?$basic_string@DU?$char_traits@D@std@@V?$allocator@D@2@@std@@QAE@XZ
$L90306:
  00009	8b 45 d4	 mov	 eax, DWORD PTR $T90307[ebp]
  0000c	83 e0 01	 and	 eax, 1
  0000f	0f 84 0d 00 00
	00		 je	 $L90308
  00015	83 65 d4 fe	 and	 DWORD PTR $T90307[ebp], -2 ; fffffffeH
  00019	8b 4d 08	 mov	 ecx, DWORD PTR ___$ReturnUdt$[ebp]
  0001c	ff 25 00 00 00
	00		 jmp	 DWORD PTR __imp_??1?$basic_string@DU?$char_traits@D@std@@V?$allocator@D@2@@std@@QAE@XZ
$L90308:
  00022	c3		 ret	 0
__ehhandler$??$?HDU?$char_traits@D@std@@V?$allocator@D@1@@std@@YA?AV?$basic_string@DU?$char_traits@D@std@@V?$allocator@D@2@@0@ABV10@D@Z:
  00023	b8 00 00 00 00	 mov	 eax, OFFSET FLAT:$T90310
  00028	e9 00 00 00 00	 jmp	 ___CxxFrameHandler
text$x	ENDS
??$?HDU?$char_traits@D@std@@V?$allocator@D@1@@std@@YA?AV?$basic_string@DU?$char_traits@D@std@@V?$allocator@D@2@@0@ABV10@D@Z ENDP ; std::operator+<char,std::char_traits<char>,std::allocator<char> >
PUBLIC	??$?H_WU?$char_traits@_W@std@@V?$allocator@_W@1@@std@@YA?AV?$basic_string@_WU?$char_traits@_W@std@@V?$allocator@_W@2@@0@ABV10@0@Z ; std::operator+<wchar_t,std::char_traits<wchar_t>,std::allocator<wchar_t> >
EXTRN	__imp_??0?$basic_string@_WU?$char_traits@_W@std@@V?$allocator@_W@2@@std@@QAE@ABV01@@Z:NEAR
EXTRN	__imp_??1?$basic_string@_WU?$char_traits@_W@std@@V?$allocator@_W@2@@std@@QAE@XZ:NEAR
EXTRN	__imp_??Y?$basic_string@_WU?$char_traits@_W@std@@V?$allocator@_W@2@@std@@QAEAAV01@ABV01@@Z:NEAR
;	COMDAT xdata$x
xdata$x	SEGMENT
$T90325	DD	0ffffffffH
	DD	FLAT:$L90319
	DD	00H
	DD	FLAT:$L90318
$T90323	DD	019930520H
	DD	02H
	DD	FLAT:$T90325
	DD	2 DUP(00H)
	DD	2 DUP(00H)
; Function compile flags: /Odt
xdata$x	ENDS
;	COMDAT ??$?H_WU?$char_traits@_W@std@@V?$allocator@_W@1@@std@@YA?AV?$basic_string@_WU?$char_traits@_W@std@@V?$allocator@_W@2@@0@ABV10@0@Z
_TEXT	SEGMENT
tv77 = -52						; size = 4
tv82 = -48						; size = 4
$T90320 = -44						; size = 4
$T90317 = -40						; size = 28
__$EHRec$ = -12						; size = 12
___$ReturnUdt$ = 8					; size = 4
__Left$ = 12						; size = 4
__Right$ = 16						; size = 4
??$?H_WU?$char_traits@_W@std@@V?$allocator@_W@1@@std@@YA?AV?$basic_string@_WU?$char_traits@_W@std@@V?$allocator@_W@2@@0@ABV10@0@Z PROC NEAR ; std::operator+<wchar_t,std::char_traits<wchar_t>,std::allocator<wchar_t> >, COMDAT

; 21   : 	{	// return string + string

  00000	55		 push	 ebp
  00001	8b ec		 mov	 ebp, esp
  00003	6a ff		 push	 -1
  00005	68 00 00 00 00	 push	 __ehhandler$??$?H_WU?$char_traits@_W@std@@V?$allocator@_W@1@@std@@YA?AV?$basic_string@_WU?$char_traits@_W@std@@V?$allocator@_W@2@@0@ABV10@0@Z
  0000a	64 a1 00 00 00
	00		 mov	 eax, DWORD PTR fs:__except_list
  00010	50		 push	 eax
  00011	64 89 25 00 00
	00 00		 mov	 DWORD PTR fs:__except_list, esp
  00018	83 ec 28	 sub	 esp, 40			; 00000028H
  0001b	c7 45 d4 00 00
	00 00		 mov	 DWORD PTR $T90320[ebp], 0

; 22   : 	return (basic_string<_Elem, _Traits, _Alloc>(_Left) += _Right);

  00022	8b 45 0c	 mov	 eax, DWORD PTR __Left$[ebp]
  00025	50		 push	 eax
  00026	8d 4d d8	 lea	 ecx, DWORD PTR $T90317[ebp]
  00029	ff 15 00 00 00
	00		 call	 DWORD PTR __imp_??0?$basic_string@_WU?$char_traits@_W@std@@V?$allocator@_W@2@@std@@QAE@ABV01@@Z
  0002f	89 45 d0	 mov	 DWORD PTR tv82[ebp], eax
  00032	8b 4d d0	 mov	 ecx, DWORD PTR tv82[ebp]
  00035	89 4d cc	 mov	 DWORD PTR tv77[ebp], ecx
  00038	c7 45 fc 01 00
	00 00		 mov	 DWORD PTR __$EHRec$[ebp+8], 1
  0003f	8b 55 10	 mov	 edx, DWORD PTR __Right$[ebp]
  00042	52		 push	 edx
  00043	8b 4d cc	 mov	 ecx, DWORD PTR tv77[ebp]
  00046	ff 15 00 00 00
	00		 call	 DWORD PTR __imp_??Y?$basic_string@_WU?$char_traits@_W@std@@V?$allocator@_W@2@@std@@QAEAAV01@ABV01@@Z
  0004c	50		 push	 eax
  0004d	8b 4d 08	 mov	 ecx, DWORD PTR ___$ReturnUdt$[ebp]
  00050	ff 15 00 00 00
	00		 call	 DWORD PTR __imp_??0?$basic_string@_WU?$char_traits@_W@std@@V?$allocator@_W@2@@std@@QAE@ABV01@@Z
  00056	8b 45 d4	 mov	 eax, DWORD PTR $T90320[ebp]
  00059	83 c8 01	 or	 eax, 1
  0005c	89 45 d4	 mov	 DWORD PTR $T90320[ebp], eax
  0005f	c6 45 fc 00	 mov	 BYTE PTR __$EHRec$[ebp+8], 0
  00063	8d 4d d8	 lea	 ecx, DWORD PTR $T90317[ebp]
  00066	ff 15 00 00 00
	00		 call	 DWORD PTR __imp_??1?$basic_string@_WU?$char_traits@_W@std@@V?$allocator@_W@2@@std@@QAE@XZ
  0006c	8b 45 08	 mov	 eax, DWORD PTR ___$ReturnUdt$[ebp]

; 23   : 	}

  0006f	8b 4d f4	 mov	 ecx, DWORD PTR __$EHRec$[ebp]
  00072	64 89 0d 00 00
	00 00		 mov	 DWORD PTR fs:__except_list, ecx
  00079	8b e5		 mov	 esp, ebp
  0007b	5d		 pop	 ebp
  0007c	c3		 ret	 0
_TEXT	ENDS
;	COMDAT text$x
text$x	SEGMENT
$L90318:
  00000	8d 4d d8	 lea	 ecx, DWORD PTR $T90317[ebp]
  00003	ff 25 00 00 00
	00		 jmp	 DWORD PTR __imp_??1?$basic_string@_WU?$char_traits@_W@std@@V?$allocator@_W@2@@std@@QAE@XZ
$L90319:
  00009	8b 45 d4	 mov	 eax, DWORD PTR $T90320[ebp]
  0000c	83 e0 01	 and	 eax, 1
  0000f	0f 84 0d 00 00
	00		 je	 $L90321
  00015	83 65 d4 fe	 and	 DWORD PTR $T90320[ebp], -2 ; fffffffeH
  00019	8b 4d 08	 mov	 ecx, DWORD PTR ___$ReturnUdt$[ebp]
  0001c	ff 25 00 00 00
	00		 jmp	 DWORD PTR __imp_??1?$basic_string@_WU?$char_traits@_W@std@@V?$allocator@_W@2@@std@@QAE@XZ
$L90321:
  00022	c3		 ret	 0
__ehhandler$??$?H_WU?$char_traits@_W@std@@V?$allocator@_W@1@@std@@YA?AV?$basic_string@_WU?$char_traits@_W@std@@V?$allocator@_W@2@@0@ABV10@0@Z:
  00023	b8 00 00 00 00	 mov	 eax, OFFSET FLAT:$T90323
  00028	e9 00 00 00 00	 jmp	 ___CxxFrameHandler
text$x	ENDS
??$?H_WU?$char_traits@_W@std@@V?$allocator@_W@1@@std@@YA?AV?$basic_string@_WU?$char_traits@_W@std@@V?$allocator@_W@2@@0@ABV10@0@Z ENDP ; std::operator+<wchar_t,std::char_traits<wchar_t>,std::allocator<wchar_t> >
PUBLIC	??$?H_WU?$char_traits@_W@std@@V?$allocator@_W@1@@std@@YA?AV?$basic_string@_WU?$char_traits@_W@std@@V?$allocator@_W@2@@0@PB_WABV10@@Z ; std::operator+<wchar_t,std::char_traits<wchar_t>,std::allocator<wchar_t> >
EXTRN	__imp_??0?$basic_string@_WU?$char_traits@_W@std@@V?$allocator@_W@2@@std@@QAE@PB_W@Z:NEAR
;	COMDAT xdata$x
xdata$x	SEGMENT
$T90338	DD	0ffffffffH
	DD	FLAT:$L90332
	DD	00H
	DD	FLAT:$L90331
$T90336	DD	019930520H
	DD	02H
	DD	FLAT:$T90338
	DD	2 DUP(00H)
	DD	2 DUP(00H)
; Function compile flags: /Odt
xdata$x	ENDS
;	COMDAT ??$?H_WU?$char_traits@_W@std@@V?$allocator@_W@1@@std@@YA?AV?$basic_string@_WU?$char_traits@_W@std@@V?$allocator@_W@2@@0@PB_WABV10@@Z
_TEXT	SEGMENT
tv77 = -52						; size = 4
tv82 = -48						; size = 4
$T90333 = -44						; size = 4
$T90330 = -40						; size = 28
__$EHRec$ = -12						; size = 12
___$ReturnUdt$ = 8					; size = 4
__Left$ = 12						; size = 4
__Right$ = 16						; size = 4
??$?H_WU?$char_traits@_W@std@@V?$allocator@_W@1@@std@@YA?AV?$basic_string@_WU?$char_traits@_W@std@@V?$allocator@_W@2@@0@PB_WABV10@@Z PROC NEAR ; std::operator+<wchar_t,std::char_traits<wchar_t>,std::allocator<wchar_t> >, COMDAT

; 31   : 	{	// return NTCS + string

  00000	55		 push	 ebp
  00001	8b ec		 mov	 ebp, esp
  00003	6a ff		 push	 -1
  00005	68 00 00 00 00	 push	 __ehhandler$??$?H_WU?$char_traits@_W@std@@V?$allocator@_W@1@@std@@YA?AV?$basic_string@_WU?$char_traits@_W@std@@V?$allocator@_W@2@@0@PB_WABV10@@Z
  0000a	64 a1 00 00 00
	00		 mov	 eax, DWORD PTR fs:__except_list
  00010	50		 push	 eax
  00011	64 89 25 00 00
	00 00		 mov	 DWORD PTR fs:__except_list, esp
  00018	83 ec 28	 sub	 esp, 40			; 00000028H
  0001b	c7 45 d4 00 00
	00 00		 mov	 DWORD PTR $T90333[ebp], 0

; 32   : 	return (basic_string<_Elem, _Traits, _Alloc>(_Left) += _Right);

  00022	8b 45 0c	 mov	 eax, DWORD PTR __Left$[ebp]
  00025	50		 push	 eax
  00026	8d 4d d8	 lea	 ecx, DWORD PTR $T90330[ebp]
  00029	ff 15 00 00 00
	00		 call	 DWORD PTR __imp_??0?$basic_string@_WU?$char_traits@_W@std@@V?$allocator@_W@2@@std@@QAE@PB_W@Z
  0002f	89 45 d0	 mov	 DWORD PTR tv82[ebp], eax
  00032	8b 4d d0	 mov	 ecx, DWORD PTR tv82[ebp]
  00035	89 4d cc	 mov	 DWORD PTR tv77[ebp], ecx
  00038	c7 45 fc 01 00
	00 00		 mov	 DWORD PTR __$EHRec$[ebp+8], 1
  0003f	8b 55 10	 mov	 edx, DWORD PTR __Right$[ebp]
  00042	52		 push	 edx
  00043	8b 4d cc	 mov	 ecx, DWORD PTR tv77[ebp]
  00046	ff 15 00 00 00
	00		 call	 DWORD PTR __imp_??Y?$basic_string@_WU?$char_traits@_W@std@@V?$allocator@_W@2@@std@@QAEAAV01@ABV01@@Z
  0004c	50		 push	 eax
  0004d	8b 4d 08	 mov	 ecx, DWORD PTR ___$ReturnUdt$[ebp]
  00050	ff 15 00 00 00
	00		 call	 DWORD PTR __imp_??0?$basic_string@_WU?$char_traits@_W@std@@V?$allocator@_W@2@@std@@QAE@ABV01@@Z
  00056	8b 45 d4	 mov	 eax, DWORD PTR $T90333[ebp]
  00059	83 c8 01	 or	 eax, 1
  0005c	89 45 d4	 mov	 DWORD PTR $T90333[ebp], eax
  0005f	c6 45 fc 00	 mov	 BYTE PTR __$EHRec$[ebp+8], 0
  00063	8d 4d d8	 lea	 ecx, DWORD PTR $T90330[ebp]
  00066	ff 15 00 00 00
	00		 call	 DWORD PTR __imp_??1?$basic_string@_WU?$char_traits@_W@std@@V?$allocator@_W@2@@std@@QAE@XZ
  0006c	8b 45 08	 mov	 eax, DWORD PTR ___$ReturnUdt$[ebp]

; 33   : 	}

  0006f	8b 4d f4	 mov	 ecx, DWORD PTR __$EHRec$[ebp]
  00072	64 89 0d 00 00
	00 00		 mov	 DWORD PTR fs:__except_list, ecx
  00079	8b e5		 mov	 esp, ebp
  0007b	5d		 pop	 ebp
  0007c	c3		 ret	 0
_TEXT	ENDS
;	COMDAT text$x
text$x	SEGMENT
$L90331:
  00000	8d 4d d8	 lea	 ecx, DWORD PTR $T90330[ebp]
  00003	ff 25 00 00 00
	00		 jmp	 DWORD PTR __imp_??1?$basic_string@_WU?$char_traits@_W@std@@V?$allocator@_W@2@@std@@QAE@XZ
$L90332:
  00009	8b 45 d4	 mov	 eax, DWORD PTR $T90333[ebp]
  0000c	83 e0 01	 and	 eax, 1
  0000f	0f 84 0d 00 00
	00		 je	 $L90334
  00015	83 65 d4 fe	 and	 DWORD PTR $T90333[ebp], -2 ; fffffffeH
  00019	8b 4d 08	 mov	 ecx, DWORD PTR ___$ReturnUdt$[ebp]
  0001c	ff 25 00 00 00
	00		 jmp	 DWORD PTR __imp_??1?$basic_string@_WU?$char_traits@_W@std@@V?$allocator@_W@2@@std@@QAE@XZ
$L90334:
  00022	c3		 ret	 0
__ehhandler$??$?H_WU?$char_traits@_W@std@@V?$allocator@_W@1@@std@@YA?AV?$basic_string@_WU?$char_traits@_W@std@@V?$allocator@_W@2@@0@PB_WABV10@@Z:
  00023	b8 00 00 00 00	 mov	 eax, OFFSET FLAT:$T90336
  00028	e9 00 00 00 00	 jmp	 ___CxxFrameHandler
text$x	ENDS
??$?H_WU?$char_traits@_W@std@@V?$allocator@_W@1@@std@@YA?AV?$basic_string@_WU?$char_traits@_W@std@@V?$allocator@_W@2@@0@PB_WABV10@@Z ENDP ; std::operator+<wchar_t,std::char_traits<wchar_t>,std::allocator<wchar_t> >
PUBLIC	??$?H_WU?$char_traits@_W@std@@V?$allocator@_W@1@@std@@YA?AV?$basic_string@_WU?$char_traits@_W@std@@V?$allocator@_W@2@@0@_WABV10@@Z ; std::operator+<wchar_t,std::char_traits<wchar_t>,std::allocator<wchar_t> >
EXTRN	__imp_??0?$basic_string@_WU?$char_traits@_W@std@@V?$allocator@_W@2@@std@@QAE@I_W@Z:NEAR
;	COMDAT xdata$x
xdata$x	SEGMENT
$T90351	DD	0ffffffffH
	DD	FLAT:$L90345
	DD	00H
	DD	FLAT:$L90344
$T90349	DD	019930520H
	DD	02H
	DD	FLAT:$T90351
	DD	2 DUP(00H)
	DD	2 DUP(00H)
; Function compile flags: /Odt
xdata$x	ENDS
;	COMDAT ??$?H_WU?$char_traits@_W@std@@V?$allocator@_W@1@@std@@YA?AV?$basic_string@_WU?$char_traits@_W@std@@V?$allocator@_W@2@@0@_WABV10@@Z
_TEXT	SEGMENT
tv78 = -52						; size = 4
tv83 = -48						; size = 4
$T90346 = -44						; size = 4
$T90343 = -40						; size = 28
__$EHRec$ = -12						; size = 12
___$ReturnUdt$ = 8					; size = 4
__Left$ = 12						; size = 2
__Right$ = 16						; size = 4
??$?H_WU?$char_traits@_W@std@@V?$allocator@_W@1@@std@@YA?AV?$basic_string@_WU?$char_traits@_W@std@@V?$allocator@_W@2@@0@_WABV10@@Z PROC NEAR ; std::operator+<wchar_t,std::char_traits<wchar_t>,std::allocator<wchar_t> >, COMDAT

; 41   : 	{	// return character + string

  00000	55		 push	 ebp
  00001	8b ec		 mov	 ebp, esp
  00003	6a ff		 push	 -1
  00005	68 00 00 00 00	 push	 __ehhandler$??$?H_WU?$char_traits@_W@std@@V?$allocator@_W@1@@std@@YA?AV?$basic_string@_WU?$char_traits@_W@std@@V?$allocator@_W@2@@0@_WABV10@@Z
  0000a	64 a1 00 00 00
	00		 mov	 eax, DWORD PTR fs:__except_list
  00010	50		 push	 eax
  00011	64 89 25 00 00
	00 00		 mov	 DWORD PTR fs:__except_list, esp
  00018	83 ec 28	 sub	 esp, 40			; 00000028H
  0001b	c7 45 d4 00 00
	00 00		 mov	 DWORD PTR $T90346[ebp], 0

; 42   : 	return (basic_string<_Elem, _Traits, _Alloc>(1, _Left) += _Right);

  00022	66 8b 45 0c	 mov	 ax, WORD PTR __Left$[ebp]
  00026	50		 push	 eax
  00027	6a 01		 push	 1
  00029	8d 4d d8	 lea	 ecx, DWORD PTR $T90343[ebp]
  0002c	ff 15 00 00 00
	00		 call	 DWORD PTR __imp_??0?$basic_string@_WU?$char_traits@_W@std@@V?$allocator@_W@2@@std@@QAE@I_W@Z
  00032	89 45 d0	 mov	 DWORD PTR tv83[ebp], eax
  00035	8b 4d d0	 mov	 ecx, DWORD PTR tv83[ebp]
  00038	89 4d cc	 mov	 DWORD PTR tv78[ebp], ecx
  0003b	c7 45 fc 01 00
	00 00		 mov	 DWORD PTR __$EHRec$[ebp+8], 1
  00042	8b 55 10	 mov	 edx, DWORD PTR __Right$[ebp]
  00045	52		 push	 edx
  00046	8b 4d cc	 mov	 ecx, DWORD PTR tv78[ebp]
  00049	ff 15 00 00 00
	00		 call	 DWORD PTR __imp_??Y?$basic_string@_WU?$char_traits@_W@std@@V?$allocator@_W@2@@std@@QAEAAV01@ABV01@@Z
  0004f	50		 push	 eax
  00050	8b 4d 08	 mov	 ecx, DWORD PTR ___$ReturnUdt$[ebp]
  00053	ff 15 00 00 00
	00		 call	 DWORD PTR __imp_??0?$basic_string@_WU?$char_traits@_W@std@@V?$allocator@_W@2@@std@@QAE@ABV01@@Z
  00059	8b 45 d4	 mov	 eax, DWORD PTR $T90346[ebp]
  0005c	83 c8 01	 or	 eax, 1
  0005f	89 45 d4	 mov	 DWORD PTR $T90346[ebp], eax
  00062	c6 45 fc 00	 mov	 BYTE PTR __$EHRec$[ebp+8], 0
  00066	8d 4d d8	 lea	 ecx, DWORD PTR $T90343[ebp]
  00069	ff 15 00 00 00
	00		 call	 DWORD PTR __imp_??1?$basic_string@_WU?$char_traits@_W@std@@V?$allocator@_W@2@@std@@QAE@XZ
  0006f	8b 45 08	 mov	 eax, DWORD PTR ___$ReturnUdt$[ebp]

; 43   : 	}

  00072	8b 4d f4	 mov	 ecx, DWORD PTR __$EHRec$[ebp]
  00075	64 89 0d 00 00
	00 00		 mov	 DWORD PTR fs:__except_list, ecx
  0007c	8b e5		 mov	 esp, ebp
  0007e	5d		 pop	 ebp
  0007f	c3		 ret	 0
_TEXT	ENDS
;	COMDAT text$x
text$x	SEGMENT
$L90344:
  00000	8d 4d d8	 lea	 ecx, DWORD PTR $T90343[ebp]
  00003	ff 25 00 00 00
	00		 jmp	 DWORD PTR __imp_??1?$basic_string@_WU?$char_traits@_W@std@@V?$allocator@_W@2@@std@@QAE@XZ
$L90345:
  00009	8b 45 d4	 mov	 eax, DWORD PTR $T90346[ebp]
  0000c	83 e0 01	 and	 eax, 1
  0000f	0f 84 0d 00 00
	00		 je	 $L90347
  00015	83 65 d4 fe	 and	 DWORD PTR $T90346[ebp], -2 ; fffffffeH
  00019	8b 4d 08	 mov	 ecx, DWORD PTR ___$ReturnUdt$[ebp]
  0001c	ff 25 00 00 00
	00		 jmp	 DWORD PTR __imp_??1?$basic_string@_WU?$char_traits@_W@std@@V?$allocator@_W@2@@std@@QAE@XZ
$L90347:
  00022	c3		 ret	 0
__ehhandler$??$?H_WU?$char_traits@_W@std@@V?$allocator@_W@1@@std@@YA?AV?$basic_string@_WU?$char_traits@_W@std@@V?$allocator@_W@2@@0@_WABV10@@Z:
  00023	b8 00 00 00 00	 mov	 eax, OFFSET FLAT:$T90349
  00028	e9 00 00 00 00	 jmp	 ___CxxFrameHandler
text$x	ENDS
??$?H_WU?$char_traits@_W@std@@V?$allocator@_W@1@@std@@YA?AV?$basic_string@_WU?$char_traits@_W@std@@V?$allocator@_W@2@@0@_WABV10@@Z ENDP ; std::operator+<wchar_t,std::char_traits<wchar_t>,std::allocator<wchar_t> >
PUBLIC	??$?H_WU?$char_traits@_W@std@@V?$allocator@_W@1@@std@@YA?AV?$basic_string@_WU?$char_traits@_W@std@@V?$allocator@_W@2@@0@ABV10@PB_W@Z ; std::operator+<wchar_t,std::char_traits<wchar_t>,std::allocator<wchar_t> >
EXTRN	__imp_??Y?$basic_string@_WU?$char_traits@_W@std@@V?$allocator@_W@2@@std@@QAEAAV01@PB_W@Z:NEAR
;	COMDAT xdata$x
xdata$x	SEGMENT
$T90364	DD	0ffffffffH
	DD	FLAT:$L90358
	DD	00H
	DD	FLAT:$L90357
$T90362	DD	019930520H
	DD	02H
	DD	FLAT:$T90364
	DD	2 DUP(00H)
	DD	2 DUP(00H)
; Function compile flags: /Odt
xdata$x	ENDS
;	COMDAT ??$?H_WU?$char_traits@_W@std@@V?$allocator@_W@1@@std@@YA?AV?$basic_string@_WU?$char_traits@_W@std@@V?$allocator@_W@2@@0@ABV10@PB_W@Z
_TEXT	SEGMENT
tv77 = -52						; size = 4
tv82 = -48						; size = 4
$T90359 = -44						; size = 4
$T90356 = -40						; size = 28
__$EHRec$ = -12						; size = 12
___$ReturnUdt$ = 8					; size = 4
__Left$ = 12						; size = 4
__Right$ = 16						; size = 4
??$?H_WU?$char_traits@_W@std@@V?$allocator@_W@1@@std@@YA?AV?$basic_string@_WU?$char_traits@_W@std@@V?$allocator@_W@2@@0@ABV10@PB_W@Z PROC NEAR ; std::operator+<wchar_t,std::char_traits<wchar_t>,std::allocator<wchar_t> >, COMDAT

; 51   : 	{	// return string + NTCS

  00000	55		 push	 ebp
  00001	8b ec		 mov	 ebp, esp
  00003	6a ff		 push	 -1
  00005	68 00 00 00 00	 push	 __ehhandler$??$?H_WU?$char_traits@_W@std@@V?$allocator@_W@1@@std@@YA?AV?$basic_string@_WU?$char_traits@_W@std@@V?$allocator@_W@2@@0@ABV10@PB_W@Z
  0000a	64 a1 00 00 00
	00		 mov	 eax, DWORD PTR fs:__except_list
  00010	50		 push	 eax
  00011	64 89 25 00 00
	00 00		 mov	 DWORD PTR fs:__except_list, esp
  00018	83 ec 28	 sub	 esp, 40			; 00000028H
  0001b	c7 45 d4 00 00
	00 00		 mov	 DWORD PTR $T90359[ebp], 0

; 52   : 	return (basic_string<_Elem, _Traits, _Alloc>(_Left) += _Right);

  00022	8b 45 0c	 mov	 eax, DWORD PTR __Left$[ebp]
  00025	50		 push	 eax
  00026	8d 4d d8	 lea	 ecx, DWORD PTR $T90356[ebp]
  00029	ff 15 00 00 00
	00		 call	 DWORD PTR __imp_??0?$basic_string@_WU?$char_traits@_W@std@@V?$allocator@_W@2@@std@@QAE@ABV01@@Z
  0002f	89 45 d0	 mov	 DWORD PTR tv82[ebp], eax
  00032	8b 4d d0	 mov	 ecx, DWORD PTR tv82[ebp]
  00035	89 4d cc	 mov	 DWORD PTR tv77[ebp], ecx
  00038	c7 45 fc 01 00
	00 00		 mov	 DWORD PTR __$EHRec$[ebp+8], 1
  0003f	8b 55 10	 mov	 edx, DWORD PTR __Right$[ebp]
  00042	52		 push	 edx
  00043	8b 4d cc	 mov	 ecx, DWORD PTR tv77[ebp]
  00046	ff 15 00 00 00
	00		 call	 DWORD PTR __imp_??Y?$basic_string@_WU?$char_traits@_W@std@@V?$allocator@_W@2@@std@@QAEAAV01@PB_W@Z
  0004c	50		 push	 eax
  0004d	8b 4d 08	 mov	 ecx, DWORD PTR ___$ReturnUdt$[ebp]
  00050	ff 15 00 00 00
	00		 call	 DWORD PTR __imp_??0?$basic_string@_WU?$char_traits@_W@std@@V?$allocator@_W@2@@std@@QAE@ABV01@@Z
  00056	8b 45 d4	 mov	 eax, DWORD PTR $T90359[ebp]
  00059	83 c8 01	 or	 eax, 1
  0005c	89 45 d4	 mov	 DWORD PTR $T90359[ebp], eax
  0005f	c6 45 fc 00	 mov	 BYTE PTR __$EHRec$[ebp+8], 0
  00063	8d 4d d8	 lea	 ecx, DWORD PTR $T90356[ebp]
  00066	ff 15 00 00 00
	00		 call	 DWORD PTR __imp_??1?$basic_string@_WU?$char_traits@_W@std@@V?$allocator@_W@2@@std@@QAE@XZ
  0006c	8b 45 08	 mov	 eax, DWORD PTR ___$ReturnUdt$[ebp]

; 53   : 	}

  0006f	8b 4d f4	 mov	 ecx, DWORD PTR __$EHRec$[ebp]
  00072	64 89 0d 00 00
	00 00		 mov	 DWORD PTR fs:__except_list, ecx
  00079	8b e5		 mov	 esp, ebp
  0007b	5d		 pop	 ebp
  0007c	c3		 ret	 0
_TEXT	ENDS
;	COMDAT text$x
text$x	SEGMENT
$L90357:
  00000	8d 4d d8	 lea	 ecx, DWORD PTR $T90356[ebp]
  00003	ff 25 00 00 00
	00		 jmp	 DWORD PTR __imp_??1?$basic_string@_WU?$char_traits@_W@std@@V?$allocator@_W@2@@std@@QAE@XZ
$L90358:
  00009	8b 45 d4	 mov	 eax, DWORD PTR $T90359[ebp]
  0000c	83 e0 01	 and	 eax, 1
  0000f	0f 84 0d 00 00
	00		 je	 $L90360
  00015	83 65 d4 fe	 and	 DWORD PTR $T90359[ebp], -2 ; fffffffeH
  00019	8b 4d 08	 mov	 ecx, DWORD PTR ___$ReturnUdt$[ebp]
  0001c	ff 25 00 00 00
	00		 jmp	 DWORD PTR __imp_??1?$basic_string@_WU?$char_traits@_W@std@@V?$allocator@_W@2@@std@@QAE@XZ
$L90360:
  00022	c3		 ret	 0
__ehhandler$??$?H_WU?$char_traits@_W@std@@V?$allocator@_W@1@@std@@YA?AV?$basic_string@_WU?$char_traits@_W@std@@V?$allocator@_W@2@@0@ABV10@PB_W@Z:
  00023	b8 00 00 00 00	 mov	 eax, OFFSET FLAT:$T90362
  00028	e9 00 00 00 00	 jmp	 ___CxxFrameHandler
text$x	ENDS
??$?H_WU?$char_traits@_W@std@@V?$allocator@_W@1@@std@@YA?AV?$basic_string@_WU?$char_traits@_W@std@@V?$allocator@_W@2@@0@ABV10@PB_W@Z ENDP ; std::operator+<wchar_t,std::char_traits<wchar_t>,std::allocator<wchar_t> >
PUBLIC	??$?H_WU?$char_traits@_W@std@@V?$allocator@_W@1@@std@@YA?AV?$basic_string@_WU?$char_traits@_W@std@@V?$allocator@_W@2@@0@ABV10@_W@Z ; std::operator+<wchar_t,std::char_traits<wchar_t>,std::allocator<wchar_t> >
EXTRN	__imp_??Y?$basic_string@_WU?$char_traits@_W@std@@V?$allocator@_W@2@@std@@QAEAAV01@_W@Z:NEAR
;	COMDAT xdata$x
xdata$x	SEGMENT
$T90377	DD	0ffffffffH
	DD	FLAT:$L90371
	DD	00H
	DD	FLAT:$L90370
$T90375	DD	019930520H
	DD	02H
	DD	FLAT:$T90377
	DD	2 DUP(00H)
	DD	2 DUP(00H)
; Function compile flags: /Odt
xdata$x	ENDS
;	COMDAT ??$?H_WU?$char_traits@_W@std@@V?$allocator@_W@1@@std@@YA?AV?$basic_string@_WU?$char_traits@_W@std@@V?$allocator@_W@2@@0@ABV10@_W@Z
_TEXT	SEGMENT
tv77 = -52						; size = 4
tv82 = -48						; size = 4
$T90372 = -44						; size = 4
$T90369 = -40						; size = 28
__$EHRec$ = -12						; size = 12
___$ReturnUdt$ = 8					; size = 4
__Left$ = 12						; size = 4
__Right$ = 16						; size = 2
??$?H_WU?$char_traits@_W@std@@V?$allocator@_W@1@@std@@YA?AV?$basic_string@_WU?$char_traits@_W@std@@V?$allocator@_W@2@@0@ABV10@_W@Z PROC NEAR ; std::operator+<wchar_t,std::char_traits<wchar_t>,std::allocator<wchar_t> >, COMDAT

; 61   : 	{	// return string + character

  00000	55		 push	 ebp
  00001	8b ec		 mov	 ebp, esp
  00003	6a ff		 push	 -1
  00005	68 00 00 00 00	 push	 __ehhandler$??$?H_WU?$char_traits@_W@std@@V?$allocator@_W@1@@std@@YA?AV?$basic_string@_WU?$char_traits@_W@std@@V?$allocator@_W@2@@0@ABV10@_W@Z
  0000a	64 a1 00 00 00
	00		 mov	 eax, DWORD PTR fs:__except_list
  00010	50		 push	 eax
  00011	64 89 25 00 00
	00 00		 mov	 DWORD PTR fs:__except_list, esp
  00018	83 ec 28	 sub	 esp, 40			; 00000028H
  0001b	c7 45 d4 00 00
	00 00		 mov	 DWORD PTR $T90372[ebp], 0

; 62   : 	return (basic_string<_Elem, _Traits, _Alloc>(_Left) += _Right);

  00022	8b 45 0c	 mov	 eax, DWORD PTR __Left$[ebp]
  00025	50		 push	 eax
  00026	8d 4d d8	 lea	 ecx, DWORD PTR $T90369[ebp]
  00029	ff 15 00 00 00
	00		 call	 DWORD PTR __imp_??0?$basic_string@_WU?$char_traits@_W@std@@V?$allocator@_W@2@@std@@QAE@ABV01@@Z
  0002f	89 45 d0	 mov	 DWORD PTR tv82[ebp], eax
  00032	8b 4d d0	 mov	 ecx, DWORD PTR tv82[ebp]
  00035	89 4d cc	 mov	 DWORD PTR tv77[ebp], ecx
  00038	c7 45 fc 01 00
	00 00		 mov	 DWORD PTR __$EHRec$[ebp+8], 1
  0003f	66 8b 55 10	 mov	 dx, WORD PTR __Right$[ebp]
  00043	52		 push	 edx
  00044	8b 4d cc	 mov	 ecx, DWORD PTR tv77[ebp]
  00047	ff 15 00 00 00
	00		 call	 DWORD PTR __imp_??Y?$basic_string@_WU?$char_traits@_W@std@@V?$allocator@_W@2@@std@@QAEAAV01@_W@Z
  0004d	50		 push	 eax
  0004e	8b 4d 08	 mov	 ecx, DWORD PTR ___$ReturnUdt$[ebp]
  00051	ff 15 00 00 00
	00		 call	 DWORD PTR __imp_??0?$basic_string@_WU?$char_traits@_W@std@@V?$allocator@_W@2@@std@@QAE@ABV01@@Z
  00057	8b 45 d4	 mov	 eax, DWORD PTR $T90372[ebp]
  0005a	83 c8 01	 or	 eax, 1
  0005d	89 45 d4	 mov	 DWORD PTR $T90372[ebp], eax
  00060	c6 45 fc 00	 mov	 BYTE PTR __$EHRec$[ebp+8], 0
  00064	8d 4d d8	 lea	 ecx, DWORD PTR $T90369[ebp]
  00067	ff 15 00 00 00
	00		 call	 DWORD PTR __imp_??1?$basic_string@_WU?$char_traits@_W@std@@V?$allocator@_W@2@@std@@QAE@XZ
  0006d	8b 45 08	 mov	 eax, DWORD PTR ___$ReturnUdt$[ebp]

; 63   : 	}

  00070	8b 4d f4	 mov	 ecx, DWORD PTR __$EHRec$[ebp]
  00073	64 89 0d 00 00
	00 00		 mov	 DWORD PTR fs:__except_list, ecx
  0007a	8b e5		 mov	 esp, ebp
  0007c	5d		 pop	 ebp
  0007d	c3		 ret	 0
_TEXT	ENDS
;	COMDAT text$x
text$x	SEGMENT
$L90370:
  00000	8d 4d d8	 lea	 ecx, DWORD PTR $T90369[ebp]
  00003	ff 25 00 00 00
	00		 jmp	 DWORD PTR __imp_??1?$basic_string@_WU?$char_traits@_W@std@@V?$allocator@_W@2@@std@@QAE@XZ
$L90371:
  00009	8b 45 d4	 mov	 eax, DWORD PTR $T90372[ebp]
  0000c	83 e0 01	 and	 eax, 1
  0000f	0f 84 0d 00 00
	00		 je	 $L90373
  00015	83 65 d4 fe	 and	 DWORD PTR $T90372[ebp], -2 ; fffffffeH
  00019	8b 4d 08	 mov	 ecx, DWORD PTR ___$ReturnUdt$[ebp]
  0001c	ff 25 00 00 00
	00		 jmp	 DWORD PTR __imp_??1?$basic_string@_WU?$char_traits@_W@std@@V?$allocator@_W@2@@std@@QAE@XZ
$L90373:
  00022	c3		 ret	 0
__ehhandler$??$?H_WU?$char_traits@_W@std@@V?$allocator@_W@1@@std@@YA?AV?$basic_string@_WU?$char_traits@_W@std@@V?$allocator@_W@2@@0@ABV10@_W@Z:
  00023	b8 00 00 00 00	 mov	 eax, OFFSET FLAT:$T90375
  00028	e9 00 00 00 00	 jmp	 ___CxxFrameHandler
text$x	ENDS
??$?H_WU?$char_traits@_W@std@@V?$allocator@_W@1@@std@@YA?AV?$basic_string@_WU?$char_traits@_W@std@@V?$allocator@_W@2@@0@ABV10@_W@Z ENDP ; std::operator+<wchar_t,std::char_traits<wchar_t>,std::allocator<wchar_t> >
PUBLIC	??$use_facet@V?$ctype@D@std@@@std@@YAABV?$ctype@D@0@ABVlocale@0@@Z ; std::use_facet<std::ctype<char> >
PUBLIC	??0sentry@?$basic_istream@DU?$char_traits@D@std@@@std@@QAE@AAV12@_N@Z ; std::basic_istream<char,std::char_traits<char> >::sentry::sentry
PUBLIC	??Bsentry@?$basic_istream@DU?$char_traits@D@std@@@std@@QBE_NXZ ; std::basic_istream<char,std::char_traits<char> >::sentry::operator bool
PUBLIC	??1sentry@?$basic_istream@DU?$char_traits@D@std@@@std@@QAE@XZ ; std::basic_istream<char,std::char_traits<char> >::sentry::~sentry
PUBLIC	??$?5DU?$char_traits@D@std@@V?$allocator@D@1@@std@@YAAAV?$basic_istream@DU?$char_traits@D@std@@@0@AAV10@AAV?$basic_string@DU?$char_traits@D@std@@V?$allocator@D@2@@0@@Z ; std::operator>><char,std::char_traits<char>,std::allocator<char> >
EXTRN	__imp_?max_size@?$basic_string@DU?$char_traits@D@std@@V?$allocator@D@2@@std@@QBEIXZ:NEAR
EXTRN	__imp_?is@?$ctype@D@std@@QBE_NFD@Z:NEAR
EXTRN	__imp_?to_char_type@?$char_traits@D@std@@SADABH@Z:NEAR
EXTRN	__imp_?eq_int_type@?$char_traits@D@std@@SA_NABH0@Z:NEAR
EXTRN	__imp_?eof@?$char_traits@D@std@@SAHXZ:NEAR
EXTRN	__imp_?sgetc@?$basic_streambuf@DU?$char_traits@D@std@@@std@@QAEHXZ:NEAR
EXTRN	__imp_?snextc@?$basic_streambuf@DU?$char_traits@D@std@@@std@@QAEHXZ:NEAR
EXTRN	__imp_??1locale@std@@QAE@XZ:NEAR
EXTRN	__imp_?setstate@?$basic_ios@DU?$char_traits@D@std@@@std@@QAEXH_N@Z:NEAR
EXTRN	__imp_?rdbuf@?$basic_ios@DU?$char_traits@D@std@@@std@@QBEPAV?$basic_streambuf@DU?$char_traits@D@std@@@2@XZ:NEAR
EXTRN	__imp_?npos@?$basic_string@DU?$char_traits@D@std@@V?$allocator@D@2@@std@@2IB:DWORD
EXTRN	__imp_?width@ios_base@std@@QBEHXZ:NEAR
EXTRN	__imp_?width@ios_base@std@@QAEHH@Z:NEAR
EXTRN	__imp_?getloc@ios_base@std@@QBE?AVlocale@2@XZ:NEAR
EXTRN	__imp_?append@?$basic_string@DU?$char_traits@D@std@@V?$allocator@D@2@@std@@QAEAAV12@ID@Z:NEAR
EXTRN	__imp_?erase@?$basic_string@DU?$char_traits@D@std@@V?$allocator@D@2@@std@@QAEAAV12@II@Z:NEAR
;	COMDAT xdata$x
xdata$x	SEGMENT
$T90394	DD	0ffffffffH
	DD	FLAT:$L90389
	DD	00H
	DD	FLAT:$L90390
	DD	00H
	DD	00H
	DD	00H
	DD	00H
$T90396	DD	00H
	DD	00H
	DD	00H
	DD	FLAT:$L90388
$T90395	DD	02H
	DD	02H
	DD	03H
	DD	01H
	DD	FLAT:$T90396
$T90392	DD	019930520H
	DD	04H
	DD	FLAT:$T90394
	DD	01H
	DD	FLAT:$T90395
	DD	2 DUP(00H)
; Function compile flags: /Odt
xdata$x	ENDS
;	COMDAT ??$?5DU?$char_traits@D@std@@V?$allocator@D@1@@std@@YAAAV?$basic_istream@DU?$char_traits@D@std@@@0@AAV10@AAV?$basic_string@DU?$char_traits@D@std@@V?$allocator@D@2@@0@@Z
_TEXT	SEGMENT
tv205 = -112						; size = 1
tv204 = -111						; size = 1
tv203 = -110						; size = 1
tv202 = -109						; size = 1
tv201 = -108						; size = 4
tv200 = -104						; size = 4
tv199 = -100						; size = 4
tv198 = -96						; size = 4
tv197 = -92						; size = 4
tv196 = -88						; size = 4
tv135 = -84						; size = 4
tv195 = -80						; size = 4
tv194 = -76						; size = 4
tv193 = -72						; size = 4
tv192 = -68						; size = 4
tv189 = -64						; size = 4
tv65 = -60						; size = 4
$T90386 = -56						; size = 4
$T90385 = -52						; size = 4
$T90382 = -48						; size = 4
__Meta$87705 = -44					; size = 4
__Size$87702 = -40					; size = 4
__Ctype_fac$87699 = -36					; size = 4
__Changed$ = -29					; size = 1
__Ok$ = -28						; size = 8
__State$ = -20						; size = 4
__$EHRec$ = -16						; size = 16
__Istr$ = 8						; size = 4
__Str$ = 12						; size = 4
??$?5DU?$char_traits@D@std@@V?$allocator@D@1@@std@@YAAAV?$basic_istream@DU?$char_traits@D@std@@@0@AAV10@AAV?$basic_string@DU?$char_traits@D@std@@V?$allocator@D@2@@0@@Z PROC NEAR ; std::operator>><char,std::char_traits<char>,std::allocator<char> >, COMDAT

; 425  : 	{	// extract a string

  00000	55		 push	 ebp
  00001	8b ec		 mov	 ebp, esp
  00003	6a ff		 push	 -1
  00005	68 00 00 00 00	 push	 __ehhandler$??$?5DU?$char_traits@D@std@@V?$allocator@D@1@@std@@YAAAV?$basic_istream@DU?$char_traits@D@std@@@0@AAV10@AAV?$basic_string@DU?$char_traits@D@std@@V?$allocator@D@2@@0@@Z
  0000a	64 a1 00 00 00
	00		 mov	 eax, DWORD PTR fs:__except_list
  00010	50		 push	 eax
  00011	64 89 25 00 00
	00 00		 mov	 DWORD PTR fs:__except_list, esp
  00018	51		 push	 ecx
  00019	83 ec 60	 sub	 esp, 96			; 00000060H
  0001c	53		 push	 ebx
  0001d	56		 push	 esi
  0001e	57		 push	 edi
  0001f	89 65 f0	 mov	 DWORD PTR __$EHRec$[ebp], esp

; 426  : 	typedef ctype<_Elem> _Ctype;
; 427  : 	typedef basic_istream<_Elem, _Traits> _Myis;
; 428  : 	typedef basic_string<_Elem, _Traits, _Alloc> _Mystr;
; 429  : 	typedef typename _Mystr::size_type _Mysizt;
; 430  : 
; 431  : 	ios_base::iostate _State = ios_base::goodbit;

  00022	c7 45 ec 00 00
	00 00		 mov	 DWORD PTR __State$[ebp], 0

; 432  : 	bool _Changed = false;

  00029	c6 45 e3 00	 mov	 BYTE PTR __Changed$[ebp], 0

; 433  : 	const typename _Myis::sentry _Ok(_Istr);

  0002d	6a 00		 push	 0
  0002f	8b 45 08	 mov	 eax, DWORD PTR __Istr$[ebp]
  00032	50		 push	 eax
  00033	8d 4d e4	 lea	 ecx, DWORD PTR __Ok$[ebp]
  00036	e8 00 00 00 00	 call	 ??0sentry@?$basic_istream@DU?$char_traits@D@std@@@std@@QAE@AAV12@_N@Z ; std::basic_istream<char,std::char_traits<char> >::sentry::sentry
  0003b	c7 45 fc 00 00
	00 00		 mov	 DWORD PTR __$EHRec$[ebp+12], 0

; 434  : 
; 435  : 	if (_Ok)

  00042	8d 4d e4	 lea	 ecx, DWORD PTR __Ok$[ebp]
  00045	e8 00 00 00 00	 call	 ??Bsentry@?$basic_istream@DU?$char_traits@D@std@@@std@@QBE_NXZ ; std::basic_istream<char,std::char_traits<char> >::sentry::operator bool
  0004a	0f b6 c8	 movzx	 ecx, al
  0004d	85 c9		 test	 ecx, ecx
  0004f	0f 84 dc 01 00
	00		 je	 $L90387

; 436  : 		{	// state okay, extract characters
; 437  : 		const _Ctype& _Ctype_fac = _USE(_Istr.getloc(), _Ctype);

  00055	8d 55 d0	 lea	 edx, DWORD PTR $T90382[ebp]
  00058	52		 push	 edx
  00059	8b 45 08	 mov	 eax, DWORD PTR __Istr$[ebp]
  0005c	8b 08		 mov	 ecx, DWORD PTR [eax]
  0005e	8b 55 08	 mov	 edx, DWORD PTR __Istr$[ebp]
  00061	03 51 04	 add	 edx, DWORD PTR [ecx+4]
  00064	8b ca		 mov	 ecx, edx
  00066	ff 15 00 00 00
	00		 call	 DWORD PTR __imp_?getloc@ios_base@std@@QBE?AVlocale@2@XZ
  0006c	89 45 c4	 mov	 DWORD PTR tv65[ebp], eax
  0006f	8b 45 c4	 mov	 eax, DWORD PTR tv65[ebp]
  00072	89 45 c0	 mov	 DWORD PTR tv189[ebp], eax
  00075	c6 45 fc 01	 mov	 BYTE PTR __$EHRec$[ebp+12], 1
  00079	8b 4d c0	 mov	 ecx, DWORD PTR tv189[ebp]
  0007c	51		 push	 ecx
  0007d	e8 00 00 00 00	 call	 ??$use_facet@V?$ctype@D@std@@@std@@YAABV?$ctype@D@0@ABVlocale@0@@Z ; std::use_facet<std::ctype<char> >
  00082	83 c4 04	 add	 esp, 4
  00085	89 45 dc	 mov	 DWORD PTR __Ctype_fac$87699[ebp], eax
  00088	c6 45 fc 00	 mov	 BYTE PTR __$EHRec$[ebp+12], 0
  0008c	8d 4d d0	 lea	 ecx, DWORD PTR $T90382[ebp]
  0008f	ff 15 00 00 00
	00		 call	 DWORD PTR __imp_??1locale@std@@QAE@XZ

; 438  : 		_Str.erase();

  00095	8b 15 00 00 00
	00		 mov	 edx, DWORD PTR __imp_?npos@?$basic_string@DU?$char_traits@D@std@@V?$allocator@D@2@@std@@2IB
  0009b	8b 02		 mov	 eax, DWORD PTR [edx]
  0009d	50		 push	 eax
  0009e	6a 00		 push	 0
  000a0	8b 4d 0c	 mov	 ecx, DWORD PTR __Str$[ebp]
  000a3	ff 15 00 00 00
	00		 call	 DWORD PTR __imp_?erase@?$basic_string@DU?$char_traits@D@std@@V?$allocator@D@2@@std@@QAEAAV12@II@Z

; 439  : 
; 440  : 		_TRY_IO_BEGIN

  000a9	c6 45 fc 02	 mov	 BYTE PTR __$EHRec$[ebp+12], 2

; 441  : 		_Mysizt _Size = 0 < _Istr.width()
; 442  : 			&& (_Mysizt)_Istr.width() < _Str.max_size()
; 443  : 				? (_Mysizt)_Istr.width() : _Str.max_size();

  000ad	8b 4d 08	 mov	 ecx, DWORD PTR __Istr$[ebp]
  000b0	8b 11		 mov	 edx, DWORD PTR [ecx]
  000b2	8b 4d 08	 mov	 ecx, DWORD PTR __Istr$[ebp]
  000b5	03 4a 04	 add	 ecx, DWORD PTR [edx+4]
  000b8	ff 15 00 00 00
	00		 call	 DWORD PTR __imp_?width@ios_base@std@@QBEHXZ
  000be	89 45 bc	 mov	 DWORD PTR tv192[ebp], eax
  000c1	83 7d bc 00	 cmp	 DWORD PTR tv192[ebp], 0
  000c5	7e 46		 jle	 SHORT $L90383
  000c7	8b 45 08	 mov	 eax, DWORD PTR __Istr$[ebp]
  000ca	8b 08		 mov	 ecx, DWORD PTR [eax]
  000cc	8b 55 08	 mov	 edx, DWORD PTR __Istr$[ebp]
  000cf	03 51 04	 add	 edx, DWORD PTR [ecx+4]
  000d2	8b ca		 mov	 ecx, edx
  000d4	ff 15 00 00 00
	00		 call	 DWORD PTR __imp_?width@ios_base@std@@QBEHXZ
  000da	89 45 b8	 mov	 DWORD PTR tv193[ebp], eax
  000dd	8b 4d 0c	 mov	 ecx, DWORD PTR __Str$[ebp]
  000e0	ff 15 00 00 00
	00		 call	 DWORD PTR __imp_?max_size@?$basic_string@DU?$char_traits@D@std@@V?$allocator@D@2@@std@@QBEIXZ
  000e6	89 45 b4	 mov	 DWORD PTR tv194[ebp], eax
  000e9	8b 45 b8	 mov	 eax, DWORD PTR tv193[ebp]
  000ec	3b 45 b4	 cmp	 eax, DWORD PTR tv194[ebp]
  000ef	73 1c		 jae	 SHORT $L90383
  000f1	8b 4d 08	 mov	 ecx, DWORD PTR __Istr$[ebp]
  000f4	8b 11		 mov	 edx, DWORD PTR [ecx]
  000f6	8b 4d 08	 mov	 ecx, DWORD PTR __Istr$[ebp]
  000f9	03 4a 04	 add	 ecx, DWORD PTR [edx+4]
  000fc	ff 15 00 00 00
	00		 call	 DWORD PTR __imp_?width@ios_base@std@@QBEHXZ
  00102	89 45 b0	 mov	 DWORD PTR tv195[ebp], eax
  00105	8b 45 b0	 mov	 eax, DWORD PTR tv195[ebp]
  00108	89 45 ac	 mov	 DWORD PTR tv135[ebp], eax
  0010b	eb 12		 jmp	 SHORT $L90384
$L90383:
  0010d	8b 4d 0c	 mov	 ecx, DWORD PTR __Str$[ebp]
  00110	ff 15 00 00 00
	00		 call	 DWORD PTR __imp_?max_size@?$basic_string@DU?$char_traits@D@std@@V?$allocator@D@2@@std@@QBEIXZ
  00116	89 45 a8	 mov	 DWORD PTR tv196[ebp], eax
  00119	8b 4d a8	 mov	 ecx, DWORD PTR tv196[ebp]
  0011c	89 4d ac	 mov	 DWORD PTR tv135[ebp], ecx
$L90384:
  0011f	8b 55 ac	 mov	 edx, DWORD PTR tv135[ebp]
  00122	89 55 d8	 mov	 DWORD PTR __Size$87702[ebp], edx

; 444  : 		typename _Traits::int_type _Meta = _Istr.rdbuf()->sgetc();

  00125	8b 45 08	 mov	 eax, DWORD PTR __Istr$[ebp]
  00128	8b 08		 mov	 ecx, DWORD PTR [eax]
  0012a	8b 55 08	 mov	 edx, DWORD PTR __Istr$[ebp]
  0012d	03 51 04	 add	 edx, DWORD PTR [ecx+4]
  00130	8b ca		 mov	 ecx, edx
  00132	ff 15 00 00 00
	00		 call	 DWORD PTR __imp_?rdbuf@?$basic_ios@DU?$char_traits@D@std@@@std@@QBEPAV?$basic_streambuf@DU?$char_traits@D@std@@@2@XZ
  00138	89 45 a4	 mov	 DWORD PTR tv197[ebp], eax
  0013b	8b 4d a4	 mov	 ecx, DWORD PTR tv197[ebp]
  0013e	ff 15 00 00 00
	00		 call	 DWORD PTR __imp_?sgetc@?$basic_streambuf@DU?$char_traits@D@std@@@std@@QAEHXZ
  00144	89 45 a0	 mov	 DWORD PTR tv198[ebp], eax
  00147	8b 45 a0	 mov	 eax, DWORD PTR tv198[ebp]
  0014a	89 45 d4	 mov	 DWORD PTR __Meta$87705[ebp], eax

; 445  : 
; 446  : 		for (; 0 < _Size; --_Size, _Meta = _Istr.rdbuf()->snextc())

  0014d	eb 2f		 jmp	 SHORT $L87706
$L87707:
  0014f	8b 4d d8	 mov	 ecx, DWORD PTR __Size$87702[ebp]
  00152	83 e9 01	 sub	 ecx, 1
  00155	89 4d d8	 mov	 DWORD PTR __Size$87702[ebp], ecx
  00158	8b 55 08	 mov	 edx, DWORD PTR __Istr$[ebp]
  0015b	8b 02		 mov	 eax, DWORD PTR [edx]
  0015d	8b 4d 08	 mov	 ecx, DWORD PTR __Istr$[ebp]
  00160	03 48 04	 add	 ecx, DWORD PTR [eax+4]
  00163	ff 15 00 00 00
	00		 call	 DWORD PTR __imp_?rdbuf@?$basic_ios@DU?$char_traits@D@std@@@std@@QBEPAV?$basic_streambuf@DU?$char_traits@D@std@@@2@XZ
  00169	89 45 9c	 mov	 DWORD PTR tv199[ebp], eax
  0016c	8b 4d 9c	 mov	 ecx, DWORD PTR tv199[ebp]
  0016f	ff 15 00 00 00
	00		 call	 DWORD PTR __imp_?snextc@?$basic_streambuf@DU?$char_traits@D@std@@@std@@QAEHXZ
  00175	89 45 98	 mov	 DWORD PTR tv200[ebp], eax
  00178	8b 4d 98	 mov	 ecx, DWORD PTR tv200[ebp]
  0017b	89 4d d4	 mov	 DWORD PTR __Meta$87705[ebp], ecx
$L87706:
  0017e	83 7d d8 00	 cmp	 DWORD PTR __Size$87702[ebp], 0
  00182	0f 86 8a 00 00
	00		 jbe	 $L87708

; 447  : 			if(_Traits::eq_int_type(_Traits::eof(), _Meta))

  00188	ff 15 00 00 00
	00		 call	 DWORD PTR __imp_?eof@?$char_traits@D@std@@SAHXZ
  0018e	89 45 94	 mov	 DWORD PTR tv201[ebp], eax
  00191	8b 55 94	 mov	 edx, DWORD PTR tv201[ebp]
  00194	89 55 cc	 mov	 DWORD PTR $T90385[ebp], edx
  00197	8d 45 d4	 lea	 eax, DWORD PTR __Meta$87705[ebp]
  0019a	50		 push	 eax
  0019b	8d 4d cc	 lea	 ecx, DWORD PTR $T90385[ebp]
  0019e	51		 push	 ecx
  0019f	ff 15 00 00 00
	00		 call	 DWORD PTR __imp_?eq_int_type@?$char_traits@D@std@@SA_NABH0@Z
  001a5	83 c4 08	 add	 esp, 8
  001a8	88 45 93	 mov	 BYTE PTR tv202[ebp], al
  001ab	0f b6 55 93	 movzx	 edx, BYTE PTR tv202[ebp]
  001af	85 d2		 test	 edx, edx
  001b1	74 0b		 je	 SHORT $L87710

; 448  : 				{	// end of file, quit
; 449  : 				_State |= ios_base::eofbit;

  001b3	8b 45 ec	 mov	 eax, DWORD PTR __State$[ebp]
  001b6	83 c8 01	 or	 eax, 1
  001b9	89 45 ec	 mov	 DWORD PTR __State$[ebp], eax

; 450  : 				break;

  001bc	eb 54		 jmp	 SHORT $L87708
$L87710:

; 451  : 				}
; 452  : 			else if (_Ctype_fac.is(_Ctype::space,
; 453  : 				_Traits::to_char_type(_Meta)))

  001be	8d 4d d4	 lea	 ecx, DWORD PTR __Meta$87705[ebp]
  001c1	51		 push	 ecx
  001c2	ff 15 00 00 00
	00		 call	 DWORD PTR __imp_?to_char_type@?$char_traits@D@std@@SADABH@Z
  001c8	83 c4 04	 add	 esp, 4
  001cb	88 45 92	 mov	 BYTE PTR tv203[ebp], al
  001ce	8a 55 92	 mov	 dl, BYTE PTR tv203[ebp]
  001d1	52		 push	 edx
  001d2	6a 48		 push	 72			; 00000048H
  001d4	8b 4d dc	 mov	 ecx, DWORD PTR __Ctype_fac$87699[ebp]
  001d7	ff 15 00 00 00
	00		 call	 DWORD PTR __imp_?is@?$ctype@D@std@@QBE_NFD@Z
  001dd	88 45 91	 mov	 BYTE PTR tv204[ebp], al
  001e0	0f b6 45 91	 movzx	 eax, BYTE PTR tv204[ebp]
  001e4	85 c0		 test	 eax, eax
  001e6	74 02		 je	 SHORT $L87712

; 454  : 				break;	// whitespace, quit

  001e8	eb 28		 jmp	 SHORT $L87708
$L87712:

; 455  : 			else
; 456  : 				{	// add character to string
; 457  : 				_Str.append(1, _Traits::to_char_type(_Meta));

  001ea	8d 4d d4	 lea	 ecx, DWORD PTR __Meta$87705[ebp]
  001ed	51		 push	 ecx
  001ee	ff 15 00 00 00
	00		 call	 DWORD PTR __imp_?to_char_type@?$char_traits@D@std@@SADABH@Z
  001f4	83 c4 04	 add	 esp, 4
  001f7	88 45 90	 mov	 BYTE PTR tv205[ebp], al
  001fa	8a 55 90	 mov	 dl, BYTE PTR tv205[ebp]
  001fd	52		 push	 edx
  001fe	6a 01		 push	 1
  00200	8b 4d 0c	 mov	 ecx, DWORD PTR __Str$[ebp]
  00203	ff 15 00 00 00
	00		 call	 DWORD PTR __imp_?append@?$basic_string@DU?$char_traits@D@std@@V?$allocator@D@2@@std@@QAEAAV12@ID@Z

; 458  : 				_Changed = true;

  00209	c6 45 e3 01	 mov	 BYTE PTR __Changed$[ebp], 1

; 459  : 				}

  0020d	e9 3d ff ff ff	 jmp	 $L87707
$L87708:
  00212	eb 1d		 jmp	 SHORT $L90387
$L90388:

; 460  : 		_CATCH_IO_(_Istr)

  00214	6a 01		 push	 1
  00216	6a 04		 push	 4
  00218	8b 45 08	 mov	 eax, DWORD PTR __Istr$[ebp]
  0021b	8b 08		 mov	 ecx, DWORD PTR [eax]
  0021d	8b 55 08	 mov	 edx, DWORD PTR __Istr$[ebp]
  00220	03 51 04	 add	 edx, DWORD PTR [ecx+4]
  00223	8b ca		 mov	 ecx, edx
  00225	ff 15 00 00 00
	00		 call	 DWORD PTR __imp_?setstate@?$basic_ios@DU?$char_traits@D@std@@@std@@QAEXH_N@Z
  0022b	b8 00 00 00 00	 mov	 eax, $L90387
  00230	c3		 ret	 0
$L90387:
  00231	c7 45 fc 00 00
	00 00		 mov	 DWORD PTR __$EHRec$[ebp+12], 0

; 461  : 		}
; 462  : 
; 463  : 	_Istr.width(0);

  00238	6a 00		 push	 0
  0023a	8b 45 08	 mov	 eax, DWORD PTR __Istr$[ebp]
  0023d	8b 08		 mov	 ecx, DWORD PTR [eax]
  0023f	8b 55 08	 mov	 edx, DWORD PTR __Istr$[ebp]
  00242	03 51 04	 add	 edx, DWORD PTR [ecx+4]
  00245	8b ca		 mov	 ecx, edx
  00247	ff 15 00 00 00
	00		 call	 DWORD PTR __imp_?width@ios_base@std@@QAEHH@Z

; 464  : 	if (!_Changed)

  0024d	0f b6 45 e3	 movzx	 eax, BYTE PTR __Changed$[ebp]
  00251	85 c0		 test	 eax, eax
  00253	75 09		 jne	 SHORT $L87714

; 465  : 		_State |= ios_base::failbit;

  00255	8b 4d ec	 mov	 ecx, DWORD PTR __State$[ebp]
  00258	83 c9 02	 or	 ecx, 2
  0025b	89 4d ec	 mov	 DWORD PTR __State$[ebp], ecx
$L87714:

; 466  : 	_Istr.setstate(_State);

  0025e	6a 00		 push	 0
  00260	8b 55 ec	 mov	 edx, DWORD PTR __State$[ebp]
  00263	52		 push	 edx
  00264	8b 45 08	 mov	 eax, DWORD PTR __Istr$[ebp]
  00267	8b 08		 mov	 ecx, DWORD PTR [eax]
  00269	8b 55 08	 mov	 edx, DWORD PTR __Istr$[ebp]
  0026c	03 51 04	 add	 edx, DWORD PTR [ecx+4]
  0026f	8b ca		 mov	 ecx, edx
  00271	ff 15 00 00 00
	00		 call	 DWORD PTR __imp_?setstate@?$basic_ios@DU?$char_traits@D@std@@@std@@QAEXH_N@Z

; 467  : 	return (_Istr);

  00277	8b 45 08	 mov	 eax, DWORD PTR __Istr$[ebp]
  0027a	89 45 c8	 mov	 DWORD PTR $T90386[ebp], eax
  0027d	c7 45 fc ff ff
	ff ff		 mov	 DWORD PTR __$EHRec$[ebp+12], -1
  00284	8d 4d e4	 lea	 ecx, DWORD PTR __Ok$[ebp]
  00287	e8 00 00 00 00	 call	 ??1sentry@?$basic_istream@DU?$char_traits@D@std@@@std@@QAE@XZ
  0028c	8b 45 c8	 mov	 eax, DWORD PTR $T90386[ebp]

; 468  : 	}

  0028f	8b 4d f4	 mov	 ecx, DWORD PTR __$EHRec$[ebp+4]
  00292	64 89 0d 00 00
	00 00		 mov	 DWORD PTR fs:__except_list, ecx
  00299	5f		 pop	 edi
  0029a	5e		 pop	 esi
  0029b	5b		 pop	 ebx
  0029c	8b e5		 mov	 esp, ebp
  0029e	5d		 pop	 ebp
  0029f	c3		 ret	 0
_TEXT	ENDS
;	COMDAT text$x
text$x	SEGMENT
$L90389:
  00000	8d 4d e4	 lea	 ecx, DWORD PTR __Ok$[ebp]
  00003	e9 00 00 00 00	 jmp	 ??1sentry@?$basic_istream@DU?$char_traits@D@std@@@std@@QAE@XZ
$L90390:
  00008	8d 4d d0	 lea	 ecx, DWORD PTR $T90382[ebp]
  0000b	ff 25 00 00 00
	00		 jmp	 DWORD PTR __imp_??1locale@std@@QAE@XZ
__ehhandler$??$?5DU?$char_traits@D@std@@V?$allocator@D@1@@std@@YAAAV?$basic_istream@DU?$char_traits@D@std@@@0@AAV10@AAV?$basic_string@DU?$char_traits@D@std@@V?$allocator@D@2@@0@@Z:
  00011	b8 00 00 00 00	 mov	 eax, OFFSET FLAT:$T90392
  00016	e9 00 00 00 00	 jmp	 ___CxxFrameHandler
text$x	ENDS
??$?5DU?$char_traits@D@std@@V?$allocator@D@1@@std@@YAAAV?$basic_istream@DU?$char_traits@D@std@@@0@AAV10@AAV?$basic_string@DU?$char_traits@D@std@@V?$allocator@D@2@@0@@Z ENDP ; std::operator>><char,std::char_traits<char>,std::allocator<char> >
PUBLIC	??1_Sentry_base@?$basic_istream@DU?$char_traits@D@std@@@std@@QAE@XZ ; std::basic_istream<char,std::char_traits<char> >::_Sentry_base::~_Sentry_base
; Function compile flags: /Odt
;	COMDAT ??1sentry@?$basic_istream@DU?$char_traits@D@std@@@std@@QAE@XZ
_TEXT	SEGMENT
_this$ = -4						; size = 4
??1sentry@?$basic_istream@DU?$char_traits@D@std@@@std@@QAE@XZ PROC NEAR ; std::basic_istream<char,std::char_traits<char> >::sentry::~sentry, COMDAT
; _this$ = ecx
  00000	55		 push	 ebp
  00001	8b ec		 mov	 ebp, esp
  00003	51		 push	 ecx
  00004	89 4d fc	 mov	 DWORD PTR _this$[ebp], ecx
  00007	8b 4d fc	 mov	 ecx, DWORD PTR _this$[ebp]
  0000a	e8 00 00 00 00	 call	 ??1_Sentry_base@?$basic_istream@DU?$char_traits@D@std@@@std@@QAE@XZ ; std::basic_istream<char,std::char_traits<char> >::_Sentry_base::~_Sentry_base
  0000f	8b e5		 mov	 esp, ebp
  00011	5d		 pop	 ebp
  00012	c3		 ret	 0
??1sentry@?$basic_istream@DU?$char_traits@D@std@@@std@@QAE@XZ ENDP ; std::basic_istream<char,std::char_traits<char> >::sentry::~sentry
_TEXT	ENDS
PUBLIC	??0_Sentry_base@?$basic_istream@DU?$char_traits@D@std@@@std@@QAE@AAV12@@Z ; std::basic_istream<char,std::char_traits<char> >::_Sentry_base::_Sentry_base
EXTRN	__imp_?_Ipfx@?$basic_istream@DU?$char_traits@D@std@@@std@@QAE_N_N@Z:NEAR
;	COMDAT xdata$x
; File d:\program files (x86)\microsoft visual studio .net 2003\vc7\include\istream
xdata$x	SEGMENT
$T90408	DD	0ffffffffH
	DD	FLAT:$L90404
$T90406	DD	019930520H
	DD	01H
	DD	FLAT:$T90408
	DD	2 DUP(00H)
	DD	2 DUP(00H)
; Function compile flags: /Odt
xdata$x	ENDS
;	COMDAT ??0sentry@?$basic_istream@DU?$char_traits@D@std@@@std@@QAE@AAV12@_N@Z
_TEXT	SEGMENT
_this$ = -16						; size = 4
__$EHRec$ = -12						; size = 12
__Istr$ = 8						; size = 4
__Noskip$ = 12						; size = 1
??0sentry@?$basic_istream@DU?$char_traits@D@std@@@std@@QAE@AAV12@_N@Z PROC NEAR ; std::basic_istream<char,std::char_traits<char> >::sentry::sentry, COMDAT
; _this$ = ecx

; 72   : 			{	// construct locking and calling _Ipfx

  00000	55		 push	 ebp
  00001	8b ec		 mov	 ebp, esp
  00003	6a ff		 push	 -1
  00005	68 00 00 00 00	 push	 __ehhandler$??0sentry@?$basic_istream@DU?$char_traits@D@std@@@std@@QAE@AAV12@_N@Z
  0000a	64 a1 00 00 00
	00		 mov	 eax, DWORD PTR fs:__except_list
  00010	50		 push	 eax
  00011	64 89 25 00 00
	00 00		 mov	 DWORD PTR fs:__except_list, esp
  00018	51		 push	 ecx
  00019	89 4d f0	 mov	 DWORD PTR _this$[ebp], ecx
  0001c	8b 45 08	 mov	 eax, DWORD PTR __Istr$[ebp]
  0001f	50		 push	 eax
  00020	8b 4d f0	 mov	 ecx, DWORD PTR _this$[ebp]
  00023	e8 00 00 00 00	 call	 ??0_Sentry_base@?$basic_istream@DU?$char_traits@D@std@@@std@@QAE@AAV12@@Z ; std::basic_istream<char,std::char_traits<char> >::_Sentry_base::_Sentry_base
  00028	c7 45 fc 00 00
	00 00		 mov	 DWORD PTR __$EHRec$[ebp+8], 0

; 73   : 			_Ok = this->_Myistr._Ipfx(_Noskip);

  0002f	8a 4d 0c	 mov	 cl, BYTE PTR __Noskip$[ebp]
  00032	51		 push	 ecx
  00033	8b 55 f0	 mov	 edx, DWORD PTR _this$[ebp]
  00036	8b 0a		 mov	 ecx, DWORD PTR [edx]
  00038	ff 15 00 00 00
	00		 call	 DWORD PTR __imp_?_Ipfx@?$basic_istream@DU?$char_traits@D@std@@@std@@QAE_N_N@Z
  0003e	8b 4d f0	 mov	 ecx, DWORD PTR _this$[ebp]
  00041	88 41 04	 mov	 BYTE PTR [ecx+4], al

; 74   : 			}

  00044	c7 45 fc ff ff
	ff ff		 mov	 DWORD PTR __$EHRec$[ebp+8], -1
  0004b	8b 45 f0	 mov	 eax, DWORD PTR _this$[ebp]
  0004e	8b 4d f4	 mov	 ecx, DWORD PTR __$EHRec$[ebp]
  00051	64 89 0d 00 00
	00 00		 mov	 DWORD PTR fs:__except_list, ecx
  00058	8b e5		 mov	 esp, ebp
  0005a	5d		 pop	 ebp
  0005b	c2 08 00	 ret	 8
_TEXT	ENDS
;	COMDAT text$x
text$x	SEGMENT
$L90404:
  00000	8b 4d f0	 mov	 ecx, DWORD PTR _this$[ebp]
  00003	e9 00 00 00 00	 jmp	 ??1_Sentry_base@?$basic_istream@DU?$char_traits@D@std@@@std@@QAE@XZ ; std::basic_istream<char,std::char_traits<char> >::_Sentry_base::~_Sentry_base
__ehhandler$??0sentry@?$basic_istream@DU?$char_traits@D@std@@@std@@QAE@AAV12@_N@Z:
  00008	b8 00 00 00 00	 mov	 eax, OFFSET FLAT:$T90406
  0000d	e9 00 00 00 00	 jmp	 ___CxxFrameHandler
text$x	ENDS
??0sentry@?$basic_istream@DU?$char_traits@D@std@@@std@@QAE@AAV12@_N@Z ENDP ; std::basic_istream<char,std::char_traits<char> >::sentry::sentry
; Function compile flags: /Odt
;	COMDAT ??Bsentry@?$basic_istream@DU?$char_traits@D@std@@@std@@QBE_NXZ
_TEXT	SEGMENT
_this$ = -4						; size = 4
??Bsentry@?$basic_istream@DU?$char_traits@D@std@@@std@@QBE_NXZ PROC NEAR ; std::basic_istream<char,std::char_traits<char> >::sentry::operator bool, COMDAT
; _this$ = ecx

; 77   : 			{	// test if _Ipfx succeeded

  00000	55		 push	 ebp
  00001	8b ec		 mov	 ebp, esp
  00003	51		 push	 ecx
  00004	89 4d fc	 mov	 DWORD PTR _this$[ebp], ecx

; 78   : 			return (_Ok);

  00007	8b 45 fc	 mov	 eax, DWORD PTR _this$[ebp]
  0000a	8a 40 04	 mov	 al, BYTE PTR [eax+4]

; 79   : 			}

  0000d	8b e5		 mov	 esp, ebp
  0000f	5d		 pop	 ebp
  00010	c3		 ret	 0
??Bsentry@?$basic_istream@DU?$char_traits@D@std@@@std@@QBE_NXZ ENDP ; std::basic_istream<char,std::char_traits<char> >::sentry::operator bool
_TEXT	ENDS
EXTRN	__imp_?_Unlock@?$basic_streambuf@DU?$char_traits@D@std@@@std@@QAEXXZ:NEAR
; Function compile flags: /Odt
;	COMDAT ??1_Sentry_base@?$basic_istream@DU?$char_traits@D@std@@@std@@QAE@XZ
_TEXT	SEGMENT
_this$ = -4						; size = 4
??1_Sentry_base@?$basic_istream@DU?$char_traits@D@std@@@std@@QAE@XZ PROC NEAR ; std::basic_istream<char,std::char_traits<char> >::_Sentry_base::~_Sentry_base, COMDAT
; _this$ = ecx

; 58   : 			{	// destroy after unlocking

  00000	55		 push	 ebp
  00001	8b ec		 mov	 ebp, esp
  00003	51		 push	 ecx
  00004	89 4d fc	 mov	 DWORD PTR _this$[ebp], ecx

; 59   : 			if (_Myistr.rdbuf() != 0)

  00007	8b 45 fc	 mov	 eax, DWORD PTR _this$[ebp]
  0000a	8b 08		 mov	 ecx, DWORD PTR [eax]
  0000c	8b 11		 mov	 edx, DWORD PTR [ecx]
  0000e	8b 45 fc	 mov	 eax, DWORD PTR _this$[ebp]
  00011	8b 08		 mov	 ecx, DWORD PTR [eax]
  00013	03 4a 04	 add	 ecx, DWORD PTR [edx+4]
  00016	ff 15 00 00 00
	00		 call	 DWORD PTR __imp_?rdbuf@?$basic_ios@DU?$char_traits@D@std@@@std@@QBEPAV?$basic_streambuf@DU?$char_traits@D@std@@@2@XZ
  0001c	85 c0		 test	 eax, eax
  0001e	74 1d		 je	 SHORT $L85767

; 60   : 				_Myistr.rdbuf()->_Unlock();

  00020	8b 4d fc	 mov	 ecx, DWORD PTR _this$[ebp]
  00023	8b 11		 mov	 edx, DWORD PTR [ecx]
  00025	8b 02		 mov	 eax, DWORD PTR [edx]
  00027	8b 4d fc	 mov	 ecx, DWORD PTR _this$[ebp]
  0002a	8b 09		 mov	 ecx, DWORD PTR [ecx]
  0002c	03 48 04	 add	 ecx, DWORD PTR [eax+4]
  0002f	ff 15 00 00 00
	00		 call	 DWORD PTR __imp_?rdbuf@?$basic_ios@DU?$char_traits@D@std@@@std@@QBEPAV?$basic_streambuf@DU?$char_traits@D@std@@@2@XZ
  00035	8b c8		 mov	 ecx, eax
  00037	ff 15 00 00 00
	00		 call	 DWORD PTR __imp_?_Unlock@?$basic_streambuf@DU?$char_traits@D@std@@@std@@QAEXXZ
$L85767:

; 61   : 			}

  0003d	8b e5		 mov	 esp, ebp
  0003f	5d		 pop	 ebp
  00040	c3		 ret	 0
??1_Sentry_base@?$basic_istream@DU?$char_traits@D@std@@@std@@QAE@XZ ENDP ; std::basic_istream<char,std::char_traits<char> >::_Sentry_base::~_Sentry_base
_TEXT	ENDS
EXTRN	__imp_?_Lock@?$basic_streambuf@DU?$char_traits@D@std@@@std@@QAEXXZ:NEAR
; Function compile flags: /Odt
;	COMDAT ??0_Sentry_base@?$basic_istream@DU?$char_traits@D@std@@@std@@QAE@AAV12@@Z
_TEXT	SEGMENT
_this$ = -4						; size = 4
__Istr$ = 8						; size = 4
??0_Sentry_base@?$basic_istream@DU?$char_traits@D@std@@@std@@QAE@AAV12@@Z PROC NEAR ; std::basic_istream<char,std::char_traits<char> >::_Sentry_base::_Sentry_base, COMDAT
; _this$ = ecx

; 52   : 			{	// lock the stream buffer, if there

  00000	55		 push	 ebp
  00001	8b ec		 mov	 ebp, esp
  00003	51		 push	 ecx
  00004	89 4d fc	 mov	 DWORD PTR _this$[ebp], ecx
  00007	8b 45 fc	 mov	 eax, DWORD PTR _this$[ebp]
  0000a	8b 4d 08	 mov	 ecx, DWORD PTR __Istr$[ebp]
  0000d	89 08		 mov	 DWORD PTR [eax], ecx

; 53   : 			if (_Myistr.rdbuf() != 0)

  0000f	8b 55 fc	 mov	 edx, DWORD PTR _this$[ebp]
  00012	8b 02		 mov	 eax, DWORD PTR [edx]
  00014	8b 08		 mov	 ecx, DWORD PTR [eax]
  00016	8b 55 fc	 mov	 edx, DWORD PTR _this$[ebp]
  00019	8b 02		 mov	 eax, DWORD PTR [edx]
  0001b	03 41 04	 add	 eax, DWORD PTR [ecx+4]
  0001e	8b c8		 mov	 ecx, eax
  00020	ff 15 00 00 00
	00		 call	 DWORD PTR __imp_?rdbuf@?$basic_ios@DU?$char_traits@D@std@@@std@@QBEPAV?$basic_streambuf@DU?$char_traits@D@std@@@2@XZ
  00026	85 c0		 test	 eax, eax
  00028	74 1d		 je	 SHORT $L86936

; 54   : 				_Myistr.rdbuf()->_Lock();

  0002a	8b 4d fc	 mov	 ecx, DWORD PTR _this$[ebp]
  0002d	8b 11		 mov	 edx, DWORD PTR [ecx]
  0002f	8b 02		 mov	 eax, DWORD PTR [edx]
  00031	8b 4d fc	 mov	 ecx, DWORD PTR _this$[ebp]
  00034	8b 09		 mov	 ecx, DWORD PTR [ecx]
  00036	03 48 04	 add	 ecx, DWORD PTR [eax+4]
  00039	ff 15 00 00 00
	00		 call	 DWORD PTR __imp_?rdbuf@?$basic_ios@DU?$char_traits@D@std@@@std@@QBEPAV?$basic_streambuf@DU?$char_traits@D@std@@@2@XZ
  0003f	8b c8		 mov	 ecx, eax
  00041	ff 15 00 00 00
	00		 call	 DWORD PTR __imp_?_Lock@?$basic_streambuf@DU?$char_traits@D@std@@@std@@QAEXXZ
$L86936:

; 55   : 			}

  00047	8b 45 fc	 mov	 eax, DWORD PTR _this$[ebp]
  0004a	8b e5		 mov	 esp, ebp
  0004c	5d		 pop	 ebp
  0004d	c2 04 00	 ret	 4
??0_Sentry_base@?$basic_istream@DU?$char_traits@D@std@@@std@@QAE@AAV12@@Z ENDP ; std::basic_istream<char,std::char_traits<char> >::_Sentry_base::_Sentry_base
_TEXT	ENDS
PUBLIC	?_Psave@?$_Facetptr@V?$ctype@D@std@@@std@@2PBVfacet@locale@2@B ; std::_Facetptr<std::ctype<char> >::_Psave
PUBLIC	__TI2?AVbad_cast@@
PUBLIC	__CTA2?AVbad_cast@@
PUBLIC	??_R0?AVbad_cast@@@8				; bad_cast `RTTI Type Descriptor'
PUBLIC	__CT??_R0?AVbad_cast@@@8??0bad_cast@@QAE@ABV0@@Z12
PUBLIC	??_R0?AVexception@@@8				; exception `RTTI Type Descriptor'
PUBLIC	__CT??_R0?AVexception@@@8??0exception@@QAE@ABV0@@Z12
PUBLIC	??_C@_08EPJLHIJG@bad?5cast?$AA@			; `string'
EXTRN	__imp_?id@?$ctype@D@std@@2V0locale@2@A:DWORD
EXTRN	__imp_?_Getcat@?$ctype@D@std@@SAIPAPBVfacet@locale@2@@Z:NEAR
EXTRN	??0exception@@QAE@ABV0@@Z:NEAR			; exception::exception
EXTRN	??0bad_cast@@QAE@ABV0@@Z:NEAR			; bad_cast::bad_cast
EXTRN	??1bad_cast@@UAE@XZ:NEAR			; bad_cast::~bad_cast
EXTRN	__imp_??Bid@locale@std@@QAEIXZ:NEAR
EXTRN	__imp_?_Incref@facet@locale@std@@QAEXXZ:NEAR
EXTRN	__imp_?_Register@facet@locale@std@@QAEXXZ:NEAR
EXTRN	__imp_?_Getfacet@locale@std@@QBEPBVfacet@12@I@Z:NEAR
EXTRN	__imp_??0_Lockit@std@@QAE@H@Z:NEAR
EXTRN	__imp_??1_Lockit@std@@QAE@XZ:NEAR
EXTRN	__imp_??0bad_cast@@QAE@PBD@Z:NEAR
;	COMDAT ?_Psave@?$_Facetptr@V?$ctype@D@std@@@std@@2PBVfacet@locale@2@B
; File d:\program files (x86)\microsoft visual studio .net 2003\vc7\include\xlocale
_BSS	SEGMENT
?_Psave@?$_Facetptr@V?$ctype@D@std@@@std@@2PBVfacet@locale@2@B DD 01H DUP (?) ; std::_Facetptr<std::ctype<char> >::_Psave
_BSS	ENDS
;	COMDAT xdata$x
xdata$x	SEGMENT
$T90425	DD	0ffffffffH
	DD	FLAT:$L90421
$T90423	DD	019930520H
	DD	01H
	DD	FLAT:$T90425
	DD	2 DUP(00H)
	DD	2 DUP(00H)
xdata$x	ENDS
;	COMDAT ??_C@_08EPJLHIJG@bad?5cast?$AA@
CONST	SEGMENT
??_C@_08EPJLHIJG@bad?5cast?$AA@ DB 'bad cast', 00H	; `string'
CONST	ENDS
;	COMDAT __TI2?AVbad_cast@@
xdata$x	SEGMENT
__TI2?AVbad_cast@@ DD 00H
	DD	FLAT:??1bad_cast@@UAE@XZ
	DD	00H
	DD	FLAT:__CTA2?AVbad_cast@@
xdata$x	ENDS
;	COMDAT __CTA2?AVbad_cast@@
xdata$x	SEGMENT
__CTA2?AVbad_cast@@ DD 02H
	DD	FLAT:__CT??_R0?AVbad_cast@@@8??0bad_cast@@QAE@ABV0@@Z12
	DD	FLAT:__CT??_R0?AVexception@@@8??0exception@@QAE@ABV0@@Z12
xdata$x	ENDS
;	COMDAT __CT??_R0?AVbad_cast@@@8??0bad_cast@@QAE@ABV0@@Z12
xdata$x	SEGMENT
__CT??_R0?AVbad_cast@@@8??0bad_cast@@QAE@ABV0@@Z12 DD 00H
	DD	FLAT:??_R0?AVbad_cast@@@8
	DD	00H
	DD	0ffffffffH
	ORG $+4
	DD	0cH
	DD	FLAT:??0bad_cast@@QAE@ABV0@@Z
xdata$x	ENDS
;	COMDAT ??_R0?AVbad_cast@@@8
_DATA	SEGMENT
??_R0?AVbad_cast@@@8 DD FLAT:??_7type_info@@6B@		; bad_cast `RTTI Type Descriptor'
	DD	00H
	DB	'.?AVbad_cast@@', 00H
_DATA	ENDS
;	COMDAT __CT??_R0?AVexception@@@8??0exception@@QAE@ABV0@@Z12
xdata$x	SEGMENT
__CT??_R0?AVexception@@@8??0exception@@QAE@ABV0@@Z12 DD 00H
	DD	FLAT:??_R0?AVexception@@@8
	DD	00H
	DD	0ffffffffH
	ORG $+4
	DD	0cH
	DD	FLAT:??0exception@@QAE@ABV0@@Z
xdata$x	ENDS
;	COMDAT ??_R0?AVexception@@@8
_DATA	SEGMENT
??_R0?AVexception@@@8 DD FLAT:??_7type_info@@6B@	; exception `RTTI Type Descriptor'
	DD	00H
	DB	'.?AVexception@@', 00H
; Function compile flags: /Odt
_DATA	ENDS
;	COMDAT ??$use_facet@V?$ctype@D@std@@@std@@YAABV?$ctype@D@0@ABVlocale@0@@Z
_TEXT	SEGMENT
$T90420 = -48						; size = 4
$T90419 = -44						; size = 12
__Pfmod$87628 = -32					; size = 4
__Psave$ = -28						; size = 4
__Lock$ = -24						; size = 4
__Id$ = -20						; size = 4
__Pf$ = -16						; size = 4
__$EHRec$ = -12						; size = 12
__Loc$ = 8						; size = 4
??$use_facet@V?$ctype@D@std@@@std@@YAABV?$ctype@D@0@ABVlocale@0@@Z PROC NEAR ; std::use_facet<std::ctype<char> >, COMDAT

; 315  : 	{	// get facet reference from locale

  00000	55		 push	 ebp
  00001	8b ec		 mov	 ebp, esp
  00003	6a ff		 push	 -1
  00005	68 00 00 00 00	 push	 __ehhandler$??$use_facet@V?$ctype@D@std@@@std@@YAABV?$ctype@D@0@ABVlocale@0@@Z
  0000a	64 a1 00 00 00
	00		 mov	 eax, DWORD PTR fs:__except_list
  00010	50		 push	 eax
  00011	64 89 25 00 00
	00 00		 mov	 DWORD PTR fs:__except_list, esp
  00018	83 ec 24	 sub	 esp, 36			; 00000024H

; 316  : 	_Lockit _Lock(_LOCK_LOCALE);	// the thread lock, make get atomic

  0001b	6a 00		 push	 0
  0001d	8d 4d e8	 lea	 ecx, DWORD PTR __Lock$[ebp]
  00020	ff 15 00 00 00
	00		 call	 DWORD PTR __imp_??0_Lockit@std@@QAE@H@Z
  00026	c7 45 fc 00 00
	00 00		 mov	 DWORD PTR __$EHRec$[ebp+8], 0

; 317  : 	const locale::facet *_Psave =
; 318  : 		_Facetptr<_Facet>::_Psave;	// static pointer to lazy facet

  0002d	a1 00 00 00 00	 mov	 eax, DWORD PTR ?_Psave@?$_Facetptr@V?$ctype@D@std@@@std@@2PBVfacet@locale@2@B ; std::_Facetptr<std::ctype<char> >::_Psave
  00032	89 45 e4	 mov	 DWORD PTR __Psave$[ebp], eax

; 319  : 
; 320  : 	size_t _Id = _Facet::id;

  00035	8b 0d 00 00 00
	00		 mov	 ecx, DWORD PTR __imp_?id@?$ctype@D@std@@2V0locale@2@A
  0003b	ff 15 00 00 00
	00		 call	 DWORD PTR __imp_??Bid@locale@std@@QAEIXZ
  00041	89 45 ec	 mov	 DWORD PTR __Id$[ebp], eax

; 321  : 	const locale::facet *_Pf = _Loc._Getfacet(_Id);

  00044	8b 4d ec	 mov	 ecx, DWORD PTR __Id$[ebp]
  00047	51		 push	 ecx
  00048	8b 4d 08	 mov	 ecx, DWORD PTR __Loc$[ebp]
  0004b	ff 15 00 00 00
	00		 call	 DWORD PTR __imp_?_Getfacet@locale@std@@QBEPBVfacet@12@I@Z
  00051	89 45 f0	 mov	 DWORD PTR __Pf$[ebp], eax

; 322  : 
; 323  : 	if (_Pf != 0)

  00054	83 7d f0 00	 cmp	 DWORD PTR __Pf$[ebp], 0
  00058	74 02		 je	 SHORT $L87612

; 324  : 		;	// got facet from locale
; 325  : 	else if (_Psave != 0)

  0005a	eb 62		 jmp	 SHORT $L87613
$L87612:
  0005c	83 7d e4 00	 cmp	 DWORD PTR __Psave$[ebp], 0
  00060	74 08		 je	 SHORT $L87614

; 326  : 		_Pf = _Psave;	// lazy facet already allocated

  00062	8b 55 e4	 mov	 edx, DWORD PTR __Psave$[ebp]
  00065	89 55 f0	 mov	 DWORD PTR __Pf$[ebp], edx

; 327  : 	else if (_Facet::_Getcat(&_Psave) == (size_t)(-1))

  00068	eb 54		 jmp	 SHORT $L87613
$L87614:
  0006a	8d 45 e4	 lea	 eax, DWORD PTR __Psave$[ebp]
  0006d	50		 push	 eax
  0006e	ff 15 00 00 00
	00		 call	 DWORD PTR __imp_?_Getcat@?$ctype@D@std@@SAIPAPBVfacet@locale@2@@Z
  00074	83 c4 04	 add	 esp, 4
  00077	83 f8 ff	 cmp	 eax, -1
  0007a	75 1c		 jne	 SHORT $L87617

; 328  : 
; 329  :  #if _HAS_EXCEPTIONS
; 330  : 		throw bad_cast();	// lazy disallowed

  0007c	68 00 00 00 00	 push	 OFFSET FLAT:??_C@_08EPJLHIJG@bad?5cast?$AA@
  00081	8d 4d d4	 lea	 ecx, DWORD PTR $T90419[ebp]
  00084	ff 15 00 00 00
	00		 call	 DWORD PTR __imp_??0bad_cast@@QAE@PBD@Z
  0008a	68 00 00 00 00	 push	 OFFSET FLAT:__TI2?AVbad_cast@@
  0008f	8d 4d d4	 lea	 ecx, DWORD PTR $T90419[ebp]
  00092	51		 push	 ecx
  00093	e8 00 00 00 00	 call	 __CxxThrowException@8
$L87617:

; 331  : 
; 332  :  #else /* _HAS_EXCEPTIONS */
; 333  : 		abort();	// lazy disallowed
; 334  :  #endif /* _HAS_EXCEPTIONS */
; 335  : 
; 336  : 	else
; 337  : 		{	// queue up lazy facet for destruction
; 338  : 		_Pf = _Psave;

  00098	8b 55 e4	 mov	 edx, DWORD PTR __Psave$[ebp]
  0009b	89 55 f0	 mov	 DWORD PTR __Pf$[ebp], edx

; 339  : 		_Facetptr<_Facet>::_Psave = _Psave;

  0009e	8b 45 e4	 mov	 eax, DWORD PTR __Psave$[ebp]
  000a1	a3 00 00 00 00	 mov	 DWORD PTR ?_Psave@?$_Facetptr@V?$ctype@D@std@@@std@@2PBVfacet@locale@2@B, eax ; std::_Facetptr<std::ctype<char> >::_Psave

; 340  : 
; 341  : 		locale::facet *_Pfmod = (_Facet *)_Psave;

  000a6	8b 4d e4	 mov	 ecx, DWORD PTR __Psave$[ebp]
  000a9	89 4d e0	 mov	 DWORD PTR __Pfmod$87628[ebp], ecx

; 342  : 		_Pfmod->_Incref();

  000ac	8b 4d e0	 mov	 ecx, DWORD PTR __Pfmod$87628[ebp]
  000af	ff 15 00 00 00
	00		 call	 DWORD PTR __imp_?_Incref@facet@locale@std@@QAEXXZ

; 343  : 		_Pfmod->_Register();

  000b5	8b 4d e0	 mov	 ecx, DWORD PTR __Pfmod$87628[ebp]
  000b8	ff 15 00 00 00
	00		 call	 DWORD PTR __imp_?_Register@facet@locale@std@@QAEXXZ
$L87613:

; 344  : 		}
; 345  : 
; 346  : 	return ((const _Facet&)(*_Pf));	// should be dynamic_cast

  000be	8b 55 f0	 mov	 edx, DWORD PTR __Pf$[ebp]
  000c1	89 55 d0	 mov	 DWORD PTR $T90420[ebp], edx
  000c4	c7 45 fc ff ff
	ff ff		 mov	 DWORD PTR __$EHRec$[ebp+8], -1
  000cb	8d 4d e8	 lea	 ecx, DWORD PTR __Lock$[ebp]
  000ce	ff 15 00 00 00
	00		 call	 DWORD PTR __imp_??1_Lockit@std@@QAE@XZ
  000d4	8b 45 d0	 mov	 eax, DWORD PTR $T90420[ebp]
$L90418:

; 347  : 	}

  000d7	8b 4d f4	 mov	 ecx, DWORD PTR __$EHRec$[ebp]
  000da	64 89 0d 00 00
	00 00		 mov	 DWORD PTR fs:__except_list, ecx
  000e1	8b e5		 mov	 esp, ebp
  000e3	5d		 pop	 ebp
  000e4	c3		 ret	 0
_TEXT	ENDS
;	COMDAT text$x
text$x	SEGMENT
$L90421:
  00000	8d 4d e8	 lea	 ecx, DWORD PTR __Lock$[ebp]
  00003	ff 25 00 00 00
	00		 jmp	 DWORD PTR __imp_??1_Lockit@std@@QAE@XZ
__ehhandler$??$use_facet@V?$ctype@D@std@@@std@@YAABV?$ctype@D@0@ABVlocale@0@@Z:
  00009	b8 00 00 00 00	 mov	 eax, OFFSET FLAT:$T90423
  0000e	e9 00 00 00 00	 jmp	 ___CxxFrameHandler
text$x	ENDS
??$use_facet@V?$ctype@D@std@@@std@@YAABV?$ctype@D@0@ABVlocale@0@@Z ENDP ; std::use_facet<std::ctype<char> >
PUBLIC	??$getline@DU?$char_traits@D@std@@V?$allocator@D@2@@std@@YAAAV?$basic_istream@DU?$char_traits@D@std@@@0@AAV10@AAV?$basic_string@DU?$char_traits@D@std@@V?$allocator@D@2@@0@@Z ; std::getline<char,std::char_traits<char>,std::allocator<char> >
PUBLIC	??$getline@DU?$char_traits@D@std@@V?$allocator@D@2@@std@@YAAAV?$basic_istream@DU?$char_traits@D@std@@@0@AAV10@AAV?$basic_string@DU?$char_traits@D@std@@V?$allocator@D@2@@0@D@Z ; std::getline<char,std::char_traits<char>,std::allocator<char> >
EXTRN	__imp_?widen@?$basic_ios@DU?$char_traits@D@std@@@std@@QBEDD@Z:NEAR
; Function compile flags: /Odt
; File d:\program files (x86)\microsoft visual studio .net 2003\vc7\include\string
;	COMDAT ??$getline@DU?$char_traits@D@std@@V?$allocator@D@2@@std@@YAAAV?$basic_istream@DU?$char_traits@D@std@@@0@AAV10@AAV?$basic_string@DU?$char_traits@D@std@@V?$allocator@D@2@@0@@Z
_TEXT	SEGMENT
__Istr$ = 8						; size = 4
__Str$ = 12						; size = 4
??$getline@DU?$char_traits@D@std@@V?$allocator@D@2@@std@@YAAAV?$basic_istream@DU?$char_traits@D@std@@@0@AAV10@AAV?$basic_string@DU?$char_traits@D@std@@V?$allocator@D@2@@0@@Z PROC NEAR ; std::getline<char,std::char_traits<char>,std::allocator<char> >, COMDAT

; 528  : 	{	// get characters into string, discard newline

  00000	55		 push	 ebp
  00001	8b ec		 mov	 ebp, esp

; 529  : 	return (getline(_Istr, _Str, _Istr.widen('\n')));

  00003	6a 0a		 push	 10			; 0000000aH
  00005	8b 45 08	 mov	 eax, DWORD PTR __Istr$[ebp]
  00008	8b 08		 mov	 ecx, DWORD PTR [eax]
  0000a	8b 55 08	 mov	 edx, DWORD PTR __Istr$[ebp]
  0000d	03 51 04	 add	 edx, DWORD PTR [ecx+4]
  00010	8b ca		 mov	 ecx, edx
  00012	ff 15 00 00 00
	00		 call	 DWORD PTR __imp_?widen@?$basic_ios@DU?$char_traits@D@std@@@std@@QBEDD@Z
  00018	50		 push	 eax
  00019	8b 45 0c	 mov	 eax, DWORD PTR __Str$[ebp]
  0001c	50		 push	 eax
  0001d	8b 4d 08	 mov	 ecx, DWORD PTR __Istr$[ebp]
  00020	51		 push	 ecx
  00021	e8 00 00 00 00	 call	 ??$getline@DU?$char_traits@D@std@@V?$allocator@D@2@@std@@YAAAV?$basic_istream@DU?$char_traits@D@std@@@0@AAV10@AAV?$basic_string@DU?$char_traits@D@std@@V?$allocator@D@2@@0@D@Z ; std::getline<char,std::char_traits<char>,std::allocator<char> >
  00026	83 c4 0c	 add	 esp, 12			; 0000000cH

; 530  : 	}

  00029	5d		 pop	 ebp
  0002a	c3		 ret	 0
??$getline@DU?$char_traits@D@std@@V?$allocator@D@2@@std@@YAAAV?$basic_istream@DU?$char_traits@D@std@@@0@AAV10@AAV?$basic_string@DU?$char_traits@D@std@@V?$allocator@D@2@@0@@Z ENDP ; std::getline<char,std::char_traits<char>,std::allocator<char> >
_TEXT	ENDS
EXTRN	__imp_?size@?$basic_string@DU?$char_traits@D@std@@V?$allocator@D@2@@std@@QBEIXZ:NEAR
EXTRN	__imp_?to_int_type@?$char_traits@D@std@@SAHABD@Z:NEAR
EXTRN	__imp_?sbumpc@?$basic_streambuf@DU?$char_traits@D@std@@@std@@QAEHXZ:NEAR
;	COMDAT xdata$x
xdata$x	SEGMENT
$T90441	DD	0ffffffffH
	DD	FLAT:$L90437
	DD	00H
	DD	00H
	DD	00H
	DD	00H
$T90443	DD	00H
	DD	00H
	DD	00H
	DD	FLAT:$L90436
$T90442	DD	01H
	DD	01H
	DD	02H
	DD	01H
	DD	FLAT:$T90443
$T90439	DD	019930520H
	DD	03H
	DD	FLAT:$T90441
	DD	01H
	DD	FLAT:$T90442
	DD	2 DUP(00H)
; Function compile flags: /Odt
xdata$x	ENDS
;	COMDAT ??$getline@DU?$char_traits@D@std@@V?$allocator@D@2@@std@@YAAAV?$basic_istream@DU?$char_traits@D@std@@@0@AAV10@AAV?$basic_string@DU?$char_traits@D@std@@V?$allocator@D@2@@0@D@Z
_TEXT	SEGMENT
tv175 = -89						; size = 1
tv174 = -88						; size = 4
tv173 = -84						; size = 4
tv172 = -80						; size = 4
tv171 = -74						; size = 1
tv170 = -73						; size = 1
tv169 = -72						; size = 4
tv168 = -68						; size = 4
tv167 = -64						; size = 4
tv166 = -60						; size = 4
tv165 = -56						; size = 4
tv65 = -52						; size = 4
$T90434 = -48						; size = 4
$T90433 = -44						; size = 4
__Meta$87725 = -40					; size = 4
__Metadelim$87724 = -36					; size = 4
__Changed$ = -29					; size = 1
__Ok$ = -28						; size = 8
__State$ = -20						; size = 4
__$EHRec$ = -16						; size = 16
__Istr$ = 8						; size = 4
__Str$ = 12						; size = 4
__Delim$ = 16						; size = 1
??$getline@DU?$char_traits@D@std@@V?$allocator@D@2@@std@@YAAAV?$basic_istream@DU?$char_traits@D@std@@@0@AAV10@AAV?$basic_string@DU?$char_traits@D@std@@V?$allocator@D@2@@0@D@Z PROC NEAR ; std::getline<char,std::char_traits<char>,std::allocator<char> >, COMDAT

; 477  : 	{	// get characters into string, discard delimiter

  00000	55		 push	 ebp
  00001	8b ec		 mov	 ebp, esp
  00003	6a ff		 push	 -1
  00005	68 00 00 00 00	 push	 __ehhandler$??$getline@DU?$char_traits@D@std@@V?$allocator@D@2@@std@@YAAAV?$basic_istream@DU?$char_traits@D@std@@@0@AAV10@AAV?$basic_string@DU?$char_traits@D@std@@V?$allocator@D@2@@0@D@Z
  0000a	64 a1 00 00 00
	00		 mov	 eax, DWORD PTR fs:__except_list
  00010	50		 push	 eax
  00011	64 89 25 00 00
	00 00		 mov	 DWORD PTR fs:__except_list, esp
  00018	51		 push	 ecx
  00019	83 ec 4c	 sub	 esp, 76			; 0000004cH
  0001c	53		 push	 ebx
  0001d	56		 push	 esi
  0001e	57		 push	 edi
  0001f	89 65 f0	 mov	 DWORD PTR __$EHRec$[ebp], esp

; 478  : 	typedef basic_istream<_Elem, _Traits> _Myis;
; 479  : 	ios_base::iostate _State = ios_base::goodbit;

  00022	c7 45 ec 00 00
	00 00		 mov	 DWORD PTR __State$[ebp], 0

; 480  : 	bool _Changed = false;

  00029	c6 45 e3 00	 mov	 BYTE PTR __Changed$[ebp], 0

; 481  : 	const typename _Myis::sentry _Ok(_Istr, true);

  0002d	6a 01		 push	 1
  0002f	8b 45 08	 mov	 eax, DWORD PTR __Istr$[ebp]
  00032	50		 push	 eax
  00033	8d 4d e4	 lea	 ecx, DWORD PTR __Ok$[ebp]
  00036	e8 00 00 00 00	 call	 ??0sentry@?$basic_istream@DU?$char_traits@D@std@@@std@@QAE@AAV12@_N@Z ; std::basic_istream<char,std::char_traits<char> >::sentry::sentry
  0003b	c7 45 fc 00 00
	00 00		 mov	 DWORD PTR __$EHRec$[ebp+12], 0

; 482  : 
; 483  : 	if (_Ok)

  00042	8d 4d e4	 lea	 ecx, DWORD PTR __Ok$[ebp]
  00045	e8 00 00 00 00	 call	 ??Bsentry@?$basic_istream@DU?$char_traits@D@std@@@std@@QBE_NXZ ; std::basic_istream<char,std::char_traits<char> >::sentry::operator bool
  0004a	0f b6 c8	 movzx	 ecx, al
  0004d	85 c9		 test	 ecx, ecx
  0004f	0f 84 66 01 00
	00		 je	 $L90435

; 484  : 		{	// state okay, extract characters
; 485  : 		_TRY_IO_BEGIN

  00055	c6 45 fc 01	 mov	 BYTE PTR __$EHRec$[ebp+12], 1

; 486  : 		_Str.erase();

  00059	8b 15 00 00 00
	00		 mov	 edx, DWORD PTR __imp_?npos@?$basic_string@DU?$char_traits@D@std@@V?$allocator@D@2@@std@@2IB
  0005f	8b 02		 mov	 eax, DWORD PTR [edx]
  00061	50		 push	 eax
  00062	6a 00		 push	 0
  00064	8b 4d 0c	 mov	 ecx, DWORD PTR __Str$[ebp]
  00067	ff 15 00 00 00
	00		 call	 DWORD PTR __imp_?erase@?$basic_string@DU?$char_traits@D@std@@V?$allocator@D@2@@std@@QAEAAV12@II@Z

; 487  : 		const typename _Traits::int_type _Metadelim =
; 488  : 			_Traits::to_int_type(_Delim);

  0006d	8d 4d 10	 lea	 ecx, DWORD PTR __Delim$[ebp]
  00070	51		 push	 ecx
  00071	ff 15 00 00 00
	00		 call	 DWORD PTR __imp_?to_int_type@?$char_traits@D@std@@SAHABD@Z
  00077	83 c4 04	 add	 esp, 4
  0007a	89 45 cc	 mov	 DWORD PTR tv65[ebp], eax
  0007d	8b 55 cc	 mov	 edx, DWORD PTR tv65[ebp]
  00080	89 55 dc	 mov	 DWORD PTR __Metadelim$87724[ebp], edx

; 489  : 		typename _Traits::int_type _Meta = _Istr.rdbuf()->sgetc();

  00083	8b 45 08	 mov	 eax, DWORD PTR __Istr$[ebp]
  00086	8b 08		 mov	 ecx, DWORD PTR [eax]
  00088	8b 55 08	 mov	 edx, DWORD PTR __Istr$[ebp]
  0008b	03 51 04	 add	 edx, DWORD PTR [ecx+4]
  0008e	8b ca		 mov	 ecx, edx
  00090	ff 15 00 00 00
	00		 call	 DWORD PTR __imp_?rdbuf@?$basic_ios@DU?$char_traits@D@std@@@std@@QBEPAV?$basic_streambuf@DU?$char_traits@D@std@@@2@XZ
  00096	89 45 c8	 mov	 DWORD PTR tv165[ebp], eax
  00099	8b 4d c8	 mov	 ecx, DWORD PTR tv165[ebp]
  0009c	ff 15 00 00 00
	00		 call	 DWORD PTR __imp_?sgetc@?$basic_streambuf@DU?$char_traits@D@std@@@std@@QAEHXZ
  000a2	89 45 c4	 mov	 DWORD PTR tv166[ebp], eax
  000a5	8b 45 c4	 mov	 eax, DWORD PTR tv166[ebp]
  000a8	89 45 d8	 mov	 DWORD PTR __Meta$87725[ebp], eax

; 490  : 
; 491  : 		for (; ; _Meta = _Istr.rdbuf()->snextc())

  000ab	eb 26		 jmp	 SHORT $L87726
$L87727:
  000ad	8b 4d 08	 mov	 ecx, DWORD PTR __Istr$[ebp]
  000b0	8b 11		 mov	 edx, DWORD PTR [ecx]
  000b2	8b 4d 08	 mov	 ecx, DWORD PTR __Istr$[ebp]
  000b5	03 4a 04	 add	 ecx, DWORD PTR [edx+4]
  000b8	ff 15 00 00 00
	00		 call	 DWORD PTR __imp_?rdbuf@?$basic_ios@DU?$char_traits@D@std@@@std@@QBEPAV?$basic_streambuf@DU?$char_traits@D@std@@@2@XZ
  000be	89 45 c0	 mov	 DWORD PTR tv167[ebp], eax
  000c1	8b 4d c0	 mov	 ecx, DWORD PTR tv167[ebp]
  000c4	ff 15 00 00 00
	00		 call	 DWORD PTR __imp_?snextc@?$basic_streambuf@DU?$char_traits@D@std@@@std@@QAEHXZ
  000ca	89 45 bc	 mov	 DWORD PTR tv168[ebp], eax
  000cd	8b 45 bc	 mov	 eax, DWORD PTR tv168[ebp]
  000d0	89 45 d8	 mov	 DWORD PTR __Meta$87725[ebp], eax
$L87726:

; 492  : 			if (_Traits::eq_int_type(_Traits::eof(), _Meta))

  000d3	ff 15 00 00 00
	00		 call	 DWORD PTR __imp_?eof@?$char_traits@D@std@@SAHXZ
  000d9	89 45 b8	 mov	 DWORD PTR tv169[ebp], eax
  000dc	8b 4d b8	 mov	 ecx, DWORD PTR tv169[ebp]
  000df	89 4d d4	 mov	 DWORD PTR $T90433[ebp], ecx
  000e2	8d 55 d8	 lea	 edx, DWORD PTR __Meta$87725[ebp]
  000e5	52		 push	 edx
  000e6	8d 45 d4	 lea	 eax, DWORD PTR $T90433[ebp]
  000e9	50		 push	 eax
  000ea	ff 15 00 00 00
	00		 call	 DWORD PTR __imp_?eq_int_type@?$char_traits@D@std@@SA_NABH0@Z
  000f0	83 c4 08	 add	 esp, 8
  000f3	88 45 b7	 mov	 BYTE PTR tv170[ebp], al
  000f6	0f b6 4d b7	 movzx	 ecx, BYTE PTR tv170[ebp]
  000fa	85 c9		 test	 ecx, ecx
  000fc	74 0e		 je	 SHORT $L87730

; 493  : 				{	// end of file, quit
; 494  : 				_State |= ios_base::eofbit;

  000fe	8b 55 ec	 mov	 edx, DWORD PTR __State$[ebp]
  00101	83 ca 01	 or	 edx, 1
  00104	89 55 ec	 mov	 DWORD PTR __State$[ebp], edx

; 495  : 				break;

  00107	e9 92 00 00 00	 jmp	 $L87728
$L87730:

; 496  : 				}
; 497  : 			else if (_Traits::eq_int_type(_Meta, _Metadelim))

  0010c	8d 45 dc	 lea	 eax, DWORD PTR __Metadelim$87724[ebp]
  0010f	50		 push	 eax
  00110	8d 4d d8	 lea	 ecx, DWORD PTR __Meta$87725[ebp]
  00113	51		 push	 ecx
  00114	ff 15 00 00 00
	00		 call	 DWORD PTR __imp_?eq_int_type@?$char_traits@D@std@@SA_NABH0@Z
  0011a	83 c4 08	 add	 esp, 8
  0011d	88 45 b6	 mov	 BYTE PTR tv171[ebp], al
  00120	0f b6 55 b6	 movzx	 edx, BYTE PTR tv171[ebp]
  00124	85 d2		 test	 edx, edx
  00126	74 25		 je	 SHORT $L87732

; 498  : 				{	// got a delimiter, discard it and quit
; 499  : 				_Changed = true;

  00128	c6 45 e3 01	 mov	 BYTE PTR __Changed$[ebp], 1

; 500  : 				_Istr.rdbuf()->sbumpc();

  0012c	8b 45 08	 mov	 eax, DWORD PTR __Istr$[ebp]
  0012f	8b 08		 mov	 ecx, DWORD PTR [eax]
  00131	8b 55 08	 mov	 edx, DWORD PTR __Istr$[ebp]
  00134	03 51 04	 add	 edx, DWORD PTR [ecx+4]
  00137	8b ca		 mov	 ecx, edx
  00139	ff 15 00 00 00
	00		 call	 DWORD PTR __imp_?rdbuf@?$basic_ios@DU?$char_traits@D@std@@@std@@QBEPAV?$basic_streambuf@DU?$char_traits@D@std@@@2@XZ
  0013f	89 45 b0	 mov	 DWORD PTR tv172[ebp], eax
  00142	8b 4d b0	 mov	 ecx, DWORD PTR tv172[ebp]
  00145	ff 15 00 00 00
	00		 call	 DWORD PTR __imp_?sbumpc@?$basic_streambuf@DU?$char_traits@D@std@@@std@@QAEHXZ

; 501  : 				break;

  0014b	eb 51		 jmp	 SHORT $L87728
$L87732:

; 502  : 				}
; 503  : 			else if (_Str.max_size() <= _Str.size())

  0014d	8b 4d 0c	 mov	 ecx, DWORD PTR __Str$[ebp]
  00150	ff 15 00 00 00
	00		 call	 DWORD PTR __imp_?max_size@?$basic_string@DU?$char_traits@D@std@@V?$allocator@D@2@@std@@QBEIXZ
  00156	89 45 ac	 mov	 DWORD PTR tv173[ebp], eax
  00159	8b 4d 0c	 mov	 ecx, DWORD PTR __Str$[ebp]
  0015c	ff 15 00 00 00
	00		 call	 DWORD PTR __imp_?size@?$basic_string@DU?$char_traits@D@std@@V?$allocator@D@2@@std@@QBEIXZ
  00162	89 45 a8	 mov	 DWORD PTR tv174[ebp], eax
  00165	8b 45 ac	 mov	 eax, DWORD PTR tv173[ebp]
  00168	3b 45 a8	 cmp	 eax, DWORD PTR tv174[ebp]
  0016b	77 0b		 ja	 SHORT $L87734

; 504  : 				{	// string too large, quit
; 505  : 				_State |= ios_base::failbit;

  0016d	8b 4d ec	 mov	 ecx, DWORD PTR __State$[ebp]
  00170	83 c9 02	 or	 ecx, 2
  00173	89 4d ec	 mov	 DWORD PTR __State$[ebp], ecx

; 506  : 				break;

  00176	eb 26		 jmp	 SHORT $L87728
$L87734:

; 507  : 				}
; 508  : 			else
; 509  : 				{	// got a character, add it to string
; 510  : 				_Str += _Traits::to_char_type(_Meta);

  00178	8d 55 d8	 lea	 edx, DWORD PTR __Meta$87725[ebp]
  0017b	52		 push	 edx
  0017c	ff 15 00 00 00
	00		 call	 DWORD PTR __imp_?to_char_type@?$char_traits@D@std@@SADABH@Z
  00182	83 c4 04	 add	 esp, 4
  00185	88 45 a7	 mov	 BYTE PTR tv175[ebp], al
  00188	8a 45 a7	 mov	 al, BYTE PTR tv175[ebp]
  0018b	50		 push	 eax
  0018c	8b 4d 0c	 mov	 ecx, DWORD PTR __Str$[ebp]
  0018f	ff 15 00 00 00
	00		 call	 DWORD PTR __imp_??Y?$basic_string@DU?$char_traits@D@std@@V?$allocator@D@2@@std@@QAEAAV01@D@Z

; 511  : 				_Changed = true;

  00195	c6 45 e3 01	 mov	 BYTE PTR __Changed$[ebp], 1

; 512  : 				}

  00199	e9 0f ff ff ff	 jmp	 $L87727
$L87728:
  0019e	eb 1b		 jmp	 SHORT $L90435
$L90436:

; 513  : 		_CATCH_IO_(_Istr)

  001a0	6a 01		 push	 1
  001a2	6a 04		 push	 4
  001a4	8b 4d 08	 mov	 ecx, DWORD PTR __Istr$[ebp]
  001a7	8b 11		 mov	 edx, DWORD PTR [ecx]
  001a9	8b 4d 08	 mov	 ecx, DWORD PTR __Istr$[ebp]
  001ac	03 4a 04	 add	 ecx, DWORD PTR [edx+4]
  001af	ff 15 00 00 00
	00		 call	 DWORD PTR __imp_?setstate@?$basic_ios@DU?$char_traits@D@std@@@std@@QAEXH_N@Z
  001b5	b8 00 00 00 00	 mov	 eax, $L90435
  001ba	c3		 ret	 0
$L90435:
  001bb	c7 45 fc 00 00
	00 00		 mov	 DWORD PTR __$EHRec$[ebp+12], 0

; 514  : 		}
; 515  : 
; 516  : 	if (!_Changed)

  001c2	0f b6 45 e3	 movzx	 eax, BYTE PTR __Changed$[ebp]
  001c6	85 c0		 test	 eax, eax
  001c8	75 09		 jne	 SHORT $L87736

; 517  : 		_State |= ios_base::failbit;

  001ca	8b 4d ec	 mov	 ecx, DWORD PTR __State$[ebp]
  001cd	83 c9 02	 or	 ecx, 2
  001d0	89 4d ec	 mov	 DWORD PTR __State$[ebp], ecx
$L87736:

; 518  : 	_Istr.setstate(_State);

  001d3	6a 00		 push	 0
  001d5	8b 55 ec	 mov	 edx, DWORD PTR __State$[ebp]
  001d8	52		 push	 edx
  001d9	8b 45 08	 mov	 eax, DWORD PTR __Istr$[ebp]
  001dc	8b 08		 mov	 ecx, DWORD PTR [eax]
  001de	8b 55 08	 mov	 edx, DWORD PTR __Istr$[ebp]
  001e1	03 51 04	 add	 edx, DWORD PTR [ecx+4]
  001e4	8b ca		 mov	 ecx, edx
  001e6	ff 15 00 00 00
	00		 call	 DWORD PTR __imp_?setstate@?$basic_ios@DU?$char_traits@D@std@@@std@@QAEXH_N@Z

; 519  : 	return (_Istr);

  001ec	8b 45 08	 mov	 eax, DWORD PTR __Istr$[ebp]
  001ef	89 45 d0	 mov	 DWORD PTR $T90434[ebp], eax
  001f2	c7 45 fc ff ff
	ff ff		 mov	 DWORD PTR __$EHRec$[ebp+12], -1
  001f9	8d 4d e4	 lea	 ecx, DWORD PTR __Ok$[ebp]
  001fc	e8 00 00 00 00	 call	 ??1sentry@?$basic_istream@DU?$char_traits@D@std@@@std@@QAE@XZ
  00201	8b 45 d0	 mov	 eax, DWORD PTR $T90434[ebp]

; 520  : 	}

  00204	8b 4d f4	 mov	 ecx, DWORD PTR __$EHRec$[ebp+4]
  00207	64 89 0d 00 00
	00 00		 mov	 DWORD PTR fs:__except_list, ecx
  0020e	5f		 pop	 edi
  0020f	5e		 pop	 esi
  00210	5b		 pop	 ebx
  00211	8b e5		 mov	 esp, ebp
  00213	5d		 pop	 ebp
  00214	c3		 ret	 0
_TEXT	ENDS
;	COMDAT text$x
text$x	SEGMENT
$L90437:
  00000	8d 4d e4	 lea	 ecx, DWORD PTR __Ok$[ebp]
  00003	e9 00 00 00 00	 jmp	 ??1sentry@?$basic_istream@DU?$char_traits@D@std@@@std@@QAE@XZ
__ehhandler$??$getline@DU?$char_traits@D@std@@V?$allocator@D@2@@std@@YAAAV?$basic_istream@DU?$char_traits@D@std@@@0@AAV10@AAV?$basic_string@DU?$char_traits@D@std@@V?$allocator@D@2@@0@D@Z:
  00008	b8 00 00 00 00	 mov	 eax, OFFSET FLAT:$T90439
  0000d	e9 00 00 00 00	 jmp	 ___CxxFrameHandler
text$x	ENDS
??$getline@DU?$char_traits@D@std@@V?$allocator@D@2@@std@@YAAAV?$basic_istream@DU?$char_traits@D@std@@@0@AAV10@AAV?$basic_string@DU?$char_traits@D@std@@V?$allocator@D@2@@0@D@Z ENDP ; std::getline<char,std::char_traits<char>,std::allocator<char> >
PUBLIC	??0sentry@?$basic_ostream@DU?$char_traits@D@std@@@std@@QAE@AAV12@@Z ; std::basic_ostream<char,std::char_traits<char> >::sentry::sentry
PUBLIC	??1sentry@?$basic_ostream@DU?$char_traits@D@std@@@std@@QAE@XZ ; std::basic_ostream<char,std::char_traits<char> >::sentry::~sentry
PUBLIC	??Bsentry@?$basic_ostream@DU?$char_traits@D@std@@@std@@QBE_NXZ ; std::basic_ostream<char,std::char_traits<char> >::sentry::operator bool
PUBLIC	??$?6DU?$char_traits@D@std@@V?$allocator@D@1@@std@@YAAAV?$basic_ostream@DU?$char_traits@D@std@@@0@AAV10@ABV?$basic_string@DU?$char_traits@D@std@@V?$allocator@D@2@@0@@Z ; std::operator<<<char,std::char_traits<char>,std::allocator<char> >
EXTRN	__imp_??A?$basic_string@DU?$char_traits@D@std@@V?$allocator@D@2@@std@@QBEABDI@Z:NEAR
EXTRN	__imp_?sputc@?$basic_streambuf@DU?$char_traits@D@std@@@std@@QAEHD@Z:NEAR
EXTRN	__imp_?fill@?$basic_ios@DU?$char_traits@D@std@@@std@@QBEDXZ:NEAR
EXTRN	__imp_?flags@ios_base@std@@QBEHXZ:NEAR
;	COMDAT xdata$x
xdata$x	SEGMENT
$T90463	DD	0ffffffffH
	DD	FLAT:$L90459
	DD	00H
	DD	00H
	DD	00H
	DD	00H
$T90465	DD	00H
	DD	00H
	DD	00H
	DD	FLAT:$L90458
$T90464	DD	01H
	DD	01H
	DD	02H
	DD	01H
	DD	FLAT:$T90465
$T90461	DD	019930520H
	DD	03H
	DD	FLAT:$T90463
	DD	01H
	DD	FLAT:$T90464
	DD	2 DUP(00H)
; Function compile flags: /Odt
xdata$x	ENDS
;	COMDAT ??$?6DU?$char_traits@D@std@@V?$allocator@D@1@@std@@YAAAV?$basic_ostream@DU?$char_traits@D@std@@@0@AAV10@ABV?$basic_string@DU?$char_traits@D@std@@V?$allocator@D@2@@0@@Z
_TEXT	SEGMENT
tv221 = -129						; size = 1
tv220 = -128						; size = 4
tv219 = -124						; size = 4
tv218 = -120						; size = 4
tv217 = -114						; size = 1
tv216 = -113						; size = 1
tv215 = -112						; size = 4
tv214 = -108						; size = 4
tv213 = -104						; size = 4
tv212 = -100						; size = 4
tv211 = -93						; size = 1
tv210 = -92						; size = 4
tv209 = -88						; size = 4
tv208 = -84						; size = 4
tv207 = -77						; size = 1
tv83 = -76						; size = 4
tv81 = -72						; size = 4
$T90456 = -68						; size = 4
$T90455 = -64						; size = 4
$T90454 = -60						; size = 4
$T90453 = -56						; size = 4
$T90452 = -52						; size = 4
$T90451 = -48						; size = 4
$T90450 = -44						; size = 4
__Count$87759 = -40					; size = 4
__Size$ = -36						; size = 4
__Ok$ = -32						; size = 8
__Pad$ = -24						; size = 4
__State$ = -20						; size = 4
__$EHRec$ = -16						; size = 16
__Ostr$ = 8						; size = 4
__Str$ = 12						; size = 4
??$?6DU?$char_traits@D@std@@V?$allocator@D@1@@std@@YAAAV?$basic_ostream@DU?$char_traits@D@std@@@0@AAV10@ABV?$basic_string@DU?$char_traits@D@std@@V?$allocator@D@2@@0@@Z PROC NEAR ; std::operator<<<char,std::char_traits<char>,std::allocator<char> >, COMDAT

; 538  : 	{	// insert a string

  00000	55		 push	 ebp
  00001	8b ec		 mov	 ebp, esp
  00003	6a ff		 push	 -1
  00005	68 00 00 00 00	 push	 __ehhandler$??$?6DU?$char_traits@D@std@@V?$allocator@D@1@@std@@YAAAV?$basic_ostream@DU?$char_traits@D@std@@@0@AAV10@ABV?$basic_string@DU?$char_traits@D@std@@V?$allocator@D@2@@0@@Z
  0000a	64 a1 00 00 00
	00		 mov	 eax, DWORD PTR fs:__except_list
  00010	50		 push	 eax
  00011	64 89 25 00 00
	00 00		 mov	 DWORD PTR fs:__except_list, esp
  00018	51		 push	 ecx
  00019	83 ec 74	 sub	 esp, 116		; 00000074H
  0001c	53		 push	 ebx
  0001d	56		 push	 esi
  0001e	57		 push	 edi
  0001f	89 65 f0	 mov	 DWORD PTR __$EHRec$[ebp], esp

; 539  : 	typedef basic_ostream<_Elem, _Traits> _Myos;
; 540  : 	typedef basic_string<_Elem, _Traits, _Alloc> _Mystr;
; 541  : 	typedef typename _Mystr::size_type _Mysizt;
; 542  : 
; 543  : 	ios_base::iostate _State = ios_base::goodbit;

  00022	c7 45 ec 00 00
	00 00		 mov	 DWORD PTR __State$[ebp], 0

; 544  : 	_Mysizt _Size = _Str.size();

  00029	8b 4d 0c	 mov	 ecx, DWORD PTR __Str$[ebp]
  0002c	ff 15 00 00 00
	00		 call	 DWORD PTR __imp_?size@?$basic_string@DU?$char_traits@D@std@@V?$allocator@D@2@@std@@QBEIXZ
  00032	89 45 dc	 mov	 DWORD PTR __Size$[ebp], eax

; 545  : 	_Mysizt _Pad = _Ostr.width() <= 0 || (_Mysizt)_Ostr.width() <= _Size
; 546  : 			? 0 : (_Mysizt)_Ostr.width() - _Size;

  00035	8b 45 08	 mov	 eax, DWORD PTR __Ostr$[ebp]
  00038	8b 08		 mov	 ecx, DWORD PTR [eax]
  0003a	8b 55 08	 mov	 edx, DWORD PTR __Ostr$[ebp]
  0003d	03 51 04	 add	 edx, DWORD PTR [ecx+4]
  00040	8b ca		 mov	 ecx, edx
  00042	ff 15 00 00 00
	00		 call	 DWORD PTR __imp_?width@ios_base@std@@QBEHXZ
  00048	85 c0		 test	 eax, eax
  0004a	7e 33		 jle	 SHORT $L90448
  0004c	8b 45 08	 mov	 eax, DWORD PTR __Ostr$[ebp]
  0004f	8b 08		 mov	 ecx, DWORD PTR [eax]
  00051	8b 55 08	 mov	 edx, DWORD PTR __Ostr$[ebp]
  00054	03 51 04	 add	 edx, DWORD PTR [ecx+4]
  00057	8b ca		 mov	 ecx, edx
  00059	ff 15 00 00 00
	00		 call	 DWORD PTR __imp_?width@ios_base@std@@QBEHXZ
  0005f	3b 45 dc	 cmp	 eax, DWORD PTR __Size$[ebp]
  00062	76 1b		 jbe	 SHORT $L90448
  00064	8b 45 08	 mov	 eax, DWORD PTR __Ostr$[ebp]
  00067	8b 08		 mov	 ecx, DWORD PTR [eax]
  00069	8b 55 08	 mov	 edx, DWORD PTR __Ostr$[ebp]
  0006c	03 51 04	 add	 edx, DWORD PTR [ecx+4]
  0006f	8b ca		 mov	 ecx, edx
  00071	ff 15 00 00 00
	00		 call	 DWORD PTR __imp_?width@ios_base@std@@QBEHXZ
  00077	2b 45 dc	 sub	 eax, DWORD PTR __Size$[ebp]
  0007a	89 45 b8	 mov	 DWORD PTR tv81[ebp], eax
  0007d	eb 07		 jmp	 SHORT $L90449
$L90448:
  0007f	c7 45 b8 00 00
	00 00		 mov	 DWORD PTR tv81[ebp], 0
$L90449:
  00086	8b 45 b8	 mov	 eax, DWORD PTR tv81[ebp]
  00089	89 45 e8	 mov	 DWORD PTR __Pad$[ebp], eax

; 547  : 	const typename _Myos::sentry _Ok(_Ostr);

  0008c	8b 4d 08	 mov	 ecx, DWORD PTR __Ostr$[ebp]
  0008f	51		 push	 ecx
  00090	8d 4d e0	 lea	 ecx, DWORD PTR __Ok$[ebp]
  00093	e8 00 00 00 00	 call	 ??0sentry@?$basic_ostream@DU?$char_traits@D@std@@@std@@QAE@AAV12@@Z ; std::basic_ostream<char,std::char_traits<char> >::sentry::sentry
  00098	c7 45 fc 00 00
	00 00		 mov	 DWORD PTR __$EHRec$[ebp+12], 0

; 548  : 
; 549  : 	if (!_Ok)

  0009f	8d 4d e0	 lea	 ecx, DWORD PTR __Ok$[ebp]
  000a2	e8 00 00 00 00	 call	 ??Bsentry@?$basic_ostream@DU?$char_traits@D@std@@@std@@QBE_NXZ ; std::basic_ostream<char,std::char_traits<char> >::sentry::operator bool
  000a7	0f b6 d0	 movzx	 edx, al
  000aa	85 d2		 test	 edx, edx
  000ac	75 0e		 jne	 SHORT $L87748

; 550  : 		_State |= ios_base::badbit;

  000ae	8b 45 ec	 mov	 eax, DWORD PTR __State$[ebp]
  000b1	83 c8 04	 or	 eax, 4
  000b4	89 45 ec	 mov	 DWORD PTR __State$[ebp], eax

; 551  : 	else

  000b7	e9 22 02 00 00	 jmp	 $L90457
$L87748:

; 552  : 		{	// state okay, insert characters
; 553  : 	_TRY_IO_BEGIN

  000bc	c6 45 fc 01	 mov	 BYTE PTR __$EHRec$[ebp+12], 1

; 554  : 		if ((_Ostr.flags() & ios_base::adjustfield) != ios_base::left)

  000c0	8b 4d 08	 mov	 ecx, DWORD PTR __Ostr$[ebp]
  000c3	8b 11		 mov	 edx, DWORD PTR [ecx]
  000c5	8b 4d 08	 mov	 ecx, DWORD PTR __Ostr$[ebp]
  000c8	03 4a 04	 add	 ecx, DWORD PTR [edx+4]
  000cb	ff 15 00 00 00
	00		 call	 DWORD PTR __imp_?flags@ios_base@std@@QBEHXZ
  000d1	89 45 b4	 mov	 DWORD PTR tv83[ebp], eax
  000d4	8b 45 b4	 mov	 eax, DWORD PTR tv83[ebp]
  000d7	25 c0 01 00 00	 and	 eax, 448		; 000001c0H
  000dc	83 f8 40	 cmp	 eax, 64			; 00000040H
  000df	0f 84 8a 00 00
	00		 je	 $L87751

; 555  : 			for (; 0 < _Pad; --_Pad)	// pad on left

  000e5	eb 09		 jmp	 SHORT $L87752
$L87753:
  000e7	8b 4d e8	 mov	 ecx, DWORD PTR __Pad$[ebp]
  000ea	83 e9 01	 sub	 ecx, 1
  000ed	89 4d e8	 mov	 DWORD PTR __Pad$[ebp], ecx
$L87752:
  000f0	83 7d e8 00	 cmp	 DWORD PTR __Pad$[ebp], 0
  000f4	76 79		 jbe	 SHORT $L87751

; 556  : 				if (_Traits::eq_int_type(_Traits::eof(),
; 557  : 					_Ostr.rdbuf()->sputc(_Ostr.fill())))

  000f6	8b 55 08	 mov	 edx, DWORD PTR __Ostr$[ebp]
  000f9	8b 02		 mov	 eax, DWORD PTR [edx]
  000fb	8b 4d 08	 mov	 ecx, DWORD PTR __Ostr$[ebp]
  000fe	03 48 04	 add	 ecx, DWORD PTR [eax+4]
  00101	ff 15 00 00 00
	00		 call	 DWORD PTR __imp_?fill@?$basic_ios@DU?$char_traits@D@std@@@std@@QBEDXZ
  00107	88 45 b3	 mov	 BYTE PTR tv207[ebp], al
  0010a	8b 4d 08	 mov	 ecx, DWORD PTR __Ostr$[ebp]
  0010d	8b 11		 mov	 edx, DWORD PTR [ecx]
  0010f	8b 4d 08	 mov	 ecx, DWORD PTR __Ostr$[ebp]
  00112	03 4a 04	 add	 ecx, DWORD PTR [edx+4]
  00115	ff 15 00 00 00
	00		 call	 DWORD PTR __imp_?rdbuf@?$basic_ios@DU?$char_traits@D@std@@@std@@QBEPAV?$basic_streambuf@DU?$char_traits@D@std@@@2@XZ
  0011b	89 45 ac	 mov	 DWORD PTR tv208[ebp], eax
  0011e	8a 45 b3	 mov	 al, BYTE PTR tv207[ebp]
  00121	50		 push	 eax
  00122	8b 4d ac	 mov	 ecx, DWORD PTR tv208[ebp]
  00125	ff 15 00 00 00
	00		 call	 DWORD PTR __imp_?sputc@?$basic_streambuf@DU?$char_traits@D@std@@@std@@QAEHD@Z
  0012b	89 45 a8	 mov	 DWORD PTR tv209[ebp], eax
  0012e	8b 4d a8	 mov	 ecx, DWORD PTR tv209[ebp]
  00131	89 4d d4	 mov	 DWORD PTR $T90450[ebp], ecx
  00134	ff 15 00 00 00
	00		 call	 DWORD PTR __imp_?eof@?$char_traits@D@std@@SAHXZ
  0013a	89 45 a4	 mov	 DWORD PTR tv210[ebp], eax
  0013d	8b 55 a4	 mov	 edx, DWORD PTR tv210[ebp]
  00140	89 55 d0	 mov	 DWORD PTR $T90451[ebp], edx
  00143	8d 45 d4	 lea	 eax, DWORD PTR $T90450[ebp]
  00146	50		 push	 eax
  00147	8d 4d d0	 lea	 ecx, DWORD PTR $T90451[ebp]
  0014a	51		 push	 ecx
  0014b	ff 15 00 00 00
	00		 call	 DWORD PTR __imp_?eq_int_type@?$char_traits@D@std@@SA_NABH0@Z
  00151	83 c4 08	 add	 esp, 8
  00154	88 45 a3	 mov	 BYTE PTR tv211[ebp], al
  00157	0f b6 55 a3	 movzx	 edx, BYTE PTR tv211[ebp]
  0015b	85 d2		 test	 edx, edx
  0015d	74 0b		 je	 SHORT $L87757

; 558  : 					{	// insertion failed, quit
; 559  : 					_State |= ios_base::badbit;

  0015f	8b 45 ec	 mov	 eax, DWORD PTR __State$[ebp]
  00162	83 c8 04	 or	 eax, 4
  00165	89 45 ec	 mov	 DWORD PTR __State$[ebp], eax

; 560  : 					break;

  00168	eb 05		 jmp	 SHORT $L87751
$L87757:

; 561  : 					}
; 562  : 
; 563  : 		if (_State == ios_base::goodbit)

  0016a	e9 78 ff ff ff	 jmp	 $L87753
$L87751:
  0016f	83 7d ec 00	 cmp	 DWORD PTR __State$[ebp], 0
  00173	0f 85 91 00 00
	00		 jne	 $L87758

; 564  : 			for (_Mysizt _Count = 0; _Count < _Size; ++_Count)

  00179	c7 45 d8 00 00
	00 00		 mov	 DWORD PTR __Count$87759[ebp], 0
  00180	eb 09		 jmp	 SHORT $L87760
$L87761:
  00182	8b 4d d8	 mov	 ecx, DWORD PTR __Count$87759[ebp]
  00185	83 c1 01	 add	 ecx, 1
  00188	89 4d d8	 mov	 DWORD PTR __Count$87759[ebp], ecx
$L87760:
  0018b	8b 55 d8	 mov	 edx, DWORD PTR __Count$87759[ebp]
  0018e	3b 55 dc	 cmp	 edx, DWORD PTR __Size$[ebp]
  00191	73 77		 jae	 SHORT $L87758

; 565  : 				if (_Traits::eq_int_type(_Traits::eof(),
; 566  : 					_Ostr.rdbuf()->sputc(_Str[_Count])))

  00193	8b 45 d8	 mov	 eax, DWORD PTR __Count$87759[ebp]
  00196	50		 push	 eax
  00197	8b 4d 0c	 mov	 ecx, DWORD PTR __Str$[ebp]
  0019a	ff 15 00 00 00
	00		 call	 DWORD PTR __imp_??A?$basic_string@DU?$char_traits@D@std@@V?$allocator@D@2@@std@@QBEABDI@Z
  001a0	89 45 9c	 mov	 DWORD PTR tv212[ebp], eax
  001a3	8b 4d 08	 mov	 ecx, DWORD PTR __Ostr$[ebp]
  001a6	8b 11		 mov	 edx, DWORD PTR [ecx]
  001a8	8b 4d 08	 mov	 ecx, DWORD PTR __Ostr$[ebp]
  001ab	03 4a 04	 add	 ecx, DWORD PTR [edx+4]
  001ae	ff 15 00 00 00
	00		 call	 DWORD PTR __imp_?rdbuf@?$basic_ios@DU?$char_traits@D@std@@@std@@QBEPAV?$basic_streambuf@DU?$char_traits@D@std@@@2@XZ
  001b4	89 45 98	 mov	 DWORD PTR tv213[ebp], eax
  001b7	8b 45 9c	 mov	 eax, DWORD PTR tv212[ebp]
  001ba	8a 08		 mov	 cl, BYTE PTR [eax]
  001bc	51		 push	 ecx
  001bd	8b 4d 98	 mov	 ecx, DWORD PTR tv213[ebp]
  001c0	ff 15 00 00 00
	00		 call	 DWORD PTR __imp_?sputc@?$basic_streambuf@DU?$char_traits@D@std@@@std@@QAEHD@Z
  001c6	89 45 94	 mov	 DWORD PTR tv214[ebp], eax
  001c9	8b 55 94	 mov	 edx, DWORD PTR tv214[ebp]
  001cc	89 55 cc	 mov	 DWORD PTR $T90452[ebp], edx
  001cf	ff 15 00 00 00
	00		 call	 DWORD PTR __imp_?eof@?$char_traits@D@std@@SAHXZ
  001d5	89 45 90	 mov	 DWORD PTR tv215[ebp], eax
  001d8	8b 45 90	 mov	 eax, DWORD PTR tv215[ebp]
  001db	89 45 c8	 mov	 DWORD PTR $T90453[ebp], eax
  001de	8d 4d cc	 lea	 ecx, DWORD PTR $T90452[ebp]
  001e1	51		 push	 ecx
  001e2	8d 55 c8	 lea	 edx, DWORD PTR $T90453[ebp]
  001e5	52		 push	 edx
  001e6	ff 15 00 00 00
	00		 call	 DWORD PTR __imp_?eq_int_type@?$char_traits@D@std@@SA_NABH0@Z
  001ec	83 c4 08	 add	 esp, 8
  001ef	88 45 8f	 mov	 BYTE PTR tv216[ebp], al
  001f2	0f b6 45 8f	 movzx	 eax, BYTE PTR tv216[ebp]
  001f6	85 c0		 test	 eax, eax
  001f8	74 0b		 je	 SHORT $L87765

; 567  : 					{	// insertion failed, quit
; 568  : 					_State |= ios_base::badbit;

  001fa	8b 4d ec	 mov	 ecx, DWORD PTR __State$[ebp]
  001fd	83 c9 04	 or	 ecx, 4
  00200	89 4d ec	 mov	 DWORD PTR __State$[ebp], ecx

; 569  : 					break;

  00203	eb 05		 jmp	 SHORT $L87758
$L87765:

; 570  : 					}
; 571  : 
; 572  : 		if (_State == ios_base::goodbit)

  00205	e9 78 ff ff ff	 jmp	 $L87761
$L87758:
  0020a	83 7d ec 00	 cmp	 DWORD PTR __State$[ebp], 0
  0020e	0f 85 98 00 00
	00		 jne	 $L87766

; 573  : 			for (; 0 < _Pad; --_Pad)	// pad on right

  00214	eb 09		 jmp	 SHORT $L87767
$L87768:
  00216	8b 55 e8	 mov	 edx, DWORD PTR __Pad$[ebp]
  00219	83 ea 01	 sub	 edx, 1
  0021c	89 55 e8	 mov	 DWORD PTR __Pad$[ebp], edx
$L87767:
  0021f	83 7d e8 00	 cmp	 DWORD PTR __Pad$[ebp], 0
  00223	0f 86 83 00 00
	00		 jbe	 $L87766

; 574  : 				if (_Traits::eq_int_type(_Traits::eof(),
; 575  : 					_Ostr.rdbuf()->sputc(_Ostr.fill())))

  00229	8b 45 08	 mov	 eax, DWORD PTR __Ostr$[ebp]
  0022c	8b 08		 mov	 ecx, DWORD PTR [eax]
  0022e	8b 55 08	 mov	 edx, DWORD PTR __Ostr$[ebp]
  00231	03 51 04	 add	 edx, DWORD PTR [ecx+4]
  00234	8b ca		 mov	 ecx, edx
  00236	ff 15 00 00 00
	00		 call	 DWORD PTR __imp_?fill@?$basic_ios@DU?$char_traits@D@std@@@std@@QBEDXZ
  0023c	88 45 8e	 mov	 BYTE PTR tv217[ebp], al
  0023f	8b 45 08	 mov	 eax, DWORD PTR __Ostr$[ebp]
  00242	8b 08		 mov	 ecx, DWORD PTR [eax]
  00244	8b 55 08	 mov	 edx, DWORD PTR __Ostr$[ebp]
  00247	03 51 04	 add	 edx, DWORD PTR [ecx+4]
  0024a	8b ca		 mov	 ecx, edx
  0024c	ff 15 00 00 00
	00		 call	 DWORD PTR __imp_?rdbuf@?$basic_ios@DU?$char_traits@D@std@@@std@@QBEPAV?$basic_streambuf@DU?$char_traits@D@std@@@2@XZ
  00252	89 45 88	 mov	 DWORD PTR tv218[ebp], eax
  00255	8a 45 8e	 mov	 al, BYTE PTR tv217[ebp]
  00258	50		 push	 eax
  00259	8b 4d 88	 mov	 ecx, DWORD PTR tv218[ebp]
  0025c	ff 15 00 00 00
	00		 call	 DWORD PTR __imp_?sputc@?$basic_streambuf@DU?$char_traits@D@std@@@std@@QAEHD@Z
  00262	89 45 84	 mov	 DWORD PTR tv219[ebp], eax
  00265	8b 4d 84	 mov	 ecx, DWORD PTR tv219[ebp]
  00268	89 4d c4	 mov	 DWORD PTR $T90454[ebp], ecx
  0026b	ff 15 00 00 00
	00		 call	 DWORD PTR __imp_?eof@?$char_traits@D@std@@SAHXZ
  00271	89 45 80	 mov	 DWORD PTR tv220[ebp], eax
  00274	8b 55 80	 mov	 edx, DWORD PTR tv220[ebp]
  00277	89 55 c0	 mov	 DWORD PTR $T90455[ebp], edx
  0027a	8d 45 c4	 lea	 eax, DWORD PTR $T90454[ebp]
  0027d	50		 push	 eax
  0027e	8d 4d c0	 lea	 ecx, DWORD PTR $T90455[ebp]
  00281	51		 push	 ecx
  00282	ff 15 00 00 00
	00		 call	 DWORD PTR __imp_?eq_int_type@?$char_traits@D@std@@SA_NABH0@Z
  00288	83 c4 08	 add	 esp, 8
  0028b	88 85 7f ff ff
	ff		 mov	 BYTE PTR tv221[ebp], al
  00291	0f b6 95 7f ff
	ff ff		 movzx	 edx, BYTE PTR tv221[ebp]
  00298	85 d2		 test	 edx, edx
  0029a	74 0b		 je	 SHORT $L87772

; 576  : 					{	// insertion failed, quit
; 577  : 					_State |= ios_base::badbit;

  0029c	8b 45 ec	 mov	 eax, DWORD PTR __State$[ebp]
  0029f	83 c8 04	 or	 eax, 4
  002a2	89 45 ec	 mov	 DWORD PTR __State$[ebp], eax

; 578  : 					break;

  002a5	eb 05		 jmp	 SHORT $L87766
$L87772:

; 579  : 					}
; 580  : 		_Ostr.width(0);

  002a7	e9 6a ff ff ff	 jmp	 $L87768
$L87766:
  002ac	6a 00		 push	 0
  002ae	8b 4d 08	 mov	 ecx, DWORD PTR __Ostr$[ebp]
  002b1	8b 11		 mov	 edx, DWORD PTR [ecx]
  002b3	8b 4d 08	 mov	 ecx, DWORD PTR __Ostr$[ebp]
  002b6	03 4a 04	 add	 ecx, DWORD PTR [edx+4]
  002b9	ff 15 00 00 00
	00		 call	 DWORD PTR __imp_?width@ios_base@std@@QAEHH@Z
  002bf	eb 1d		 jmp	 SHORT $L90457
$L90458:

; 581  : 		_CATCH_IO_(_Ostr)

  002c1	6a 01		 push	 1
  002c3	6a 04		 push	 4
  002c5	8b 45 08	 mov	 eax, DWORD PTR __Ostr$[ebp]
  002c8	8b 08		 mov	 ecx, DWORD PTR [eax]
  002ca	8b 55 08	 mov	 edx, DWORD PTR __Ostr$[ebp]
  002cd	03 51 04	 add	 edx, DWORD PTR [ecx+4]
  002d0	8b ca		 mov	 ecx, edx
  002d2	ff 15 00 00 00
	00		 call	 DWORD PTR __imp_?setstate@?$basic_ios@DU?$char_traits@D@std@@@std@@QAEXH_N@Z
  002d8	b8 00 00 00 00	 mov	 eax, $L90457
  002dd	c3		 ret	 0
$L90457:
  002de	c7 45 fc 00 00
	00 00		 mov	 DWORD PTR __$EHRec$[ebp+12], 0

; 582  : 		}
; 583  : 
; 584  : 	_Ostr.setstate(_State);

  002e5	6a 00		 push	 0
  002e7	8b 45 ec	 mov	 eax, DWORD PTR __State$[ebp]
  002ea	50		 push	 eax
  002eb	8b 4d 08	 mov	 ecx, DWORD PTR __Ostr$[ebp]
  002ee	8b 11		 mov	 edx, DWORD PTR [ecx]
  002f0	8b 4d 08	 mov	 ecx, DWORD PTR __Ostr$[ebp]
  002f3	03 4a 04	 add	 ecx, DWORD PTR [edx+4]
  002f6	ff 15 00 00 00
	00		 call	 DWORD PTR __imp_?setstate@?$basic_ios@DU?$char_traits@D@std@@@std@@QAEXH_N@Z

; 585  : 	return (_Ostr);

  002fc	8b 45 08	 mov	 eax, DWORD PTR __Ostr$[ebp]
  002ff	89 45 bc	 mov	 DWORD PTR $T90456[ebp], eax
  00302	c7 45 fc ff ff
	ff ff		 mov	 DWORD PTR __$EHRec$[ebp+12], -1
  00309	8d 4d e0	 lea	 ecx, DWORD PTR __Ok$[ebp]
  0030c	e8 00 00 00 00	 call	 ??1sentry@?$basic_ostream@DU?$char_traits@D@std@@@std@@QAE@XZ ; std::basic_ostream<char,std::char_traits<char> >::sentry::~sentry
  00311	8b 45 bc	 mov	 eax, DWORD PTR $T90456[ebp]

; 586  : 	}

  00314	8b 4d f4	 mov	 ecx, DWORD PTR __$EHRec$[ebp+4]
  00317	64 89 0d 00 00
	00 00		 mov	 DWORD PTR fs:__except_list, ecx
  0031e	5f		 pop	 edi
  0031f	5e		 pop	 esi
  00320	5b		 pop	 ebx
  00321	8b e5		 mov	 esp, ebp
  00323	5d		 pop	 ebp
  00324	c3		 ret	 0
_TEXT	ENDS
;	COMDAT text$x
text$x	SEGMENT
$L90459:
  00000	8d 4d e0	 lea	 ecx, DWORD PTR __Ok$[ebp]
  00003	e9 00 00 00 00	 jmp	 ??1sentry@?$basic_ostream@DU?$char_traits@D@std@@@std@@QAE@XZ ; std::basic_ostream<char,std::char_traits<char> >::sentry::~sentry
__ehhandler$??$?6DU?$char_traits@D@std@@V?$allocator@D@1@@std@@YAAAV?$basic_ostream@DU?$char_traits@D@std@@@0@AAV10@ABV?$basic_string@DU?$char_traits@D@std@@V?$allocator@D@2@@0@@Z:
  00008	b8 00 00 00 00	 mov	 eax, OFFSET FLAT:$T90461
  0000d	e9 00 00 00 00	 jmp	 ___CxxFrameHandler
text$x	ENDS
??$?6DU?$char_traits@D@std@@V?$allocator@D@1@@std@@YAAAV?$basic_ostream@DU?$char_traits@D@std@@@0@AAV10@ABV?$basic_string@DU?$char_traits@D@std@@V?$allocator@D@2@@0@@Z ENDP ; std::operator<<<char,std::char_traits<char>,std::allocator<char> >
PUBLIC	??0_Sentry_base@?$basic_ostream@DU?$char_traits@D@std@@@std@@QAE@AAV12@@Z ; std::basic_ostream<char,std::char_traits<char> >::_Sentry_base::_Sentry_base
PUBLIC	??1_Sentry_base@?$basic_ostream@DU?$char_traits@D@std@@@std@@QAE@XZ ; std::basic_ostream<char,std::char_traits<char> >::_Sentry_base::~_Sentry_base
EXTRN	__imp_?tie@?$basic_ios@DU?$char_traits@D@std@@@std@@QBEPAV?$basic_ostream@DU?$char_traits@D@std@@@2@XZ:NEAR
EXTRN	__imp_?good@ios_base@std@@QBE_NXZ:NEAR
EXTRN	__imp_?flush@?$basic_ostream@DU?$char_traits@D@std@@@std@@QAEAAV12@XZ:NEAR
;	COMDAT xdata$x
; File d:\program files (x86)\microsoft visual studio .net 2003\vc7\include\ostream
xdata$x	SEGMENT
$T90474	DD	0ffffffffH
	DD	FLAT:$L90470
$T90472	DD	019930520H
	DD	01H
	DD	FLAT:$T90474
	DD	2 DUP(00H)
	DD	2 DUP(00H)
; Function compile flags: /Odt
xdata$x	ENDS
;	COMDAT ??0sentry@?$basic_ostream@DU?$char_traits@D@std@@@std@@QAE@AAV12@@Z
_TEXT	SEGMENT
_this$ = -16						; size = 4
__$EHRec$ = -12						; size = 12
__Ostr$ = 8						; size = 4
??0sentry@?$basic_ostream@DU?$char_traits@D@std@@@std@@QAE@AAV12@@Z PROC NEAR ; std::basic_ostream<char,std::char_traits<char> >::sentry::sentry, COMDAT
; _this$ = ecx

; 88   : 			{	// construct locking and testing stream

  00000	55		 push	 ebp
  00001	8b ec		 mov	 ebp, esp
  00003	6a ff		 push	 -1
  00005	68 00 00 00 00	 push	 __ehhandler$??0sentry@?$basic_ostream@DU?$char_traits@D@std@@@std@@QAE@AAV12@@Z
  0000a	64 a1 00 00 00
	00		 mov	 eax, DWORD PTR fs:__except_list
  00010	50		 push	 eax
  00011	64 89 25 00 00
	00 00		 mov	 DWORD PTR fs:__except_list, esp
  00018	51		 push	 ecx
  00019	89 4d f0	 mov	 DWORD PTR _this$[ebp], ecx
  0001c	8b 45 08	 mov	 eax, DWORD PTR __Ostr$[ebp]
  0001f	50		 push	 eax
  00020	8b 4d f0	 mov	 ecx, DWORD PTR _this$[ebp]
  00023	e8 00 00 00 00	 call	 ??0_Sentry_base@?$basic_ostream@DU?$char_traits@D@std@@@std@@QAE@AAV12@@Z ; std::basic_ostream<char,std::char_traits<char> >::_Sentry_base::_Sentry_base
  00028	c7 45 fc 00 00
	00 00		 mov	 DWORD PTR __$EHRec$[ebp+8], 0

; 89   : 			if (_Ostr.good() && _Ostr.tie() != 0)

  0002f	8b 4d 08	 mov	 ecx, DWORD PTR __Ostr$[ebp]
  00032	8b 11		 mov	 edx, DWORD PTR [ecx]
  00034	8b 4d 08	 mov	 ecx, DWORD PTR __Ostr$[ebp]
  00037	03 4a 04	 add	 ecx, DWORD PTR [edx+4]
  0003a	ff 15 00 00 00
	00		 call	 DWORD PTR __imp_?good@ios_base@std@@QBE_NXZ
  00040	0f b6 c0	 movzx	 eax, al
  00043	85 c0		 test	 eax, eax
  00045	74 30		 je	 SHORT $L87087
  00047	8b 4d 08	 mov	 ecx, DWORD PTR __Ostr$[ebp]
  0004a	8b 11		 mov	 edx, DWORD PTR [ecx]
  0004c	8b 4d 08	 mov	 ecx, DWORD PTR __Ostr$[ebp]
  0004f	03 4a 04	 add	 ecx, DWORD PTR [edx+4]
  00052	ff 15 00 00 00
	00		 call	 DWORD PTR __imp_?tie@?$basic_ios@DU?$char_traits@D@std@@@std@@QBEPAV?$basic_ostream@DU?$char_traits@D@std@@@2@XZ
  00058	85 c0		 test	 eax, eax
  0005a	74 1b		 je	 SHORT $L87087

; 90   : 				_Ostr.tie()->flush();

  0005c	8b 45 08	 mov	 eax, DWORD PTR __Ostr$[ebp]
  0005f	8b 08		 mov	 ecx, DWORD PTR [eax]
  00061	8b 55 08	 mov	 edx, DWORD PTR __Ostr$[ebp]
  00064	03 51 04	 add	 edx, DWORD PTR [ecx+4]
  00067	8b ca		 mov	 ecx, edx
  00069	ff 15 00 00 00
	00		 call	 DWORD PTR __imp_?tie@?$basic_ios@DU?$char_traits@D@std@@@std@@QBEPAV?$basic_ostream@DU?$char_traits@D@std@@@2@XZ
  0006f	8b c8		 mov	 ecx, eax
  00071	ff 15 00 00 00
	00		 call	 DWORD PTR __imp_?flush@?$basic_ostream@DU?$char_traits@D@std@@@std@@QAEAAV12@XZ
$L87087:

; 91   : 			_Ok = _Ostr.good();	// store test only after flushing tie

  00077	8b 45 08	 mov	 eax, DWORD PTR __Ostr$[ebp]
  0007a	8b 08		 mov	 ecx, DWORD PTR [eax]
  0007c	8b 55 08	 mov	 edx, DWORD PTR __Ostr$[ebp]
  0007f	03 51 04	 add	 edx, DWORD PTR [ecx+4]
  00082	8b ca		 mov	 ecx, edx
  00084	ff 15 00 00 00
	00		 call	 DWORD PTR __imp_?good@ios_base@std@@QBE_NXZ
  0008a	8b 4d f0	 mov	 ecx, DWORD PTR _this$[ebp]
  0008d	88 41 04	 mov	 BYTE PTR [ecx+4], al

; 92   : 			}

  00090	c7 45 fc ff ff
	ff ff		 mov	 DWORD PTR __$EHRec$[ebp+8], -1
  00097	8b 45 f0	 mov	 eax, DWORD PTR _this$[ebp]
  0009a	8b 4d f4	 mov	 ecx, DWORD PTR __$EHRec$[ebp]
  0009d	64 89 0d 00 00
	00 00		 mov	 DWORD PTR fs:__except_list, ecx
  000a4	8b e5		 mov	 esp, ebp
  000a6	5d		 pop	 ebp
  000a7	c2 04 00	 ret	 4
_TEXT	ENDS
;	COMDAT text$x
text$x	SEGMENT
$L90470:
  00000	8b 4d f0	 mov	 ecx, DWORD PTR _this$[ebp]
  00003	e9 00 00 00 00	 jmp	 ??1_Sentry_base@?$basic_ostream@DU?$char_traits@D@std@@@std@@QAE@XZ ; std::basic_ostream<char,std::char_traits<char> >::_Sentry_base::~_Sentry_base
__ehhandler$??0sentry@?$basic_ostream@DU?$char_traits@D@std@@@std@@QAE@AAV12@@Z:
  00008	b8 00 00 00 00	 mov	 eax, OFFSET FLAT:$T90472
  0000d	e9 00 00 00 00	 jmp	 ___CxxFrameHandler
text$x	ENDS
??0sentry@?$basic_ostream@DU?$char_traits@D@std@@@std@@QAE@AAV12@@Z ENDP ; std::basic_ostream<char,std::char_traits<char> >::sentry::sentry
EXTRN	__imp_?uncaught_exception@std@@YA_NXZ:NEAR
EXTRN	__imp_?_Osfx@?$basic_ostream@DU?$char_traits@D@std@@@std@@QAEXXZ:NEAR
;	COMDAT xdata$x
xdata$x	SEGMENT
$T90483	DD	0ffffffffH
	DD	FLAT:$L90479
$T90481	DD	019930520H
	DD	01H
	DD	FLAT:$T90483
	DD	2 DUP(00H)
	DD	2 DUP(00H)
; Function compile flags: /Odt
xdata$x	ENDS
;	COMDAT ??1sentry@?$basic_ostream@DU?$char_traits@D@std@@@std@@QAE@XZ
_TEXT	SEGMENT
_this$ = -16						; size = 4
__$EHRec$ = -12						; size = 12
??1sentry@?$basic_ostream@DU?$char_traits@D@std@@@std@@QAE@XZ PROC NEAR ; std::basic_ostream<char,std::char_traits<char> >::sentry::~sentry, COMDAT
; _this$ = ecx

; 95   : 			{	// destroy the object

  00000	55		 push	 ebp
  00001	8b ec		 mov	 ebp, esp
  00003	6a ff		 push	 -1
  00005	68 00 00 00 00	 push	 __ehhandler$??1sentry@?$basic_ostream@DU?$char_traits@D@std@@@std@@QAE@XZ
  0000a	64 a1 00 00 00
	00		 mov	 eax, DWORD PTR fs:__except_list
  00010	50		 push	 eax
  00011	64 89 25 00 00
	00 00		 mov	 DWORD PTR fs:__except_list, esp
  00018	51		 push	 ecx
  00019	89 4d f0	 mov	 DWORD PTR _this$[ebp], ecx
  0001c	c7 45 fc 00 00
	00 00		 mov	 DWORD PTR __$EHRec$[ebp+8], 0

; 96   : 
; 97   :  #if _HAS_EXCEPTIONS
; 98   : 			if (!uncaught_exception())

  00023	ff 15 00 00 00
	00		 call	 DWORD PTR __imp_?uncaught_exception@std@@YA_NXZ
  00029	0f b6 c0	 movzx	 eax, al
  0002c	85 c0		 test	 eax, eax
  0002e	75 0b		 jne	 SHORT $L87089

; 99   : 				this->_Myostr._Osfx();

  00030	8b 4d f0	 mov	 ecx, DWORD PTR _this$[ebp]
  00033	8b 09		 mov	 ecx, DWORD PTR [ecx]
  00035	ff 15 00 00 00
	00		 call	 DWORD PTR __imp_?_Osfx@?$basic_ostream@DU?$char_traits@D@std@@@std@@QAEXXZ
$L87089:

; 100  : 			}

  0003b	c7 45 fc ff ff
	ff ff		 mov	 DWORD PTR __$EHRec$[ebp+8], -1
  00042	8b 4d f0	 mov	 ecx, DWORD PTR _this$[ebp]
  00045	e8 00 00 00 00	 call	 ??1_Sentry_base@?$basic_ostream@DU?$char_traits@D@std@@@std@@QAE@XZ ; std::basic_ostream<char,std::char_traits<char> >::_Sentry_base::~_Sentry_base
  0004a	8b 4d f4	 mov	 ecx, DWORD PTR __$EHRec$[ebp]
  0004d	64 89 0d 00 00
	00 00		 mov	 DWORD PTR fs:__except_list, ecx
  00054	8b e5		 mov	 esp, ebp
  00056	5d		 pop	 ebp
  00057	c3		 ret	 0
_TEXT	ENDS
;	COMDAT text$x
text$x	SEGMENT
$L90479:
  00000	8b 4d f0	 mov	 ecx, DWORD PTR _this$[ebp]
  00003	e9 00 00 00 00	 jmp	 ??1_Sentry_base@?$basic_ostream@DU?$char_traits@D@std@@@std@@QAE@XZ ; std::basic_ostream<char,std::char_traits<char> >::_Sentry_base::~_Sentry_base
__ehhandler$??1sentry@?$basic_ostream@DU?$char_traits@D@std@@@std@@QAE@XZ:
  00008	b8 00 00 00 00	 mov	 eax, OFFSET FLAT:$T90481
  0000d	e9 00 00 00 00	 jmp	 ___CxxFrameHandler
text$x	ENDS
??1sentry@?$basic_ostream@DU?$char_traits@D@std@@@std@@QAE@XZ ENDP ; std::basic_ostream<char,std::char_traits<char> >::sentry::~sentry
; Function compile flags: /Odt
;	COMDAT ??Bsentry@?$basic_ostream@DU?$char_traits@D@std@@@std@@QBE_NXZ
_TEXT	SEGMENT
_this$ = -4						; size = 4
??Bsentry@?$basic_ostream@DU?$char_traits@D@std@@@std@@QBE_NXZ PROC NEAR ; std::basic_ostream<char,std::char_traits<char> >::sentry::operator bool, COMDAT
; _this$ = ecx

; 108  : 			{	// test if stream state okay

  00000	55		 push	 ebp
  00001	8b ec		 mov	 ebp, esp
  00003	51		 push	 ecx
  00004	89 4d fc	 mov	 DWORD PTR _this$[ebp], ecx

; 109  : 			return (_Ok);

  00007	8b 45 fc	 mov	 eax, DWORD PTR _this$[ebp]
  0000a	8a 40 04	 mov	 al, BYTE PTR [eax+4]

; 110  : 			}

  0000d	8b e5		 mov	 esp, ebp
  0000f	5d		 pop	 ebp
  00010	c3		 ret	 0
??Bsentry@?$basic_ostream@DU?$char_traits@D@std@@@std@@QBE_NXZ ENDP ; std::basic_ostream<char,std::char_traits<char> >::sentry::operator bool
; Function compile flags: /Odt
_TEXT	ENDS
;	COMDAT ??0_Sentry_base@?$basic_ostream@DU?$char_traits@D@std@@@std@@QAE@AAV12@@Z
_TEXT	SEGMENT
_this$ = -4						; size = 4
__Ostr$ = 8						; size = 4
??0_Sentry_base@?$basic_ostream@DU?$char_traits@D@std@@@std@@QAE@AAV12@@Z PROC NEAR ; std::basic_ostream<char,std::char_traits<char> >::_Sentry_base::_Sentry_base, COMDAT
; _this$ = ecx

; 68   : 			{	// lock the stream buffer, if there

  00000	55		 push	 ebp
  00001	8b ec		 mov	 ebp, esp
  00003	51		 push	 ecx
  00004	89 4d fc	 mov	 DWORD PTR _this$[ebp], ecx
  00007	8b 45 fc	 mov	 eax, DWORD PTR _this$[ebp]
  0000a	8b 4d 08	 mov	 ecx, DWORD PTR __Ostr$[ebp]
  0000d	89 08		 mov	 DWORD PTR [eax], ecx

; 69   : 			if (_Myostr.rdbuf() != 0)

  0000f	8b 55 fc	 mov	 edx, DWORD PTR _this$[ebp]
  00012	8b 02		 mov	 eax, DWORD PTR [edx]
  00014	8b 08		 mov	 ecx, DWORD PTR [eax]
  00016	8b 55 fc	 mov	 edx, DWORD PTR _this$[ebp]
  00019	8b 02		 mov	 eax, DWORD PTR [edx]
  0001b	03 41 04	 add	 eax, DWORD PTR [ecx+4]
  0001e	8b c8		 mov	 ecx, eax
  00020	ff 15 00 00 00
	00		 call	 DWORD PTR __imp_?rdbuf@?$basic_ios@DU?$char_traits@D@std@@@std@@QBEPAV?$basic_streambuf@DU?$char_traits@D@std@@@2@XZ
  00026	85 c0		 test	 eax, eax
  00028	74 1d		 je	 SHORT $L87364

; 70   : 				_Myostr.rdbuf()->_Lock();

  0002a	8b 4d fc	 mov	 ecx, DWORD PTR _this$[ebp]
  0002d	8b 11		 mov	 edx, DWORD PTR [ecx]
  0002f	8b 02		 mov	 eax, DWORD PTR [edx]
  00031	8b 4d fc	 mov	 ecx, DWORD PTR _this$[ebp]
  00034	8b 09		 mov	 ecx, DWORD PTR [ecx]
  00036	03 48 04	 add	 ecx, DWORD PTR [eax+4]
  00039	ff 15 00 00 00
	00		 call	 DWORD PTR __imp_?rdbuf@?$basic_ios@DU?$char_traits@D@std@@@std@@QBEPAV?$basic_streambuf@DU?$char_traits@D@std@@@2@XZ
  0003f	8b c8		 mov	 ecx, eax
  00041	ff 15 00 00 00
	00		 call	 DWORD PTR __imp_?_Lock@?$basic_streambuf@DU?$char_traits@D@std@@@std@@QAEXXZ
$L87364:

; 71   : 			}

  00047	8b 45 fc	 mov	 eax, DWORD PTR _this$[ebp]
  0004a	8b e5		 mov	 esp, ebp
  0004c	5d		 pop	 ebp
  0004d	c2 04 00	 ret	 4
??0_Sentry_base@?$basic_ostream@DU?$char_traits@D@std@@@std@@QAE@AAV12@@Z ENDP ; std::basic_ostream<char,std::char_traits<char> >::_Sentry_base::_Sentry_base
; Function compile flags: /Odt
_TEXT	ENDS
;	COMDAT ??1_Sentry_base@?$basic_ostream@DU?$char_traits@D@std@@@std@@QAE@XZ
_TEXT	SEGMENT
_this$ = -4						; size = 4
??1_Sentry_base@?$basic_ostream@DU?$char_traits@D@std@@@std@@QAE@XZ PROC NEAR ; std::basic_ostream<char,std::char_traits<char> >::_Sentry_base::~_Sentry_base, COMDAT
; _this$ = ecx

; 74   : 			{	// destroy after unlocking

  00000	55		 push	 ebp
  00001	8b ec		 mov	 ebp, esp
  00003	51		 push	 ecx
  00004	89 4d fc	 mov	 DWORD PTR _this$[ebp], ecx

; 75   : 			if (_Myostr.rdbuf() != 0)

  00007	8b 45 fc	 mov	 eax, DWORD PTR _this$[ebp]
  0000a	8b 08		 mov	 ecx, DWORD PTR [eax]
  0000c	8b 11		 mov	 edx, DWORD PTR [ecx]
  0000e	8b 45 fc	 mov	 eax, DWORD PTR _this$[ebp]
  00011	8b 08		 mov	 ecx, DWORD PTR [eax]
  00013	03 4a 04	 add	 ecx, DWORD PTR [edx+4]
  00016	ff 15 00 00 00
	00		 call	 DWORD PTR __imp_?rdbuf@?$basic_ios@DU?$char_traits@D@std@@@std@@QBEPAV?$basic_streambuf@DU?$char_traits@D@std@@@2@XZ
  0001c	85 c0		 test	 eax, eax
  0001e	74 1d		 je	 SHORT $L87367

; 76   : 				_Myostr.rdbuf()->_Unlock();

  00020	8b 4d fc	 mov	 ecx, DWORD PTR _this$[ebp]
  00023	8b 11		 mov	 edx, DWORD PTR [ecx]
  00025	8b 02		 mov	 eax, DWORD PTR [edx]
  00027	8b 4d fc	 mov	 ecx, DWORD PTR _this$[ebp]
  0002a	8b 09		 mov	 ecx, DWORD PTR [ecx]
  0002c	03 48 04	 add	 ecx, DWORD PTR [eax+4]
  0002f	ff 15 00 00 00
	00		 call	 DWORD PTR __imp_?rdbuf@?$basic_ios@DU?$char_traits@D@std@@@std@@QBEPAV?$basic_streambuf@DU?$char_traits@D@std@@@2@XZ
  00035	8b c8		 mov	 ecx, eax
  00037	ff 15 00 00 00
	00		 call	 DWORD PTR __imp_?_Unlock@?$basic_streambuf@DU?$char_traits@D@std@@@std@@QAEXXZ
$L87367:

; 77   : 			}

  0003d	8b e5		 mov	 esp, ebp
  0003f	5d		 pop	 ebp
  00040	c3		 ret	 0
??1_Sentry_base@?$basic_ostream@DU?$char_traits@D@std@@@std@@QAE@XZ ENDP ; std::basic_ostream<char,std::char_traits<char> >::_Sentry_base::~_Sentry_base
_TEXT	ENDS
PUBLIC	??0sentry@?$basic_istream@_WU?$char_traits@_W@std@@@std@@QAE@AAV12@_N@Z ; std::basic_istream<wchar_t,std::char_traits<wchar_t> >::sentry::sentry
PUBLIC	??Bsentry@?$basic_istream@_WU?$char_traits@_W@std@@@std@@QBE_NXZ ; std::basic_istream<wchar_t,std::char_traits<wchar_t> >::sentry::operator bool
PUBLIC	??1sentry@?$basic_istream@_WU?$char_traits@_W@std@@@std@@QAE@XZ ; std::basic_istream<wchar_t,std::char_traits<wchar_t> >::sentry::~sentry
PUBLIC	??$use_facet@V?$ctype@_W@std@@@std@@YAABV?$ctype@_W@0@ABVlocale@0@@Z ; std::use_facet<std::ctype<wchar_t> >
PUBLIC	??$?5_WU?$char_traits@_W@std@@V?$allocator@_W@1@@std@@YAAAV?$basic_istream@_WU?$char_traits@_W@std@@@0@AAV10@AAV?$basic_string@_WU?$char_traits@_W@std@@V?$allocator@_W@2@@0@@Z ; std::operator>><wchar_t,std::char_traits<wchar_t>,std::allocator<wchar_t> >
EXTRN	__imp_?is@?$ctype@_W@std@@QBE_NF_W@Z:NEAR
EXTRN	__imp_?sgetc@?$basic_streambuf@_WU?$char_traits@_W@std@@@std@@QAEGXZ:NEAR
EXTRN	__imp_?snextc@?$basic_streambuf@_WU?$char_traits@_W@std@@@std@@QAEGXZ:NEAR
EXTRN	__imp_?npos@?$basic_string@_WU?$char_traits@_W@std@@V?$allocator@_W@2@@std@@2IB:DWORD
EXTRN	__imp_?append@?$basic_string@_WU?$char_traits@_W@std@@V?$allocator@_W@2@@std@@QAEAAV12@I_W@Z:NEAR
EXTRN	__imp_?erase@?$basic_string@_WU?$char_traits@_W@std@@V?$allocator@_W@2@@std@@QAEAAV12@II@Z:NEAR
EXTRN	__imp_?max_size@?$basic_string@_WU?$char_traits@_W@std@@V?$allocator@_W@2@@std@@QBEIXZ:NEAR
EXTRN	__imp_?setstate@?$basic_ios@_WU?$char_traits@_W@std@@@std@@QAEXH_N@Z:NEAR
EXTRN	__imp_?rdbuf@?$basic_ios@_WU?$char_traits@_W@std@@@std@@QBEPAV?$basic_streambuf@_WU?$char_traits@_W@std@@@2@XZ:NEAR
EXTRN	__imp_?to_char_type@?$char_traits@_W@std@@SA_WABG@Z:NEAR
EXTRN	__imp_?eq_int_type@?$char_traits@_W@std@@SA_NABG0@Z:NEAR
EXTRN	__imp_?eof@?$char_traits@_W@std@@SAGXZ:NEAR
;	COMDAT xdata$x
; File d:\program files (x86)\microsoft visual studio .net 2003\vc7\include\string
xdata$x	SEGMENT
$T90506	DD	0ffffffffH
	DD	FLAT:$L90501
	DD	00H
	DD	FLAT:$L90502
	DD	00H
	DD	00H
	DD	00H
	DD	00H
$T90508	DD	00H
	DD	00H
	DD	00H
	DD	FLAT:$L90500
$T90507	DD	02H
	DD	02H
	DD	03H
	DD	01H
	DD	FLAT:$T90508
$T90504	DD	019930520H
	DD	04H
	DD	FLAT:$T90506
	DD	01H
	DD	FLAT:$T90507
	DD	2 DUP(00H)
; Function compile flags: /Odt
xdata$x	ENDS
;	COMDAT ??$?5_WU?$char_traits@_W@std@@V?$allocator@_W@1@@std@@YAAAV?$basic_istream@_WU?$char_traits@_W@std@@@0@AAV10@AAV?$basic_string@_WU?$char_traits@_W@std@@V?$allocator@_W@2@@0@@Z
_TEXT	SEGMENT
tv205 = -112						; size = 2
tv204 = -109						; size = 1
tv203 = -108						; size = 2
tv202 = -105						; size = 1
tv201 = -104						; size = 2
tv200 = -102						; size = 2
tv199 = -100						; size = 4
tv198 = -94						; size = 2
tv197 = -92						; size = 4
tv196 = -88						; size = 4
tv135 = -84						; size = 4
tv195 = -80						; size = 4
tv194 = -76						; size = 4
tv193 = -72						; size = 4
tv192 = -68						; size = 4
tv189 = -64						; size = 4
tv65 = -60						; size = 4
$T90498 = -56						; size = 4
$T90497 = -50						; size = 2
$T90494 = -48						; size = 4
__Meta$87789 = -44					; size = 2
__Size$87786 = -40					; size = 4
__Ctype_fac$87783 = -36					; size = 4
__Changed$ = -29					; size = 1
__Ok$ = -28						; size = 8
__State$ = -20						; size = 4
__$EHRec$ = -16						; size = 16
__Istr$ = 8						; size = 4
__Str$ = 12						; size = 4
??$?5_WU?$char_traits@_W@std@@V?$allocator@_W@1@@std@@YAAAV?$basic_istream@_WU?$char_traits@_W@std@@@0@AAV10@AAV?$basic_string@_WU?$char_traits@_W@std@@V?$allocator@_W@2@@0@@Z PROC NEAR ; std::operator>><wchar_t,std::char_traits<wchar_t>,std::allocator<wchar_t> >, COMDAT

; 425  : 	{	// extract a string

  00000	55		 push	 ebp
  00001	8b ec		 mov	 ebp, esp
  00003	6a ff		 push	 -1
  00005	68 00 00 00 00	 push	 __ehhandler$??$?5_WU?$char_traits@_W@std@@V?$allocator@_W@1@@std@@YAAAV?$basic_istream@_WU?$char_traits@_W@std@@@0@AAV10@AAV?$basic_string@_WU?$char_traits@_W@std@@V?$allocator@_W@2@@0@@Z
  0000a	64 a1 00 00 00
	00		 mov	 eax, DWORD PTR fs:__except_list
  00010	50		 push	 eax
  00011	64 89 25 00 00
	00 00		 mov	 DWORD PTR fs:__except_list, esp
  00018	51		 push	 ecx
  00019	83 ec 60	 sub	 esp, 96			; 00000060H
  0001c	53		 push	 ebx
  0001d	56		 push	 esi
  0001e	57		 push	 edi
  0001f	89 65 f0	 mov	 DWORD PTR __$EHRec$[ebp], esp

; 426  : 	typedef ctype<_Elem> _Ctype;
; 427  : 	typedef basic_istream<_Elem, _Traits> _Myis;
; 428  : 	typedef basic_string<_Elem, _Traits, _Alloc> _Mystr;
; 429  : 	typedef typename _Mystr::size_type _Mysizt;
; 430  : 
; 431  : 	ios_base::iostate _State = ios_base::goodbit;

  00022	c7 45 ec 00 00
	00 00		 mov	 DWORD PTR __State$[ebp], 0

; 432  : 	bool _Changed = false;

  00029	c6 45 e3 00	 mov	 BYTE PTR __Changed$[ebp], 0

; 433  : 	const typename _Myis::sentry _Ok(_Istr);

  0002d	6a 00		 push	 0
  0002f	8b 45 08	 mov	 eax, DWORD PTR __Istr$[ebp]
  00032	50		 push	 eax
  00033	8d 4d e4	 lea	 ecx, DWORD PTR __Ok$[ebp]
  00036	e8 00 00 00 00	 call	 ??0sentry@?$basic_istream@_WU?$char_traits@_W@std@@@std@@QAE@AAV12@_N@Z ; std::basic_istream<wchar_t,std::char_traits<wchar_t> >::sentry::sentry
  0003b	c7 45 fc 00 00
	00 00		 mov	 DWORD PTR __$EHRec$[ebp+12], 0

; 434  : 
; 435  : 	if (_Ok)

  00042	8d 4d e4	 lea	 ecx, DWORD PTR __Ok$[ebp]
  00045	e8 00 00 00 00	 call	 ??Bsentry@?$basic_istream@_WU?$char_traits@_W@std@@@std@@QBE_NXZ ; std::basic_istream<wchar_t,std::char_traits<wchar_t> >::sentry::operator bool
  0004a	0f b6 c8	 movzx	 ecx, al
  0004d	85 c9		 test	 ecx, ecx
  0004f	0f 84 e9 01 00
	00		 je	 $L90499

; 436  : 		{	// state okay, extract characters
; 437  : 		const _Ctype& _Ctype_fac = _USE(_Istr.getloc(), _Ctype);

  00055	8d 55 d0	 lea	 edx, DWORD PTR $T90494[ebp]
  00058	52		 push	 edx
  00059	8b 45 08	 mov	 eax, DWORD PTR __Istr$[ebp]
  0005c	8b 08		 mov	 ecx, DWORD PTR [eax]
  0005e	8b 55 08	 mov	 edx, DWORD PTR __Istr$[ebp]
  00061	03 51 04	 add	 edx, DWORD PTR [ecx+4]
  00064	8b ca		 mov	 ecx, edx
  00066	ff 15 00 00 00
	00		 call	 DWORD PTR __imp_?getloc@ios_base@std@@QBE?AVlocale@2@XZ
  0006c	89 45 c4	 mov	 DWORD PTR tv65[ebp], eax
  0006f	8b 45 c4	 mov	 eax, DWORD PTR tv65[ebp]
  00072	89 45 c0	 mov	 DWORD PTR tv189[ebp], eax
  00075	c6 45 fc 01	 mov	 BYTE PTR __$EHRec$[ebp+12], 1
  00079	8b 4d c0	 mov	 ecx, DWORD PTR tv189[ebp]
  0007c	51		 push	 ecx
  0007d	e8 00 00 00 00	 call	 ??$use_facet@V?$ctype@_W@std@@@std@@YAABV?$ctype@_W@0@ABVlocale@0@@Z ; std::use_facet<std::ctype<wchar_t> >
  00082	83 c4 04	 add	 esp, 4
  00085	89 45 dc	 mov	 DWORD PTR __Ctype_fac$87783[ebp], eax
  00088	c6 45 fc 00	 mov	 BYTE PTR __$EHRec$[ebp+12], 0
  0008c	8d 4d d0	 lea	 ecx, DWORD PTR $T90494[ebp]
  0008f	ff 15 00 00 00
	00		 call	 DWORD PTR __imp_??1locale@std@@QAE@XZ

; 438  : 		_Str.erase();

  00095	8b 15 00 00 00
	00		 mov	 edx, DWORD PTR __imp_?npos@?$basic_string@_WU?$char_traits@_W@std@@V?$allocator@_W@2@@std@@2IB
  0009b	8b 02		 mov	 eax, DWORD PTR [edx]
  0009d	50		 push	 eax
  0009e	6a 00		 push	 0
  000a0	8b 4d 0c	 mov	 ecx, DWORD PTR __Str$[ebp]
  000a3	ff 15 00 00 00
	00		 call	 DWORD PTR __imp_?erase@?$basic_string@_WU?$char_traits@_W@std@@V?$allocator@_W@2@@std@@QAEAAV12@II@Z

; 439  : 
; 440  : 		_TRY_IO_BEGIN

  000a9	c6 45 fc 02	 mov	 BYTE PTR __$EHRec$[ebp+12], 2

; 441  : 		_Mysizt _Size = 0 < _Istr.width()
; 442  : 			&& (_Mysizt)_Istr.width() < _Str.max_size()
; 443  : 				? (_Mysizt)_Istr.width() : _Str.max_size();

  000ad	8b 4d 08	 mov	 ecx, DWORD PTR __Istr$[ebp]
  000b0	8b 11		 mov	 edx, DWORD PTR [ecx]
  000b2	8b 4d 08	 mov	 ecx, DWORD PTR __Istr$[ebp]
  000b5	03 4a 04	 add	 ecx, DWORD PTR [edx+4]
  000b8	ff 15 00 00 00
	00		 call	 DWORD PTR __imp_?width@ios_base@std@@QBEHXZ
  000be	89 45 bc	 mov	 DWORD PTR tv192[ebp], eax
  000c1	83 7d bc 00	 cmp	 DWORD PTR tv192[ebp], 0
  000c5	7e 46		 jle	 SHORT $L90495
  000c7	8b 45 08	 mov	 eax, DWORD PTR __Istr$[ebp]
  000ca	8b 08		 mov	 ecx, DWORD PTR [eax]
  000cc	8b 55 08	 mov	 edx, DWORD PTR __Istr$[ebp]
  000cf	03 51 04	 add	 edx, DWORD PTR [ecx+4]
  000d2	8b ca		 mov	 ecx, edx
  000d4	ff 15 00 00 00
	00		 call	 DWORD PTR __imp_?width@ios_base@std@@QBEHXZ
  000da	89 45 b8	 mov	 DWORD PTR tv193[ebp], eax
  000dd	8b 4d 0c	 mov	 ecx, DWORD PTR __Str$[ebp]
  000e0	ff 15 00 00 00
	00		 call	 DWORD PTR __imp_?max_size@?$basic_string@_WU?$char_traits@_W@std@@V?$allocator@_W@2@@std@@QBEIXZ
  000e6	89 45 b4	 mov	 DWORD PTR tv194[ebp], eax
  000e9	8b 45 b8	 mov	 eax, DWORD PTR tv193[ebp]
  000ec	3b 45 b4	 cmp	 eax, DWORD PTR tv194[ebp]
  000ef	73 1c		 jae	 SHORT $L90495
  000f1	8b 4d 08	 mov	 ecx, DWORD PTR __Istr$[ebp]
  000f4	8b 11		 mov	 edx, DWORD PTR [ecx]
  000f6	8b 4d 08	 mov	 ecx, DWORD PTR __Istr$[ebp]
  000f9	03 4a 04	 add	 ecx, DWORD PTR [edx+4]
  000fc	ff 15 00 00 00
	00		 call	 DWORD PTR __imp_?width@ios_base@std@@QBEHXZ
  00102	89 45 b0	 mov	 DWORD PTR tv195[ebp], eax
  00105	8b 45 b0	 mov	 eax, DWORD PTR tv195[ebp]
  00108	89 45 ac	 mov	 DWORD PTR tv135[ebp], eax
  0010b	eb 12		 jmp	 SHORT $L90496
$L90495:
  0010d	8b 4d 0c	 mov	 ecx, DWORD PTR __Str$[ebp]
  00110	ff 15 00 00 00
	00		 call	 DWORD PTR __imp_?max_size@?$basic_string@_WU?$char_traits@_W@std@@V?$allocator@_W@2@@std@@QBEIXZ
  00116	89 45 a8	 mov	 DWORD PTR tv196[ebp], eax
  00119	8b 4d a8	 mov	 ecx, DWORD PTR tv196[ebp]
  0011c	89 4d ac	 mov	 DWORD PTR tv135[ebp], ecx
$L90496:
  0011f	8b 55 ac	 mov	 edx, DWORD PTR tv135[ebp]
  00122	89 55 d8	 mov	 DWORD PTR __Size$87786[ebp], edx

; 444  : 		typename _Traits::int_type _Meta = _Istr.rdbuf()->sgetc();

  00125	8b 45 08	 mov	 eax, DWORD PTR __Istr$[ebp]
  00128	8b 08		 mov	 ecx, DWORD PTR [eax]
  0012a	8b 55 08	 mov	 edx, DWORD PTR __Istr$[ebp]
  0012d	03 51 04	 add	 edx, DWORD PTR [ecx+4]
  00130	8b ca		 mov	 ecx, edx
  00132	ff 15 00 00 00
	00		 call	 DWORD PTR __imp_?rdbuf@?$basic_ios@_WU?$char_traits@_W@std@@@std@@QBEPAV?$basic_streambuf@_WU?$char_traits@_W@std@@@2@XZ
  00138	89 45 a4	 mov	 DWORD PTR tv197[ebp], eax
  0013b	8b 4d a4	 mov	 ecx, DWORD PTR tv197[ebp]
  0013e	ff 15 00 00 00
	00		 call	 DWORD PTR __imp_?sgetc@?$basic_streambuf@_WU?$char_traits@_W@std@@@std@@QAEGXZ
  00144	66 89 45 a2	 mov	 WORD PTR tv198[ebp], ax
  00148	66 8b 45 a2	 mov	 ax, WORD PTR tv198[ebp]
  0014c	66 89 45 d4	 mov	 WORD PTR __Meta$87789[ebp], ax

; 445  : 
; 446  : 		for (; 0 < _Size; --_Size, _Meta = _Istr.rdbuf()->snextc())

  00150	eb 32		 jmp	 SHORT $L87790
$L87791:
  00152	8b 4d d8	 mov	 ecx, DWORD PTR __Size$87786[ebp]
  00155	83 e9 01	 sub	 ecx, 1
  00158	89 4d d8	 mov	 DWORD PTR __Size$87786[ebp], ecx
  0015b	8b 55 08	 mov	 edx, DWORD PTR __Istr$[ebp]
  0015e	8b 02		 mov	 eax, DWORD PTR [edx]
  00160	8b 4d 08	 mov	 ecx, DWORD PTR __Istr$[ebp]
  00163	03 48 04	 add	 ecx, DWORD PTR [eax+4]
  00166	ff 15 00 00 00
	00		 call	 DWORD PTR __imp_?rdbuf@?$basic_ios@_WU?$char_traits@_W@std@@@std@@QBEPAV?$basic_streambuf@_WU?$char_traits@_W@std@@@2@XZ
  0016c	89 45 9c	 mov	 DWORD PTR tv199[ebp], eax
  0016f	8b 4d 9c	 mov	 ecx, DWORD PTR tv199[ebp]
  00172	ff 15 00 00 00
	00		 call	 DWORD PTR __imp_?snextc@?$basic_streambuf@_WU?$char_traits@_W@std@@@std@@QAEGXZ
  00178	66 89 45 9a	 mov	 WORD PTR tv200[ebp], ax
  0017c	66 8b 4d 9a	 mov	 cx, WORD PTR tv200[ebp]
  00180	66 89 4d d4	 mov	 WORD PTR __Meta$87789[ebp], cx
$L87790:
  00184	83 7d d8 00	 cmp	 DWORD PTR __Size$87786[ebp], 0
  00188	0f 86 91 00 00
	00		 jbe	 $L87792

; 447  : 			if(_Traits::eq_int_type(_Traits::eof(), _Meta))

  0018e	ff 15 00 00 00
	00		 call	 DWORD PTR __imp_?eof@?$char_traits@_W@std@@SAGXZ
  00194	66 89 45 98	 mov	 WORD PTR tv201[ebp], ax
  00198	66 8b 55 98	 mov	 dx, WORD PTR tv201[ebp]
  0019c	66 89 55 ce	 mov	 WORD PTR $T90497[ebp], dx
  001a0	8d 45 d4	 lea	 eax, DWORD PTR __Meta$87789[ebp]
  001a3	50		 push	 eax
  001a4	8d 4d ce	 lea	 ecx, DWORD PTR $T90497[ebp]
  001a7	51		 push	 ecx
  001a8	ff 15 00 00 00
	00		 call	 DWORD PTR __imp_?eq_int_type@?$char_traits@_W@std@@SA_NABG0@Z
  001ae	83 c4 08	 add	 esp, 8
  001b1	88 45 97	 mov	 BYTE PTR tv202[ebp], al
  001b4	0f b6 55 97	 movzx	 edx, BYTE PTR tv202[ebp]
  001b8	85 d2		 test	 edx, edx
  001ba	74 0b		 je	 SHORT $L87794

; 448  : 				{	// end of file, quit
; 449  : 				_State |= ios_base::eofbit;

  001bc	8b 45 ec	 mov	 eax, DWORD PTR __State$[ebp]
  001bf	83 c8 01	 or	 eax, 1
  001c2	89 45 ec	 mov	 DWORD PTR __State$[ebp], eax

; 450  : 				break;

  001c5	eb 58		 jmp	 SHORT $L87792
$L87794:

; 451  : 				}
; 452  : 			else if (_Ctype_fac.is(_Ctype::space,
; 453  : 				_Traits::to_char_type(_Meta)))

  001c7	8d 4d d4	 lea	 ecx, DWORD PTR __Meta$87789[ebp]
  001ca	51		 push	 ecx
  001cb	ff 15 00 00 00
	00		 call	 DWORD PTR __imp_?to_char_type@?$char_traits@_W@std@@SA_WABG@Z
  001d1	83 c4 04	 add	 esp, 4
  001d4	66 89 45 94	 mov	 WORD PTR tv203[ebp], ax
  001d8	66 8b 55 94	 mov	 dx, WORD PTR tv203[ebp]
  001dc	52		 push	 edx
  001dd	6a 48		 push	 72			; 00000048H
  001df	8b 4d dc	 mov	 ecx, DWORD PTR __Ctype_fac$87783[ebp]
  001e2	ff 15 00 00 00
	00		 call	 DWORD PTR __imp_?is@?$ctype@_W@std@@QBE_NF_W@Z
  001e8	88 45 93	 mov	 BYTE PTR tv204[ebp], al
  001eb	0f b6 45 93	 movzx	 eax, BYTE PTR tv204[ebp]
  001ef	85 c0		 test	 eax, eax
  001f1	74 02		 je	 SHORT $L87796

; 454  : 				break;	// whitespace, quit

  001f3	eb 2a		 jmp	 SHORT $L87792
$L87796:

; 455  : 			else
; 456  : 				{	// add character to string
; 457  : 				_Str.append(1, _Traits::to_char_type(_Meta));

  001f5	8d 4d d4	 lea	 ecx, DWORD PTR __Meta$87789[ebp]
  001f8	51		 push	 ecx
  001f9	ff 15 00 00 00
	00		 call	 DWORD PTR __imp_?to_char_type@?$char_traits@_W@std@@SA_WABG@Z
  001ff	83 c4 04	 add	 esp, 4
  00202	66 89 45 90	 mov	 WORD PTR tv205[ebp], ax
  00206	66 8b 55 90	 mov	 dx, WORD PTR tv205[ebp]
  0020a	52		 push	 edx
  0020b	6a 01		 push	 1
  0020d	8b 4d 0c	 mov	 ecx, DWORD PTR __Str$[ebp]
  00210	ff 15 00 00 00
	00		 call	 DWORD PTR __imp_?append@?$basic_string@_WU?$char_traits@_W@std@@V?$allocator@_W@2@@std@@QAEAAV12@I_W@Z

; 458  : 				_Changed = true;

  00216	c6 45 e3 01	 mov	 BYTE PTR __Changed$[ebp], 1

; 459  : 				}

  0021a	e9 33 ff ff ff	 jmp	 $L87791
$L87792:
  0021f	eb 1d		 jmp	 SHORT $L90499
$L90500:

; 460  : 		_CATCH_IO_(_Istr)

  00221	6a 01		 push	 1
  00223	6a 04		 push	 4
  00225	8b 45 08	 mov	 eax, DWORD PTR __Istr$[ebp]
  00228	8b 08		 mov	 ecx, DWORD PTR [eax]
  0022a	8b 55 08	 mov	 edx, DWORD PTR __Istr$[ebp]
  0022d	03 51 04	 add	 edx, DWORD PTR [ecx+4]
  00230	8b ca		 mov	 ecx, edx
  00232	ff 15 00 00 00
	00		 call	 DWORD PTR __imp_?setstate@?$basic_ios@_WU?$char_traits@_W@std@@@std@@QAEXH_N@Z
  00238	b8 00 00 00 00	 mov	 eax, $L90499
  0023d	c3		 ret	 0
$L90499:
  0023e	c7 45 fc 00 00
	00 00		 mov	 DWORD PTR __$EHRec$[ebp+12], 0

; 461  : 		}
; 462  : 
; 463  : 	_Istr.width(0);

  00245	6a 00		 push	 0
  00247	8b 45 08	 mov	 eax, DWORD PTR __Istr$[ebp]
  0024a	8b 08		 mov	 ecx, DWORD PTR [eax]
  0024c	8b 55 08	 mov	 edx, DWORD PTR __Istr$[ebp]
  0024f	03 51 04	 add	 edx, DWORD PTR [ecx+4]
  00252	8b ca		 mov	 ecx, edx
  00254	ff 15 00 00 00
	00		 call	 DWORD PTR __imp_?width@ios_base@std@@QAEHH@Z

; 464  : 	if (!_Changed)

  0025a	0f b6 45 e3	 movzx	 eax, BYTE PTR __Changed$[ebp]
  0025e	85 c0		 test	 eax, eax
  00260	75 09		 jne	 SHORT $L87798

; 465  : 		_State |= ios_base::failbit;

  00262	8b 4d ec	 mov	 ecx, DWORD PTR __State$[ebp]
  00265	83 c9 02	 or	 ecx, 2
  00268	89 4d ec	 mov	 DWORD PTR __State$[ebp], ecx
$L87798:

; 466  : 	_Istr.setstate(_State);

  0026b	6a 00		 push	 0
  0026d	8b 55 ec	 mov	 edx, DWORD PTR __State$[ebp]
  00270	52		 push	 edx
  00271	8b 45 08	 mov	 eax, DWORD PTR __Istr$[ebp]
  00274	8b 08		 mov	 ecx, DWORD PTR [eax]
  00276	8b 55 08	 mov	 edx, DWORD PTR __Istr$[ebp]
  00279	03 51 04	 add	 edx, DWORD PTR [ecx+4]
  0027c	8b ca		 mov	 ecx, edx
  0027e	ff 15 00 00 00
	00		 call	 DWORD PTR __imp_?setstate@?$basic_ios@_WU?$char_traits@_W@std@@@std@@QAEXH_N@Z

; 467  : 	return (_Istr);

  00284	8b 45 08	 mov	 eax, DWORD PTR __Istr$[ebp]
  00287	89 45 c8	 mov	 DWORD PTR $T90498[ebp], eax
  0028a	c7 45 fc ff ff
	ff ff		 mov	 DWORD PTR __$EHRec$[ebp+12], -1
  00291	8d 4d e4	 lea	 ecx, DWORD PTR __Ok$[ebp]
  00294	e8 00 00 00 00	 call	 ??1sentry@?$basic_istream@_WU?$char_traits@_W@std@@@std@@QAE@XZ
  00299	8b 45 c8	 mov	 eax, DWORD PTR $T90498[ebp]

; 468  : 	}

  0029c	8b 4d f4	 mov	 ecx, DWORD PTR __$EHRec$[ebp+4]
  0029f	64 89 0d 00 00
	00 00		 mov	 DWORD PTR fs:__except_list, ecx
  002a6	5f		 pop	 edi
  002a7	5e		 pop	 esi
  002a8	5b		 pop	 ebx
  002a9	8b e5		 mov	 esp, ebp
  002ab	5d		 pop	 ebp
  002ac	c3		 ret	 0
_TEXT	ENDS
;	COMDAT text$x
text$x	SEGMENT
$L90501:
  00000	8d 4d e4	 lea	 ecx, DWORD PTR __Ok$[ebp]
  00003	e9 00 00 00 00	 jmp	 ??1sentry@?$basic_istream@_WU?$char_traits@_W@std@@@std@@QAE@XZ
$L90502:
  00008	8d 4d d0	 lea	 ecx, DWORD PTR $T90494[ebp]
  0000b	ff 25 00 00 00
	00		 jmp	 DWORD PTR __imp_??1locale@std@@QAE@XZ
__ehhandler$??$?5_WU?$char_traits@_W@std@@V?$allocator@_W@1@@std@@YAAAV?$basic_istream@_WU?$char_traits@_W@std@@@0@AAV10@AAV?$basic_string@_WU?$char_traits@_W@std@@V?$allocator@_W@2@@0@@Z:
  00011	b8 00 00 00 00	 mov	 eax, OFFSET FLAT:$T90504
  00016	e9 00 00 00 00	 jmp	 ___CxxFrameHandler
text$x	ENDS
??$?5_WU?$char_traits@_W@std@@V?$allocator@_W@1@@std@@YAAAV?$basic_istream@_WU?$char_traits@_W@std@@@0@AAV10@AAV?$basic_string@_WU?$char_traits@_W@std@@V?$allocator@_W@2@@0@@Z ENDP ; std::operator>><wchar_t,std::char_traits<wchar_t>,std::allocator<wchar_t> >
PUBLIC	??1_Sentry_base@?$basic_istream@_WU?$char_traits@_W@std@@@std@@QAE@XZ ; std::basic_istream<wchar_t,std::char_traits<wchar_t> >::_Sentry_base::~_Sentry_base
; Function compile flags: /Odt
;	COMDAT ??1sentry@?$basic_istream@_WU?$char_traits@_W@std@@@std@@QAE@XZ
_TEXT	SEGMENT
_this$ = -4						; size = 4
??1sentry@?$basic_istream@_WU?$char_traits@_W@std@@@std@@QAE@XZ PROC NEAR ; std::basic_istream<wchar_t,std::char_traits<wchar_t> >::sentry::~sentry, COMDAT
; _this$ = ecx
  00000	55		 push	 ebp
  00001	8b ec		 mov	 ebp, esp
  00003	51		 push	 ecx
  00004	89 4d fc	 mov	 DWORD PTR _this$[ebp], ecx
  00007	8b 4d fc	 mov	 ecx, DWORD PTR _this$[ebp]
  0000a	e8 00 00 00 00	 call	 ??1_Sentry_base@?$basic_istream@_WU?$char_traits@_W@std@@@std@@QAE@XZ ; std::basic_istream<wchar_t,std::char_traits<wchar_t> >::_Sentry_base::~_Sentry_base
  0000f	8b e5		 mov	 esp, ebp
  00011	5d		 pop	 ebp
  00012	c3		 ret	 0
??1sentry@?$basic_istream@_WU?$char_traits@_W@std@@@std@@QAE@XZ ENDP ; std::basic_istream<wchar_t,std::char_traits<wchar_t> >::sentry::~sentry
_TEXT	ENDS
PUBLIC	??0_Sentry_base@?$basic_istream@_WU?$char_traits@_W@std@@@std@@QAE@AAV12@@Z ; std::basic_istream<wchar_t,std::char_traits<wchar_t> >::_Sentry_base::_Sentry_base
EXTRN	__imp_?_Ipfx@?$basic_istream@_WU?$char_traits@_W@std@@@std@@QAE_N_N@Z:NEAR
;	COMDAT xdata$x
; File d:\program files (x86)\microsoft visual studio .net 2003\vc7\include\istream
xdata$x	SEGMENT
$T90520	DD	0ffffffffH
	DD	FLAT:$L90516
$T90518	DD	019930520H
	DD	01H
	DD	FLAT:$T90520
	DD	2 DUP(00H)
	DD	2 DUP(00H)
; Function compile flags: /Odt
xdata$x	ENDS
;	COMDAT ??0sentry@?$basic_istream@_WU?$char_traits@_W@std@@@std@@QAE@AAV12@_N@Z
_TEXT	SEGMENT
_this$ = -16						; size = 4
__$EHRec$ = -12						; size = 12
__Istr$ = 8						; size = 4
__Noskip$ = 12						; size = 1
??0sentry@?$basic_istream@_WU?$char_traits@_W@std@@@std@@QAE@AAV12@_N@Z PROC NEAR ; std::basic_istream<wchar_t,std::char_traits<wchar_t> >::sentry::sentry, COMDAT
; _this$ = ecx

; 72   : 			{	// construct locking and calling _Ipfx

  00000	55		 push	 ebp
  00001	8b ec		 mov	 ebp, esp
  00003	6a ff		 push	 -1
  00005	68 00 00 00 00	 push	 __ehhandler$??0sentry@?$basic_istream@_WU?$char_traits@_W@std@@@std@@QAE@AAV12@_N@Z
  0000a	64 a1 00 00 00
	00		 mov	 eax, DWORD PTR fs:__except_list
  00010	50		 push	 eax
  00011	64 89 25 00 00
	00 00		 mov	 DWORD PTR fs:__except_list, esp
  00018	51		 push	 ecx
  00019	89 4d f0	 mov	 DWORD PTR _this$[ebp], ecx
  0001c	8b 45 08	 mov	 eax, DWORD PTR __Istr$[ebp]
  0001f	50		 push	 eax
  00020	8b 4d f0	 mov	 ecx, DWORD PTR _this$[ebp]
  00023	e8 00 00 00 00	 call	 ??0_Sentry_base@?$basic_istream@_WU?$char_traits@_W@std@@@std@@QAE@AAV12@@Z ; std::basic_istream<wchar_t,std::char_traits<wchar_t> >::_Sentry_base::_Sentry_base
  00028	c7 45 fc 00 00
	00 00		 mov	 DWORD PTR __$EHRec$[ebp+8], 0

; 73   : 			_Ok = this->_Myistr._Ipfx(_Noskip);

  0002f	8a 4d 0c	 mov	 cl, BYTE PTR __Noskip$[ebp]
  00032	51		 push	 ecx
  00033	8b 55 f0	 mov	 edx, DWORD PTR _this$[ebp]
  00036	8b 0a		 mov	 ecx, DWORD PTR [edx]
  00038	ff 15 00 00 00
	00		 call	 DWORD PTR __imp_?_Ipfx@?$basic_istream@_WU?$char_traits@_W@std@@@std@@QAE_N_N@Z
  0003e	8b 4d f0	 mov	 ecx, DWORD PTR _this$[ebp]
  00041	88 41 04	 mov	 BYTE PTR [ecx+4], al

; 74   : 			}

  00044	c7 45 fc ff ff
	ff ff		 mov	 DWORD PTR __$EHRec$[ebp+8], -1
  0004b	8b 45 f0	 mov	 eax, DWORD PTR _this$[ebp]
  0004e	8b 4d f4	 mov	 ecx, DWORD PTR __$EHRec$[ebp]
  00051	64 89 0d 00 00
	00 00		 mov	 DWORD PTR fs:__except_list, ecx
  00058	8b e5		 mov	 esp, ebp
  0005a	5d		 pop	 ebp
  0005b	c2 08 00	 ret	 8
_TEXT	ENDS
;	COMDAT text$x
text$x	SEGMENT
$L90516:
  00000	8b 4d f0	 mov	 ecx, DWORD PTR _this$[ebp]
  00003	e9 00 00 00 00	 jmp	 ??1_Sentry_base@?$basic_istream@_WU?$char_traits@_W@std@@@std@@QAE@XZ ; std::basic_istream<wchar_t,std::char_traits<wchar_t> >::_Sentry_base::~_Sentry_base
__ehhandler$??0sentry@?$basic_istream@_WU?$char_traits@_W@std@@@std@@QAE@AAV12@_N@Z:
  00008	b8 00 00 00 00	 mov	 eax, OFFSET FLAT:$T90518
  0000d	e9 00 00 00 00	 jmp	 ___CxxFrameHandler
text$x	ENDS
??0sentry@?$basic_istream@_WU?$char_traits@_W@std@@@std@@QAE@AAV12@_N@Z ENDP ; std::basic_istream<wchar_t,std::char_traits<wchar_t> >::sentry::sentry
; Function compile flags: /Odt
;	COMDAT ??Bsentry@?$basic_istream@_WU?$char_traits@_W@std@@@std@@QBE_NXZ
_TEXT	SEGMENT
_this$ = -4						; size = 4
??Bsentry@?$basic_istream@_WU?$char_traits@_W@std@@@std@@QBE_NXZ PROC NEAR ; std::basic_istream<wchar_t,std::char_traits<wchar_t> >::sentry::operator bool, COMDAT
; _this$ = ecx

; 77   : 			{	// test if _Ipfx succeeded

  00000	55		 push	 ebp
  00001	8b ec		 mov	 ebp, esp
  00003	51		 push	 ecx
  00004	89 4d fc	 mov	 DWORD PTR _this$[ebp], ecx

; 78   : 			return (_Ok);

  00007	8b 45 fc	 mov	 eax, DWORD PTR _this$[ebp]
  0000a	8a 40 04	 mov	 al, BYTE PTR [eax+4]

; 79   : 			}

  0000d	8b e5		 mov	 esp, ebp
  0000f	5d		 pop	 ebp
  00010	c3		 ret	 0
??Bsentry@?$basic_istream@_WU?$char_traits@_W@std@@@std@@QBE_NXZ ENDP ; std::basic_istream<wchar_t,std::char_traits<wchar_t> >::sentry::operator bool
_TEXT	ENDS
EXTRN	__imp_?_Unlock@?$basic_streambuf@_WU?$char_traits@_W@std@@@std@@QAEXXZ:NEAR
; Function compile flags: /Odt
;	COMDAT ??1_Sentry_base@?$basic_istream@_WU?$char_traits@_W@std@@@std@@QAE@XZ
_TEXT	SEGMENT
_this$ = -4						; size = 4
??1_Sentry_base@?$basic_istream@_WU?$char_traits@_W@std@@@std@@QAE@XZ PROC NEAR ; std::basic_istream<wchar_t,std::char_traits<wchar_t> >::_Sentry_base::~_Sentry_base, COMDAT
; _this$ = ecx

; 58   : 			{	// destroy after unlocking

  00000	55		 push	 ebp
  00001	8b ec		 mov	 ebp, esp
  00003	51		 push	 ecx
  00004	89 4d fc	 mov	 DWORD PTR _this$[ebp], ecx

; 59   : 			if (_Myistr.rdbuf() != 0)

  00007	8b 45 fc	 mov	 eax, DWORD PTR _this$[ebp]
  0000a	8b 08		 mov	 ecx, DWORD PTR [eax]
  0000c	8b 11		 mov	 edx, DWORD PTR [ecx]
  0000e	8b 45 fc	 mov	 eax, DWORD PTR _this$[ebp]
  00011	8b 08		 mov	 ecx, DWORD PTR [eax]
  00013	03 4a 04	 add	 ecx, DWORD PTR [edx+4]
  00016	ff 15 00 00 00
	00		 call	 DWORD PTR __imp_?rdbuf@?$basic_ios@_WU?$char_traits@_W@std@@@std@@QBEPAV?$basic_streambuf@_WU?$char_traits@_W@std@@@2@XZ
  0001c	85 c0		 test	 eax, eax
  0001e	74 1d		 je	 SHORT $L85774

; 60   : 				_Myistr.rdbuf()->_Unlock();

  00020	8b 4d fc	 mov	 ecx, DWORD PTR _this$[ebp]
  00023	8b 11		 mov	 edx, DWORD PTR [ecx]
  00025	8b 02		 mov	 eax, DWORD PTR [edx]
  00027	8b 4d fc	 mov	 ecx, DWORD PTR _this$[ebp]
  0002a	8b 09		 mov	 ecx, DWORD PTR [ecx]
  0002c	03 48 04	 add	 ecx, DWORD PTR [eax+4]
  0002f	ff 15 00 00 00
	00		 call	 DWORD PTR __imp_?rdbuf@?$basic_ios@_WU?$char_traits@_W@std@@@std@@QBEPAV?$basic_streambuf@_WU?$char_traits@_W@std@@@2@XZ
  00035	8b c8		 mov	 ecx, eax
  00037	ff 15 00 00 00
	00		 call	 DWORD PTR __imp_?_Unlock@?$basic_streambuf@_WU?$char_traits@_W@std@@@std@@QAEXXZ
$L85774:

; 61   : 			}

  0003d	8b e5		 mov	 esp, ebp
  0003f	5d		 pop	 ebp
  00040	c3		 ret	 0
??1_Sentry_base@?$basic_istream@_WU?$char_traits@_W@std@@@std@@QAE@XZ ENDP ; std::basic_istream<wchar_t,std::char_traits<wchar_t> >::_Sentry_base::~_Sentry_base
_TEXT	ENDS
EXTRN	__imp_?_Lock@?$basic_streambuf@_WU?$char_traits@_W@std@@@std@@QAEXXZ:NEAR
; Function compile flags: /Odt
;	COMDAT ??0_Sentry_base@?$basic_istream@_WU?$char_traits@_W@std@@@std@@QAE@AAV12@@Z
_TEXT	SEGMENT
_this$ = -4						; size = 4
__Istr$ = 8						; size = 4
??0_Sentry_base@?$basic_istream@_WU?$char_traits@_W@std@@@std@@QAE@AAV12@@Z PROC NEAR ; std::basic_istream<wchar_t,std::char_traits<wchar_t> >::_Sentry_base::_Sentry_base, COMDAT
; _this$ = ecx

; 52   : 			{	// lock the stream buffer, if there

  00000	55		 push	 ebp
  00001	8b ec		 mov	 ebp, esp
  00003	51		 push	 ecx
  00004	89 4d fc	 mov	 DWORD PTR _this$[ebp], ecx
  00007	8b 45 fc	 mov	 eax, DWORD PTR _this$[ebp]
  0000a	8b 4d 08	 mov	 ecx, DWORD PTR __Istr$[ebp]
  0000d	89 08		 mov	 DWORD PTR [eax], ecx

; 53   : 			if (_Myistr.rdbuf() != 0)

  0000f	8b 55 fc	 mov	 edx, DWORD PTR _this$[ebp]
  00012	8b 02		 mov	 eax, DWORD PTR [edx]
  00014	8b 08		 mov	 ecx, DWORD PTR [eax]
  00016	8b 55 fc	 mov	 edx, DWORD PTR _this$[ebp]
  00019	8b 02		 mov	 eax, DWORD PTR [edx]
  0001b	03 41 04	 add	 eax, DWORD PTR [ecx+4]
  0001e	8b c8		 mov	 ecx, eax
  00020	ff 15 00 00 00
	00		 call	 DWORD PTR __imp_?rdbuf@?$basic_ios@_WU?$char_traits@_W@std@@@std@@QBEPAV?$basic_streambuf@_WU?$char_traits@_W@std@@@2@XZ
  00026	85 c0		 test	 eax, eax
  00028	74 1d		 je	 SHORT $L86939

; 54   : 				_Myistr.rdbuf()->_Lock();

  0002a	8b 4d fc	 mov	 ecx, DWORD PTR _this$[ebp]
  0002d	8b 11		 mov	 edx, DWORD PTR [ecx]
  0002f	8b 02		 mov	 eax, DWORD PTR [edx]
  00031	8b 4d fc	 mov	 ecx, DWORD PTR _this$[ebp]
  00034	8b 09		 mov	 ecx, DWORD PTR [ecx]
  00036	03 48 04	 add	 ecx, DWORD PTR [eax+4]
  00039	ff 15 00 00 00
	00		 call	 DWORD PTR __imp_?rdbuf@?$basic_ios@_WU?$char_traits@_W@std@@@std@@QBEPAV?$basic_streambuf@_WU?$char_traits@_W@std@@@2@XZ
  0003f	8b c8		 mov	 ecx, eax
  00041	ff 15 00 00 00
	00		 call	 DWORD PTR __imp_?_Lock@?$basic_streambuf@_WU?$char_traits@_W@std@@@std@@QAEXXZ
$L86939:

; 55   : 			}

  00047	8b 45 fc	 mov	 eax, DWORD PTR _this$[ebp]
  0004a	8b e5		 mov	 esp, ebp
  0004c	5d		 pop	 ebp
  0004d	c2 04 00	 ret	 4
??0_Sentry_base@?$basic_istream@_WU?$char_traits@_W@std@@@std@@QAE@AAV12@@Z ENDP ; std::basic_istream<wchar_t,std::char_traits<wchar_t> >::_Sentry_base::_Sentry_base
_TEXT	ENDS
PUBLIC	?_Psave@?$_Facetptr@V?$ctype@_W@std@@@std@@2PBVfacet@locale@2@B ; std::_Facetptr<std::ctype<wchar_t> >::_Psave
EXTRN	__imp_?id@?$ctype@_W@std@@2V0locale@2@A:DWORD
EXTRN	__imp_?_Getcat@?$ctype@_W@std@@SAIPAPBVfacet@locale@2@@Z:NEAR
;	COMDAT ?_Psave@?$_Facetptr@V?$ctype@_W@std@@@std@@2PBVfacet@locale@2@B
; File d:\program files (x86)\microsoft visual studio .net 2003\vc7\include\xlocale
_BSS	SEGMENT
?_Psave@?$_Facetptr@V?$ctype@_W@std@@@std@@2PBVfacet@locale@2@B DD 01H DUP (?) ; std::_Facetptr<std::ctype<wchar_t> >::_Psave
_BSS	ENDS
;	COMDAT xdata$x
xdata$x	SEGMENT
$T90537	DD	0ffffffffH
	DD	FLAT:$L90533
$T90535	DD	019930520H
	DD	01H
	DD	FLAT:$T90537
	DD	2 DUP(00H)
	DD	2 DUP(00H)
; Function compile flags: /Odt
xdata$x	ENDS
;	COMDAT ??$use_facet@V?$ctype@_W@std@@@std@@YAABV?$ctype@_W@0@ABVlocale@0@@Z
_TEXT	SEGMENT
$T90532 = -48						; size = 4
$T90531 = -44						; size = 12
__Pfmod$87656 = -32					; size = 4
__Psave$ = -28						; size = 4
__Lock$ = -24						; size = 4
__Id$ = -20						; size = 4
__Pf$ = -16						; size = 4
__$EHRec$ = -12						; size = 12
__Loc$ = 8						; size = 4
??$use_facet@V?$ctype@_W@std@@@std@@YAABV?$ctype@_W@0@ABVlocale@0@@Z PROC NEAR ; std::use_facet<std::ctype<wchar_t> >, COMDAT

; 315  : 	{	// get facet reference from locale

  00000	55		 push	 ebp
  00001	8b ec		 mov	 ebp, esp
  00003	6a ff		 push	 -1
  00005	68 00 00 00 00	 push	 __ehhandler$??$use_facet@V?$ctype@_W@std@@@std@@YAABV?$ctype@_W@0@ABVlocale@0@@Z
  0000a	64 a1 00 00 00
	00		 mov	 eax, DWORD PTR fs:__except_list
  00010	50		 push	 eax
  00011	64 89 25 00 00
	00 00		 mov	 DWORD PTR fs:__except_list, esp
  00018	83 ec 24	 sub	 esp, 36			; 00000024H

; 316  : 	_Lockit _Lock(_LOCK_LOCALE);	// the thread lock, make get atomic

  0001b	6a 00		 push	 0
  0001d	8d 4d e8	 lea	 ecx, DWORD PTR __Lock$[ebp]
  00020	ff 15 00 00 00
	00		 call	 DWORD PTR __imp_??0_Lockit@std@@QAE@H@Z
  00026	c7 45 fc 00 00
	00 00		 mov	 DWORD PTR __$EHRec$[ebp+8], 0

; 317  : 	const locale::facet *_Psave =
; 318  : 		_Facetptr<_Facet>::_Psave;	// static pointer to lazy facet

  0002d	a1 00 00 00 00	 mov	 eax, DWORD PTR ?_Psave@?$_Facetptr@V?$ctype@_W@std@@@std@@2PBVfacet@locale@2@B ; std::_Facetptr<std::ctype<wchar_t> >::_Psave
  00032	89 45 e4	 mov	 DWORD PTR __Psave$[ebp], eax

; 319  : 
; 320  : 	size_t _Id = _Facet::id;

  00035	8b 0d 00 00 00
	00		 mov	 ecx, DWORD PTR __imp_?id@?$ctype@_W@std@@2V0locale@2@A
  0003b	ff 15 00 00 00
	00		 call	 DWORD PTR __imp_??Bid@locale@std@@QAEIXZ
  00041	89 45 ec	 mov	 DWORD PTR __Id$[ebp], eax

; 321  : 	const locale::facet *_Pf = _Loc._Getfacet(_Id);

  00044	8b 4d ec	 mov	 ecx, DWORD PTR __Id$[ebp]
  00047	51		 push	 ecx
  00048	8b 4d 08	 mov	 ecx, DWORD PTR __Loc$[ebp]
  0004b	ff 15 00 00 00
	00		 call	 DWORD PTR __imp_?_Getfacet@locale@std@@QBEPBVfacet@12@I@Z
  00051	89 45 f0	 mov	 DWORD PTR __Pf$[ebp], eax

; 322  : 
; 323  : 	if (_Pf != 0)

  00054	83 7d f0 00	 cmp	 DWORD PTR __Pf$[ebp], 0
  00058	74 02		 je	 SHORT $L87647

; 324  : 		;	// got facet from locale
; 325  : 	else if (_Psave != 0)

  0005a	eb 62		 jmp	 SHORT $L87648
$L87647:
  0005c	83 7d e4 00	 cmp	 DWORD PTR __Psave$[ebp], 0
  00060	74 08		 je	 SHORT $L87649

; 326  : 		_Pf = _Psave;	// lazy facet already allocated

  00062	8b 55 e4	 mov	 edx, DWORD PTR __Psave$[ebp]
  00065	89 55 f0	 mov	 DWORD PTR __Pf$[ebp], edx

; 327  : 	else if (_Facet::_Getcat(&_Psave) == (size_t)(-1))

  00068	eb 54		 jmp	 SHORT $L87648
$L87649:
  0006a	8d 45 e4	 lea	 eax, DWORD PTR __Psave$[ebp]
  0006d	50		 push	 eax
  0006e	ff 15 00 00 00
	00		 call	 DWORD PTR __imp_?_Getcat@?$ctype@_W@std@@SAIPAPBVfacet@locale@2@@Z
  00074	83 c4 04	 add	 esp, 4
  00077	83 f8 ff	 cmp	 eax, -1
  0007a	75 1c		 jne	 SHORT $L87652

; 328  : 
; 329  :  #if _HAS_EXCEPTIONS
; 330  : 		throw bad_cast();	// lazy disallowed

  0007c	68 00 00 00 00	 push	 OFFSET FLAT:??_C@_08EPJLHIJG@bad?5cast?$AA@
  00081	8d 4d d4	 lea	 ecx, DWORD PTR $T90531[ebp]
  00084	ff 15 00 00 00
	00		 call	 DWORD PTR __imp_??0bad_cast@@QAE@PBD@Z
  0008a	68 00 00 00 00	 push	 OFFSET FLAT:__TI2?AVbad_cast@@
  0008f	8d 4d d4	 lea	 ecx, DWORD PTR $T90531[ebp]
  00092	51		 push	 ecx
  00093	e8 00 00 00 00	 call	 __CxxThrowException@8
$L87652:

; 331  : 
; 332  :  #else /* _HAS_EXCEPTIONS */
; 333  : 		abort();	// lazy disallowed
; 334  :  #endif /* _HAS_EXCEPTIONS */
; 335  : 
; 336  : 	else
; 337  : 		{	// queue up lazy facet for destruction
; 338  : 		_Pf = _Psave;

  00098	8b 55 e4	 mov	 edx, DWORD PTR __Psave$[ebp]
  0009b	89 55 f0	 mov	 DWORD PTR __Pf$[ebp], edx

; 339  : 		_Facetptr<_Facet>::_Psave = _Psave;

  0009e	8b 45 e4	 mov	 eax, DWORD PTR __Psave$[ebp]
  000a1	a3 00 00 00 00	 mov	 DWORD PTR ?_Psave@?$_Facetptr@V?$ctype@_W@std@@@std@@2PBVfacet@locale@2@B, eax ; std::_Facetptr<std::ctype<wchar_t> >::_Psave

; 340  : 
; 341  : 		locale::facet *_Pfmod = (_Facet *)_Psave;

  000a6	8b 4d e4	 mov	 ecx, DWORD PTR __Psave$[ebp]
  000a9	89 4d e0	 mov	 DWORD PTR __Pfmod$87656[ebp], ecx

; 342  : 		_Pfmod->_Incref();

  000ac	8b 4d e0	 mov	 ecx, DWORD PTR __Pfmod$87656[ebp]
  000af	ff 15 00 00 00
	00		 call	 DWORD PTR __imp_?_Incref@facet@locale@std@@QAEXXZ

; 343  : 		_Pfmod->_Register();

  000b5	8b 4d e0	 mov	 ecx, DWORD PTR __Pfmod$87656[ebp]
  000b8	ff 15 00 00 00
	00		 call	 DWORD PTR __imp_?_Register@facet@locale@std@@QAEXXZ
$L87648:

; 344  : 		}
; 345  : 
; 346  : 	return ((const _Facet&)(*_Pf));	// should be dynamic_cast

  000be	8b 55 f0	 mov	 edx, DWORD PTR __Pf$[ebp]
  000c1	89 55 d0	 mov	 DWORD PTR $T90532[ebp], edx
  000c4	c7 45 fc ff ff
	ff ff		 mov	 DWORD PTR __$EHRec$[ebp+8], -1
  000cb	8d 4d e8	 lea	 ecx, DWORD PTR __Lock$[ebp]
  000ce	ff 15 00 00 00
	00		 call	 DWORD PTR __imp_??1_Lockit@std@@QAE@XZ
  000d4	8b 45 d0	 mov	 eax, DWORD PTR $T90532[ebp]
$L90530:

; 347  : 	}

  000d7	8b 4d f4	 mov	 ecx, DWORD PTR __$EHRec$[ebp]
  000da	64 89 0d 00 00
	00 00		 mov	 DWORD PTR fs:__except_list, ecx
  000e1	8b e5		 mov	 esp, ebp
  000e3	5d		 pop	 ebp
  000e4	c3		 ret	 0
_TEXT	ENDS
;	COMDAT text$x
text$x	SEGMENT
$L90533:
  00000	8d 4d e8	 lea	 ecx, DWORD PTR __Lock$[ebp]
  00003	ff 25 00 00 00
	00		 jmp	 DWORD PTR __imp_??1_Lockit@std@@QAE@XZ
__ehhandler$??$use_facet@V?$ctype@_W@std@@@std@@YAABV?$ctype@_W@0@ABVlocale@0@@Z:
  00009	b8 00 00 00 00	 mov	 eax, OFFSET FLAT:$T90535
  0000e	e9 00 00 00 00	 jmp	 ___CxxFrameHandler
text$x	ENDS
??$use_facet@V?$ctype@_W@std@@@std@@YAABV?$ctype@_W@0@ABVlocale@0@@Z ENDP ; std::use_facet<std::ctype<wchar_t> >
PUBLIC	??$getline@_WU?$char_traits@_W@std@@V?$allocator@_W@2@@std@@YAAAV?$basic_istream@_WU?$char_traits@_W@std@@@0@AAV10@AAV?$basic_string@_WU?$char_traits@_W@std@@V?$allocator@_W@2@@0@@Z ; std::getline<wchar_t,std::char_traits<wchar_t>,std::allocator<wchar_t> >
PUBLIC	??$getline@_WU?$char_traits@_W@std@@V?$allocator@_W@2@@std@@YAAAV?$basic_istream@_WU?$char_traits@_W@std@@@0@AAV10@AAV?$basic_string@_WU?$char_traits@_W@std@@V?$allocator@_W@2@@0@_W@Z ; std::getline<wchar_t,std::char_traits<wchar_t>,std::allocator<wchar_t> >
EXTRN	__imp_?widen@?$basic_ios@_WU?$char_traits@_W@std@@@std@@QBE_WD@Z:NEAR
; Function compile flags: /Odt
; File d:\program files (x86)\microsoft visual studio .net 2003\vc7\include\string
;	COMDAT ??$getline@_WU?$char_traits@_W@std@@V?$allocator@_W@2@@std@@YAAAV?$basic_istream@_WU?$char_traits@_W@std@@@0@AAV10@AAV?$basic_string@_WU?$char_traits@_W@std@@V?$allocator@_W@2@@0@@Z
_TEXT	SEGMENT
__Istr$ = 8						; size = 4
__Str$ = 12						; size = 4
??$getline@_WU?$char_traits@_W@std@@V?$allocator@_W@2@@std@@YAAAV?$basic_istream@_WU?$char_traits@_W@std@@@0@AAV10@AAV?$basic_string@_WU?$char_traits@_W@std@@V?$allocator@_W@2@@0@@Z PROC NEAR ; std::getline<wchar_t,std::char_traits<wchar_t>,std::allocator<wchar_t> >, COMDAT

; 528  : 	{	// get characters into string, discard newline

  00000	55		 push	 ebp
  00001	8b ec		 mov	 ebp, esp

; 529  : 	return (getline(_Istr, _Str, _Istr.widen('\n')));

  00003	6a 0a		 push	 10			; 0000000aH
  00005	8b 45 08	 mov	 eax, DWORD PTR __Istr$[ebp]
  00008	8b 08		 mov	 ecx, DWORD PTR [eax]
  0000a	8b 55 08	 mov	 edx, DWORD PTR __Istr$[ebp]
  0000d	03 51 04	 add	 edx, DWORD PTR [ecx+4]
  00010	8b ca		 mov	 ecx, edx
  00012	ff 15 00 00 00
	00		 call	 DWORD PTR __imp_?widen@?$basic_ios@_WU?$char_traits@_W@std@@@std@@QBE_WD@Z
  00018	50		 push	 eax
  00019	8b 45 0c	 mov	 eax, DWORD PTR __Str$[ebp]
  0001c	50		 push	 eax
  0001d	8b 4d 08	 mov	 ecx, DWORD PTR __Istr$[ebp]
  00020	51		 push	 ecx
  00021	e8 00 00 00 00	 call	 ??$getline@_WU?$char_traits@_W@std@@V?$allocator@_W@2@@std@@YAAAV?$basic_istream@_WU?$char_traits@_W@std@@@0@AAV10@AAV?$basic_string@_WU?$char_traits@_W@std@@V?$allocator@_W@2@@0@_W@Z ; std::getline<wchar_t,std::char_traits<wchar_t>,std::allocator<wchar_t> >
  00026	83 c4 0c	 add	 esp, 12			; 0000000cH

; 530  : 	}

  00029	5d		 pop	 ebp
  0002a	c3		 ret	 0
??$getline@_WU?$char_traits@_W@std@@V?$allocator@_W@2@@std@@YAAAV?$basic_istream@_WU?$char_traits@_W@std@@@0@AAV10@AAV?$basic_string@_WU?$char_traits@_W@std@@V?$allocator@_W@2@@0@@Z ENDP ; std::getline<wchar_t,std::char_traits<wchar_t>,std::allocator<wchar_t> >
_TEXT	ENDS
EXTRN	__imp_?sbumpc@?$basic_streambuf@_WU?$char_traits@_W@std@@@std@@QAEGXZ:NEAR
EXTRN	__imp_?size@?$basic_string@_WU?$char_traits@_W@std@@V?$allocator@_W@2@@std@@QBEIXZ:NEAR
EXTRN	__imp_?to_int_type@?$char_traits@_W@std@@SAGAB_W@Z:NEAR
;	COMDAT xdata$x
xdata$x	SEGMENT
$T90553	DD	0ffffffffH
	DD	FLAT:$L90549
	DD	00H
	DD	00H
	DD	00H
	DD	00H
$T90555	DD	00H
	DD	00H
	DD	00H
	DD	FLAT:$L90548
$T90554	DD	01H
	DD	01H
	DD	02H
	DD	01H
	DD	FLAT:$T90555
$T90551	DD	019930520H
	DD	03H
	DD	FLAT:$T90553
	DD	01H
	DD	FLAT:$T90554
	DD	2 DUP(00H)
; Function compile flags: /Odt
xdata$x	ENDS
;	COMDAT ??$getline@_WU?$char_traits@_W@std@@V?$allocator@_W@2@@std@@YAAAV?$basic_istream@_WU?$char_traits@_W@std@@@0@AAV10@AAV?$basic_string@_WU?$char_traits@_W@std@@V?$allocator@_W@2@@0@_W@Z
_TEXT	SEGMENT
tv175 = -86						; size = 2
tv174 = -84						; size = 4
tv173 = -80						; size = 4
tv172 = -76						; size = 4
tv171 = -70						; size = 1
tv170 = -69						; size = 1
tv169 = -68						; size = 2
tv168 = -66						; size = 2
tv167 = -64						; size = 4
tv166 = -58						; size = 2
tv165 = -56						; size = 4
tv65 = -50						; size = 2
$T90546 = -48						; size = 4
$T90545 = -42						; size = 2
__Meta$87809 = -40					; size = 2
__Metadelim$87808 = -36					; size = 2
__Changed$ = -29					; size = 1
__Ok$ = -28						; size = 8
__State$ = -20						; size = 4
__$EHRec$ = -16						; size = 16
__Istr$ = 8						; size = 4
__Str$ = 12						; size = 4
__Delim$ = 16						; size = 2
??$getline@_WU?$char_traits@_W@std@@V?$allocator@_W@2@@std@@YAAAV?$basic_istream@_WU?$char_traits@_W@std@@@0@AAV10@AAV?$basic_string@_WU?$char_traits@_W@std@@V?$allocator@_W@2@@0@_W@Z PROC NEAR ; std::getline<wchar_t,std::char_traits<wchar_t>,std::allocator<wchar_t> >, COMDAT

; 477  : 	{	// get characters into string, discard delimiter

  00000	55		 push	 ebp
  00001	8b ec		 mov	 ebp, esp
  00003	6a ff		 push	 -1
  00005	68 00 00 00 00	 push	 __ehhandler$??$getline@_WU?$char_traits@_W@std@@V?$allocator@_W@2@@std@@YAAAV?$basic_istream@_WU?$char_traits@_W@std@@@0@AAV10@AAV?$basic_string@_WU?$char_traits@_W@std@@V?$allocator@_W@2@@0@_W@Z
  0000a	64 a1 00 00 00
	00		 mov	 eax, DWORD PTR fs:__except_list
  00010	50		 push	 eax
  00011	64 89 25 00 00
	00 00		 mov	 DWORD PTR fs:__except_list, esp
  00018	51		 push	 ecx
  00019	83 ec 48	 sub	 esp, 72			; 00000048H
  0001c	53		 push	 ebx
  0001d	56		 push	 esi
  0001e	57		 push	 edi
  0001f	89 65 f0	 mov	 DWORD PTR __$EHRec$[ebp], esp

; 478  : 	typedef basic_istream<_Elem, _Traits> _Myis;
; 479  : 	ios_base::iostate _State = ios_base::goodbit;

  00022	c7 45 ec 00 00
	00 00		 mov	 DWORD PTR __State$[ebp], 0

; 480  : 	bool _Changed = false;

  00029	c6 45 e3 00	 mov	 BYTE PTR __Changed$[ebp], 0

; 481  : 	const typename _Myis::sentry _Ok(_Istr, true);

  0002d	6a 01		 push	 1
  0002f	8b 45 08	 mov	 eax, DWORD PTR __Istr$[ebp]
  00032	50		 push	 eax
  00033	8d 4d e4	 lea	 ecx, DWORD PTR __Ok$[ebp]
  00036	e8 00 00 00 00	 call	 ??0sentry@?$basic_istream@_WU?$char_traits@_W@std@@@std@@QAE@AAV12@_N@Z ; std::basic_istream<wchar_t,std::char_traits<wchar_t> >::sentry::sentry
  0003b	c7 45 fc 00 00
	00 00		 mov	 DWORD PTR __$EHRec$[ebp+12], 0

; 482  : 
; 483  : 	if (_Ok)

  00042	8d 4d e4	 lea	 ecx, DWORD PTR __Ok$[ebp]
  00045	e8 00 00 00 00	 call	 ??Bsentry@?$basic_istream@_WU?$char_traits@_W@std@@@std@@QBE_NXZ ; std::basic_istream<wchar_t,std::char_traits<wchar_t> >::sentry::operator bool
  0004a	0f b6 c8	 movzx	 ecx, al
  0004d	85 c9		 test	 ecx, ecx
  0004f	0f 84 74 01 00
	00		 je	 $L90547

; 484  : 		{	// state okay, extract characters
; 485  : 		_TRY_IO_BEGIN

  00055	c6 45 fc 01	 mov	 BYTE PTR __$EHRec$[ebp+12], 1

; 486  : 		_Str.erase();

  00059	8b 15 00 00 00
	00		 mov	 edx, DWORD PTR __imp_?npos@?$basic_string@_WU?$char_traits@_W@std@@V?$allocator@_W@2@@std@@2IB
  0005f	8b 02		 mov	 eax, DWORD PTR [edx]
  00061	50		 push	 eax
  00062	6a 00		 push	 0
  00064	8b 4d 0c	 mov	 ecx, DWORD PTR __Str$[ebp]
  00067	ff 15 00 00 00
	00		 call	 DWORD PTR __imp_?erase@?$basic_string@_WU?$char_traits@_W@std@@V?$allocator@_W@2@@std@@QAEAAV12@II@Z

; 487  : 		const typename _Traits::int_type _Metadelim =
; 488  : 			_Traits::to_int_type(_Delim);

  0006d	8d 4d 10	 lea	 ecx, DWORD PTR __Delim$[ebp]
  00070	51		 push	 ecx
  00071	ff 15 00 00 00
	00		 call	 DWORD PTR __imp_?to_int_type@?$char_traits@_W@std@@SAGAB_W@Z
  00077	83 c4 04	 add	 esp, 4
  0007a	66 89 45 ce	 mov	 WORD PTR tv65[ebp], ax
  0007e	66 8b 55 ce	 mov	 dx, WORD PTR tv65[ebp]
  00082	66 89 55 dc	 mov	 WORD PTR __Metadelim$87808[ebp], dx

; 489  : 		typename _Traits::int_type _Meta = _Istr.rdbuf()->sgetc();

  00086	8b 45 08	 mov	 eax, DWORD PTR __Istr$[ebp]
  00089	8b 08		 mov	 ecx, DWORD PTR [eax]
  0008b	8b 55 08	 mov	 edx, DWORD PTR __Istr$[ebp]
  0008e	03 51 04	 add	 edx, DWORD PTR [ecx+4]
  00091	8b ca		 mov	 ecx, edx
  00093	ff 15 00 00 00
	00		 call	 DWORD PTR __imp_?rdbuf@?$basic_ios@_WU?$char_traits@_W@std@@@std@@QBEPAV?$basic_streambuf@_WU?$char_traits@_W@std@@@2@XZ
  00099	89 45 c8	 mov	 DWORD PTR tv165[ebp], eax
  0009c	8b 4d c8	 mov	 ecx, DWORD PTR tv165[ebp]
  0009f	ff 15 00 00 00
	00		 call	 DWORD PTR __imp_?sgetc@?$basic_streambuf@_WU?$char_traits@_W@std@@@std@@QAEGXZ
  000a5	66 89 45 c6	 mov	 WORD PTR tv166[ebp], ax
  000a9	66 8b 45 c6	 mov	 ax, WORD PTR tv166[ebp]
  000ad	66 89 45 d8	 mov	 WORD PTR __Meta$87809[ebp], ax

; 490  : 
; 491  : 		for (; ; _Meta = _Istr.rdbuf()->snextc())

  000b1	eb 29		 jmp	 SHORT $L87810
$L87811:
  000b3	8b 4d 08	 mov	 ecx, DWORD PTR __Istr$[ebp]
  000b6	8b 11		 mov	 edx, DWORD PTR [ecx]
  000b8	8b 4d 08	 mov	 ecx, DWORD PTR __Istr$[ebp]
  000bb	03 4a 04	 add	 ecx, DWORD PTR [edx+4]
  000be	ff 15 00 00 00
	00		 call	 DWORD PTR __imp_?rdbuf@?$basic_ios@_WU?$char_traits@_W@std@@@std@@QBEPAV?$basic_streambuf@_WU?$char_traits@_W@std@@@2@XZ
  000c4	89 45 c0	 mov	 DWORD PTR tv167[ebp], eax
  000c7	8b 4d c0	 mov	 ecx, DWORD PTR tv167[ebp]
  000ca	ff 15 00 00 00
	00		 call	 DWORD PTR __imp_?snextc@?$basic_streambuf@_WU?$char_traits@_W@std@@@std@@QAEGXZ
  000d0	66 89 45 be	 mov	 WORD PTR tv168[ebp], ax
  000d4	66 8b 45 be	 mov	 ax, WORD PTR tv168[ebp]
  000d8	66 89 45 d8	 mov	 WORD PTR __Meta$87809[ebp], ax
$L87810:

; 492  : 			if (_Traits::eq_int_type(_Traits::eof(), _Meta))

  000dc	ff 15 00 00 00
	00		 call	 DWORD PTR __imp_?eof@?$char_traits@_W@std@@SAGXZ
  000e2	66 89 45 bc	 mov	 WORD PTR tv169[ebp], ax
  000e6	66 8b 4d bc	 mov	 cx, WORD PTR tv169[ebp]
  000ea	66 89 4d d6	 mov	 WORD PTR $T90545[ebp], cx
  000ee	8d 55 d8	 lea	 edx, DWORD PTR __Meta$87809[ebp]
  000f1	52		 push	 edx
  000f2	8d 45 d6	 lea	 eax, DWORD PTR $T90545[ebp]
  000f5	50		 push	 eax
  000f6	ff 15 00 00 00
	00		 call	 DWORD PTR __imp_?eq_int_type@?$char_traits@_W@std@@SA_NABG0@Z
  000fc	83 c4 08	 add	 esp, 8
  000ff	88 45 bb	 mov	 BYTE PTR tv170[ebp], al
  00102	0f b6 4d bb	 movzx	 ecx, BYTE PTR tv170[ebp]
  00106	85 c9		 test	 ecx, ecx
  00108	74 0e		 je	 SHORT $L87814

; 493  : 				{	// end of file, quit
; 494  : 				_State |= ios_base::eofbit;

  0010a	8b 55 ec	 mov	 edx, DWORD PTR __State$[ebp]
  0010d	83 ca 01	 or	 edx, 1
  00110	89 55 ec	 mov	 DWORD PTR __State$[ebp], edx

; 495  : 				break;

  00113	e9 94 00 00 00	 jmp	 $L87812
$L87814:

; 496  : 				}
; 497  : 			else if (_Traits::eq_int_type(_Meta, _Metadelim))

  00118	8d 45 dc	 lea	 eax, DWORD PTR __Metadelim$87808[ebp]
  0011b	50		 push	 eax
  0011c	8d 4d d8	 lea	 ecx, DWORD PTR __Meta$87809[ebp]
  0011f	51		 push	 ecx
  00120	ff 15 00 00 00
	00		 call	 DWORD PTR __imp_?eq_int_type@?$char_traits@_W@std@@SA_NABG0@Z
  00126	83 c4 08	 add	 esp, 8
  00129	88 45 ba	 mov	 BYTE PTR tv171[ebp], al
  0012c	0f b6 55 ba	 movzx	 edx, BYTE PTR tv171[ebp]
  00130	85 d2		 test	 edx, edx
  00132	74 25		 je	 SHORT $L87816

; 498  : 				{	// got a delimiter, discard it and quit
; 499  : 				_Changed = true;

  00134	c6 45 e3 01	 mov	 BYTE PTR __Changed$[ebp], 1

; 500  : 				_Istr.rdbuf()->sbumpc();

  00138	8b 45 08	 mov	 eax, DWORD PTR __Istr$[ebp]
  0013b	8b 08		 mov	 ecx, DWORD PTR [eax]
  0013d	8b 55 08	 mov	 edx, DWORD PTR __Istr$[ebp]
  00140	03 51 04	 add	 edx, DWORD PTR [ecx+4]
  00143	8b ca		 mov	 ecx, edx
  00145	ff 15 00 00 00
	00		 call	 DWORD PTR __imp_?rdbuf@?$basic_ios@_WU?$char_traits@_W@std@@@std@@QBEPAV?$basic_streambuf@_WU?$char_traits@_W@std@@@2@XZ
  0014b	89 45 b4	 mov	 DWORD PTR tv172[ebp], eax
  0014e	8b 4d b4	 mov	 ecx, DWORD PTR tv172[ebp]
  00151	ff 15 00 00 00
	00		 call	 DWORD PTR __imp_?sbumpc@?$basic_streambuf@_WU?$char_traits@_W@std@@@std@@QAEGXZ

; 501  : 				break;

  00157	eb 53		 jmp	 SHORT $L87812
$L87816:

; 502  : 				}
; 503  : 			else if (_Str.max_size() <= _Str.size())

  00159	8b 4d 0c	 mov	 ecx, DWORD PTR __Str$[ebp]
  0015c	ff 15 00 00 00
	00		 call	 DWORD PTR __imp_?max_size@?$basic_string@_WU?$char_traits@_W@std@@V?$allocator@_W@2@@std@@QBEIXZ
  00162	89 45 b0	 mov	 DWORD PTR tv173[ebp], eax
  00165	8b 4d 0c	 mov	 ecx, DWORD PTR __Str$[ebp]
  00168	ff 15 00 00 00
	00		 call	 DWORD PTR __imp_?size@?$basic_string@_WU?$char_traits@_W@std@@V?$allocator@_W@2@@std@@QBEIXZ
  0016e	89 45 ac	 mov	 DWORD PTR tv174[ebp], eax
  00171	8b 45 b0	 mov	 eax, DWORD PTR tv173[ebp]
  00174	3b 45 ac	 cmp	 eax, DWORD PTR tv174[ebp]
  00177	77 0b		 ja	 SHORT $L87818

; 504  : 				{	// string too large, quit
; 505  : 				_State |= ios_base::failbit;

  00179	8b 4d ec	 mov	 ecx, DWORD PTR __State$[ebp]
  0017c	83 c9 02	 or	 ecx, 2
  0017f	89 4d ec	 mov	 DWORD PTR __State$[ebp], ecx

; 506  : 				break;

  00182	eb 28		 jmp	 SHORT $L87812
$L87818:

; 507  : 				}
; 508  : 			else
; 509  : 				{	// got a character, add it to string
; 510  : 				_Str += _Traits::to_char_type(_Meta);

  00184	8d 55 d8	 lea	 edx, DWORD PTR __Meta$87809[ebp]
  00187	52		 push	 edx
  00188	ff 15 00 00 00
	00		 call	 DWORD PTR __imp_?to_char_type@?$char_traits@_W@std@@SA_WABG@Z
  0018e	83 c4 04	 add	 esp, 4
  00191	66 89 45 aa	 mov	 WORD PTR tv175[ebp], ax
  00195	66 8b 45 aa	 mov	 ax, WORD PTR tv175[ebp]
  00199	50		 push	 eax
  0019a	8b 4d 0c	 mov	 ecx, DWORD PTR __Str$[ebp]
  0019d	ff 15 00 00 00
	00		 call	 DWORD PTR __imp_??Y?$basic_string@_WU?$char_traits@_W@std@@V?$allocator@_W@2@@std@@QAEAAV01@_W@Z

; 511  : 				_Changed = true;

  001a3	c6 45 e3 01	 mov	 BYTE PTR __Changed$[ebp], 1

; 512  : 				}

  001a7	e9 07 ff ff ff	 jmp	 $L87811
$L87812:
  001ac	eb 1b		 jmp	 SHORT $L90547
$L90548:

; 513  : 		_CATCH_IO_(_Istr)

  001ae	6a 01		 push	 1
  001b0	6a 04		 push	 4
  001b2	8b 4d 08	 mov	 ecx, DWORD PTR __Istr$[ebp]
  001b5	8b 11		 mov	 edx, DWORD PTR [ecx]
  001b7	8b 4d 08	 mov	 ecx, DWORD PTR __Istr$[ebp]
  001ba	03 4a 04	 add	 ecx, DWORD PTR [edx+4]
  001bd	ff 15 00 00 00
	00		 call	 DWORD PTR __imp_?setstate@?$basic_ios@_WU?$char_traits@_W@std@@@std@@QAEXH_N@Z
  001c3	b8 00 00 00 00	 mov	 eax, $L90547
  001c8	c3		 ret	 0
$L90547:
  001c9	c7 45 fc 00 00
	00 00		 mov	 DWORD PTR __$EHRec$[ebp+12], 0

; 514  : 		}
; 515  : 
; 516  : 	if (!_Changed)

  001d0	0f b6 45 e3	 movzx	 eax, BYTE PTR __Changed$[ebp]
  001d4	85 c0		 test	 eax, eax
  001d6	75 09		 jne	 SHORT $L87820

; 517  : 		_State |= ios_base::failbit;

  001d8	8b 4d ec	 mov	 ecx, DWORD PTR __State$[ebp]
  001db	83 c9 02	 or	 ecx, 2
  001de	89 4d ec	 mov	 DWORD PTR __State$[ebp], ecx
$L87820:

; 518  : 	_Istr.setstate(_State);

  001e1	6a 00		 push	 0
  001e3	8b 55 ec	 mov	 edx, DWORD PTR __State$[ebp]
  001e6	52		 push	 edx
  001e7	8b 45 08	 mov	 eax, DWORD PTR __Istr$[ebp]
  001ea	8b 08		 mov	 ecx, DWORD PTR [eax]
  001ec	8b 55 08	 mov	 edx, DWORD PTR __Istr$[ebp]
  001ef	03 51 04	 add	 edx, DWORD PTR [ecx+4]
  001f2	8b ca		 mov	 ecx, edx
  001f4	ff 15 00 00 00
	00		 call	 DWORD PTR __imp_?setstate@?$basic_ios@_WU?$char_traits@_W@std@@@std@@QAEXH_N@Z

; 519  : 	return (_Istr);

  001fa	8b 45 08	 mov	 eax, DWORD PTR __Istr$[ebp]
  001fd	89 45 d0	 mov	 DWORD PTR $T90546[ebp], eax
  00200	c7 45 fc ff ff
	ff ff		 mov	 DWORD PTR __$EHRec$[ebp+12], -1
  00207	8d 4d e4	 lea	 ecx, DWORD PTR __Ok$[ebp]
  0020a	e8 00 00 00 00	 call	 ??1sentry@?$basic_istream@_WU?$char_traits@_W@std@@@std@@QAE@XZ
  0020f	8b 45 d0	 mov	 eax, DWORD PTR $T90546[ebp]

; 520  : 	}

  00212	8b 4d f4	 mov	 ecx, DWORD PTR __$EHRec$[ebp+4]
  00215	64 89 0d 00 00
	00 00		 mov	 DWORD PTR fs:__except_list, ecx
  0021c	5f		 pop	 edi
  0021d	5e		 pop	 esi
  0021e	5b		 pop	 ebx
  0021f	8b e5		 mov	 esp, ebp
  00221	5d		 pop	 ebp
  00222	c3		 ret	 0
_TEXT	ENDS
;	COMDAT text$x
text$x	SEGMENT
$L90549:
  00000	8d 4d e4	 lea	 ecx, DWORD PTR __Ok$[ebp]
  00003	e9 00 00 00 00	 jmp	 ??1sentry@?$basic_istream@_WU?$char_traits@_W@std@@@std@@QAE@XZ
__ehhandler$??$getline@_WU?$char_traits@_W@std@@V?$allocator@_W@2@@std@@YAAAV?$basic_istream@_WU?$char_traits@_W@std@@@0@AAV10@AAV?$basic_string@_WU?$char_traits@_W@std@@V?$allocator@_W@2@@0@_W@Z:
  00008	b8 00 00 00 00	 mov	 eax, OFFSET FLAT:$T90551
  0000d	e9 00 00 00 00	 jmp	 ___CxxFrameHandler
text$x	ENDS
??$getline@_WU?$char_traits@_W@std@@V?$allocator@_W@2@@std@@YAAAV?$basic_istream@_WU?$char_traits@_W@std@@@0@AAV10@AAV?$basic_string@_WU?$char_traits@_W@std@@V?$allocator@_W@2@@0@_W@Z ENDP ; std::getline<wchar_t,std::char_traits<wchar_t>,std::allocator<wchar_t> >
PUBLIC	??0sentry@?$basic_ostream@_WU?$char_traits@_W@std@@@std@@QAE@AAV12@@Z ; std::basic_ostream<wchar_t,std::char_traits<wchar_t> >::sentry::sentry
PUBLIC	??1sentry@?$basic_ostream@_WU?$char_traits@_W@std@@@std@@QAE@XZ ; std::basic_ostream<wchar_t,std::char_traits<wchar_t> >::sentry::~sentry
PUBLIC	??Bsentry@?$basic_ostream@_WU?$char_traits@_W@std@@@std@@QBE_NXZ ; std::basic_ostream<wchar_t,std::char_traits<wchar_t> >::sentry::operator bool
PUBLIC	??$?6_WU?$char_traits@_W@std@@V?$allocator@_W@1@@std@@YAAAV?$basic_ostream@_WU?$char_traits@_W@std@@@0@AAV10@ABV?$basic_string@_WU?$char_traits@_W@std@@V?$allocator@_W@2@@0@@Z ; std::operator<<<wchar_t,std::char_traits<wchar_t>,std::allocator<wchar_t> >
EXTRN	__imp_?sputc@?$basic_streambuf@_WU?$char_traits@_W@std@@@std@@QAEG_W@Z:NEAR
EXTRN	__imp_??A?$basic_string@_WU?$char_traits@_W@std@@V?$allocator@_W@2@@std@@QBEAB_WI@Z:NEAR
EXTRN	__imp_?fill@?$basic_ios@_WU?$char_traits@_W@std@@@std@@QBE_WXZ:NEAR
;	COMDAT xdata$x
xdata$x	SEGMENT
$T90575	DD	0ffffffffH
	DD	FLAT:$L90571
	DD	00H
	DD	00H
	DD	00H
	DD	00H
$T90577	DD	00H
	DD	00H
	DD	00H
	DD	FLAT:$L90570
$T90576	DD	01H
	DD	01H
	DD	02H
	DD	01H
	DD	FLAT:$T90577
$T90573	DD	019930520H
	DD	03H
	DD	FLAT:$T90575
	DD	01H
	DD	FLAT:$T90576
	DD	2 DUP(00H)
; Function compile flags: /Odt
xdata$x	ENDS
;	COMDAT ??$?6_WU?$char_traits@_W@std@@V?$allocator@_W@1@@std@@YAAAV?$basic_ostream@_WU?$char_traits@_W@std@@@0@AAV10@ABV?$basic_string@_WU?$char_traits@_W@std@@V?$allocator@_W@2@@0@@Z
_TEXT	SEGMENT
tv221 = -105						; size = 1
tv220 = -104						; size = 2
tv219 = -102						; size = 2
tv218 = -100						; size = 4
tv217 = -96						; size = 2
tv216 = -93						; size = 1
tv215 = -92						; size = 2
tv214 = -90						; size = 2
tv213 = -88						; size = 4
tv212 = -84						; size = 4
tv211 = -77						; size = 1
tv210 = -76						; size = 2
tv209 = -74						; size = 2
tv208 = -72						; size = 4
tv207 = -66						; size = 2
tv83 = -64						; size = 4
tv81 = -60						; size = 4
$T90568 = -56						; size = 4
$T90567 = -52						; size = 2
$T90566 = -50						; size = 2
$T90565 = -48						; size = 2
$T90564 = -46						; size = 2
$T90563 = -44						; size = 2
$T90562 = -42						; size = 2
__Count$87843 = -40					; size = 4
__Size$ = -36						; size = 4
__Ok$ = -32						; size = 8
__Pad$ = -24						; size = 4
__State$ = -20						; size = 4
__$EHRec$ = -16						; size = 16
__Ostr$ = 8						; size = 4
__Str$ = 12						; size = 4
??$?6_WU?$char_traits@_W@std@@V?$allocator@_W@1@@std@@YAAAV?$basic_ostream@_WU?$char_traits@_W@std@@@0@AAV10@ABV?$basic_string@_WU?$char_traits@_W@std@@V?$allocator@_W@2@@0@@Z PROC NEAR ; std::operator<<<wchar_t,std::char_traits<wchar_t>,std::allocator<wchar_t> >, COMDAT

; 538  : 	{	// insert a string

  00000	55		 push	 ebp
  00001	8b ec		 mov	 ebp, esp
  00003	6a ff		 push	 -1
  00005	68 00 00 00 00	 push	 __ehhandler$??$?6_WU?$char_traits@_W@std@@V?$allocator@_W@1@@std@@YAAAV?$basic_ostream@_WU?$char_traits@_W@std@@@0@AAV10@ABV?$basic_string@_WU?$char_traits@_W@std@@V?$allocator@_W@2@@0@@Z
  0000a	64 a1 00 00 00
	00		 mov	 eax, DWORD PTR fs:__except_list
  00010	50		 push	 eax
  00011	64 89 25 00 00
	00 00		 mov	 DWORD PTR fs:__except_list, esp
  00018	51		 push	 ecx
  00019	83 ec 5c	 sub	 esp, 92			; 0000005cH
  0001c	53		 push	 ebx
  0001d	56		 push	 esi
  0001e	57		 push	 edi
  0001f	89 65 f0	 mov	 DWORD PTR __$EHRec$[ebp], esp

; 539  : 	typedef basic_ostream<_Elem, _Traits> _Myos;
; 540  : 	typedef basic_string<_Elem, _Traits, _Alloc> _Mystr;
; 541  : 	typedef typename _Mystr::size_type _Mysizt;
; 542  : 
; 543  : 	ios_base::iostate _State = ios_base::goodbit;

  00022	c7 45 ec 00 00
	00 00		 mov	 DWORD PTR __State$[ebp], 0

; 544  : 	_Mysizt _Size = _Str.size();

  00029	8b 4d 0c	 mov	 ecx, DWORD PTR __Str$[ebp]
  0002c	ff 15 00 00 00
	00		 call	 DWORD PTR __imp_?size@?$basic_string@_WU?$char_traits@_W@std@@V?$allocator@_W@2@@std@@QBEIXZ
  00032	89 45 dc	 mov	 DWORD PTR __Size$[ebp], eax

; 545  : 	_Mysizt _Pad = _Ostr.width() <= 0 || (_Mysizt)_Ostr.width() <= _Size
; 546  : 			? 0 : (_Mysizt)_Ostr.width() - _Size;

  00035	8b 45 08	 mov	 eax, DWORD PTR __Ostr$[ebp]
  00038	8b 08		 mov	 ecx, DWORD PTR [eax]
  0003a	8b 55 08	 mov	 edx, DWORD PTR __Ostr$[ebp]
  0003d	03 51 04	 add	 edx, DWORD PTR [ecx+4]
  00040	8b ca		 mov	 ecx, edx
  00042	ff 15 00 00 00
	00		 call	 DWORD PTR __imp_?width@ios_base@std@@QBEHXZ
  00048	85 c0		 test	 eax, eax
  0004a	7e 33		 jle	 SHORT $L90560
  0004c	8b 45 08	 mov	 eax, DWORD PTR __Ostr$[ebp]
  0004f	8b 08		 mov	 ecx, DWORD PTR [eax]
  00051	8b 55 08	 mov	 edx, DWORD PTR __Ostr$[ebp]
  00054	03 51 04	 add	 edx, DWORD PTR [ecx+4]
  00057	8b ca		 mov	 ecx, edx
  00059	ff 15 00 00 00
	00		 call	 DWORD PTR __imp_?width@ios_base@std@@QBEHXZ
  0005f	3b 45 dc	 cmp	 eax, DWORD PTR __Size$[ebp]
  00062	76 1b		 jbe	 SHORT $L90560
  00064	8b 45 08	 mov	 eax, DWORD PTR __Ostr$[ebp]
  00067	8b 08		 mov	 ecx, DWORD PTR [eax]
  00069	8b 55 08	 mov	 edx, DWORD PTR __Ostr$[ebp]
  0006c	03 51 04	 add	 edx, DWORD PTR [ecx+4]
  0006f	8b ca		 mov	 ecx, edx
  00071	ff 15 00 00 00
	00		 call	 DWORD PTR __imp_?width@ios_base@std@@QBEHXZ
  00077	2b 45 dc	 sub	 eax, DWORD PTR __Size$[ebp]
  0007a	89 45 c4	 mov	 DWORD PTR tv81[ebp], eax
  0007d	eb 07		 jmp	 SHORT $L90561
$L90560:
  0007f	c7 45 c4 00 00
	00 00		 mov	 DWORD PTR tv81[ebp], 0
$L90561:
  00086	8b 45 c4	 mov	 eax, DWORD PTR tv81[ebp]
  00089	89 45 e8	 mov	 DWORD PTR __Pad$[ebp], eax

; 547  : 	const typename _Myos::sentry _Ok(_Ostr);

  0008c	8b 4d 08	 mov	 ecx, DWORD PTR __Ostr$[ebp]
  0008f	51		 push	 ecx
  00090	8d 4d e0	 lea	 ecx, DWORD PTR __Ok$[ebp]
  00093	e8 00 00 00 00	 call	 ??0sentry@?$basic_ostream@_WU?$char_traits@_W@std@@@std@@QAE@AAV12@@Z ; std::basic_ostream<wchar_t,std::char_traits<wchar_t> >::sentry::sentry
  00098	c7 45 fc 00 00
	00 00		 mov	 DWORD PTR __$EHRec$[ebp+12], 0

; 548  : 
; 549  : 	if (!_Ok)

  0009f	8d 4d e0	 lea	 ecx, DWORD PTR __Ok$[ebp]
  000a2	e8 00 00 00 00	 call	 ??Bsentry@?$basic_ostream@_WU?$char_traits@_W@std@@@std@@QBE_NXZ ; std::basic_ostream<wchar_t,std::char_traits<wchar_t> >::sentry::operator bool
  000a7	0f b6 d0	 movzx	 edx, al
  000aa	85 d2		 test	 edx, edx
  000ac	75 0e		 jne	 SHORT $L87832

; 550  : 		_State |= ios_base::badbit;

  000ae	8b 45 ec	 mov	 eax, DWORD PTR __State$[ebp]
  000b1	83 c8 04	 or	 eax, 4
  000b4	89 45 ec	 mov	 DWORD PTR __State$[ebp], eax

; 551  : 	else

  000b7	e9 37 02 00 00	 jmp	 $L90569
$L87832:

; 552  : 		{	// state okay, insert characters
; 553  : 	_TRY_IO_BEGIN

  000bc	c6 45 fc 01	 mov	 BYTE PTR __$EHRec$[ebp+12], 1

; 554  : 		if ((_Ostr.flags() & ios_base::adjustfield) != ios_base::left)

  000c0	8b 4d 08	 mov	 ecx, DWORD PTR __Ostr$[ebp]
  000c3	8b 11		 mov	 edx, DWORD PTR [ecx]
  000c5	8b 4d 08	 mov	 ecx, DWORD PTR __Ostr$[ebp]
  000c8	03 4a 04	 add	 ecx, DWORD PTR [edx+4]
  000cb	ff 15 00 00 00
	00		 call	 DWORD PTR __imp_?flags@ios_base@std@@QBEHXZ
  000d1	89 45 c0	 mov	 DWORD PTR tv83[ebp], eax
  000d4	8b 45 c0	 mov	 eax, DWORD PTR tv83[ebp]
  000d7	25 c0 01 00 00	 and	 eax, 448		; 000001c0H
  000dc	83 f8 40	 cmp	 eax, 64			; 00000040H
  000df	0f 84 96 00 00
	00		 je	 $L87835

; 555  : 			for (; 0 < _Pad; --_Pad)	// pad on left

  000e5	eb 09		 jmp	 SHORT $L87836
$L87837:
  000e7	8b 4d e8	 mov	 ecx, DWORD PTR __Pad$[ebp]
  000ea	83 e9 01	 sub	 ecx, 1
  000ed	89 4d e8	 mov	 DWORD PTR __Pad$[ebp], ecx
$L87836:
  000f0	83 7d e8 00	 cmp	 DWORD PTR __Pad$[ebp], 0
  000f4	0f 86 81 00 00
	00		 jbe	 $L87835

; 556  : 				if (_Traits::eq_int_type(_Traits::eof(),
; 557  : 					_Ostr.rdbuf()->sputc(_Ostr.fill())))

  000fa	8b 55 08	 mov	 edx, DWORD PTR __Ostr$[ebp]
  000fd	8b 02		 mov	 eax, DWORD PTR [edx]
  000ff	8b 4d 08	 mov	 ecx, DWORD PTR __Ostr$[ebp]
  00102	03 48 04	 add	 ecx, DWORD PTR [eax+4]
  00105	ff 15 00 00 00
	00		 call	 DWORD PTR __imp_?fill@?$basic_ios@_WU?$char_traits@_W@std@@@std@@QBE_WXZ
  0010b	66 89 45 be	 mov	 WORD PTR tv207[ebp], ax
  0010f	8b 4d 08	 mov	 ecx, DWORD PTR __Ostr$[ebp]
  00112	8b 11		 mov	 edx, DWORD PTR [ecx]
  00114	8b 4d 08	 mov	 ecx, DWORD PTR __Ostr$[ebp]
  00117	03 4a 04	 add	 ecx, DWORD PTR [edx+4]
  0011a	ff 15 00 00 00
	00		 call	 DWORD PTR __imp_?rdbuf@?$basic_ios@_WU?$char_traits@_W@std@@@std@@QBEPAV?$basic_streambuf@_WU?$char_traits@_W@std@@@2@XZ
  00120	89 45 b8	 mov	 DWORD PTR tv208[ebp], eax
  00123	66 8b 45 be	 mov	 ax, WORD PTR tv207[ebp]
  00127	50		 push	 eax
  00128	8b 4d b8	 mov	 ecx, DWORD PTR tv208[ebp]
  0012b	ff 15 00 00 00
	00		 call	 DWORD PTR __imp_?sputc@?$basic_streambuf@_WU?$char_traits@_W@std@@@std@@QAEG_W@Z
  00131	66 89 45 b6	 mov	 WORD PTR tv209[ebp], ax
  00135	66 8b 4d b6	 mov	 cx, WORD PTR tv209[ebp]
  00139	66 89 4d d6	 mov	 WORD PTR $T90562[ebp], cx
  0013d	ff 15 00 00 00
	00		 call	 DWORD PTR __imp_?eof@?$char_traits@_W@std@@SAGXZ
  00143	66 89 45 b4	 mov	 WORD PTR tv210[ebp], ax
  00147	66 8b 55 b4	 mov	 dx, WORD PTR tv210[ebp]
  0014b	66 89 55 d4	 mov	 WORD PTR $T90563[ebp], dx
  0014f	8d 45 d6	 lea	 eax, DWORD PTR $T90562[ebp]
  00152	50		 push	 eax
  00153	8d 4d d4	 lea	 ecx, DWORD PTR $T90563[ebp]
  00156	51		 push	 ecx
  00157	ff 15 00 00 00
	00		 call	 DWORD PTR __imp_?eq_int_type@?$char_traits@_W@std@@SA_NABG0@Z
  0015d	83 c4 08	 add	 esp, 8
  00160	88 45 b3	 mov	 BYTE PTR tv211[ebp], al
  00163	0f b6 55 b3	 movzx	 edx, BYTE PTR tv211[ebp]
  00167	85 d2		 test	 edx, edx
  00169	74 0b		 je	 SHORT $L87841

; 558  : 					{	// insertion failed, quit
; 559  : 					_State |= ios_base::badbit;

  0016b	8b 45 ec	 mov	 eax, DWORD PTR __State$[ebp]
  0016e	83 c8 04	 or	 eax, 4
  00171	89 45 ec	 mov	 DWORD PTR __State$[ebp], eax

; 560  : 					break;

  00174	eb 05		 jmp	 SHORT $L87835
$L87841:

; 561  : 					}
; 562  : 
; 563  : 		if (_State == ios_base::goodbit)

  00176	e9 6c ff ff ff	 jmp	 $L87837
$L87835:
  0017b	83 7d ec 00	 cmp	 DWORD PTR __State$[ebp], 0
  0017f	0f 85 98 00 00
	00		 jne	 $L87842

; 564  : 			for (_Mysizt _Count = 0; _Count < _Size; ++_Count)

  00185	c7 45 d8 00 00
	00 00		 mov	 DWORD PTR __Count$87843[ebp], 0
  0018c	eb 09		 jmp	 SHORT $L87844
$L87845:
  0018e	8b 4d d8	 mov	 ecx, DWORD PTR __Count$87843[ebp]
  00191	83 c1 01	 add	 ecx, 1
  00194	89 4d d8	 mov	 DWORD PTR __Count$87843[ebp], ecx
$L87844:
  00197	8b 55 d8	 mov	 edx, DWORD PTR __Count$87843[ebp]
  0019a	3b 55 dc	 cmp	 edx, DWORD PTR __Size$[ebp]
  0019d	73 7e		 jae	 SHORT $L87842

; 565  : 				if (_Traits::eq_int_type(_Traits::eof(),
; 566  : 					_Ostr.rdbuf()->sputc(_Str[_Count])))

  0019f	8b 45 d8	 mov	 eax, DWORD PTR __Count$87843[ebp]
  001a2	50		 push	 eax
  001a3	8b 4d 0c	 mov	 ecx, DWORD PTR __Str$[ebp]
  001a6	ff 15 00 00 00
	00		 call	 DWORD PTR __imp_??A?$basic_string@_WU?$char_traits@_W@std@@V?$allocator@_W@2@@std@@QBEAB_WI@Z
  001ac	89 45 ac	 mov	 DWORD PTR tv212[ebp], eax
  001af	8b 4d 08	 mov	 ecx, DWORD PTR __Ostr$[ebp]
  001b2	8b 11		 mov	 edx, DWORD PTR [ecx]
  001b4	8b 4d 08	 mov	 ecx, DWORD PTR __Ostr$[ebp]
  001b7	03 4a 04	 add	 ecx, DWORD PTR [edx+4]
  001ba	ff 15 00 00 00
	00		 call	 DWORD PTR __imp_?rdbuf@?$basic_ios@_WU?$char_traits@_W@std@@@std@@QBEPAV?$basic_streambuf@_WU?$char_traits@_W@std@@@2@XZ
  001c0	89 45 a8	 mov	 DWORD PTR tv213[ebp], eax
  001c3	8b 45 ac	 mov	 eax, DWORD PTR tv212[ebp]
  001c6	66 8b 08	 mov	 cx, WORD PTR [eax]
  001c9	51		 push	 ecx
  001ca	8b 4d a8	 mov	 ecx, DWORD PTR tv213[ebp]
  001cd	ff 15 00 00 00
	00		 call	 DWORD PTR __imp_?sputc@?$basic_streambuf@_WU?$char_traits@_W@std@@@std@@QAEG_W@Z
  001d3	66 89 45 a6	 mov	 WORD PTR tv214[ebp], ax
  001d7	66 8b 55 a6	 mov	 dx, WORD PTR tv214[ebp]
  001db	66 89 55 d2	 mov	 WORD PTR $T90564[ebp], dx
  001df	ff 15 00 00 00
	00		 call	 DWORD PTR __imp_?eof@?$char_traits@_W@std@@SAGXZ
  001e5	66 89 45 a4	 mov	 WORD PTR tv215[ebp], ax
  001e9	66 8b 45 a4	 mov	 ax, WORD PTR tv215[ebp]
  001ed	66 89 45 d0	 mov	 WORD PTR $T90565[ebp], ax
  001f1	8d 4d d2	 lea	 ecx, DWORD PTR $T90564[ebp]
  001f4	51		 push	 ecx
  001f5	8d 55 d0	 lea	 edx, DWORD PTR $T90565[ebp]
  001f8	52		 push	 edx
  001f9	ff 15 00 00 00
	00		 call	 DWORD PTR __imp_?eq_int_type@?$char_traits@_W@std@@SA_NABG0@Z
  001ff	83 c4 08	 add	 esp, 8
  00202	88 45 a3	 mov	 BYTE PTR tv216[ebp], al
  00205	0f b6 45 a3	 movzx	 eax, BYTE PTR tv216[ebp]
  00209	85 c0		 test	 eax, eax
  0020b	74 0b		 je	 SHORT $L87849

; 567  : 					{	// insertion failed, quit
; 568  : 					_State |= ios_base::badbit;

  0020d	8b 4d ec	 mov	 ecx, DWORD PTR __State$[ebp]
  00210	83 c9 04	 or	 ecx, 4
  00213	89 4d ec	 mov	 DWORD PTR __State$[ebp], ecx

; 569  : 					break;

  00216	eb 05		 jmp	 SHORT $L87842
$L87849:

; 570  : 					}
; 571  : 
; 572  : 		if (_State == ios_base::goodbit)

  00218	e9 71 ff ff ff	 jmp	 $L87845
$L87842:
  0021d	83 7d ec 00	 cmp	 DWORD PTR __State$[ebp], 0
  00221	0f 85 9a 00 00
	00		 jne	 $L87850

; 573  : 			for (; 0 < _Pad; --_Pad)	// pad on right

  00227	eb 09		 jmp	 SHORT $L87851
$L87852:
  00229	8b 55 e8	 mov	 edx, DWORD PTR __Pad$[ebp]
  0022c	83 ea 01	 sub	 edx, 1
  0022f	89 55 e8	 mov	 DWORD PTR __Pad$[ebp], edx
$L87851:
  00232	83 7d e8 00	 cmp	 DWORD PTR __Pad$[ebp], 0
  00236	0f 86 85 00 00
	00		 jbe	 $L87850

; 574  : 				if (_Traits::eq_int_type(_Traits::eof(),
; 575  : 					_Ostr.rdbuf()->sputc(_Ostr.fill())))

  0023c	8b 45 08	 mov	 eax, DWORD PTR __Ostr$[ebp]
  0023f	8b 08		 mov	 ecx, DWORD PTR [eax]
  00241	8b 55 08	 mov	 edx, DWORD PTR __Ostr$[ebp]
  00244	03 51 04	 add	 edx, DWORD PTR [ecx+4]
  00247	8b ca		 mov	 ecx, edx
  00249	ff 15 00 00 00
	00		 call	 DWORD PTR __imp_?fill@?$basic_ios@_WU?$char_traits@_W@std@@@std@@QBE_WXZ
  0024f	66 89 45 a0	 mov	 WORD PTR tv217[ebp], ax
  00253	8b 45 08	 mov	 eax, DWORD PTR __Ostr$[ebp]
  00256	8b 08		 mov	 ecx, DWORD PTR [eax]
  00258	8b 55 08	 mov	 edx, DWORD PTR __Ostr$[ebp]
  0025b	03 51 04	 add	 edx, DWORD PTR [ecx+4]
  0025e	8b ca		 mov	 ecx, edx
  00260	ff 15 00 00 00
	00		 call	 DWORD PTR __imp_?rdbuf@?$basic_ios@_WU?$char_traits@_W@std@@@std@@QBEPAV?$basic_streambuf@_WU?$char_traits@_W@std@@@2@XZ
  00266	89 45 9c	 mov	 DWORD PTR tv218[ebp], eax
  00269	66 8b 45 a0	 mov	 ax, WORD PTR tv217[ebp]
  0026d	50		 push	 eax
  0026e	8b 4d 9c	 mov	 ecx, DWORD PTR tv218[ebp]
  00271	ff 15 00 00 00
	00		 call	 DWORD PTR __imp_?sputc@?$basic_streambuf@_WU?$char_traits@_W@std@@@std@@QAEG_W@Z
  00277	66 89 45 9a	 mov	 WORD PTR tv219[ebp], ax
  0027b	66 8b 4d 9a	 mov	 cx, WORD PTR tv219[ebp]
  0027f	66 89 4d ce	 mov	 WORD PTR $T90566[ebp], cx
  00283	ff 15 00 00 00
	00		 call	 DWORD PTR __imp_?eof@?$char_traits@_W@std@@SAGXZ
  00289	66 89 45 98	 mov	 WORD PTR tv220[ebp], ax
  0028d	66 8b 55 98	 mov	 dx, WORD PTR tv220[ebp]
  00291	66 89 55 cc	 mov	 WORD PTR $T90567[ebp], dx
  00295	8d 45 ce	 lea	 eax, DWORD PTR $T90566[ebp]
  00298	50		 push	 eax
  00299	8d 4d cc	 lea	 ecx, DWORD PTR $T90567[ebp]
  0029c	51		 push	 ecx
  0029d	ff 15 00 00 00
	00		 call	 DWORD PTR __imp_?eq_int_type@?$char_traits@_W@std@@SA_NABG0@Z
  002a3	83 c4 08	 add	 esp, 8
  002a6	88 45 97	 mov	 BYTE PTR tv221[ebp], al
  002a9	0f b6 55 97	 movzx	 edx, BYTE PTR tv221[ebp]
  002ad	85 d2		 test	 edx, edx
  002af	74 0b		 je	 SHORT $L87856

; 576  : 					{	// insertion failed, quit
; 577  : 					_State |= ios_base::badbit;

  002b1	8b 45 ec	 mov	 eax, DWORD PTR __State$[ebp]
  002b4	83 c8 04	 or	 eax, 4
  002b7	89 45 ec	 mov	 DWORD PTR __State$[ebp], eax

; 578  : 					break;

  002ba	eb 05		 jmp	 SHORT $L87850
$L87856:

; 579  : 					}
; 580  : 		_Ostr.width(0);

  002bc	e9 68 ff ff ff	 jmp	 $L87852
$L87850:
  002c1	6a 00		 push	 0
  002c3	8b 4d 08	 mov	 ecx, DWORD PTR __Ostr$[ebp]
  002c6	8b 11		 mov	 edx, DWORD PTR [ecx]
  002c8	8b 4d 08	 mov	 ecx, DWORD PTR __Ostr$[ebp]
  002cb	03 4a 04	 add	 ecx, DWORD PTR [edx+4]
  002ce	ff 15 00 00 00
	00		 call	 DWORD PTR __imp_?width@ios_base@std@@QAEHH@Z
  002d4	eb 1d		 jmp	 SHORT $L90569
$L90570:

; 581  : 		_CATCH_IO_(_Ostr)

  002d6	6a 01		 push	 1
  002d8	6a 04		 push	 4
  002da	8b 45 08	 mov	 eax, DWORD PTR __Ostr$[ebp]
  002dd	8b 08		 mov	 ecx, DWORD PTR [eax]
  002df	8b 55 08	 mov	 edx, DWORD PTR __Ostr$[ebp]
  002e2	03 51 04	 add	 edx, DWORD PTR [ecx+4]
  002e5	8b ca		 mov	 ecx, edx
  002e7	ff 15 00 00 00
	00		 call	 DWORD PTR __imp_?setstate@?$basic_ios@_WU?$char_traits@_W@std@@@std@@QAEXH_N@Z
  002ed	b8 00 00 00 00	 mov	 eax, $L90569
  002f2	c3		 ret	 0
$L90569:
  002f3	c7 45 fc 00 00
	00 00		 mov	 DWORD PTR __$EHRec$[ebp+12], 0

; 582  : 		}
; 583  : 
; 584  : 	_Ostr.setstate(_State);

  002fa	6a 00		 push	 0
  002fc	8b 45 ec	 mov	 eax, DWORD PTR __State$[ebp]
  002ff	50		 push	 eax
  00300	8b 4d 08	 mov	 ecx, DWORD PTR __Ostr$[ebp]
  00303	8b 11		 mov	 edx, DWORD PTR [ecx]
  00305	8b 4d 08	 mov	 ecx, DWORD PTR __Ostr$[ebp]
  00308	03 4a 04	 add	 ecx, DWORD PTR [edx+4]
  0030b	ff 15 00 00 00
	00		 call	 DWORD PTR __imp_?setstate@?$basic_ios@_WU?$char_traits@_W@std@@@std@@QAEXH_N@Z

; 585  : 	return (_Ostr);

  00311	8b 45 08	 mov	 eax, DWORD PTR __Ostr$[ebp]
  00314	89 45 c8	 mov	 DWORD PTR $T90568[ebp], eax
  00317	c7 45 fc ff ff
	ff ff		 mov	 DWORD PTR __$EHRec$[ebp+12], -1
  0031e	8d 4d e0	 lea	 ecx, DWORD PTR __Ok$[ebp]
  00321	e8 00 00 00 00	 call	 ??1sentry@?$basic_ostream@_WU?$char_traits@_W@std@@@std@@QAE@XZ ; std::basic_ostream<wchar_t,std::char_traits<wchar_t> >::sentry::~sentry
  00326	8b 45 c8	 mov	 eax, DWORD PTR $T90568[ebp]

; 586  : 	}

  00329	8b 4d f4	 mov	 ecx, DWORD PTR __$EHRec$[ebp+4]
  0032c	64 89 0d 00 00
	00 00		 mov	 DWORD PTR fs:__except_list, ecx
  00333	5f		 pop	 edi
  00334	5e		 pop	 esi
  00335	5b		 pop	 ebx
  00336	8b e5		 mov	 esp, ebp
  00338	5d		 pop	 ebp
  00339	c3		 ret	 0
_TEXT	ENDS
;	COMDAT text$x
text$x	SEGMENT
$L90571:
  00000	8d 4d e0	 lea	 ecx, DWORD PTR __Ok$[ebp]
  00003	e9 00 00 00 00	 jmp	 ??1sentry@?$basic_ostream@_WU?$char_traits@_W@std@@@std@@QAE@XZ ; std::basic_ostream<wchar_t,std::char_traits<wchar_t> >::sentry::~sentry
__ehhandler$??$?6_WU?$char_traits@_W@std@@V?$allocator@_W@1@@std@@YAAAV?$basic_ostream@_WU?$char_traits@_W@std@@@0@AAV10@ABV?$basic_string@_WU?$char_traits@_W@std@@V?$allocator@_W@2@@0@@Z:
  00008	b8 00 00 00 00	 mov	 eax, OFFSET FLAT:$T90573
  0000d	e9 00 00 00 00	 jmp	 ___CxxFrameHandler
text$x	ENDS
??$?6_WU?$char_traits@_W@std@@V?$allocator@_W@1@@std@@YAAAV?$basic_ostream@_WU?$char_traits@_W@std@@@0@AAV10@ABV?$basic_string@_WU?$char_traits@_W@std@@V?$allocator@_W@2@@0@@Z ENDP ; std::operator<<<wchar_t,std::char_traits<wchar_t>,std::allocator<wchar_t> >
PUBLIC	??0_Sentry_base@?$basic_ostream@_WU?$char_traits@_W@std@@@std@@QAE@AAV12@@Z ; std::basic_ostream<wchar_t,std::char_traits<wchar_t> >::_Sentry_base::_Sentry_base
PUBLIC	??1_Sentry_base@?$basic_ostream@_WU?$char_traits@_W@std@@@std@@QAE@XZ ; std::basic_ostream<wchar_t,std::char_traits<wchar_t> >::_Sentry_base::~_Sentry_base
EXTRN	__imp_?tie@?$basic_ios@_WU?$char_traits@_W@std@@@std@@QBEPAV?$basic_ostream@_WU?$char_traits@_W@std@@@2@XZ:NEAR
EXTRN	__imp_?flush@?$basic_ostream@_WU?$char_traits@_W@std@@@std@@QAEAAV12@XZ:NEAR
;	COMDAT xdata$x
; File d:\program files (x86)\microsoft visual studio .net 2003\vc7\include\ostream
xdata$x	SEGMENT
$T90586	DD	0ffffffffH
	DD	FLAT:$L90582
$T90584	DD	019930520H
	DD	01H
	DD	FLAT:$T90586
	DD	2 DUP(00H)
	DD	2 DUP(00H)
; Function compile flags: /Odt
xdata$x	ENDS
;	COMDAT ??0sentry@?$basic_ostream@_WU?$char_traits@_W@std@@@std@@QAE@AAV12@@Z
_TEXT	SEGMENT
_this$ = -16						; size = 4
__$EHRec$ = -12						; size = 12
__Ostr$ = 8						; size = 4
??0sentry@?$basic_ostream@_WU?$char_traits@_W@std@@@std@@QAE@AAV12@@Z PROC NEAR ; std::basic_ostream<wchar_t,std::char_traits<wchar_t> >::sentry::sentry, COMDAT
; _this$ = ecx

; 88   : 			{	// construct locking and testing stream

  00000	55		 push	 ebp
  00001	8b ec		 mov	 ebp, esp
  00003	6a ff		 push	 -1
  00005	68 00 00 00 00	 push	 __ehhandler$??0sentry@?$basic_ostream@_WU?$char_traits@_W@std@@@std@@QAE@AAV12@@Z
  0000a	64 a1 00 00 00
	00		 mov	 eax, DWORD PTR fs:__except_list
  00010	50		 push	 eax
  00011	64 89 25 00 00
	00 00		 mov	 DWORD PTR fs:__except_list, esp
  00018	51		 push	 ecx
  00019	89 4d f0	 mov	 DWORD PTR _this$[ebp], ecx
  0001c	8b 45 08	 mov	 eax, DWORD PTR __Ostr$[ebp]
  0001f	50		 push	 eax
  00020	8b 4d f0	 mov	 ecx, DWORD PTR _this$[ebp]
  00023	e8 00 00 00 00	 call	 ??0_Sentry_base@?$basic_ostream@_WU?$char_traits@_W@std@@@std@@QAE@AAV12@@Z ; std::basic_ostream<wchar_t,std::char_traits<wchar_t> >::_Sentry_base::_Sentry_base
  00028	c7 45 fc 00 00
	00 00		 mov	 DWORD PTR __$EHRec$[ebp+8], 0

; 89   : 			if (_Ostr.good() && _Ostr.tie() != 0)

  0002f	8b 4d 08	 mov	 ecx, DWORD PTR __Ostr$[ebp]
  00032	8b 11		 mov	 edx, DWORD PTR [ecx]
  00034	8b 4d 08	 mov	 ecx, DWORD PTR __Ostr$[ebp]
  00037	03 4a 04	 add	 ecx, DWORD PTR [edx+4]
  0003a	ff 15 00 00 00
	00		 call	 DWORD PTR __imp_?good@ios_base@std@@QBE_NXZ
  00040	0f b6 c0	 movzx	 eax, al
  00043	85 c0		 test	 eax, eax
  00045	74 30		 je	 SHORT $L87095
  00047	8b 4d 08	 mov	 ecx, DWORD PTR __Ostr$[ebp]
  0004a	8b 11		 mov	 edx, DWORD PTR [ecx]
  0004c	8b 4d 08	 mov	 ecx, DWORD PTR __Ostr$[ebp]
  0004f	03 4a 04	 add	 ecx, DWORD PTR [edx+4]
  00052	ff 15 00 00 00
	00		 call	 DWORD PTR __imp_?tie@?$basic_ios@_WU?$char_traits@_W@std@@@std@@QBEPAV?$basic_ostream@_WU?$char_traits@_W@std@@@2@XZ
  00058	85 c0		 test	 eax, eax
  0005a	74 1b		 je	 SHORT $L87095

; 90   : 				_Ostr.tie()->flush();

  0005c	8b 45 08	 mov	 eax, DWORD PTR __Ostr$[ebp]
  0005f	8b 08		 mov	 ecx, DWORD PTR [eax]
  00061	8b 55 08	 mov	 edx, DWORD PTR __Ostr$[ebp]
  00064	03 51 04	 add	 edx, DWORD PTR [ecx+4]
  00067	8b ca		 mov	 ecx, edx
  00069	ff 15 00 00 00
	00		 call	 DWORD PTR __imp_?tie@?$basic_ios@_WU?$char_traits@_W@std@@@std@@QBEPAV?$basic_ostream@_WU?$char_traits@_W@std@@@2@XZ
  0006f	8b c8		 mov	 ecx, eax
  00071	ff 15 00 00 00
	00		 call	 DWORD PTR __imp_?flush@?$basic_ostream@_WU?$char_traits@_W@std@@@std@@QAEAAV12@XZ
$L87095:

; 91   : 			_Ok = _Ostr.good();	// store test only after flushing tie

  00077	8b 45 08	 mov	 eax, DWORD PTR __Ostr$[ebp]
  0007a	8b 08		 mov	 ecx, DWORD PTR [eax]
  0007c	8b 55 08	 mov	 edx, DWORD PTR __Ostr$[ebp]
  0007f	03 51 04	 add	 edx, DWORD PTR [ecx+4]
  00082	8b ca		 mov	 ecx, edx
  00084	ff 15 00 00 00
	00		 call	 DWORD PTR __imp_?good@ios_base@std@@QBE_NXZ
  0008a	8b 4d f0	 mov	 ecx, DWORD PTR _this$[ebp]
  0008d	88 41 04	 mov	 BYTE PTR [ecx+4], al

; 92   : 			}

  00090	c7 45 fc ff ff
	ff ff		 mov	 DWORD PTR __$EHRec$[ebp+8], -1
  00097	8b 45 f0	 mov	 eax, DWORD PTR _this$[ebp]
  0009a	8b 4d f4	 mov	 ecx, DWORD PTR __$EHRec$[ebp]
  0009d	64 89 0d 00 00
	00 00		 mov	 DWORD PTR fs:__except_list, ecx
  000a4	8b e5		 mov	 esp, ebp
  000a6	5d		 pop	 ebp
  000a7	c2 04 00	 ret	 4
_TEXT	ENDS
;	COMDAT text$x
text$x	SEGMENT
$L90582:
  00000	8b 4d f0	 mov	 ecx, DWORD PTR _this$[ebp]
  00003	e9 00 00 00 00	 jmp	 ??1_Sentry_base@?$basic_ostream@_WU?$char_traits@_W@std@@@std@@QAE@XZ ; std::basic_ostream<wchar_t,std::char_traits<wchar_t> >::_Sentry_base::~_Sentry_base
__ehhandler$??0sentry@?$basic_ostream@_WU?$char_traits@_W@std@@@std@@QAE@AAV12@@Z:
  00008	b8 00 00 00 00	 mov	 eax, OFFSET FLAT:$T90584
  0000d	e9 00 00 00 00	 jmp	 ___CxxFrameHandler
text$x	ENDS
??0sentry@?$basic_ostream@_WU?$char_traits@_W@std@@@std@@QAE@AAV12@@Z ENDP ; std::basic_ostream<wchar_t,std::char_traits<wchar_t> >::sentry::sentry
EXTRN	__imp_?_Osfx@?$basic_ostream@_WU?$char_traits@_W@std@@@std@@QAEXXZ:NEAR
;	COMDAT xdata$x
xdata$x	SEGMENT
$T90595	DD	0ffffffffH
	DD	FLAT:$L90591
$T90593	DD	019930520H
	DD	01H
	DD	FLAT:$T90595
	DD	2 DUP(00H)
	DD	2 DUP(00H)
; Function compile flags: /Odt
xdata$x	ENDS
;	COMDAT ??1sentry@?$basic_ostream@_WU?$char_traits@_W@std@@@std@@QAE@XZ
_TEXT	SEGMENT
_this$ = -16						; size = 4
__$EHRec$ = -12						; size = 12
??1sentry@?$basic_ostream@_WU?$char_traits@_W@std@@@std@@QAE@XZ PROC NEAR ; std::basic_ostream<wchar_t,std::char_traits<wchar_t> >::sentry::~sentry, COMDAT
; _this$ = ecx

; 95   : 			{	// destroy the object

  00000	55		 push	 ebp
  00001	8b ec		 mov	 ebp, esp
  00003	6a ff		 push	 -1
  00005	68 00 00 00 00	 push	 __ehhandler$??1sentry@?$basic_ostream@_WU?$char_traits@_W@std@@@std@@QAE@XZ
  0000a	64 a1 00 00 00
	00		 mov	 eax, DWORD PTR fs:__except_list
  00010	50		 push	 eax
  00011	64 89 25 00 00
	00 00		 mov	 DWORD PTR fs:__except_list, esp
  00018	51		 push	 ecx
  00019	89 4d f0	 mov	 DWORD PTR _this$[ebp], ecx
  0001c	c7 45 fc 00 00
	00 00		 mov	 DWORD PTR __$EHRec$[ebp+8], 0

; 96   : 
; 97   :  #if _HAS_EXCEPTIONS
; 98   : 			if (!uncaught_exception())

  00023	ff 15 00 00 00
	00		 call	 DWORD PTR __imp_?uncaught_exception@std@@YA_NXZ
  00029	0f b6 c0	 movzx	 eax, al
  0002c	85 c0		 test	 eax, eax
  0002e	75 0b		 jne	 SHORT $L87097

; 99   : 				this->_Myostr._Osfx();

  00030	8b 4d f0	 mov	 ecx, DWORD PTR _this$[ebp]
  00033	8b 09		 mov	 ecx, DWORD PTR [ecx]
  00035	ff 15 00 00 00
	00		 call	 DWORD PTR __imp_?_Osfx@?$basic_ostream@_WU?$char_traits@_W@std@@@std@@QAEXXZ
$L87097:

; 100  : 			}

  0003b	c7 45 fc ff ff
	ff ff		 mov	 DWORD PTR __$EHRec$[ebp+8], -1
  00042	8b 4d f0	 mov	 ecx, DWORD PTR _this$[ebp]
  00045	e8 00 00 00 00	 call	 ??1_Sentry_base@?$basic_ostream@_WU?$char_traits@_W@std@@@std@@QAE@XZ ; std::basic_ostream<wchar_t,std::char_traits<wchar_t> >::_Sentry_base::~_Sentry_base
  0004a	8b 4d f4	 mov	 ecx, DWORD PTR __$EHRec$[ebp]
  0004d	64 89 0d 00 00
	00 00		 mov	 DWORD PTR fs:__except_list, ecx
  00054	8b e5		 mov	 esp, ebp
  00056	5d		 pop	 ebp
  00057	c3		 ret	 0
_TEXT	ENDS
;	COMDAT text$x
text$x	SEGMENT
$L90591:
  00000	8b 4d f0	 mov	 ecx, DWORD PTR _this$[ebp]
  00003	e9 00 00 00 00	 jmp	 ??1_Sentry_base@?$basic_ostream@_WU?$char_traits@_W@std@@@std@@QAE@XZ ; std::basic_ostream<wchar_t,std::char_traits<wchar_t> >::_Sentry_base::~_Sentry_base
__ehhandler$??1sentry@?$basic_ostream@_WU?$char_traits@_W@std@@@std@@QAE@XZ:
  00008	b8 00 00 00 00	 mov	 eax, OFFSET FLAT:$T90593
  0000d	e9 00 00 00 00	 jmp	 ___CxxFrameHandler
text$x	ENDS
??1sentry@?$basic_ostream@_WU?$char_traits@_W@std@@@std@@QAE@XZ ENDP ; std::basic_ostream<wchar_t,std::char_traits<wchar_t> >::sentry::~sentry
; Function compile flags: /Odt
;	COMDAT ??Bsentry@?$basic_ostream@_WU?$char_traits@_W@std@@@std@@QBE_NXZ
_TEXT	SEGMENT
_this$ = -4						; size = 4
??Bsentry@?$basic_ostream@_WU?$char_traits@_W@std@@@std@@QBE_NXZ PROC NEAR ; std::basic_ostream<wchar_t,std::char_traits<wchar_t> >::sentry::operator bool, COMDAT
; _this$ = ecx

; 108  : 			{	// test if stream state okay

  00000	55		 push	 ebp
  00001	8b ec		 mov	 ebp, esp
  00003	51		 push	 ecx
  00004	89 4d fc	 mov	 DWORD PTR _this$[ebp], ecx

; 109  : 			return (_Ok);

  00007	8b 45 fc	 mov	 eax, DWORD PTR _this$[ebp]
  0000a	8a 40 04	 mov	 al, BYTE PTR [eax+4]

; 110  : 			}

  0000d	8b e5		 mov	 esp, ebp
  0000f	5d		 pop	 ebp
  00010	c3		 ret	 0
??Bsentry@?$basic_ostream@_WU?$char_traits@_W@std@@@std@@QBE_NXZ ENDP ; std::basic_ostream<wchar_t,std::char_traits<wchar_t> >::sentry::operator bool
; Function compile flags: /Odt
_TEXT	ENDS
;	COMDAT ??0_Sentry_base@?$basic_ostream@_WU?$char_traits@_W@std@@@std@@QAE@AAV12@@Z
_TEXT	SEGMENT
_this$ = -4						; size = 4
__Ostr$ = 8						; size = 4
??0_Sentry_base@?$basic_ostream@_WU?$char_traits@_W@std@@@std@@QAE@AAV12@@Z PROC NEAR ; std::basic_ostream<wchar_t,std::char_traits<wchar_t> >::_Sentry_base::_Sentry_base, COMDAT
; _this$ = ecx

; 68   : 			{	// lock the stream buffer, if there

  00000	55		 push	 ebp
  00001	8b ec		 mov	 ebp, esp
  00003	51		 push	 ecx
  00004	89 4d fc	 mov	 DWORD PTR _this$[ebp], ecx
  00007	8b 45 fc	 mov	 eax, DWORD PTR _this$[ebp]
  0000a	8b 4d 08	 mov	 ecx, DWORD PTR __Ostr$[ebp]
  0000d	89 08		 mov	 DWORD PTR [eax], ecx

; 69   : 			if (_Myostr.rdbuf() != 0)

  0000f	8b 55 fc	 mov	 edx, DWORD PTR _this$[ebp]
  00012	8b 02		 mov	 eax, DWORD PTR [edx]
  00014	8b 08		 mov	 ecx, DWORD PTR [eax]
  00016	8b 55 fc	 mov	 edx, DWORD PTR _this$[ebp]
  00019	8b 02		 mov	 eax, DWORD PTR [edx]
  0001b	03 41 04	 add	 eax, DWORD PTR [ecx+4]
  0001e	8b c8		 mov	 ecx, eax
  00020	ff 15 00 00 00
	00		 call	 DWORD PTR __imp_?rdbuf@?$basic_ios@_WU?$char_traits@_W@std@@@std@@QBEPAV?$basic_streambuf@_WU?$char_traits@_W@std@@@2@XZ
  00026	85 c0		 test	 eax, eax
  00028	74 1d		 je	 SHORT $L87370

; 70   : 				_Myostr.rdbuf()->_Lock();

  0002a	8b 4d fc	 mov	 ecx, DWORD PTR _this$[ebp]
  0002d	8b 11		 mov	 edx, DWORD PTR [ecx]
  0002f	8b 02		 mov	 eax, DWORD PTR [edx]
  00031	8b 4d fc	 mov	 ecx, DWORD PTR _this$[ebp]
  00034	8b 09		 mov	 ecx, DWORD PTR [ecx]
  00036	03 48 04	 add	 ecx, DWORD PTR [eax+4]
  00039	ff 15 00 00 00
	00		 call	 DWORD PTR __imp_?rdbuf@?$basic_ios@_WU?$char_traits@_W@std@@@std@@QBEPAV?$basic_streambuf@_WU?$char_traits@_W@std@@@2@XZ
  0003f	8b c8		 mov	 ecx, eax
  00041	ff 15 00 00 00
	00		 call	 DWORD PTR __imp_?_Lock@?$basic_streambuf@_WU?$char_traits@_W@std@@@std@@QAEXXZ
$L87370:

; 71   : 			}

  00047	8b 45 fc	 mov	 eax, DWORD PTR _this$[ebp]
  0004a	8b e5		 mov	 esp, ebp
  0004c	5d		 pop	 ebp
  0004d	c2 04 00	 ret	 4
??0_Sentry_base@?$basic_ostream@_WU?$char_traits@_W@std@@@std@@QAE@AAV12@@Z ENDP ; std::basic_ostream<wchar_t,std::char_traits<wchar_t> >::_Sentry_base::_Sentry_base
; Function compile flags: /Odt
_TEXT	ENDS
;	COMDAT ??1_Sentry_base@?$basic_ostream@_WU?$char_traits@_W@std@@@std@@QAE@XZ
_TEXT	SEGMENT
_this$ = -4						; size = 4
??1_Sentry_base@?$basic_ostream@_WU?$char_traits@_W@std@@@std@@QAE@XZ PROC NEAR ; std::basic_ostream<wchar_t,std::char_traits<wchar_t> >::_Sentry_base::~_Sentry_base, COMDAT
; _this$ = ecx

; 74   : 			{	// destroy after unlocking

  00000	55		 push	 ebp
  00001	8b ec		 mov	 ebp, esp
  00003	51		 push	 ecx
  00004	89 4d fc	 mov	 DWORD PTR _this$[ebp], ecx

; 75   : 			if (_Myostr.rdbuf() != 0)

  00007	8b 45 fc	 mov	 eax, DWORD PTR _this$[ebp]
  0000a	8b 08		 mov	 ecx, DWORD PTR [eax]
  0000c	8b 11		 mov	 edx, DWORD PTR [ecx]
  0000e	8b 45 fc	 mov	 eax, DWORD PTR _this$[ebp]
  00011	8b 08		 mov	 ecx, DWORD PTR [eax]
  00013	03 4a 04	 add	 ecx, DWORD PTR [edx+4]
  00016	ff 15 00 00 00
	00		 call	 DWORD PTR __imp_?rdbuf@?$basic_ios@_WU?$char_traits@_W@std@@@std@@QBEPAV?$basic_streambuf@_WU?$char_traits@_W@std@@@2@XZ
  0001c	85 c0		 test	 eax, eax
  0001e	74 1d		 je	 SHORT $L87373

; 76   : 				_Myostr.rdbuf()->_Unlock();

  00020	8b 4d fc	 mov	 ecx, DWORD PTR _this$[ebp]
  00023	8b 11		 mov	 edx, DWORD PTR [ecx]
  00025	8b 02		 mov	 eax, DWORD PTR [edx]
  00027	8b 4d fc	 mov	 ecx, DWORD PTR _this$[ebp]
  0002a	8b 09		 mov	 ecx, DWORD PTR [ecx]
  0002c	03 48 04	 add	 ecx, DWORD PTR [eax+4]
  0002f	ff 15 00 00 00
	00		 call	 DWORD PTR __imp_?rdbuf@?$basic_ios@_WU?$char_traits@_W@std@@@std@@QBEPAV?$basic_streambuf@_WU?$char_traits@_W@std@@@2@XZ
  00035	8b c8		 mov	 ecx, eax
  00037	ff 15 00 00 00
	00		 call	 DWORD PTR __imp_?_Unlock@?$basic_streambuf@_WU?$char_traits@_W@std@@@std@@QAEXXZ
$L87373:

; 77   : 			}

  0003d	8b e5		 mov	 esp, ebp
  0003f	5d		 pop	 ebp
  00040	c3		 ret	 0
??1_Sentry_base@?$basic_ostream@_WU?$char_traits@_W@std@@@std@@QAE@XZ ENDP ; std::basic_ostream<wchar_t,std::char_traits<wchar_t> >::_Sentry_base::~_Sentry_base
_TEXT	ENDS
PUBLIC	??0CAtlWinModule@ATL@@QAE@XZ			; ATL::CAtlWinModule::CAtlWinModule
EXTRN	_atexit:NEAR
;	COMDAT CRT$XCU
; File d:\program files (x86)\microsoft visual studio .net 2003\vc7\atlmfc\include\atlbase.h
CRT$XCU	SEGMENT
_$S3	DD	FLAT:_$E1
; Function compile flags: /Odt
CRT$XCU	ENDS
;	COMDAT _$E1
text$yc	SEGMENT
_$E1	PROC NEAR					; COMDAT

; 2602 : __declspec(selectany) CAtlWinModule _AtlWinModule;

  00000	55		 push	 ebp
  00001	8b ec		 mov	 ebp, esp
  00003	b9 00 00 00 00	 mov	 ecx, OFFSET FLAT:?_AtlWinModule@ATL@@3VCAtlWinModule@1@A
  00008	e8 00 00 00 00	 call	 ??0CAtlWinModule@ATL@@QAE@XZ ; ATL::CAtlWinModule::CAtlWinModule
  0000d	68 00 00 00 00	 push	 OFFSET FLAT:_$E2
  00012	e8 00 00 00 00	 call	 _atexit
  00017	83 c4 04	 add	 esp, 4
  0001a	5d		 pop	 ebp
  0001b	c3		 ret	 0
_$E1	ENDP
text$yc	ENDS
PUBLIC	??0_ATL_WIN_MODULE70@ATL@@QAE@XZ		; ATL::_ATL_WIN_MODULE70::_ATL_WIN_MODULE70
PUBLIC	?AtlWinModuleInit@ATL@@YGJPAU_ATL_WIN_MODULE70@1@@Z ; ATL::AtlWinModuleInit
; Function compile flags: /Odt
;	COMDAT ??0CAtlWinModule@ATL@@QAE@XZ
_TEXT	SEGMENT
_this$ = -8						; size = 4
_hr$ = -4						; size = 4
??0CAtlWinModule@ATL@@QAE@XZ PROC NEAR			; ATL::CAtlWinModule::CAtlWinModule, COMDAT
; _this$ = ecx

; 2573 : 	CAtlWinModule()

  00000	55		 push	 ebp
  00001	8b ec		 mov	 ebp, esp
  00003	83 ec 08	 sub	 esp, 8
  00006	89 4d f8	 mov	 DWORD PTR _this$[ebp], ecx
  00009	8b 4d f8	 mov	 ecx, DWORD PTR _this$[ebp]
  0000c	e8 00 00 00 00	 call	 ??0_ATL_WIN_MODULE70@ATL@@QAE@XZ

; 2574 : 	{
; 2575 : 		cbSize = sizeof(_ATL_WIN_MODULE);

  00011	8b 45 f8	 mov	 eax, DWORD PTR _this$[ebp]
  00014	c7 00 2c 00 00
	00		 mov	 DWORD PTR [eax], 44	; 0000002cH

; 2576 : 		HRESULT hr = AtlWinModuleInit(this);

  0001a	8b 4d f8	 mov	 ecx, DWORD PTR _this$[ebp]
  0001d	51		 push	 ecx
  0001e	e8 00 00 00 00	 call	 ?AtlWinModuleInit@ATL@@YGJPAU_ATL_WIN_MODULE70@1@@Z ; ATL::AtlWinModuleInit
  00023	89 45 fc	 mov	 DWORD PTR _hr$[ebp], eax

; 2577 : 		if (FAILED(hr))

  00026	83 7d fc 00	 cmp	 DWORD PTR _hr$[ebp], 0
  0002a	7d 07		 jge	 SHORT $L76829

; 2578 : 			CAtlBaseModule::m_bInitFailed = true;

  0002c	c6 05 00 00 00
	00 01		 mov	 BYTE PTR ?m_bInitFailed@CAtlBaseModule@ATL@@2_NA, 1 ; ATL::CAtlBaseModule::m_bInitFailed
$L76829:

; 2579 : 	}

  00033	8b 45 f8	 mov	 eax, DWORD PTR _this$[ebp]
  00036	8b e5		 mov	 esp, ebp
  00038	5d		 pop	 ebp
  00039	c3		 ret	 0
??0CAtlWinModule@ATL@@QAE@XZ ENDP			; ATL::CAtlWinModule::CAtlWinModule
_TEXT	ENDS
PUBLIC	??0CComCriticalSection@ATL@@QAE@XZ		; ATL::CComCriticalSection::CComCriticalSection
PUBLIC	??0?$CSimpleArray@GV?$CSimpleArrayEqualHelper@G@ATL@@@ATL@@QAE@XZ ; ATL::CSimpleArray<unsigned short,ATL::CSimpleArrayEqualHelper<unsigned short> >::CSimpleArray<unsigned short,ATL::CSimpleArrayEqualHelper<unsigned short> >
; Function compile flags: /Odt
;	COMDAT ??0_ATL_WIN_MODULE70@ATL@@QAE@XZ
_TEXT	SEGMENT
_this$ = -4						; size = 4
??0_ATL_WIN_MODULE70@ATL@@QAE@XZ PROC NEAR		; ATL::_ATL_WIN_MODULE70::_ATL_WIN_MODULE70, COMDAT
; _this$ = ecx
  00000	55		 push	 ebp
  00001	8b ec		 mov	 ebp, esp
  00003	51		 push	 ecx
  00004	89 4d fc	 mov	 DWORD PTR _this$[ebp], ecx
  00007	8b 4d fc	 mov	 ecx, DWORD PTR _this$[ebp]
  0000a	83 c1 04	 add	 ecx, 4
  0000d	e8 00 00 00 00	 call	 ??0CComCriticalSection@ATL@@QAE@XZ ; ATL::CComCriticalSection::CComCriticalSection
  00012	8b 4d fc	 mov	 ecx, DWORD PTR _this$[ebp]
  00015	83 c1 20	 add	 ecx, 32			; 00000020H
  00018	e8 00 00 00 00	 call	 ??0?$CSimpleArray@GV?$CSimpleArrayEqualHelper@G@ATL@@@ATL@@QAE@XZ ; ATL::CSimpleArray<unsigned short,ATL::CSimpleArrayEqualHelper<unsigned short> >::CSimpleArray<unsigned short,ATL::CSimpleArrayEqualHelper<unsigned short> >
  0001d	8b 45 fc	 mov	 eax, DWORD PTR _this$[ebp]
  00020	8b e5		 mov	 esp, ebp
  00022	5d		 pop	 ebp
  00023	c3		 ret	 0
??0_ATL_WIN_MODULE70@ATL@@QAE@XZ ENDP			; ATL::_ATL_WIN_MODULE70::_ATL_WIN_MODULE70
; Function compile flags: /Odt
; File d:\program files (x86)\microsoft visual studio .net 2003\vc7\atlmfc\include\atlcore.h
_TEXT	ENDS
;	COMDAT ??0CComCriticalSection@ATL@@QAE@XZ
_TEXT	SEGMENT
_this$ = -4						; size = 4
??0CComCriticalSection@ATL@@QAE@XZ PROC NEAR		; ATL::CComCriticalSection::CComCriticalSection, COMDAT
; _this$ = ecx

; 114  : 	CComCriticalSection() throw()

  00000	55		 push	 ebp
  00001	8b ec		 mov	 ebp, esp
  00003	51		 push	 ecx
  00004	89 4d fc	 mov	 DWORD PTR _this$[ebp], ecx

; 115  : 	{
; 116  : 		memset(&m_sec, 0, sizeof(CRITICAL_SECTION));

  00007	6a 18		 push	 24			; 00000018H
  00009	6a 00		 push	 0
  0000b	8b 45 fc	 mov	 eax, DWORD PTR _this$[ebp]
  0000e	50		 push	 eax
  0000f	e8 00 00 00 00	 call	 _memset
  00014	83 c4 0c	 add	 esp, 12			; 0000000cH

; 117  : 	}

  00017	8b 45 fc	 mov	 eax, DWORD PTR _this$[ebp]
  0001a	8b e5		 mov	 esp, ebp
  0001c	5d		 pop	 ebp
  0001d	c3		 ret	 0
??0CComCriticalSection@ATL@@QAE@XZ ENDP			; ATL::CComCriticalSection::CComCriticalSection
_TEXT	ENDS
PUBLIC	?Init@CComCriticalSection@ATL@@QAEJXZ		; ATL::CComCriticalSection::Init
; Function compile flags: /Odt
; File d:\program files (x86)\microsoft visual studio .net 2003\vc7\atlmfc\include\atlbase.inl
;	COMDAT ?AtlWinModuleInit@ATL@@YGJPAU_ATL_WIN_MODULE70@1@@Z
_TEXT	SEGMENT
_hr$ = -4						; size = 4
_pWinModule$ = 8					; size = 4
?AtlWinModuleInit@ATL@@YGJPAU_ATL_WIN_MODULE70@1@@Z PROC NEAR ; ATL::AtlWinModuleInit, COMDAT

; 352  : {

  00000	55		 push	 ebp
  00001	8b ec		 mov	 ebp, esp
  00003	51		 push	 ecx

; 353  : 	if (pWinModule == NULL)

  00004	83 7d 08 00	 cmp	 DWORD PTR _pWinModule$[ebp], 0
  00008	75 07		 jne	 SHORT $L80781

; 354  : 		return E_INVALIDARG;

  0000a	b8 57 00 07 80	 mov	 eax, -2147024809	; 80070057H
  0000f	eb 2a		 jmp	 SHORT $L80780
$L80781:

; 355  : 		
; 356  : 	// check only in the DLL
; 357  : 	if (pWinModule->cbSize != sizeof(_ATL_WIN_MODULE))

  00011	8b 45 08	 mov	 eax, DWORD PTR _pWinModule$[ebp]
  00014	83 38 2c	 cmp	 DWORD PTR [eax], 44	; 0000002cH
  00017	74 07		 je	 SHORT $L80784

; 358  : 		return E_INVALIDARG;

  00019	b8 57 00 07 80	 mov	 eax, -2147024809	; 80070057H
  0001e	eb 1b		 jmp	 SHORT $L80780
$L80784:

; 359  : 
; 360  : 	pWinModule->m_pCreateWndList = NULL;

  00020	8b 4d 08	 mov	 ecx, DWORD PTR _pWinModule$[ebp]
  00023	c7 41 1c 00 00
	00 00		 mov	 DWORD PTR [ecx+28], 0

; 361  : 
; 362  : 	HRESULT hr = pWinModule->m_csWindowCreate.Init();

  0002a	8b 4d 08	 mov	 ecx, DWORD PTR _pWinModule$[ebp]
  0002d	83 c1 04	 add	 ecx, 4
  00030	e8 00 00 00 00	 call	 ?Init@CComCriticalSection@ATL@@QAEJXZ ; ATL::CComCriticalSection::Init
  00035	89 45 fc	 mov	 DWORD PTR _hr$[ebp], eax

; 363  : 	if (FAILED(hr))
; 364  : 	{
; 365  : 		ATLTRACE(atlTraceWindowing, 0, _T("ERROR : Unable to initialize critical section in AtlWinModuleInit\n"));
; 366  : 		ATLASSERT(0);
; 367  : 	}
; 368  : 	return hr;

  00038	8b 45 fc	 mov	 eax, DWORD PTR _hr$[ebp]
$L80780:

; 369  : }

  0003b	8b e5		 mov	 esp, ebp
  0003d	5d		 pop	 ebp
  0003e	c2 04 00	 ret	 4
?AtlWinModuleInit@ATL@@YGJPAU_ATL_WIN_MODULE70@1@@Z ENDP ; ATL::AtlWinModuleInit
_TEXT	ENDS
EXTRN	__imp__InitializeCriticalSection@4:NEAR
;	COMDAT CONST
; File d:\program files (x86)\microsoft visual studio .net 2003\vc7\atlmfc\include\atlcore.h
CONST	SEGMENT
$T90624	DD	0ffffffffH
	DD	FLAT:$L90619
	DD	FLAT:$L90620
; Function compile flags: /Odt
CONST	ENDS
;	COMDAT ?Init@CComCriticalSection@ATL@@QAEJXZ
_TEXT	SEGMENT
_this$ = -36						; size = 4
$T90623 = -32						; size = 4
_hRes$ = -28						; size = 4
__$SEHRec$ = -24					; size = 24
?Init@CComCriticalSection@ATL@@QAEJXZ PROC NEAR		; ATL::CComCriticalSection::Init, COMDAT
; _this$ = ecx

; 129  : 	{

  00000	55		 push	 ebp
  00001	8b ec		 mov	 ebp, esp
  00003	6a ff		 push	 -1
  00005	68 00 00 00 00	 push	 OFFSET FLAT:$T90624
  0000a	68 00 00 00 00	 push	 OFFSET FLAT:__except_handler3
  0000f	64 a1 00 00 00
	00		 mov	 eax, DWORD PTR fs:__except_list
  00015	50		 push	 eax
  00016	64 89 25 00 00
	00 00		 mov	 DWORD PTR fs:__except_list, esp
  0001d	83 c4 ec	 add	 esp, -20		; ffffffecH
  00020	53		 push	 ebx
  00021	56		 push	 esi
  00022	57		 push	 edi
  00023	89 65 e8	 mov	 DWORD PTR __$SEHRec$[ebp], esp
  00026	89 4d dc	 mov	 DWORD PTR _this$[ebp], ecx

; 130  : 		HRESULT hRes = S_OK;

  00029	c7 45 e4 00 00
	00 00		 mov	 DWORD PTR _hRes$[ebp], 0

; 131  : 		__try

  00030	c7 45 fc 00 00
	00 00		 mov	 DWORD PTR __$SEHRec$[ebp+20], 0

; 132  : 		{
; 133  : 			InitializeCriticalSection(&m_sec);

  00037	8b 45 dc	 mov	 eax, DWORD PTR _this$[ebp]
  0003a	50		 push	 eax
  0003b	ff 15 00 00 00
	00		 call	 DWORD PTR __imp__InitializeCriticalSection@4
  00041	c7 45 fc ff ff
	ff ff		 mov	 DWORD PTR __$SEHRec$[ebp+20], -1
  00048	eb 33		 jmp	 SHORT $L90622
$L90619:
$L90627:

; 134  : 		}
; 135  : 		// structured exception may be raised in low memory situations
; 136  : 		__except(EXCEPTION_EXECUTE_HANDLER)

  0004a	8b 4d ec	 mov	 ecx, DWORD PTR __$SEHRec$[ebp+4]
  0004d	8b 11		 mov	 edx, DWORD PTR [ecx]
  0004f	8b 02		 mov	 eax, DWORD PTR [edx]
  00051	89 45 e0	 mov	 DWORD PTR $T90623[ebp], eax
  00054	b8 01 00 00 00	 mov	 eax, 1
$L90621:
$L90626:
  00059	c3		 ret	 0
$L90620:
  0005a	8b 65 e8	 mov	 esp, DWORD PTR __$SEHRec$[ebp]

; 137  : 		{
; 138  : 			if (STATUS_NO_MEMORY == GetExceptionCode())

  0005d	81 7d e0 17 00
	00 c0		 cmp	 DWORD PTR $T90623[ebp], -1073741801 ; c0000017H
  00064	75 09		 jne	 SHORT $L66966

; 139  : 				hRes = E_OUTOFMEMORY;

  00066	c7 45 e4 0e 00
	07 80		 mov	 DWORD PTR _hRes$[ebp], -2147024882 ; 8007000eH

; 140  : 			else

  0006d	eb 07		 jmp	 SHORT $L66968
$L66966:

; 141  : 				hRes = E_FAIL;

  0006f	c7 45 e4 05 40
	00 80		 mov	 DWORD PTR _hRes$[ebp], -2147467259 ; 80004005H
$L66968:
  00076	c7 45 fc ff ff
	ff ff		 mov	 DWORD PTR __$SEHRec$[ebp+20], -1
$L90622:

; 142  : 		}
; 143  : 		return hRes;

  0007d	8b 45 e4	 mov	 eax, DWORD PTR _hRes$[ebp]
$L90618:

; 144  : 	}

  00080	8b 4d f0	 mov	 ecx, DWORD PTR __$SEHRec$[ebp+8]
  00083	64 89 0d 00 00
	00 00		 mov	 DWORD PTR fs:__except_list, ecx
  0008a	5f		 pop	 edi
  0008b	5e		 pop	 esi
  0008c	5b		 pop	 ebx
  0008d	8b e5		 mov	 esp, ebp
  0008f	5d		 pop	 ebp
  00090	c3		 ret	 0
?Init@CComCriticalSection@ATL@@QAEJXZ ENDP		; ATL::CComCriticalSection::Init
; Function compile flags: /Odt
; File d:\program files (x86)\microsoft visual studio .net 2003\vc7\atlmfc\include\atlsimpcoll.h
_TEXT	ENDS
;	COMDAT ??0?$CSimpleArray@GV?$CSimpleArrayEqualHelper@G@ATL@@@ATL@@QAE@XZ
_TEXT	SEGMENT
_this$ = -4						; size = 4
??0?$CSimpleArray@GV?$CSimpleArrayEqualHelper@G@ATL@@@ATL@@QAE@XZ PROC NEAR ; ATL::CSimpleArray<unsigned short,ATL::CSimpleArrayEqualHelper<unsigned short> >::CSimpleArray<unsigned short,ATL::CSimpleArrayEqualHelper<unsigned short> >, COMDAT
; _this$ = ecx

; 97   : 	{ }

  00000	55		 push	 ebp
  00001	8b ec		 mov	 ebp, esp
  00003	51		 push	 ecx
  00004	89 4d fc	 mov	 DWORD PTR _this$[ebp], ecx
  00007	8b 45 fc	 mov	 eax, DWORD PTR _this$[ebp]
  0000a	c7 00 00 00 00
	00		 mov	 DWORD PTR [eax], 0
  00010	8b 4d fc	 mov	 ecx, DWORD PTR _this$[ebp]
  00013	c7 41 04 00 00
	00 00		 mov	 DWORD PTR [ecx+4], 0
  0001a	8b 55 fc	 mov	 edx, DWORD PTR _this$[ebp]
  0001d	c7 42 08 00 00
	00 00		 mov	 DWORD PTR [edx+8], 0
  00024	8b 45 fc	 mov	 eax, DWORD PTR _this$[ebp]
  00027	8b e5		 mov	 esp, ebp
  00029	5d		 pop	 ebp
  0002a	c3		 ret	 0
??0?$CSimpleArray@GV?$CSimpleArrayEqualHelper@G@ATL@@@ATL@@QAE@XZ ENDP ; ATL::CSimpleArray<unsigned short,ATL::CSimpleArrayEqualHelper<unsigned short> >::CSimpleArray<unsigned short,ATL::CSimpleArrayEqualHelper<unsigned short> >
_TEXT	ENDS
PUBLIC	??1CAtlWinModule@ATL@@QAE@XZ			; ATL::CAtlWinModule::~CAtlWinModule
; Function compile flags: /Odt
;	COMDAT _$E2
text$yd	SEGMENT
_$E2	PROC NEAR					; COMDAT
  00000	55		 push	 ebp
  00001	8b ec		 mov	 ebp, esp
  00003	b9 00 00 00 00	 mov	 ecx, OFFSET FLAT:?_AtlWinModule@ATL@@3VCAtlWinModule@1@A
  00008	e8 00 00 00 00	 call	 ??1CAtlWinModule@ATL@@QAE@XZ ; ATL::CAtlWinModule::~CAtlWinModule
  0000d	5d		 pop	 ebp
  0000e	c3		 ret	 0
_$E2	ENDP
text$yd	ENDS
PUBLIC	?Term@CAtlWinModule@ATL@@QAEXXZ			; ATL::CAtlWinModule::Term
PUBLIC	??1_ATL_WIN_MODULE70@ATL@@QAE@XZ		; ATL::_ATL_WIN_MODULE70::~_ATL_WIN_MODULE70
;	COMDAT xdata$x
; File d:\program files (x86)\microsoft visual studio .net 2003\vc7\atlmfc\include\atlbase.h
xdata$x	SEGMENT
$T90640	DD	0ffffffffH
	DD	FLAT:$L90636
$T90638	DD	019930520H
	DD	01H
	DD	FLAT:$T90640
	DD	2 DUP(00H)
	DD	2 DUP(00H)
; Function compile flags: /Odt
xdata$x	ENDS
;	COMDAT ??1CAtlWinModule@ATL@@QAE@XZ
_TEXT	SEGMENT
_this$ = -16						; size = 4
__$EHRec$ = -12						; size = 12
??1CAtlWinModule@ATL@@QAE@XZ PROC NEAR			; ATL::CAtlWinModule::~CAtlWinModule, COMDAT
; _this$ = ecx

; 2582 : 	{

  00000	55		 push	 ebp
  00001	8b ec		 mov	 ebp, esp
  00003	6a ff		 push	 -1
  00005	68 00 00 00 00	 push	 __ehhandler$??1CAtlWinModule@ATL@@QAE@XZ
  0000a	64 a1 00 00 00
	00		 mov	 eax, DWORD PTR fs:__except_list
  00010	50		 push	 eax
  00011	64 89 25 00 00
	00 00		 mov	 DWORD PTR fs:__except_list, esp
  00018	51		 push	 ecx
  00019	89 4d f0	 mov	 DWORD PTR _this$[ebp], ecx
  0001c	c7 45 fc 00 00
	00 00		 mov	 DWORD PTR __$EHRec$[ebp+8], 0

; 2583 : 		Term();

  00023	8b 4d f0	 mov	 ecx, DWORD PTR _this$[ebp]
  00026	e8 00 00 00 00	 call	 ?Term@CAtlWinModule@ATL@@QAEXXZ ; ATL::CAtlWinModule::Term

; 2584 : 	}

  0002b	c7 45 fc ff ff
	ff ff		 mov	 DWORD PTR __$EHRec$[ebp+8], -1
  00032	8b 4d f0	 mov	 ecx, DWORD PTR _this$[ebp]
  00035	e8 00 00 00 00	 call	 ??1_ATL_WIN_MODULE70@ATL@@QAE@XZ
  0003a	8b 4d f4	 mov	 ecx, DWORD PTR __$EHRec$[ebp]
  0003d	64 89 0d 00 00
	00 00		 mov	 DWORD PTR fs:__except_list, ecx
  00044	8b e5		 mov	 esp, ebp
  00046	5d		 pop	 ebp
  00047	c3		 ret	 0
_TEXT	ENDS
;	COMDAT text$x
text$x	SEGMENT
$L90636:
  00000	8b 4d f0	 mov	 ecx, DWORD PTR _this$[ebp]
  00003	e9 00 00 00 00	 jmp	 ??1_ATL_WIN_MODULE70@ATL@@QAE@XZ
__ehhandler$??1CAtlWinModule@ATL@@QAE@XZ:
  00008	b8 00 00 00 00	 mov	 eax, OFFSET FLAT:$T90638
  0000d	e9 00 00 00 00	 jmp	 ___CxxFrameHandler
text$x	ENDS
??1CAtlWinModule@ATL@@QAE@XZ ENDP			; ATL::CAtlWinModule::~CAtlWinModule
PUBLIC	?GetModuleInstance@CAtlBaseModule@ATL@@QAEPAUHINSTANCE__@@XZ ; ATL::CAtlBaseModule::GetModuleInstance
PUBLIC	?AtlWinModuleTerm@ATL@@YGJPAU_ATL_WIN_MODULE70@1@PAUHINSTANCE__@@@Z ; ATL::AtlWinModuleTerm
EXTRN	?_AtlBaseModule@ATL@@3VCAtlBaseModule@1@A:BYTE	; ATL::_AtlBaseModule
; Function compile flags: /Odt
;	COMDAT ?Term@CAtlWinModule@ATL@@QAEXXZ
_TEXT	SEGMENT
_this$ = -4						; size = 4
?Term@CAtlWinModule@ATL@@QAEXXZ PROC NEAR		; ATL::CAtlWinModule::Term, COMDAT
; _this$ = ecx

; 2587 : 	{

  00000	55		 push	 ebp
  00001	8b ec		 mov	 ebp, esp
  00003	51		 push	 ecx
  00004	89 4d fc	 mov	 DWORD PTR _this$[ebp], ecx

; 2588 : 		AtlWinModuleTerm(this, _AtlBaseModule.GetModuleInstance());

  00007	b9 00 00 00 00	 mov	 ecx, OFFSET FLAT:?_AtlBaseModule@ATL@@3VCAtlBaseModule@1@A
  0000c	e8 00 00 00 00	 call	 ?GetModuleInstance@CAtlBaseModule@ATL@@QAEPAUHINSTANCE__@@XZ ; ATL::CAtlBaseModule::GetModuleInstance
  00011	50		 push	 eax
  00012	8b 45 fc	 mov	 eax, DWORD PTR _this$[ebp]
  00015	50		 push	 eax
  00016	e8 00 00 00 00	 call	 ?AtlWinModuleTerm@ATL@@YGJPAU_ATL_WIN_MODULE70@1@PAUHINSTANCE__@@@Z ; ATL::AtlWinModuleTerm

; 2589 : 	}

  0001b	8b e5		 mov	 esp, ebp
  0001d	5d		 pop	 ebp
  0001e	c3		 ret	 0
?Term@CAtlWinModule@ATL@@QAEXXZ ENDP			; ATL::CAtlWinModule::Term
; Function compile flags: /Odt
; File d:\program files (x86)\microsoft visual studio .net 2003\vc7\atlmfc\include\atlcore.h
_TEXT	ENDS
;	COMDAT ?GetModuleInstance@CAtlBaseModule@ATL@@QAEPAUHINSTANCE__@@XZ
_TEXT	SEGMENT
_this$ = -4						; size = 4
?GetModuleInstance@CAtlBaseModule@ATL@@QAEPAUHINSTANCE__@@XZ PROC NEAR ; ATL::CAtlBaseModule::GetModuleInstance, COMDAT
; _this$ = ecx

; 206  : 	{

  00000	55		 push	 ebp
  00001	8b ec		 mov	 ebp, esp
  00003	51		 push	 ecx
  00004	89 4d fc	 mov	 DWORD PTR _this$[ebp], ecx

; 207  : 		return m_hInst;

  00007	8b 45 fc	 mov	 eax, DWORD PTR _this$[ebp]
  0000a	8b 40 04	 mov	 eax, DWORD PTR [eax+4]

; 208  : 	}

  0000d	8b e5		 mov	 esp, ebp
  0000f	5d		 pop	 ebp
  00010	c3		 ret	 0
?GetModuleInstance@CAtlBaseModule@ATL@@QAEPAUHINSTANCE__@@XZ ENDP ; ATL::CAtlBaseModule::GetModuleInstance
_TEXT	ENDS
PUBLIC	??1?$CSimpleArray@GV?$CSimpleArrayEqualHelper@G@ATL@@@ATL@@QAE@XZ ; ATL::CSimpleArray<unsigned short,ATL::CSimpleArrayEqualHelper<unsigned short> >::~CSimpleArray<unsigned short,ATL::CSimpleArrayEqualHelper<unsigned short> >
; Function compile flags: /Odt
;	COMDAT ??1_ATL_WIN_MODULE70@ATL@@QAE@XZ
_TEXT	SEGMENT
_this$ = -4						; size = 4
??1_ATL_WIN_MODULE70@ATL@@QAE@XZ PROC NEAR		; ATL::_ATL_WIN_MODULE70::~_ATL_WIN_MODULE70, COMDAT
; _this$ = ecx
  00000	55		 push	 ebp
  00001	8b ec		 mov	 ebp, esp
  00003	51		 push	 ecx
  00004	89 4d fc	 mov	 DWORD PTR _this$[ebp], ecx
  00007	8b 4d fc	 mov	 ecx, DWORD PTR _this$[ebp]
  0000a	83 c1 20	 add	 ecx, 32			; 00000020H
  0000d	e8 00 00 00 00	 call	 ??1?$CSimpleArray@GV?$CSimpleArrayEqualHelper@G@ATL@@@ATL@@QAE@XZ ; ATL::CSimpleArray<unsigned short,ATL::CSimpleArrayEqualHelper<unsigned short> >::~CSimpleArray<unsigned short,ATL::CSimpleArrayEqualHelper<unsigned short> >
  00012	8b e5		 mov	 esp, ebp
  00014	5d		 pop	 ebp
  00015	c3		 ret	 0
??1_ATL_WIN_MODULE70@ATL@@QAE@XZ ENDP			; ATL::_ATL_WIN_MODULE70::~_ATL_WIN_MODULE70
_TEXT	ENDS
PUBLIC	?Term@CComCriticalSection@ATL@@QAEJXZ		; ATL::CComCriticalSection::Term
PUBLIC	?GetSize@?$CSimpleArray@GV?$CSimpleArrayEqualHelper@G@ATL@@@ATL@@QBEHXZ ; ATL::CSimpleArray<unsigned short,ATL::CSimpleArrayEqualHelper<unsigned short> >::GetSize
PUBLIC	?RemoveAll@?$CSimpleArray@GV?$CSimpleArrayEqualHelper@G@ATL@@@ATL@@QAEXXZ ; ATL::CSimpleArray<unsigned short,ATL::CSimpleArrayEqualHelper<unsigned short> >::RemoveAll
PUBLIC	??A?$CSimpleArray@GV?$CSimpleArrayEqualHelper@G@ATL@@@ATL@@QAEAAGH@Z ; ATL::CSimpleArray<unsigned short,ATL::CSimpleArrayEqualHelper<unsigned short> >::operator[]
EXTRN	__imp__UnregisterClassA@8:NEAR
; Function compile flags: /Odt
; File d:\program files (x86)\microsoft visual studio .net 2003\vc7\atlmfc\include\atlbase.h
;	COMDAT ?AtlWinModuleTerm@ATL@@YGJPAU_ATL_WIN_MODULE70@1@PAUHINSTANCE__@@@Z
_TEXT	SEGMENT
_i$80076 = -4						; size = 4
_pWinModule$ = 8					; size = 4
_hInst$ = 12						; size = 4
?AtlWinModuleTerm@ATL@@YGJPAU_ATL_WIN_MODULE70@1@PAUHINSTANCE__@@@Z PROC NEAR ; ATL::AtlWinModuleTerm, COMDAT

; 6215 : {

  00000	55		 push	 ebp
  00001	8b ec		 mov	 ebp, esp
  00003	51		 push	 ecx

; 6216 : 	if (pWinModule == NULL)

  00004	83 7d 08 00	 cmp	 DWORD PTR _pWinModule$[ebp], 0
  00008	75 07		 jne	 SHORT $L80069

; 6217 : 		return E_INVALIDARG;

  0000a	b8 57 00 07 80	 mov	 eax, -2147024809	; 80070057H
  0000f	eb 7d		 jmp	 SHORT $L80068
$L80069:

; 6218 : 	if (pWinModule->cbSize == 0)

  00011	8b 45 08	 mov	 eax, DWORD PTR _pWinModule$[ebp]
  00014	83 38 00	 cmp	 DWORD PTR [eax], 0
  00017	75 04		 jne	 SHORT $L80071

; 6219 : 		return S_OK;

  00019	33 c0		 xor	 eax, eax
  0001b	eb 71		 jmp	 SHORT $L80068
$L80071:

; 6220 : 	if (pWinModule->cbSize != sizeof(_ATL_WIN_MODULE))

  0001d	8b 4d 08	 mov	 ecx, DWORD PTR _pWinModule$[ebp]
  00020	83 39 2c	 cmp	 DWORD PTR [ecx], 44	; 0000002cH
  00023	74 07		 je	 SHORT $L80074

; 6221 : 		return E_INVALIDARG;

  00025	b8 57 00 07 80	 mov	 eax, -2147024809	; 80070057H
  0002a	eb 62		 jmp	 SHORT $L80068
$L80074:

; 6222 : 
; 6223 : 	for (int i = 0; i < pWinModule->m_rgWindowClassAtoms.GetSize(); i++)

  0002c	c7 45 fc 00 00
	00 00		 mov	 DWORD PTR _i$80076[ebp], 0
  00033	eb 09		 jmp	 SHORT $L80077
$L80078:
  00035	8b 55 fc	 mov	 edx, DWORD PTR _i$80076[ebp]
  00038	83 c2 01	 add	 edx, 1
  0003b	89 55 fc	 mov	 DWORD PTR _i$80076[ebp], edx
$L80077:
  0003e	8b 4d 08	 mov	 ecx, DWORD PTR _pWinModule$[ebp]
  00041	83 c1 20	 add	 ecx, 32			; 00000020H
  00044	e8 00 00 00 00	 call	 ?GetSize@?$CSimpleArray@GV?$CSimpleArrayEqualHelper@G@ATL@@@ATL@@QBEHXZ ; ATL::CSimpleArray<unsigned short,ATL::CSimpleArrayEqualHelper<unsigned short> >::GetSize
  00049	39 45 fc	 cmp	 DWORD PTR _i$80076[ebp], eax
  0004c	7d 1f		 jge	 SHORT $L80079

; 6224 : 		UnregisterClass((LPCTSTR)pWinModule->m_rgWindowClassAtoms[i], hInst);

  0004e	8b 45 0c	 mov	 eax, DWORD PTR _hInst$[ebp]
  00051	50		 push	 eax
  00052	8b 4d fc	 mov	 ecx, DWORD PTR _i$80076[ebp]
  00055	51		 push	 ecx
  00056	8b 4d 08	 mov	 ecx, DWORD PTR _pWinModule$[ebp]
  00059	83 c1 20	 add	 ecx, 32			; 00000020H
  0005c	e8 00 00 00 00	 call	 ??A?$CSimpleArray@GV?$CSimpleArrayEqualHelper@G@ATL@@@ATL@@QAEAAGH@Z ; ATL::CSimpleArray<unsigned short,ATL::CSimpleArrayEqualHelper<unsigned short> >::operator[]
  00061	0f b7 10	 movzx	 edx, WORD PTR [eax]
  00064	52		 push	 edx
  00065	ff 15 00 00 00
	00		 call	 DWORD PTR __imp__UnregisterClassA@8
  0006b	eb c8		 jmp	 SHORT $L80078
$L80079:

; 6225 : 	pWinModule->m_rgWindowClassAtoms.RemoveAll();

  0006d	8b 4d 08	 mov	 ecx, DWORD PTR _pWinModule$[ebp]
  00070	83 c1 20	 add	 ecx, 32			; 00000020H
  00073	e8 00 00 00 00	 call	 ?RemoveAll@?$CSimpleArray@GV?$CSimpleArrayEqualHelper@G@ATL@@@ATL@@QAEXXZ ; ATL::CSimpleArray<unsigned short,ATL::CSimpleArrayEqualHelper<unsigned short> >::RemoveAll

; 6226 : 	pWinModule->m_csWindowCreate.Term();

  00078	8b 4d 08	 mov	 ecx, DWORD PTR _pWinModule$[ebp]
  0007b	83 c1 04	 add	 ecx, 4
  0007e	e8 00 00 00 00	 call	 ?Term@CComCriticalSection@ATL@@QAEJXZ ; ATL::CComCriticalSection::Term

; 6227 : 	pWinModule->cbSize = 0;

  00083	8b 45 08	 mov	 eax, DWORD PTR _pWinModule$[ebp]
  00086	c7 00 00 00 00
	00		 mov	 DWORD PTR [eax], 0

; 6228 : 	return S_OK;

  0008c	33 c0		 xor	 eax, eax
$L80068:

; 6229 : }

  0008e	8b e5		 mov	 esp, ebp
  00090	5d		 pop	 ebp
  00091	c2 08 00	 ret	 8
?AtlWinModuleTerm@ATL@@YGJPAU_ATL_WIN_MODULE70@1@PAUHINSTANCE__@@@Z ENDP ; ATL::AtlWinModuleTerm
_TEXT	ENDS
EXTRN	__imp__DeleteCriticalSection@4:NEAR
; Function compile flags: /Odt
; File d:\program files (x86)\microsoft visual studio .net 2003\vc7\atlmfc\include\atlcore.h
;	COMDAT ?Term@CComCriticalSection@ATL@@QAEJXZ
_TEXT	SEGMENT
_this$ = -4						; size = 4
?Term@CComCriticalSection@ATL@@QAEJXZ PROC NEAR		; ATL::CComCriticalSection::Term, COMDAT
; _this$ = ecx

; 147  : 	{

  00000	55		 push	 ebp
  00001	8b ec		 mov	 ebp, esp
  00003	51		 push	 ecx
  00004	89 4d fc	 mov	 DWORD PTR _this$[ebp], ecx

; 148  : 		DeleteCriticalSection(&m_sec);

  00007	8b 45 fc	 mov	 eax, DWORD PTR _this$[ebp]
  0000a	50		 push	 eax
  0000b	ff 15 00 00 00
	00		 call	 DWORD PTR __imp__DeleteCriticalSection@4

; 149  : 		return S_OK;

  00011	33 c0		 xor	 eax, eax

; 150  : 	}	

  00013	8b e5		 mov	 esp, ebp
  00015	5d		 pop	 ebp
  00016	c3		 ret	 0
?Term@CComCriticalSection@ATL@@QAEJXZ ENDP		; ATL::CComCriticalSection::Term
; Function compile flags: /Odt
; File d:\program files (x86)\microsoft visual studio .net 2003\vc7\atlmfc\include\atlsimpcoll.h
_TEXT	ENDS
;	COMDAT ??1?$CSimpleArray@GV?$CSimpleArrayEqualHelper@G@ATL@@@ATL@@QAE@XZ
_TEXT	SEGMENT
_this$ = -4						; size = 4
??1?$CSimpleArray@GV?$CSimpleArrayEqualHelper@G@ATL@@@ATL@@QAE@XZ PROC NEAR ; ATL::CSimpleArray<unsigned short,ATL::CSimpleArrayEqualHelper<unsigned short> >::~CSimpleArray<unsigned short,ATL::CSimpleArrayEqualHelper<unsigned short> >, COMDAT
; _this$ = ecx

; 100  : 	{

  00000	55		 push	 ebp
  00001	8b ec		 mov	 ebp, esp
  00003	51		 push	 ecx
  00004	89 4d fc	 mov	 DWORD PTR _this$[ebp], ecx

; 101  : 		RemoveAll();

  00007	8b 4d fc	 mov	 ecx, DWORD PTR _this$[ebp]
  0000a	e8 00 00 00 00	 call	 ?RemoveAll@?$CSimpleArray@GV?$CSimpleArrayEqualHelper@G@ATL@@@ATL@@QAEXXZ ; ATL::CSimpleArray<unsigned short,ATL::CSimpleArrayEqualHelper<unsigned short> >::RemoveAll

; 102  : 	}

  0000f	8b e5		 mov	 esp, ebp
  00011	5d		 pop	 ebp
  00012	c3		 ret	 0
??1?$CSimpleArray@GV?$CSimpleArrayEqualHelper@G@ATL@@@ATL@@QAE@XZ ENDP ; ATL::CSimpleArray<unsigned short,ATL::CSimpleArrayEqualHelper<unsigned short> >::~CSimpleArray<unsigned short,ATL::CSimpleArrayEqualHelper<unsigned short> >
; Function compile flags: /Odt
_TEXT	ENDS
;	COMDAT ?GetSize@?$CSimpleArray@GV?$CSimpleArrayEqualHelper@G@ATL@@@ATL@@QBEHXZ
_TEXT	SEGMENT
_this$ = -4						; size = 4
?GetSize@?$CSimpleArray@GV?$CSimpleArrayEqualHelper@G@ATL@@@ATL@@QBEHXZ PROC NEAR ; ATL::CSimpleArray<unsigned short,ATL::CSimpleArrayEqualHelper<unsigned short> >::GetSize, COMDAT
; _this$ = ecx

; 135  : 	{

  00000	55		 push	 ebp
  00001	8b ec		 mov	 ebp, esp
  00003	51		 push	 ecx
  00004	89 4d fc	 mov	 DWORD PTR _this$[ebp], ecx

; 136  : 		return m_nSize;

  00007	8b 45 fc	 mov	 eax, DWORD PTR _this$[ebp]
  0000a	8b 40 04	 mov	 eax, DWORD PTR [eax+4]

; 137  : 	}

  0000d	8b e5		 mov	 esp, ebp
  0000f	5d		 pop	 ebp
  00010	c3		 ret	 0
?GetSize@?$CSimpleArray@GV?$CSimpleArrayEqualHelper@G@ATL@@@ATL@@QBEHXZ ENDP ; ATL::CSimpleArray<unsigned short,ATL::CSimpleArrayEqualHelper<unsigned short> >::GetSize
; Function compile flags: /Odt
_TEXT	ENDS
;	COMDAT ?RemoveAll@?$CSimpleArray@GV?$CSimpleArrayEqualHelper@G@ATL@@@ATL@@QAEXXZ
_TEXT	SEGMENT
_this$ = -8						; size = 4
_i$85859 = -4						; size = 4
?RemoveAll@?$CSimpleArray@GV?$CSimpleArrayEqualHelper@G@ATL@@@ATL@@QAEXXZ PROC NEAR ; ATL::CSimpleArray<unsigned short,ATL::CSimpleArrayEqualHelper<unsigned short> >::RemoveAll, COMDAT
; _this$ = ecx

; 173  : 	{

  00000	55		 push	 ebp
  00001	8b ec		 mov	 ebp, esp
  00003	83 ec 08	 sub	 esp, 8
  00006	89 4d f8	 mov	 DWORD PTR _this$[ebp], ecx

; 174  : 		if(m_aT != NULL)

  00009	8b 45 f8	 mov	 eax, DWORD PTR _this$[ebp]
  0000c	83 38 00	 cmp	 DWORD PTR [eax], 0
  0000f	74 37		 je	 SHORT $L85858

; 175  : 		{
; 176  : 			for(int i = 0; i < m_nSize; i++)

  00011	c7 45 fc 00 00
	00 00		 mov	 DWORD PTR _i$85859[ebp], 0
  00018	eb 09		 jmp	 SHORT $L85860
$L85861:
  0001a	8b 4d fc	 mov	 ecx, DWORD PTR _i$85859[ebp]
  0001d	83 c1 01	 add	 ecx, 1
  00020	89 4d fc	 mov	 DWORD PTR _i$85859[ebp], ecx
$L85860:
  00023	8b 55 f8	 mov	 edx, DWORD PTR _this$[ebp]
  00026	8b 45 fc	 mov	 eax, DWORD PTR _i$85859[ebp]
  00029	3b 42 04	 cmp	 eax, DWORD PTR [edx+4]
  0002c	7d 02		 jge	 SHORT $L85862

; 177  : 				m_aT[i].~T();

  0002e	eb ea		 jmp	 SHORT $L85861
$L85862:

; 178  : 			free(m_aT);

  00030	8b 4d f8	 mov	 ecx, DWORD PTR _this$[ebp]
  00033	8b 11		 mov	 edx, DWORD PTR [ecx]
  00035	52		 push	 edx
  00036	ff 15 00 00 00
	00		 call	 DWORD PTR __imp__free
  0003c	83 c4 04	 add	 esp, 4

; 179  : 			m_aT = NULL;

  0003f	8b 45 f8	 mov	 eax, DWORD PTR _this$[ebp]
  00042	c7 00 00 00 00
	00		 mov	 DWORD PTR [eax], 0
$L85858:

; 180  : 		}
; 181  : 		m_nSize = 0;

  00048	8b 4d f8	 mov	 ecx, DWORD PTR _this$[ebp]
  0004b	c7 41 04 00 00
	00 00		 mov	 DWORD PTR [ecx+4], 0

; 182  : 		m_nAllocSize = 0;

  00052	8b 55 f8	 mov	 edx, DWORD PTR _this$[ebp]
  00055	c7 42 08 00 00
	00 00		 mov	 DWORD PTR [edx+8], 0

; 183  : 	}

  0005c	8b e5		 mov	 esp, ebp
  0005e	5d		 pop	 ebp
  0005f	c3		 ret	 0
?RemoveAll@?$CSimpleArray@GV?$CSimpleArrayEqualHelper@G@ATL@@@ATL@@QAEXXZ ENDP ; ATL::CSimpleArray<unsigned short,ATL::CSimpleArrayEqualHelper<unsigned short> >::RemoveAll
_TEXT	ENDS
PUBLIC	?_AtlRaiseException@ATL@@YAXKK@Z		; ATL::_AtlRaiseException
; Function compile flags: /Odt
;	COMDAT ??A?$CSimpleArray@GV?$CSimpleArrayEqualHelper@G@ATL@@@ATL@@QAEAAGH@Z
_TEXT	SEGMENT
_this$ = -4						; size = 4
_nIndex$ = 8						; size = 4
??A?$CSimpleArray@GV?$CSimpleArrayEqualHelper@G@ATL@@@ATL@@QAEAAGH@Z PROC NEAR ; ATL::CSimpleArray<unsigned short,ATL::CSimpleArrayEqualHelper<unsigned short> >::operator[], COMDAT
; _this$ = ecx

; 194  : 	{

  00000	55		 push	 ebp
  00001	8b ec		 mov	 ebp, esp
  00003	51		 push	 ecx
  00004	89 4d fc	 mov	 DWORD PTR _this$[ebp], ecx

; 195  : 		ATLASSERT(nIndex >= 0 && nIndex < m_nSize);
; 196  : 		if(nIndex < 0 || nIndex >= m_nSize)

  00007	83 7d 08 00	 cmp	 DWORD PTR _nIndex$[ebp], 0
  0000b	7c 0b		 jl	 SHORT $L85867
  0000d	8b 45 fc	 mov	 eax, DWORD PTR _this$[ebp]
  00010	8b 4d 08	 mov	 ecx, DWORD PTR _nIndex$[ebp]
  00013	3b 48 04	 cmp	 ecx, DWORD PTR [eax+4]
  00016	7c 0c		 jl	 SHORT $L85866
$L85867:

; 197  : 		{
; 198  : 			_AtlRaiseException(EXCEPTION_ARRAY_BOUNDS_EXCEEDED);					

  00018	6a 01		 push	 1
  0001a	68 8c 00 00 c0	 push	 -1073741684		; c000008cH
  0001f	e8 00 00 00 00	 call	 ?_AtlRaiseException@ATL@@YAXKK@Z ; ATL::_AtlRaiseException
$L85866:

; 199  : 		}
; 200  : 		return m_aT[nIndex];

  00024	8b 55 fc	 mov	 edx, DWORD PTR _this$[ebp]
  00027	8b 02		 mov	 eax, DWORD PTR [edx]
  00029	8b 4d 08	 mov	 ecx, DWORD PTR _nIndex$[ebp]
  0002c	8d 04 48	 lea	 eax, DWORD PTR [eax+ecx*2]
$L90661:

; 201  : 	}

  0002f	8b e5		 mov	 esp, ebp
  00031	5d		 pop	 ebp
  00032	c2 04 00	 ret	 4
??A?$CSimpleArray@GV?$CSimpleArrayEqualHelper@G@ATL@@@ATL@@QAEAAGH@Z ENDP ; ATL::CSimpleArray<unsigned short,ATL::CSimpleArrayEqualHelper<unsigned short> >::operator[]
_TEXT	ENDS
EXTRN	__imp__RaiseException@16:NEAR
; Function compile flags: /Odt
; File d:\program files (x86)\microsoft visual studio .net 2003\vc7\atlmfc\include\atlexcept.h
;	COMDAT ?_AtlRaiseException@ATL@@YAXKK@Z
_TEXT	SEGMENT
_dwExceptionCode$ = 8					; size = 4
_dwExceptionFlags$ = 12					; size = 4
?_AtlRaiseException@ATL@@YAXKK@Z PROC NEAR		; ATL::_AtlRaiseException, COMDAT

; 26   : {

  00000	55		 push	 ebp
  00001	8b ec		 mov	 ebp, esp

; 27   : 	RaiseException( dwExceptionCode, dwExceptionFlags, 0, NULL );

  00003	6a 00		 push	 0
  00005	6a 00		 push	 0
  00007	8b 45 0c	 mov	 eax, DWORD PTR _dwExceptionFlags$[ebp]
  0000a	50		 push	 eax
  0000b	8b 4d 08	 mov	 ecx, DWORD PTR _dwExceptionCode$[ebp]
  0000e	51		 push	 ecx
  0000f	ff 15 00 00 00
	00		 call	 DWORD PTR __imp__RaiseException@16

; 28   : }

  00015	5d		 pop	 ebp
  00016	c3		 ret	 0
?_AtlRaiseException@ATL@@YAXKK@Z ENDP			; ATL::_AtlRaiseException
_TEXT	ENDS
PUBLIC	?_AtlWinModule@ATL@@3VCAtlWinModule@1@A		; ATL::_AtlWinModule
;	COMDAT ?_AtlWinModule@ATL@@3VCAtlWinModule@1@A
_BSS	SEGMENT
?_AtlWinModule@ATL@@3VCAtlWinModule@1@A DB 02cH DUP (?)	; ATL::_AtlWinModule
_BSS	ENDS
END
