; Listing generated by Microsoft (R) Optimizing Compiler Version 13.10.3077 

	TITLE	\boxgit\PlayBox\CommonLib\common\YL_FileInfo.cpp
	.386P
include listing.inc
if @Version gt 510
.model FLAT
else
_TEXT	SEGMENT PARA USE32 PUBLIC 'CODE'
_TEXT	ENDS
_DATA	SEGMENT DWORD USE32 PUBLIC 'DATA'
_DATA	ENDS
CONST	SEGMENT DWORD USE32 PUBLIC 'CONST'
CONST	ENDS
_BSS	SEGMENT DWORD USE32 PUBLIC 'BSS'
_BSS	ENDS
$$SYMBOLS	SEGMENT BYTE USE32 'DEBSYM'
$$SYMBOLS	ENDS
$$TYPES	SEGMENT BYTE USE32 'DEBTYP'
$$TYPES	ENDS
_TLS	SEGMENT DWORD USE32 PUBLIC 'TLS'
_TLS	ENDS
;	COMDAT ??_C@_0FG@EOHGAEB@?3Sun?3Sunday?3Mon?3Monday?3Tue?3Tuesd@
CONST	SEGMENT DWORD USE32 PUBLIC 'CONST'
CONST	ENDS
;	COMDAT ??_C@_0IH@HPGJLCCK@?3Jan?3January?3Feb?3February?3Mar?3Ma@
CONST	SEGMENT DWORD USE32 PUBLIC 'CONST'
CONST	ENDS
;	COMDAT ??_C@_05LAPONLG@false?$AA@
CONST	SEGMENT DWORD USE32 PUBLIC 'CONST'
CONST	ENDS
;	COMDAT ??_C@_04LOAJBDKD@true?$AA@
CONST	SEGMENT DWORD USE32 PUBLIC 'CONST'
CONST	ENDS
;	COMDAT ??_C@_01GFHCPBMG@C?$AA@
CONST	SEGMENT DWORD USE32 PUBLIC 'CONST'
CONST	ENDS
;	COMDAT ??_C@_02EAOCLKAK@ld?$AA@
CONST	SEGMENT DWORD USE32 PUBLIC 'CONST'
CONST	ENDS
;	COMDAT ??_C@_02BDDLJJBK@lu?$AA@
CONST	SEGMENT DWORD USE32 PUBLIC 'CONST'
CONST	ENDS
;	COMDAT ??_C@_02HIKPPMOK@Ld?$AA@
CONST	SEGMENT DWORD USE32 PUBLIC 'CONST'
CONST	ENDS
;	COMDAT ??_C@_02CLHGNPPK@Lu?$AA@
CONST	SEGMENT DWORD USE32 PUBLIC 'CONST'
CONST	ENDS
;	COMDAT ??_C@_02BBAHNLBA@?$CFp?$AA@
CONST	SEGMENT DWORD USE32 PUBLIC 'CONST'
CONST	ENDS
;	COMDAT ??_C@_0BH@HHDGIIFB@0123456789abcdefABCDEF?$AA@
CONST	SEGMENT DWORD USE32 PUBLIC 'CONST'
CONST	ENDS
;	COMDAT ??_C@_01DDCIFGEA@E?$AA@
CONST	SEGMENT DWORD USE32 PUBLIC 'CONST'
CONST	ENDS
;	COMDAT ??_C@_01KGKMHCOC@e?$AA@
CONST	SEGMENT DWORD USE32 PUBLIC 'CONST'
CONST	ENDS
;	COMDAT ??_C@_08EPJLHIJG@bad?5cast?$AA@
CONST	SEGMENT DWORD USE32 PUBLIC 'CONST'
CONST	ENDS
rdata$r	SEGMENT DWORD USE32 PUBLIC 'CONST'
rdata$r	ENDS
xdata$x	SEGMENT DWORD USE32 PUBLIC 'CONST'
xdata$x	ENDS
;	COMDAT _IsEqualGUID
_TEXT	SEGMENT PARA USE32 PUBLIC 'CODE'
_TEXT	ENDS
;	COMDAT _==
_TEXT	SEGMENT PARA USE32 PUBLIC 'CODE'
_TEXT	ENDS
;	COMDAT ??1bad_exception@std@@UAE@XZ
_TEXT	SEGMENT PARA USE32 PUBLIC 'CODE'
_TEXT	ENDS
;	COMDAT ??_Gbad_exception@std@@UAEPAXI@Z
_TEXT	SEGMENT PARA USE32 PUBLIC 'CODE'
_TEXT	ENDS
;	COMDAT ??1bad_alloc@std@@UAE@XZ
_TEXT	SEGMENT PARA USE32 PUBLIC 'CODE'
_TEXT	ENDS
;	COMDAT ??_Gbad_alloc@std@@UAEPAXI@Z
_TEXT	SEGMENT PARA USE32 PUBLIC 'CODE'
_TEXT	ENDS
;	COMDAT _wmemchr
_TEXT	SEGMENT PARA USE32 PUBLIC 'CODE'
_TEXT	ENDS
;	COMDAT _wmemcmp
_TEXT	SEGMENT PARA USE32 PUBLIC 'CODE'
_TEXT	ENDS
;	COMDAT _wmemcpy
_TEXT	SEGMENT PARA USE32 PUBLIC 'CODE'
_TEXT	ENDS
;	COMDAT _wmemmove
_TEXT	SEGMENT PARA USE32 PUBLIC 'CODE'
_TEXT	ENDS
;	COMDAT _wmemset
_TEXT	SEGMENT PARA USE32 PUBLIC 'CODE'
_TEXT	ENDS
;	COMDAT ??0logic_error@std@@QAE@ABV?$basic_string@DU?$char_traits@D@std@@V?$allocator@D@2@@1@@Z
_TEXT	SEGMENT PARA USE32 PUBLIC 'CODE'
_TEXT	ENDS
;	COMDAT ??1logic_error@std@@UAE@XZ
_TEXT	SEGMENT PARA USE32 PUBLIC 'CODE'
_TEXT	ENDS
;	COMDAT ?what@logic_error@std@@UBEPBDXZ
_TEXT	SEGMENT PARA USE32 PUBLIC 'CODE'
_TEXT	ENDS
;	COMDAT ??_Glogic_error@std@@UAEPAXI@Z
_TEXT	SEGMENT PARA USE32 PUBLIC 'CODE'
_TEXT	ENDS
;	COMDAT ??1domain_error@std@@UAE@XZ
_TEXT	SEGMENT PARA USE32 PUBLIC 'CODE'
_TEXT	ENDS
;	COMDAT ??_Gdomain_error@std@@UAEPAXI@Z
_TEXT	SEGMENT PARA USE32 PUBLIC 'CODE'
_TEXT	ENDS
;	COMDAT ??1invalid_argument@std@@UAE@XZ
_TEXT	SEGMENT PARA USE32 PUBLIC 'CODE'
_TEXT	ENDS
;	COMDAT ??_Ginvalid_argument@std@@UAEPAXI@Z
_TEXT	SEGMENT PARA USE32 PUBLIC 'CODE'
_TEXT	ENDS
;	COMDAT ??1length_error@std@@UAE@XZ
_TEXT	SEGMENT PARA USE32 PUBLIC 'CODE'
_TEXT	ENDS
;	COMDAT ??_Glength_error@std@@UAEPAXI@Z
_TEXT	SEGMENT PARA USE32 PUBLIC 'CODE'
_TEXT	ENDS
;	COMDAT ??1out_of_range@std@@UAE@XZ
_TEXT	SEGMENT PARA USE32 PUBLIC 'CODE'
_TEXT	ENDS
;	COMDAT ??_Gout_of_range@std@@UAEPAXI@Z
_TEXT	SEGMENT PARA USE32 PUBLIC 'CODE'
_TEXT	ENDS
;	COMDAT ??0runtime_error@std@@QAE@ABV?$basic_string@DU?$char_traits@D@std@@V?$allocator@D@2@@1@@Z
_TEXT	SEGMENT PARA USE32 PUBLIC 'CODE'
_TEXT	ENDS
;	COMDAT ??1runtime_error@std@@UAE@XZ
_TEXT	SEGMENT PARA USE32 PUBLIC 'CODE'
_TEXT	ENDS
;	COMDAT ?what@runtime_error@std@@UBEPBDXZ
_TEXT	SEGMENT PARA USE32 PUBLIC 'CODE'
_TEXT	ENDS
;	COMDAT ??_Gruntime_error@std@@UAEPAXI@Z
_TEXT	SEGMENT PARA USE32 PUBLIC 'CODE'
_TEXT	ENDS
;	COMDAT ??1overflow_error@std@@UAE@XZ
_TEXT	SEGMENT PARA USE32 PUBLIC 'CODE'
_TEXT	ENDS
;	COMDAT ??_Goverflow_error@std@@UAEPAXI@Z
_TEXT	SEGMENT PARA USE32 PUBLIC 'CODE'
_TEXT	ENDS
;	COMDAT ??1underflow_error@std@@UAE@XZ
_TEXT	SEGMENT PARA USE32 PUBLIC 'CODE'
_TEXT	ENDS
;	COMDAT ??_Gunderflow_error@std@@UAEPAXI@Z
_TEXT	SEGMENT PARA USE32 PUBLIC 'CODE'
_TEXT	ENDS
;	COMDAT ??1range_error@std@@UAE@XZ
_TEXT	SEGMENT PARA USE32 PUBLIC 'CODE'
_TEXT	ENDS
;	COMDAT ??_Grange_error@std@@UAEPAXI@Z
_TEXT	SEGMENT PARA USE32 PUBLIC 'CODE'
_TEXT	ENDS
;	COMDAT ??$_Maklocbyte@_W@std@@YAD_WABU_Cvtvec@@@Z
_TEXT	SEGMENT PARA USE32 PUBLIC 'CODE'
_TEXT	ENDS
;	COMDAT ??$_Maklocchr@_W@std@@YA_WDPA_WABU_Cvtvec@@@Z
_TEXT	SEGMENT PARA USE32 PUBLIC 'CODE'
_TEXT	ENDS
;	COMDAT ??$_Maklocstr@_W@std@@YAPA_WPBDPA_WABU_Cvtvec@@@Z
_TEXT	SEGMENT PARA USE32 PUBLIC 'CODE'
_TEXT	ENDS
;	COMDAT ??_G?$codecvt@_WDH@std@@MAEPAXI@Z
_TEXT	SEGMENT PARA USE32 PUBLIC 'CODE'
_TEXT	ENDS
;	COMDAT ??_G?$ctype@D@std@@MAEPAXI@Z
_TEXT	SEGMENT PARA USE32 PUBLIC 'CODE'
_TEXT	ENDS
;	COMDAT ??_G?$ctype@_W@std@@MAEPAXI@Z
_TEXT	SEGMENT PARA USE32 PUBLIC 'CODE'
_TEXT	ENDS
;	COMDAT ??1failure@ios_base@std@@UAE@XZ
_TEXT	SEGMENT PARA USE32 PUBLIC 'CODE'
_TEXT	ENDS
;	COMDAT ??_Gfailure@ios_base@std@@UAEPAXI@Z
_TEXT	SEGMENT PARA USE32 PUBLIC 'CODE'
_TEXT	ENDS
;	COMDAT ??1sentry@?$basic_istream@DU?$char_traits@D@std@@@std@@QAE@XZ
_TEXT	SEGMENT PARA USE32 PUBLIC 'CODE'
_TEXT	ENDS
;	COMDAT ??1sentry@?$basic_istream@_WU?$char_traits@_W@std@@@std@@QAE@XZ
_TEXT	SEGMENT PARA USE32 PUBLIC 'CODE'
_TEXT	ENDS
;	COMDAT ??0?$allocator@D@std@@QAE@XZ
_TEXT	SEGMENT PARA USE32 PUBLIC 'CODE'
_TEXT	ENDS
;	COMDAT ??0?$allocator@D@std@@QAE@ABV01@@Z
_TEXT	SEGMENT PARA USE32 PUBLIC 'CODE'
_TEXT	ENDS
;	COMDAT ??0?$allocator@_W@std@@QAE@XZ
_TEXT	SEGMENT PARA USE32 PUBLIC 'CODE'
_TEXT	ENDS
;	COMDAT ??0?$allocator@_W@std@@QAE@ABV01@@Z
_TEXT	SEGMENT PARA USE32 PUBLIC 'CODE'
_TEXT	ENDS
;	COMDAT ??0sentry@?$basic_istream@DU?$char_traits@D@std@@@std@@QAE@AAV12@_N@Z
_TEXT	SEGMENT PARA USE32 PUBLIC 'CODE'
_TEXT	ENDS
;	COMDAT ??Bsentry@?$basic_istream@DU?$char_traits@D@std@@@std@@QBE_NXZ
_TEXT	SEGMENT PARA USE32 PUBLIC 'CODE'
_TEXT	ENDS
;	COMDAT ??1_Sentry_base@?$basic_istream@DU?$char_traits@D@std@@@std@@QAE@XZ
_TEXT	SEGMENT PARA USE32 PUBLIC 'CODE'
_TEXT	ENDS
;	COMDAT ??0sentry@?$basic_istream@_WU?$char_traits@_W@std@@@std@@QAE@AAV12@_N@Z
_TEXT	SEGMENT PARA USE32 PUBLIC 'CODE'
_TEXT	ENDS
;	COMDAT ??Bsentry@?$basic_istream@_WU?$char_traits@_W@std@@@std@@QBE_NXZ
_TEXT	SEGMENT PARA USE32 PUBLIC 'CODE'
_TEXT	ENDS
;	COMDAT ??1_Sentry_base@?$basic_istream@_WU?$char_traits@_W@std@@@std@@QAE@XZ
_TEXT	SEGMENT PARA USE32 PUBLIC 'CODE'
_TEXT	ENDS
;	COMDAT ??_Glocale@std@@QAEPAXI@Z
_TEXT	SEGMENT PARA USE32 PUBLIC 'CODE'
_TEXT	ENDS
;	COMDAT ??_G?$numpunct@D@std@@MAEPAXI@Z
_TEXT	SEGMENT PARA USE32 PUBLIC 'CODE'
_TEXT	ENDS
;	COMDAT ??_G?$numpunct@_W@std@@MAEPAXI@Z
_TEXT	SEGMENT PARA USE32 PUBLIC 'CODE'
_TEXT	ENDS
;	COMDAT ??0_Sentry_base@?$basic_istream@DU?$char_traits@D@std@@@std@@QAE@AAV12@@Z
_TEXT	SEGMENT PARA USE32 PUBLIC 'CODE'
_TEXT	ENDS
;	COMDAT ??0_Sentry_base@?$basic_istream@_WU?$char_traits@_W@std@@@std@@QAE@AAV12@@Z
_TEXT	SEGMENT PARA USE32 PUBLIC 'CODE'
_TEXT	ENDS
;	COMDAT ??0?$fpos@H@std@@QAE@J@Z
_TEXT	SEGMENT PARA USE32 PUBLIC 'CODE'
_TEXT	ENDS
;	COMDAT ??0sentry@?$basic_ostream@DU?$char_traits@D@std@@@std@@QAE@AAV12@@Z
_TEXT	SEGMENT PARA USE32 PUBLIC 'CODE'
_TEXT	ENDS
;	COMDAT ??1sentry@?$basic_ostream@DU?$char_traits@D@std@@@std@@QAE@XZ
_TEXT	SEGMENT PARA USE32 PUBLIC 'CODE'
_TEXT	ENDS
;	COMDAT ??Bsentry@?$basic_ostream@DU?$char_traits@D@std@@@std@@QBE_NXZ
_TEXT	SEGMENT PARA USE32 PUBLIC 'CODE'
_TEXT	ENDS
;	COMDAT ??0sentry@?$basic_ostream@_WU?$char_traits@_W@std@@@std@@QAE@AAV12@@Z
_TEXT	SEGMENT PARA USE32 PUBLIC 'CODE'
_TEXT	ENDS
;	COMDAT ??1sentry@?$basic_ostream@_WU?$char_traits@_W@std@@@std@@QAE@XZ
_TEXT	SEGMENT PARA USE32 PUBLIC 'CODE'
_TEXT	ENDS
;	COMDAT ??Bsentry@?$basic_ostream@_WU?$char_traits@_W@std@@@std@@QBE_NXZ
_TEXT	SEGMENT PARA USE32 PUBLIC 'CODE'
_TEXT	ENDS
;	COMDAT ?deallocate@?$allocator@D@std@@QAEXPADI@Z
_TEXT	SEGMENT PARA USE32 PUBLIC 'CODE'
_TEXT	ENDS
;	COMDAT ??D?$istreambuf_iterator@DU?$char_traits@D@std@@@std@@QBEDXZ
_TEXT	SEGMENT PARA USE32 PUBLIC 'CODE'
_TEXT	ENDS
;	COMDAT ??E?$istreambuf_iterator@DU?$char_traits@D@std@@@std@@QAEAAV01@XZ
_TEXT	SEGMENT PARA USE32 PUBLIC 'CODE'
_TEXT	ENDS
;	COMDAT ??4?$ostreambuf_iterator@DU?$char_traits@D@std@@@std@@QAEAAV01@D@Z
_TEXT	SEGMENT PARA USE32 PUBLIC 'CODE'
_TEXT	ENDS
;	COMDAT ??D?$ostreambuf_iterator@DU?$char_traits@D@std@@@std@@QAEAAV01@XZ
_TEXT	SEGMENT PARA USE32 PUBLIC 'CODE'
_TEXT	ENDS
;	COMDAT ??E?$ostreambuf_iterator@DU?$char_traits@D@std@@@std@@QAEAAV01@XZ
_TEXT	SEGMENT PARA USE32 PUBLIC 'CODE'
_TEXT	ENDS
;	COMDAT ??D?$istreambuf_iterator@_WU?$char_traits@_W@std@@@std@@QBE_WXZ
_TEXT	SEGMENT PARA USE32 PUBLIC 'CODE'
_TEXT	ENDS
;	COMDAT ??E?$istreambuf_iterator@_WU?$char_traits@_W@std@@@std@@QAEAAV01@XZ
_TEXT	SEGMENT PARA USE32 PUBLIC 'CODE'
_TEXT	ENDS
;	COMDAT ??4?$ostreambuf_iterator@_WU?$char_traits@_W@std@@@std@@QAEAAV01@_W@Z
_TEXT	SEGMENT PARA USE32 PUBLIC 'CODE'
_TEXT	ENDS
;	COMDAT ??D?$ostreambuf_iterator@_WU?$char_traits@_W@std@@@std@@QAEAAV01@XZ
_TEXT	SEGMENT PARA USE32 PUBLIC 'CODE'
_TEXT	ENDS
;	COMDAT ??E?$ostreambuf_iterator@_WU?$char_traits@_W@std@@@std@@QAEAAV01@XZ
_TEXT	SEGMENT PARA USE32 PUBLIC 'CODE'
_TEXT	ENDS
;	COMDAT ??0_Sentry_base@?$basic_ostream@DU?$char_traits@D@std@@@std@@QAE@AAV12@@Z
_TEXT	SEGMENT PARA USE32 PUBLIC 'CODE'
_TEXT	ENDS
;	COMDAT ??1_Sentry_base@?$basic_ostream@DU?$char_traits@D@std@@@std@@QAE@XZ
_TEXT	SEGMENT PARA USE32 PUBLIC 'CODE'
_TEXT	ENDS
;	COMDAT ??0_Sentry_base@?$basic_ostream@_WU?$char_traits@_W@std@@@std@@QAE@AAV12@@Z
_TEXT	SEGMENT PARA USE32 PUBLIC 'CODE'
_TEXT	ENDS
;	COMDAT ??1_Sentry_base@?$basic_ostream@_WU?$char_traits@_W@std@@@std@@QAE@XZ
_TEXT	SEGMENT PARA USE32 PUBLIC 'CODE'
_TEXT	ENDS
;	COMDAT ?deallocate@?$allocator@_W@std@@QAEXPA_WI@Z
_TEXT	SEGMENT PARA USE32 PUBLIC 'CODE'
_TEXT	ENDS
;	COMDAT ?_Inc@?$istreambuf_iterator@DU?$char_traits@D@std@@@std@@AAEXXZ
_TEXT	SEGMENT PARA USE32 PUBLIC 'CODE'
_TEXT	ENDS
;	COMDAT ?_Peek@?$istreambuf_iterator@DU?$char_traits@D@std@@@std@@AAEDXZ
_TEXT	SEGMENT PARA USE32 PUBLIC 'CODE'
_TEXT	ENDS
;	COMDAT ?_Inc@?$istreambuf_iterator@_WU?$char_traits@_W@std@@@std@@AAEXXZ
_TEXT	SEGMENT PARA USE32 PUBLIC 'CODE'
_TEXT	ENDS
;	COMDAT ?_Peek@?$istreambuf_iterator@_WU?$char_traits@_W@std@@@std@@AAE_WXZ
_TEXT	SEGMENT PARA USE32 PUBLIC 'CODE'
_TEXT	ENDS
;	COMDAT ?allocate@?$allocator@D@std@@QAEPADI@Z
_TEXT	SEGMENT PARA USE32 PUBLIC 'CODE'
_TEXT	ENDS
;	COMDAT ?max_size@?$allocator@D@std@@QBEIXZ
_TEXT	SEGMENT PARA USE32 PUBLIC 'CODE'
_TEXT	ENDS
;	COMDAT ?allocate@?$allocator@_W@std@@QAEPA_WI@Z
_TEXT	SEGMENT PARA USE32 PUBLIC 'CODE'
_TEXT	ENDS
;	COMDAT ?max_size@?$allocator@_W@std@@QBEIXZ
_TEXT	SEGMENT PARA USE32 PUBLIC 'CODE'
_TEXT	ENDS
;	COMDAT ??$use_facet@V?$ctype@D@std@@@std@@YAABV?$ctype@D@0@ABVlocale@0@@Z
_TEXT	SEGMENT PARA USE32 PUBLIC 'CODE'
_TEXT	ENDS
;	COMDAT ??$use_facet@V?$ctype@_W@std@@@std@@YAABV?$ctype@_W@0@ABVlocale@0@@Z
_TEXT	SEGMENT PARA USE32 PUBLIC 'CODE'
_TEXT	ENDS
;	COMDAT ??$?HDU?$char_traits@D@std@@V?$allocator@D@1@@std@@YA?AV?$basic_string@DU?$char_traits@D@std@@V?$allocator@D@2@@0@ABV10@0@Z
_TEXT	SEGMENT PARA USE32 PUBLIC 'CODE'
_TEXT	ENDS
;	COMDAT ??$?HDU?$char_traits@D@std@@V?$allocator@D@1@@std@@YA?AV?$basic_string@DU?$char_traits@D@std@@V?$allocator@D@2@@0@PBDABV10@@Z
_TEXT	SEGMENT PARA USE32 PUBLIC 'CODE'
_TEXT	ENDS
;	COMDAT ??$?HDU?$char_traits@D@std@@V?$allocator@D@1@@std@@YA?AV?$basic_string@DU?$char_traits@D@std@@V?$allocator@D@2@@0@DABV10@@Z
_TEXT	SEGMENT PARA USE32 PUBLIC 'CODE'
_TEXT	ENDS
;	COMDAT ??$?HDU?$char_traits@D@std@@V?$allocator@D@1@@std@@YA?AV?$basic_string@DU?$char_traits@D@std@@V?$allocator@D@2@@0@ABV10@PBD@Z
_TEXT	SEGMENT PARA USE32 PUBLIC 'CODE'
_TEXT	ENDS
;	COMDAT ??$?HDU?$char_traits@D@std@@V?$allocator@D@1@@std@@YA?AV?$basic_string@DU?$char_traits@D@std@@V?$allocator@D@2@@0@ABV10@D@Z
_TEXT	SEGMENT PARA USE32 PUBLIC 'CODE'
_TEXT	ENDS
;	COMDAT ??$?H_WU?$char_traits@_W@std@@V?$allocator@_W@1@@std@@YA?AV?$basic_string@_WU?$char_traits@_W@std@@V?$allocator@_W@2@@0@ABV10@0@Z
_TEXT	SEGMENT PARA USE32 PUBLIC 'CODE'
_TEXT	ENDS
;	COMDAT ??$?H_WU?$char_traits@_W@std@@V?$allocator@_W@1@@std@@YA?AV?$basic_string@_WU?$char_traits@_W@std@@V?$allocator@_W@2@@0@PB_WABV10@@Z
_TEXT	SEGMENT PARA USE32 PUBLIC 'CODE'
_TEXT	ENDS
;	COMDAT ??$?H_WU?$char_traits@_W@std@@V?$allocator@_W@1@@std@@YA?AV?$basic_string@_WU?$char_traits@_W@std@@V?$allocator@_W@2@@0@_WABV10@@Z
_TEXT	SEGMENT PARA USE32 PUBLIC 'CODE'
_TEXT	ENDS
;	COMDAT ??$?H_WU?$char_traits@_W@std@@V?$allocator@_W@1@@std@@YA?AV?$basic_string@_WU?$char_traits@_W@std@@V?$allocator@_W@2@@0@ABV10@PB_W@Z
_TEXT	SEGMENT PARA USE32 PUBLIC 'CODE'
_TEXT	ENDS
;	COMDAT ??$?H_WU?$char_traits@_W@std@@V?$allocator@_W@1@@std@@YA?AV?$basic_string@_WU?$char_traits@_W@std@@V?$allocator@_W@2@@0@ABV10@_W@Z
_TEXT	SEGMENT PARA USE32 PUBLIC 'CODE'
_TEXT	ENDS
;	COMDAT ??$?5DU?$char_traits@D@std@@V?$allocator@D@1@@std@@YAAAV?$basic_istream@DU?$char_traits@D@std@@@0@AAV10@AAV?$basic_string@DU?$char_traits@D@std@@V?$allocator@D@2@@0@@Z
_TEXT	SEGMENT PARA USE32 PUBLIC 'CODE'
_TEXT	ENDS
;	COMDAT ??$getline@DU?$char_traits@D@std@@V?$allocator@D@2@@std@@YAAAV?$basic_istream@DU?$char_traits@D@std@@@0@AAV10@AAV?$basic_string@DU?$char_traits@D@std@@V?$allocator@D@2@@0@@Z
_TEXT	SEGMENT PARA USE32 PUBLIC 'CODE'
_TEXT	ENDS
;	COMDAT ??$getline@DU?$char_traits@D@std@@V?$allocator@D@2@@std@@YAAAV?$basic_istream@DU?$char_traits@D@std@@@0@AAV10@AAV?$basic_string@DU?$char_traits@D@std@@V?$allocator@D@2@@0@D@Z
_TEXT	SEGMENT PARA USE32 PUBLIC 'CODE'
_TEXT	ENDS
;	COMDAT ??$?6DU?$char_traits@D@std@@V?$allocator@D@1@@std@@YAAAV?$basic_ostream@DU?$char_traits@D@std@@@0@AAV10@ABV?$basic_string@DU?$char_traits@D@std@@V?$allocator@D@2@@0@@Z
_TEXT	SEGMENT PARA USE32 PUBLIC 'CODE'
_TEXT	ENDS
;	COMDAT ??$?5_WU?$char_traits@_W@std@@V?$allocator@_W@1@@std@@YAAAV?$basic_istream@_WU?$char_traits@_W@std@@@0@AAV10@AAV?$basic_string@_WU?$char_traits@_W@std@@V?$allocator@_W@2@@0@@Z
_TEXT	SEGMENT PARA USE32 PUBLIC 'CODE'
_TEXT	ENDS
;	COMDAT ??$getline@_WU?$char_traits@_W@std@@V?$allocator@_W@2@@std@@YAAAV?$basic_istream@_WU?$char_traits@_W@std@@@0@AAV10@AAV?$basic_string@_WU?$char_traits@_W@std@@V?$allocator@_W@2@@0@@Z
_TEXT	SEGMENT PARA USE32 PUBLIC 'CODE'
_TEXT	ENDS
;	COMDAT ??$getline@_WU?$char_traits@_W@std@@V?$allocator@_W@2@@std@@YAAAV?$basic_istream@_WU?$char_traits@_W@std@@@0@AAV10@AAV?$basic_string@_WU?$char_traits@_W@std@@V?$allocator@_W@2@@0@_W@Z
_TEXT	SEGMENT PARA USE32 PUBLIC 'CODE'
_TEXT	ENDS
;	COMDAT ??$?6_WU?$char_traits@_W@std@@V?$allocator@_W@1@@std@@YAAAV?$basic_ostream@_WU?$char_traits@_W@std@@@0@AAV10@ABV?$basic_string@_WU?$char_traits@_W@std@@V?$allocator@_W@2@@0@@Z
_TEXT	SEGMENT PARA USE32 PUBLIC 'CODE'
_TEXT	ENDS
;	COMDAT ??$use_facet@V?$numpunct@D@std@@@std@@YAABV?$numpunct@D@0@ABVlocale@0@@Z
_TEXT	SEGMENT PARA USE32 PUBLIC 'CODE'
_TEXT	ENDS
;	COMDAT ??$_Getloctxt@DV?$istreambuf_iterator@DU?$char_traits@D@std@@@std@@@std@@YAHAAV?$istreambuf_iterator@DU?$char_traits@D@std@@@0@0IPBD@Z
_TEXT	SEGMENT PARA USE32 PUBLIC 'CODE'
_TEXT	ENDS
;	COMDAT ??$?8DU?$char_traits@D@std@@@std@@YA_NABV?$istreambuf_iterator@DU?$char_traits@D@std@@@0@0@Z
_TEXT	SEGMENT PARA USE32 PUBLIC 'CODE'
_TEXT	ENDS
;	COMDAT ??$use_facet@V?$numpunct@_W@std@@@std@@YAABV?$numpunct@_W@0@ABVlocale@0@@Z
_TEXT	SEGMENT PARA USE32 PUBLIC 'CODE'
_TEXT	ENDS
;	COMDAT ??$_Getloctxt@_WV?$istreambuf_iterator@_WU?$char_traits@_W@std@@@std@@@std@@YAHAAV?$istreambuf_iterator@_WU?$char_traits@_W@std@@@0@0IPB_W@Z
_TEXT	SEGMENT PARA USE32 PUBLIC 'CODE'
_TEXT	ENDS
;	COMDAT ??$?8_WU?$char_traits@_W@std@@@std@@YA_NABV?$istreambuf_iterator@_WU?$char_traits@_W@std@@@0@0@Z
_TEXT	SEGMENT PARA USE32 PUBLIC 'CODE'
_TEXT	ENDS
;	COMDAT ??$_Maklocchr@D@std@@YADDPADABU_Cvtvec@@@Z
_TEXT	SEGMENT PARA USE32 PUBLIC 'CODE'
_TEXT	ENDS
;	COMDAT ??$?9DU?$char_traits@D@std@@@std@@YA_NABV?$istreambuf_iterator@DU?$char_traits@D@std@@@0@0@Z
_TEXT	SEGMENT PARA USE32 PUBLIC 'CODE'
_TEXT	ENDS
;	COMDAT ??$_Maklocbyte@D@std@@YADDABU_Cvtvec@@@Z
_TEXT	SEGMENT PARA USE32 PUBLIC 'CODE'
_TEXT	ENDS
;	COMDAT ??$?9_WU?$char_traits@_W@std@@@std@@YA_NABV?$istreambuf_iterator@_WU?$char_traits@_W@std@@@0@0@Z
_TEXT	SEGMENT PARA USE32 PUBLIC 'CODE'
_TEXT	ENDS
;	COMDAT ??$_Allocate@D@std@@YAPADIPAD@Z
_TEXT	SEGMENT PARA USE32 PUBLIC 'CODE'
_TEXT	ENDS
;	COMDAT ??$_Allocate@_W@std@@YAPA_WIPA_W@Z
_TEXT	SEGMENT PARA USE32 PUBLIC 'CODE'
_TEXT	ENDS
;	COMDAT ?equal@?$istreambuf_iterator@DU?$char_traits@D@std@@@std@@QBE_NABV12@@Z
_TEXT	SEGMENT PARA USE32 PUBLIC 'CODE'
_TEXT	ENDS
;	COMDAT ?equal@?$istreambuf_iterator@_WU?$char_traits@_W@std@@@std@@QBE_NABV12@@Z
_TEXT	SEGMENT PARA USE32 PUBLIC 'CODE'
_TEXT	ENDS
;	COMDAT ??$_Maklocstr@D@std@@YAPADPBDPADABU_Cvtvec@@@Z
_TEXT	SEGMENT PARA USE32 PUBLIC 'CODE'
_TEXT	ENDS
;	COMDAT ??_R4out_of_range@std@@6B@
rdata$r	SEGMENT DWORD USE32 PUBLIC 'CONST'
rdata$r	ENDS
;	COMDAT ??_R0?AVout_of_range@std@@@8
_DATA	SEGMENT DWORD USE32 PUBLIC 'DATA'
_DATA	ENDS
;	COMDAT ??_R3?$ctype@D@std@@8
rdata$r	SEGMENT DWORD USE32 PUBLIC 'CONST'
rdata$r	ENDS
;	COMDAT ??_R1A@?0A@A@overflow_error@std@@8
rdata$r	SEGMENT DWORD USE32 PUBLIC 'CONST'
rdata$r	ENDS
;	COMDAT ??_R1A@?0A@A@out_of_range@std@@8
rdata$r	SEGMENT DWORD USE32 PUBLIC 'CONST'
rdata$r	ENDS
;	COMDAT ??_R1A@?0A@A@?$numpunct@D@std@@8
rdata$r	SEGMENT DWORD USE32 PUBLIC 'CONST'
rdata$r	ENDS
;	COMDAT ??_R2domain_error@std@@8
rdata$r	SEGMENT DWORD USE32 PUBLIC 'CONST'
rdata$r	ENDS
;	COMDAT ??_R1A@?0A@A@facet@locale@std@@8
rdata$r	SEGMENT DWORD USE32 PUBLIC 'CONST'
rdata$r	ENDS
;	COMDAT ??_R0?AVdomain_error@std@@@8
_DATA	SEGMENT DWORD USE32 PUBLIC 'DATA'
_DATA	ENDS
;	COMDAT ??_R3underflow_error@std@@8
rdata$r	SEGMENT DWORD USE32 PUBLIC 'CONST'
rdata$r	ENDS
;	COMDAT ??_R0?AV?$numpunct@_W@std@@@8
_DATA	SEGMENT DWORD USE32 PUBLIC 'DATA'
_DATA	ENDS
;	COMDAT ??_R0?AVrange_error@std@@@8
_DATA	SEGMENT DWORD USE32 PUBLIC 'DATA'
_DATA	ENDS
;	COMDAT ??_R2?$numpunct@D@std@@8
rdata$r	SEGMENT DWORD USE32 PUBLIC 'CONST'
rdata$r	ENDS
;	COMDAT ??_R1A@?0A@A@codecvt_base@std@@8
rdata$r	SEGMENT DWORD USE32 PUBLIC 'CONST'
rdata$r	ENDS
;	COMDAT ??_R2length_error@std@@8
rdata$r	SEGMENT DWORD USE32 PUBLIC 'CONST'
rdata$r	ENDS
;	COMDAT ??_R2runtime_error@std@@8
rdata$r	SEGMENT DWORD USE32 PUBLIC 'CONST'
rdata$r	ENDS
;	COMDAT ??_R2failure@ios_base@std@@8
rdata$r	SEGMENT DWORD USE32 PUBLIC 'CONST'
rdata$r	ENDS
;	COMDAT ??_R1A@?0A@A@bad_alloc@std@@8
rdata$r	SEGMENT DWORD USE32 PUBLIC 'CONST'
rdata$r	ENDS
;	COMDAT ??_R4?$numpunct@D@std@@6B@
rdata$r	SEGMENT DWORD USE32 PUBLIC 'CONST'
rdata$r	ENDS
;	COMDAT ??_R0?AVcodecvt_base@std@@@8
_DATA	SEGMENT DWORD USE32 PUBLIC 'DATA'
_DATA	ENDS
;	COMDAT ??_R2bad_alloc@std@@8
rdata$r	SEGMENT DWORD USE32 PUBLIC 'CONST'
rdata$r	ENDS
;	COMDAT ??_R2?$ctype@_W@std@@8
rdata$r	SEGMENT DWORD USE32 PUBLIC 'CONST'
rdata$r	ENDS
;	COMDAT ??_R0?AV?$codecvt@_WDH@std@@@8
_DATA	SEGMENT DWORD USE32 PUBLIC 'DATA'
_DATA	ENDS
;	COMDAT ??_R1A@?0A@A@exception@@8
rdata$r	SEGMENT DWORD USE32 PUBLIC 'CONST'
rdata$r	ENDS
;	COMDAT __CT??_R0?AVexception@@@8??0exception@@QAE@ABV0@@Z12
xdata$x	SEGMENT DWORD USE32 PUBLIC 'CONST'
xdata$x	ENDS
;	COMDAT ??_R1A@?0A@A@?$codecvt@_WDH@std@@8
rdata$r	SEGMENT DWORD USE32 PUBLIC 'CONST'
rdata$r	ENDS
;	COMDAT ??_R4underflow_error@std@@6B@
rdata$r	SEGMENT DWORD USE32 PUBLIC 'CONST'
rdata$r	ENDS
;	COMDAT ??_R2overflow_error@std@@8
rdata$r	SEGMENT DWORD USE32 PUBLIC 'CONST'
rdata$r	ENDS
;	COMDAT ??_R4length_error@std@@6B@
rdata$r	SEGMENT DWORD USE32 PUBLIC 'CONST'
rdata$r	ENDS
;	COMDAT ??_R1A@?0A@A@range_error@std@@8
rdata$r	SEGMENT DWORD USE32 PUBLIC 'CONST'
rdata$r	ENDS
;	COMDAT ??_R4?$ctype@D@std@@6B@
rdata$r	SEGMENT DWORD USE32 PUBLIC 'CONST'
rdata$r	ENDS
;	COMDAT ??_R0?AV?$ctype@_W@std@@@8
_DATA	SEGMENT DWORD USE32 PUBLIC 'DATA'
_DATA	ENDS
;	COMDAT ??_R3invalid_argument@std@@8
rdata$r	SEGMENT DWORD USE32 PUBLIC 'CONST'
rdata$r	ENDS
;	COMDAT ??_R0?AVfailure@ios_base@std@@@8
_DATA	SEGMENT DWORD USE32 PUBLIC 'DATA'
_DATA	ENDS
;	COMDAT ??_R3overflow_error@std@@8
rdata$r	SEGMENT DWORD USE32 PUBLIC 'CONST'
rdata$r	ENDS
;	COMDAT ??_R2out_of_range@std@@8
rdata$r	SEGMENT DWORD USE32 PUBLIC 'CONST'
rdata$r	ENDS
;	COMDAT ??_R0?AVruntime_error@std@@@8
_DATA	SEGMENT DWORD USE32 PUBLIC 'DATA'
_DATA	ENDS
;	COMDAT ??_R4overflow_error@std@@6B@
rdata$r	SEGMENT DWORD USE32 PUBLIC 'CONST'
rdata$r	ENDS
;	COMDAT __TI2?AVbad_cast@@
xdata$x	SEGMENT DWORD USE32 PUBLIC 'CONST'
xdata$x	ENDS
;	COMDAT ??_R0?AVunderflow_error@std@@@8
_DATA	SEGMENT DWORD USE32 PUBLIC 'DATA'
_DATA	ENDS
;	COMDAT ??_R3runtime_error@std@@8
rdata$r	SEGMENT DWORD USE32 PUBLIC 'CONST'
rdata$r	ENDS
;	COMDAT ??_R0?AV?$ctype@D@std@@@8
_DATA	SEGMENT DWORD USE32 PUBLIC 'DATA'
_DATA	ENDS
;	COMDAT ??_R4domain_error@std@@6B@
rdata$r	SEGMENT DWORD USE32 PUBLIC 'CONST'
rdata$r	ENDS
;	COMDAT ??_R3bad_exception@std@@8
rdata$r	SEGMENT DWORD USE32 PUBLIC 'CONST'
rdata$r	ENDS
;	COMDAT ??_R1A@?0A@A@?$numpunct@_W@std@@8
rdata$r	SEGMENT DWORD USE32 PUBLIC 'CONST'
rdata$r	ENDS
;	COMDAT ??_R2range_error@std@@8
rdata$r	SEGMENT DWORD USE32 PUBLIC 'CONST'
rdata$r	ENDS
;	COMDAT ??_R0?AVexception@@@8
_DATA	SEGMENT DWORD USE32 PUBLIC 'DATA'
_DATA	ENDS
;	COMDAT ??_R1A@?0A@A@?$ctype@D@std@@8
rdata$r	SEGMENT DWORD USE32 PUBLIC 'CONST'
rdata$r	ENDS
;	COMDAT __CT??_R0?AVbad_cast@@@8??0bad_cast@@QAE@ABV0@@Z12
xdata$x	SEGMENT DWORD USE32 PUBLIC 'CONST'
xdata$x	ENDS
;	COMDAT ??_R3?$ctype@_W@std@@8
rdata$r	SEGMENT DWORD USE32 PUBLIC 'CONST'
rdata$r	ENDS
;	COMDAT ??_R3bad_alloc@std@@8
rdata$r	SEGMENT DWORD USE32 PUBLIC 'CONST'
rdata$r	ENDS
;	COMDAT ??_R3domain_error@std@@8
rdata$r	SEGMENT DWORD USE32 PUBLIC 'CONST'
rdata$r	ENDS
;	COMDAT ??_R0?AVbad_exception@std@@@8
_DATA	SEGMENT DWORD USE32 PUBLIC 'DATA'
_DATA	ENDS
;	COMDAT ??_R2bad_exception@std@@8
rdata$r	SEGMENT DWORD USE32 PUBLIC 'CONST'
rdata$r	ENDS
;	COMDAT ??_R0?AV?$numpunct@D@std@@@8
_DATA	SEGMENT DWORD USE32 PUBLIC 'DATA'
_DATA	ENDS
;	COMDAT ??_R0?AVbad_alloc@std@@@8
_DATA	SEGMENT DWORD USE32 PUBLIC 'DATA'
_DATA	ENDS
;	COMDAT ??_R4invalid_argument@std@@6B@
rdata$r	SEGMENT DWORD USE32 PUBLIC 'CONST'
rdata$r	ENDS
;	COMDAT ??_R4?$codecvt@_WDH@std@@6B@
rdata$r	SEGMENT DWORD USE32 PUBLIC 'CONST'
rdata$r	ENDS
;	COMDAT ??_R4range_error@std@@6B@
rdata$r	SEGMENT DWORD USE32 PUBLIC 'CONST'
rdata$r	ENDS
;	COMDAT ??_R3?$codecvt@_WDH@std@@8
rdata$r	SEGMENT DWORD USE32 PUBLIC 'CONST'
rdata$r	ENDS
;	COMDAT ??_R1A@?0A@A@logic_error@std@@8
rdata$r	SEGMENT DWORD USE32 PUBLIC 'CONST'
rdata$r	ENDS
;	COMDAT __CTA2?AVbad_cast@@
xdata$x	SEGMENT DWORD USE32 PUBLIC 'CONST'
xdata$x	ENDS
;	COMDAT ??_R4logic_error@std@@6B@
rdata$r	SEGMENT DWORD USE32 PUBLIC 'CONST'
rdata$r	ENDS
;	COMDAT ??_R0?AVlength_error@std@@@8
_DATA	SEGMENT DWORD USE32 PUBLIC 'DATA'
_DATA	ENDS
;	COMDAT ??_R3out_of_range@std@@8
rdata$r	SEGMENT DWORD USE32 PUBLIC 'CONST'
rdata$r	ENDS
;	COMDAT ??_R2?$numpunct@_W@std@@8
rdata$r	SEGMENT DWORD USE32 PUBLIC 'CONST'
rdata$r	ENDS
;	COMDAT ??_R0?AVbad_cast@@@8
_DATA	SEGMENT DWORD USE32 PUBLIC 'DATA'
_DATA	ENDS
;	COMDAT ??_R1A@?0A@A@runtime_error@std@@8
rdata$r	SEGMENT DWORD USE32 PUBLIC 'CONST'
rdata$r	ENDS
;	COMDAT ??_R1A@?0A@A@invalid_argument@std@@8
rdata$r	SEGMENT DWORD USE32 PUBLIC 'CONST'
rdata$r	ENDS
;	COMDAT ??_R1A@?0A@A@ctype_base@std@@8
rdata$r	SEGMENT DWORD USE32 PUBLIC 'CONST'
rdata$r	ENDS
;	COMDAT ??_R2logic_error@std@@8
rdata$r	SEGMENT DWORD USE32 PUBLIC 'CONST'
rdata$r	ENDS
;	COMDAT ??_R1A@?0A@A@failure@ios_base@std@@8
rdata$r	SEGMENT DWORD USE32 PUBLIC 'CONST'
rdata$r	ENDS
;	COMDAT ??_R3logic_error@std@@8
rdata$r	SEGMENT DWORD USE32 PUBLIC 'CONST'
rdata$r	ENDS
;	COMDAT ??_R0?AVlogic_error@std@@@8
_DATA	SEGMENT DWORD USE32 PUBLIC 'DATA'
_DATA	ENDS
;	COMDAT ??_R4?$ctype@_W@std@@6B@
rdata$r	SEGMENT DWORD USE32 PUBLIC 'CONST'
rdata$r	ENDS
;	COMDAT ??_R3length_error@std@@8
rdata$r	SEGMENT DWORD USE32 PUBLIC 'CONST'
rdata$r	ENDS
;	COMDAT ??_R4bad_exception@std@@6B@
rdata$r	SEGMENT DWORD USE32 PUBLIC 'CONST'
rdata$r	ENDS
;	COMDAT ??_R1A@?0A@A@underflow_error@std@@8
rdata$r	SEGMENT DWORD USE32 PUBLIC 'CONST'
rdata$r	ENDS
;	COMDAT ??_R3failure@ios_base@std@@8
rdata$r	SEGMENT DWORD USE32 PUBLIC 'CONST'
rdata$r	ENDS
;	COMDAT ??_R1A@?0A@A@?$ctype@_W@std@@8
rdata$r	SEGMENT DWORD USE32 PUBLIC 'CONST'
rdata$r	ENDS
;	COMDAT ??_R4bad_alloc@std@@6B@
rdata$r	SEGMENT DWORD USE32 PUBLIC 'CONST'
rdata$r	ENDS
;	COMDAT ??_R1A@?0A@A@bad_exception@std@@8
rdata$r	SEGMENT DWORD USE32 PUBLIC 'CONST'
rdata$r	ENDS
;	COMDAT ??_R2underflow_error@std@@8
rdata$r	SEGMENT DWORD USE32 PUBLIC 'CONST'
rdata$r	ENDS
;	COMDAT ??_R0?AUctype_base@std@@@8
_DATA	SEGMENT DWORD USE32 PUBLIC 'DATA'
_DATA	ENDS
;	COMDAT ??_R4failure@ios_base@std@@6B@
rdata$r	SEGMENT DWORD USE32 PUBLIC 'CONST'
rdata$r	ENDS
;	COMDAT ??_R2?$ctype@D@std@@8
rdata$r	SEGMENT DWORD USE32 PUBLIC 'CONST'
rdata$r	ENDS
;	COMDAT ??_R4?$numpunct@_W@std@@6B@
rdata$r	SEGMENT DWORD USE32 PUBLIC 'CONST'
rdata$r	ENDS
;	COMDAT ??_R3range_error@std@@8
rdata$r	SEGMENT DWORD USE32 PUBLIC 'CONST'
rdata$r	ENDS
;	COMDAT ??_R3?$numpunct@D@std@@8
rdata$r	SEGMENT DWORD USE32 PUBLIC 'CONST'
rdata$r	ENDS
;	COMDAT ??_R0?AVfacet@locale@std@@@8
_DATA	SEGMENT DWORD USE32 PUBLIC 'DATA'
_DATA	ENDS
;	COMDAT ?binary@?$_Iosb@H@std@@2W4_Openmode@12@B
CONST	SEGMENT DWORD USE32 PUBLIC 'CONST'
CONST	ENDS
;	COMDAT ?_Hardfail@?$_Iosb@H@std@@2W4_Iostate@12@B
CONST	SEGMENT DWORD USE32 PUBLIC 'CONST'
CONST	ENDS
;	COMDAT ?eofbit@?$_Iosb@H@std@@2W4_Iostate@12@B
CONST	SEGMENT DWORD USE32 PUBLIC 'CONST'
CONST	ENDS
;	COMDAT ??_7invalid_argument@std@@6B@
CONST	SEGMENT DWORD USE32 PUBLIC 'CONST'
CONST	ENDS
;	COMDAT ?app@?$_Iosb@H@std@@2W4_Openmode@12@B
CONST	SEGMENT DWORD USE32 PUBLIC 'CONST'
CONST	ENDS
;	COMDAT ?uppercase@?$_Iosb@H@std@@2W4_Fmtflags@12@B
CONST	SEGMENT DWORD USE32 PUBLIC 'CONST'
CONST	ENDS
;	COMDAT ??_S?$numpunct@_W@std@@6B@
CONST	SEGMENT DWORD USE32 PUBLIC 'CONST'
CONST	ENDS
;	COMDAT ??_7out_of_range@std@@6B@
CONST	SEGMENT DWORD USE32 PUBLIC 'CONST'
CONST	ENDS
;	COMDAT ?trunc@?$_Iosb@H@std@@2W4_Openmode@12@B
CONST	SEGMENT DWORD USE32 PUBLIC 'CONST'
CONST	ENDS
;	COMDAT ??_S?$ctype@_W@std@@6B@
CONST	SEGMENT DWORD USE32 PUBLIC 'CONST'
CONST	ENDS
;	COMDAT ??_S?$numpunct@D@std@@6B@
CONST	SEGMENT DWORD USE32 PUBLIC 'CONST'
CONST	ENDS
;	COMDAT ?skipws@?$_Iosb@H@std@@2W4_Fmtflags@12@B
CONST	SEGMENT DWORD USE32 PUBLIC 'CONST'
CONST	ENDS
;	COMDAT ?basefield@?$_Iosb@H@std@@2W4_Fmtflags@12@B
CONST	SEGMENT DWORD USE32 PUBLIC 'CONST'
CONST	ENDS
;	COMDAT ??_7bad_alloc@std@@6B@
CONST	SEGMENT DWORD USE32 PUBLIC 'CONST'
CONST	ENDS
;	COMDAT ?_Stdio@?$_Iosb@H@std@@2W4_Fmtflags@12@B
CONST	SEGMENT DWORD USE32 PUBLIC 'CONST'
CONST	ENDS
;	COMDAT ?left@?$_Iosb@H@std@@2W4_Fmtflags@12@B
CONST	SEGMENT DWORD USE32 PUBLIC 'CONST'
CONST	ENDS
;	COMDAT ??_7runtime_error@std@@6B@
CONST	SEGMENT DWORD USE32 PUBLIC 'CONST'
CONST	ENDS
;	COMDAT ?showpos@?$_Iosb@H@std@@2W4_Fmtflags@12@B
CONST	SEGMENT DWORD USE32 PUBLIC 'CONST'
CONST	ENDS
;	COMDAT ?_Psave@?$_Facetptr@V?$ctype@D@std@@@std@@2PBVfacet@locale@2@B
_DATA	SEGMENT DWORD USE32 PUBLIC 'DATA'
_DATA	ENDS
;	COMDAT ?adjustfield@?$_Iosb@H@std@@2W4_Fmtflags@12@B
CONST	SEGMENT DWORD USE32 PUBLIC 'CONST'
CONST	ENDS
;	COMDAT ??_S?$ctype@D@std@@6B@
CONST	SEGMENT DWORD USE32 PUBLIC 'CONST'
CONST	ENDS
;	COMDAT ?badbit@?$_Iosb@H@std@@2W4_Iostate@12@B
CONST	SEGMENT DWORD USE32 PUBLIC 'CONST'
CONST	ENDS
;	COMDAT ?in@?$_Iosb@H@std@@2W4_Openmode@12@B
CONST	SEGMENT DWORD USE32 PUBLIC 'CONST'
CONST	ENDS
;	COMDAT ??_7underflow_error@std@@6B@
CONST	SEGMENT DWORD USE32 PUBLIC 'CONST'
CONST	ENDS
;	COMDAT ??_7overflow_error@std@@6B@
CONST	SEGMENT DWORD USE32 PUBLIC 'CONST'
CONST	ENDS
;	COMDAT ?_Psave@?$_Facetptr@V?$ctype@_W@std@@@std@@2PBVfacet@locale@2@B
_DATA	SEGMENT DWORD USE32 PUBLIC 'DATA'
_DATA	ENDS
;	COMDAT ?oct@?$_Iosb@H@std@@2W4_Fmtflags@12@B
CONST	SEGMENT DWORD USE32 PUBLIC 'CONST'
CONST	ENDS
;	COMDAT ?hex@?$_Iosb@H@std@@2W4_Fmtflags@12@B
CONST	SEGMENT DWORD USE32 PUBLIC 'CONST'
CONST	ENDS
;	COMDAT ?showbase@?$_Iosb@H@std@@2W4_Fmtflags@12@B
CONST	SEGMENT DWORD USE32 PUBLIC 'CONST'
CONST	ENDS
;	COMDAT ?showpoint@?$_Iosb@H@std@@2W4_Fmtflags@12@B
CONST	SEGMENT DWORD USE32 PUBLIC 'CONST'
CONST	ENDS
;	COMDAT ?collate@?$_Locbase@H@std@@2HB
CONST	SEGMENT DWORD USE32 PUBLIC 'CONST'
CONST	ENDS
;	COMDAT ??_7length_error@std@@6B@
CONST	SEGMENT DWORD USE32 PUBLIC 'CONST'
CONST	ENDS
;	COMDAT ?beg@?$_Iosb@H@std@@2W4_Seekdir@12@B
CONST	SEGMENT DWORD USE32 PUBLIC 'CONST'
CONST	ENDS
;	COMDAT ?failbit@?$_Iosb@H@std@@2W4_Iostate@12@B
CONST	SEGMENT DWORD USE32 PUBLIC 'CONST'
CONST	ENDS
;	COMDAT ?unitbuf@?$_Iosb@H@std@@2W4_Fmtflags@12@B
CONST	SEGMENT DWORD USE32 PUBLIC 'CONST'
CONST	ENDS
;	COMDAT ?right@?$_Iosb@H@std@@2W4_Fmtflags@12@B
CONST	SEGMENT DWORD USE32 PUBLIC 'CONST'
CONST	ENDS
;	COMDAT ?_Stz@?$fpos@H@std@@0HA
_BSS	SEGMENT DWORD USE32 PUBLIC 'BSS'
_BSS	ENDS
;	COMDAT ?ctype@?$_Locbase@H@std@@2HB
CONST	SEGMENT DWORD USE32 PUBLIC 'CONST'
CONST	ENDS
;	COMDAT ?out@?$_Iosb@H@std@@2W4_Openmode@12@B
CONST	SEGMENT DWORD USE32 PUBLIC 'CONST'
CONST	ENDS
;	COMDAT ?_Psave@?$_Facetptr@V?$numpunct@D@std@@@std@@2PBVfacet@locale@2@B
_DATA	SEGMENT DWORD USE32 PUBLIC 'DATA'
_DATA	ENDS
;	COMDAT ?internal@?$_Iosb@H@std@@2W4_Fmtflags@12@B
CONST	SEGMENT DWORD USE32 PUBLIC 'CONST'
CONST	ENDS
;	COMDAT ??_S?$codecvt@_WDH@std@@6B@
CONST	SEGMENT DWORD USE32 PUBLIC 'CONST'
CONST	ENDS
;	COMDAT ?goodbit@?$_Iosb@H@std@@2W4_Iostate@12@B
CONST	SEGMENT DWORD USE32 PUBLIC 'CONST'
CONST	ENDS
;	COMDAT ??_7bad_exception@std@@6B@
CONST	SEGMENT DWORD USE32 PUBLIC 'CONST'
CONST	ENDS
;	COMDAT ?boolalpha@?$_Iosb@H@std@@2W4_Fmtflags@12@B
CONST	SEGMENT DWORD USE32 PUBLIC 'CONST'
CONST	ENDS
;	COMDAT ?ate@?$_Iosb@H@std@@2W4_Openmode@12@B
CONST	SEGMENT DWORD USE32 PUBLIC 'CONST'
CONST	ENDS
;	COMDAT ?all@?$_Locbase@H@std@@2HB
CONST	SEGMENT DWORD USE32 PUBLIC 'CONST'
CONST	ENDS
;	COMDAT ?numeric@?$_Locbase@H@std@@2HB
CONST	SEGMENT DWORD USE32 PUBLIC 'CONST'
CONST	ENDS
;	COMDAT ?end@?$_Iosb@H@std@@2W4_Seekdir@12@B
CONST	SEGMENT DWORD USE32 PUBLIC 'CONST'
CONST	ENDS
;	COMDAT ?_Noreplace@?$_Iosb@H@std@@2W4_Openmode@12@B
CONST	SEGMENT DWORD USE32 PUBLIC 'CONST'
CONST	ENDS
;	COMDAT ??_7failure@ios_base@std@@6B@
CONST	SEGMENT DWORD USE32 PUBLIC 'CONST'
CONST	ENDS
;	COMDAT ?cur@?$_Iosb@H@std@@2W4_Seekdir@12@B
CONST	SEGMENT DWORD USE32 PUBLIC 'CONST'
CONST	ENDS
;	COMDAT ??_7range_error@std@@6B@
CONST	SEGMENT DWORD USE32 PUBLIC 'CONST'
CONST	ENDS
;	COMDAT ??_7logic_error@std@@6B@
CONST	SEGMENT DWORD USE32 PUBLIC 'CONST'
CONST	ENDS
;	COMDAT ?time@?$_Locbase@H@std@@2HB
CONST	SEGMENT DWORD USE32 PUBLIC 'CONST'
CONST	ENDS
;	COMDAT ?messages@?$_Locbase@H@std@@2HB
CONST	SEGMENT DWORD USE32 PUBLIC 'CONST'
CONST	ENDS
;	COMDAT ??_7domain_error@std@@6B@
CONST	SEGMENT DWORD USE32 PUBLIC 'CONST'
CONST	ENDS
;	COMDAT ?fixed@?$_Iosb@H@std@@2W4_Fmtflags@12@B
CONST	SEGMENT DWORD USE32 PUBLIC 'CONST'
CONST	ENDS
;	COMDAT ?none@?$_Locbase@H@std@@2HB
CONST	SEGMENT DWORD USE32 PUBLIC 'CONST'
CONST	ENDS
;	COMDAT ?floatfield@?$_Iosb@H@std@@2W4_Fmtflags@12@B
CONST	SEGMENT DWORD USE32 PUBLIC 'CONST'
CONST	ENDS
;	COMDAT ?_Nocreate@?$_Iosb@H@std@@2W4_Openmode@12@B
CONST	SEGMENT DWORD USE32 PUBLIC 'CONST'
CONST	ENDS
;	COMDAT ?scientific@?$_Iosb@H@std@@2W4_Fmtflags@12@B
CONST	SEGMENT DWORD USE32 PUBLIC 'CONST'
CONST	ENDS
;	COMDAT ?monetary@?$_Locbase@H@std@@2HB
CONST	SEGMENT DWORD USE32 PUBLIC 'CONST'
CONST	ENDS
;	COMDAT ?_Psave@?$_Facetptr@V?$numpunct@_W@std@@@std@@2PBVfacet@locale@2@B
_DATA	SEGMENT DWORD USE32 PUBLIC 'DATA'
_DATA	ENDS
;	COMDAT ?dec@?$_Iosb@H@std@@2W4_Fmtflags@12@B
CONST	SEGMENT DWORD USE32 PUBLIC 'CONST'
CONST	ENDS
;	COMDAT ??_R2invalid_argument@std@@8
rdata$r	SEGMENT DWORD USE32 PUBLIC 'CONST'
rdata$r	ENDS
;	COMDAT ??_R2?$codecvt@_WDH@std@@8
rdata$r	SEGMENT DWORD USE32 PUBLIC 'CONST'
rdata$r	ENDS
;	COMDAT ??_R1A@?0A@A@length_error@std@@8
rdata$r	SEGMENT DWORD USE32 PUBLIC 'CONST'
rdata$r	ENDS
;	COMDAT ??_R3?$numpunct@_W@std@@8
rdata$r	SEGMENT DWORD USE32 PUBLIC 'CONST'
rdata$r	ENDS
;	COMDAT ??_R4runtime_error@std@@6B@
rdata$r	SEGMENT DWORD USE32 PUBLIC 'CONST'
rdata$r	ENDS
;	COMDAT ??_R0?AVinvalid_argument@std@@@8
_DATA	SEGMENT DWORD USE32 PUBLIC 'DATA'
_DATA	ENDS
;	COMDAT ??_R1A@?0A@A@domain_error@std@@8
rdata$r	SEGMENT DWORD USE32 PUBLIC 'CONST'
rdata$r	ENDS
;	COMDAT ??_R0?AVoverflow_error@std@@@8
_DATA	SEGMENT DWORD USE32 PUBLIC 'DATA'
_DATA	ENDS
sxdata	SEGMENT DWORD USE32 'SXDATA'
sxdata	ENDS
FLAT	GROUP _DATA, CONST, _BSS
	ASSUME	CS: FLAT, DS: FLAT, SS: FLAT
endif

INCLUDELIB MSVCRT
INCLUDELIB OLDNAMES

PUBLIC	?collate@?$_Locbase@H@std@@2HB			; std::_Locbase<int>::collate
PUBLIC	?ctype@?$_Locbase@H@std@@2HB			; std::_Locbase<int>::ctype
PUBLIC	?monetary@?$_Locbase@H@std@@2HB			; std::_Locbase<int>::monetary
PUBLIC	?numeric@?$_Locbase@H@std@@2HB			; std::_Locbase<int>::numeric
PUBLIC	?time@?$_Locbase@H@std@@2HB			; std::_Locbase<int>::time
PUBLIC	?messages@?$_Locbase@H@std@@2HB			; std::_Locbase<int>::messages
PUBLIC	?all@?$_Locbase@H@std@@2HB			; std::_Locbase<int>::all
PUBLIC	?none@?$_Locbase@H@std@@2HB			; std::_Locbase<int>::none
PUBLIC	?skipws@?$_Iosb@H@std@@2W4_Fmtflags@12@B	; std::_Iosb<int>::skipws
PUBLIC	?unitbuf@?$_Iosb@H@std@@2W4_Fmtflags@12@B	; std::_Iosb<int>::unitbuf
PUBLIC	?uppercase@?$_Iosb@H@std@@2W4_Fmtflags@12@B	; std::_Iosb<int>::uppercase
PUBLIC	?showbase@?$_Iosb@H@std@@2W4_Fmtflags@12@B	; std::_Iosb<int>::showbase
PUBLIC	?showpoint@?$_Iosb@H@std@@2W4_Fmtflags@12@B	; std::_Iosb<int>::showpoint
PUBLIC	?showpos@?$_Iosb@H@std@@2W4_Fmtflags@12@B	; std::_Iosb<int>::showpos
PUBLIC	?left@?$_Iosb@H@std@@2W4_Fmtflags@12@B		; std::_Iosb<int>::left
PUBLIC	?right@?$_Iosb@H@std@@2W4_Fmtflags@12@B		; std::_Iosb<int>::right
PUBLIC	?internal@?$_Iosb@H@std@@2W4_Fmtflags@12@B	; std::_Iosb<int>::internal
PUBLIC	?dec@?$_Iosb@H@std@@2W4_Fmtflags@12@B		; std::_Iosb<int>::dec
PUBLIC	?oct@?$_Iosb@H@std@@2W4_Fmtflags@12@B		; std::_Iosb<int>::oct
PUBLIC	?hex@?$_Iosb@H@std@@2W4_Fmtflags@12@B		; std::_Iosb<int>::hex
PUBLIC	?scientific@?$_Iosb@H@std@@2W4_Fmtflags@12@B	; std::_Iosb<int>::scientific
PUBLIC	?fixed@?$_Iosb@H@std@@2W4_Fmtflags@12@B		; std::_Iosb<int>::fixed
PUBLIC	?boolalpha@?$_Iosb@H@std@@2W4_Fmtflags@12@B	; std::_Iosb<int>::boolalpha
PUBLIC	?_Stdio@?$_Iosb@H@std@@2W4_Fmtflags@12@B	; std::_Iosb<int>::_Stdio
PUBLIC	?adjustfield@?$_Iosb@H@std@@2W4_Fmtflags@12@B	; std::_Iosb<int>::adjustfield
PUBLIC	?basefield@?$_Iosb@H@std@@2W4_Fmtflags@12@B	; std::_Iosb<int>::basefield
PUBLIC	?floatfield@?$_Iosb@H@std@@2W4_Fmtflags@12@B	; std::_Iosb<int>::floatfield
PUBLIC	?goodbit@?$_Iosb@H@std@@2W4_Iostate@12@B	; std::_Iosb<int>::goodbit
PUBLIC	?eofbit@?$_Iosb@H@std@@2W4_Iostate@12@B		; std::_Iosb<int>::eofbit
PUBLIC	?failbit@?$_Iosb@H@std@@2W4_Iostate@12@B	; std::_Iosb<int>::failbit
PUBLIC	?badbit@?$_Iosb@H@std@@2W4_Iostate@12@B		; std::_Iosb<int>::badbit
PUBLIC	?_Hardfail@?$_Iosb@H@std@@2W4_Iostate@12@B	; std::_Iosb<int>::_Hardfail
PUBLIC	?in@?$_Iosb@H@std@@2W4_Openmode@12@B		; std::_Iosb<int>::in
PUBLIC	?out@?$_Iosb@H@std@@2W4_Openmode@12@B		; std::_Iosb<int>::out
PUBLIC	?ate@?$_Iosb@H@std@@2W4_Openmode@12@B		; std::_Iosb<int>::ate
PUBLIC	?app@?$_Iosb@H@std@@2W4_Openmode@12@B		; std::_Iosb<int>::app
PUBLIC	?trunc@?$_Iosb@H@std@@2W4_Openmode@12@B		; std::_Iosb<int>::trunc
PUBLIC	?_Nocreate@?$_Iosb@H@std@@2W4_Openmode@12@B	; std::_Iosb<int>::_Nocreate
PUBLIC	?_Noreplace@?$_Iosb@H@std@@2W4_Openmode@12@B	; std::_Iosb<int>::_Noreplace
PUBLIC	?binary@?$_Iosb@H@std@@2W4_Openmode@12@B	; std::_Iosb<int>::binary
PUBLIC	?beg@?$_Iosb@H@std@@2W4_Seekdir@12@B		; std::_Iosb<int>::beg
PUBLIC	?cur@?$_Iosb@H@std@@2W4_Seekdir@12@B		; std::_Iosb<int>::cur
PUBLIC	?end@?$_Iosb@H@std@@2W4_Seekdir@12@B		; std::_Iosb<int>::end
;	COMDAT ?collate@?$_Locbase@H@std@@2HB
CONST	SEGMENT
?collate@?$_Locbase@H@std@@2HB DD 01H			; std::_Locbase<int>::collate
CONST	ENDS
;	COMDAT ?ctype@?$_Locbase@H@std@@2HB
CONST	SEGMENT
?ctype@?$_Locbase@H@std@@2HB DD 02H			; std::_Locbase<int>::ctype
CONST	ENDS
;	COMDAT ?monetary@?$_Locbase@H@std@@2HB
CONST	SEGMENT
?monetary@?$_Locbase@H@std@@2HB DD 04H			; std::_Locbase<int>::monetary
CONST	ENDS
;	COMDAT ?numeric@?$_Locbase@H@std@@2HB
CONST	SEGMENT
?numeric@?$_Locbase@H@std@@2HB DD 08H			; std::_Locbase<int>::numeric
CONST	ENDS
;	COMDAT ?time@?$_Locbase@H@std@@2HB
CONST	SEGMENT
?time@?$_Locbase@H@std@@2HB DD 010H			; std::_Locbase<int>::time
CONST	ENDS
;	COMDAT ?messages@?$_Locbase@H@std@@2HB
CONST	SEGMENT
?messages@?$_Locbase@H@std@@2HB DD 020H			; std::_Locbase<int>::messages
CONST	ENDS
;	COMDAT ?all@?$_Locbase@H@std@@2HB
CONST	SEGMENT
?all@?$_Locbase@H@std@@2HB DD 03fH			; std::_Locbase<int>::all
CONST	ENDS
;	COMDAT ?none@?$_Locbase@H@std@@2HB
CONST	SEGMENT
?none@?$_Locbase@H@std@@2HB DD 00H			; std::_Locbase<int>::none
CONST	ENDS
;	COMDAT ?skipws@?$_Iosb@H@std@@2W4_Fmtflags@12@B
CONST	SEGMENT
?skipws@?$_Iosb@H@std@@2W4_Fmtflags@12@B DD 01H		; std::_Iosb<int>::skipws
CONST	ENDS
;	COMDAT ?unitbuf@?$_Iosb@H@std@@2W4_Fmtflags@12@B
CONST	SEGMENT
?unitbuf@?$_Iosb@H@std@@2W4_Fmtflags@12@B DD 02H	; std::_Iosb<int>::unitbuf
CONST	ENDS
;	COMDAT ?uppercase@?$_Iosb@H@std@@2W4_Fmtflags@12@B
CONST	SEGMENT
?uppercase@?$_Iosb@H@std@@2W4_Fmtflags@12@B DD 04H	; std::_Iosb<int>::uppercase
CONST	ENDS
;	COMDAT ?showbase@?$_Iosb@H@std@@2W4_Fmtflags@12@B
CONST	SEGMENT
?showbase@?$_Iosb@H@std@@2W4_Fmtflags@12@B DD 08H	; std::_Iosb<int>::showbase
CONST	ENDS
;	COMDAT ?showpoint@?$_Iosb@H@std@@2W4_Fmtflags@12@B
CONST	SEGMENT
?showpoint@?$_Iosb@H@std@@2W4_Fmtflags@12@B DD 010H	; std::_Iosb<int>::showpoint
CONST	ENDS
;	COMDAT ?showpos@?$_Iosb@H@std@@2W4_Fmtflags@12@B
CONST	SEGMENT
?showpos@?$_Iosb@H@std@@2W4_Fmtflags@12@B DD 020H	; std::_Iosb<int>::showpos
CONST	ENDS
;	COMDAT ?left@?$_Iosb@H@std@@2W4_Fmtflags@12@B
CONST	SEGMENT
?left@?$_Iosb@H@std@@2W4_Fmtflags@12@B DD 040H		; std::_Iosb<int>::left
CONST	ENDS
;	COMDAT ?right@?$_Iosb@H@std@@2W4_Fmtflags@12@B
CONST	SEGMENT
?right@?$_Iosb@H@std@@2W4_Fmtflags@12@B DD 080H		; std::_Iosb<int>::right
CONST	ENDS
;	COMDAT ?internal@?$_Iosb@H@std@@2W4_Fmtflags@12@B
CONST	SEGMENT
?internal@?$_Iosb@H@std@@2W4_Fmtflags@12@B DD 0100H	; std::_Iosb<int>::internal
CONST	ENDS
;	COMDAT ?dec@?$_Iosb@H@std@@2W4_Fmtflags@12@B
CONST	SEGMENT
?dec@?$_Iosb@H@std@@2W4_Fmtflags@12@B DD 0200H		; std::_Iosb<int>::dec
CONST	ENDS
;	COMDAT ?oct@?$_Iosb@H@std@@2W4_Fmtflags@12@B
CONST	SEGMENT
?oct@?$_Iosb@H@std@@2W4_Fmtflags@12@B DD 0400H		; std::_Iosb<int>::oct
CONST	ENDS
;	COMDAT ?hex@?$_Iosb@H@std@@2W4_Fmtflags@12@B
CONST	SEGMENT
?hex@?$_Iosb@H@std@@2W4_Fmtflags@12@B DD 0800H		; std::_Iosb<int>::hex
CONST	ENDS
;	COMDAT ?scientific@?$_Iosb@H@std@@2W4_Fmtflags@12@B
CONST	SEGMENT
?scientific@?$_Iosb@H@std@@2W4_Fmtflags@12@B DD 01000H	; std::_Iosb<int>::scientific
CONST	ENDS
;	COMDAT ?fixed@?$_Iosb@H@std@@2W4_Fmtflags@12@B
CONST	SEGMENT
?fixed@?$_Iosb@H@std@@2W4_Fmtflags@12@B DD 02000H	; std::_Iosb<int>::fixed
CONST	ENDS
;	COMDAT ?boolalpha@?$_Iosb@H@std@@2W4_Fmtflags@12@B
CONST	SEGMENT
?boolalpha@?$_Iosb@H@std@@2W4_Fmtflags@12@B DD 04000H	; std::_Iosb<int>::boolalpha
CONST	ENDS
;	COMDAT ?_Stdio@?$_Iosb@H@std@@2W4_Fmtflags@12@B
CONST	SEGMENT
?_Stdio@?$_Iosb@H@std@@2W4_Fmtflags@12@B DD 08000H	; std::_Iosb<int>::_Stdio
CONST	ENDS
;	COMDAT ?adjustfield@?$_Iosb@H@std@@2W4_Fmtflags@12@B
CONST	SEGMENT
?adjustfield@?$_Iosb@H@std@@2W4_Fmtflags@12@B DD 01c0H	; std::_Iosb<int>::adjustfield
CONST	ENDS
;	COMDAT ?basefield@?$_Iosb@H@std@@2W4_Fmtflags@12@B
CONST	SEGMENT
?basefield@?$_Iosb@H@std@@2W4_Fmtflags@12@B DD 0e00H	; std::_Iosb<int>::basefield
CONST	ENDS
;	COMDAT ?floatfield@?$_Iosb@H@std@@2W4_Fmtflags@12@B
CONST	SEGMENT
?floatfield@?$_Iosb@H@std@@2W4_Fmtflags@12@B DD 03000H	; std::_Iosb<int>::floatfield
CONST	ENDS
;	COMDAT ?goodbit@?$_Iosb@H@std@@2W4_Iostate@12@B
CONST	SEGMENT
?goodbit@?$_Iosb@H@std@@2W4_Iostate@12@B DD 00H		; std::_Iosb<int>::goodbit
CONST	ENDS
;	COMDAT ?eofbit@?$_Iosb@H@std@@2W4_Iostate@12@B
CONST	SEGMENT
?eofbit@?$_Iosb@H@std@@2W4_Iostate@12@B DD 01H		; std::_Iosb<int>::eofbit
CONST	ENDS
;	COMDAT ?failbit@?$_Iosb@H@std@@2W4_Iostate@12@B
CONST	SEGMENT
?failbit@?$_Iosb@H@std@@2W4_Iostate@12@B DD 02H		; std::_Iosb<int>::failbit
CONST	ENDS
;	COMDAT ?badbit@?$_Iosb@H@std@@2W4_Iostate@12@B
CONST	SEGMENT
?badbit@?$_Iosb@H@std@@2W4_Iostate@12@B DD 04H		; std::_Iosb<int>::badbit
CONST	ENDS
;	COMDAT ?_Hardfail@?$_Iosb@H@std@@2W4_Iostate@12@B
CONST	SEGMENT
?_Hardfail@?$_Iosb@H@std@@2W4_Iostate@12@B DD 010H	; std::_Iosb<int>::_Hardfail
CONST	ENDS
;	COMDAT ?in@?$_Iosb@H@std@@2W4_Openmode@12@B
CONST	SEGMENT
?in@?$_Iosb@H@std@@2W4_Openmode@12@B DD 01H		; std::_Iosb<int>::in
CONST	ENDS
;	COMDAT ?out@?$_Iosb@H@std@@2W4_Openmode@12@B
CONST	SEGMENT
?out@?$_Iosb@H@std@@2W4_Openmode@12@B DD 02H		; std::_Iosb<int>::out
CONST	ENDS
;	COMDAT ?ate@?$_Iosb@H@std@@2W4_Openmode@12@B
CONST	SEGMENT
?ate@?$_Iosb@H@std@@2W4_Openmode@12@B DD 04H		; std::_Iosb<int>::ate
CONST	ENDS
;	COMDAT ?app@?$_Iosb@H@std@@2W4_Openmode@12@B
CONST	SEGMENT
?app@?$_Iosb@H@std@@2W4_Openmode@12@B DD 08H		; std::_Iosb<int>::app
CONST	ENDS
;	COMDAT ?trunc@?$_Iosb@H@std@@2W4_Openmode@12@B
CONST	SEGMENT
?trunc@?$_Iosb@H@std@@2W4_Openmode@12@B DD 010H		; std::_Iosb<int>::trunc
CONST	ENDS
;	COMDAT ?_Nocreate@?$_Iosb@H@std@@2W4_Openmode@12@B
CONST	SEGMENT
?_Nocreate@?$_Iosb@H@std@@2W4_Openmode@12@B DD 040H	; std::_Iosb<int>::_Nocreate
CONST	ENDS
;	COMDAT ?_Noreplace@?$_Iosb@H@std@@2W4_Openmode@12@B
CONST	SEGMENT
?_Noreplace@?$_Iosb@H@std@@2W4_Openmode@12@B DD 080H	; std::_Iosb<int>::_Noreplace
CONST	ENDS
;	COMDAT ?binary@?$_Iosb@H@std@@2W4_Openmode@12@B
CONST	SEGMENT
?binary@?$_Iosb@H@std@@2W4_Openmode@12@B DD 020H	; std::_Iosb<int>::binary
CONST	ENDS
;	COMDAT ?beg@?$_Iosb@H@std@@2W4_Seekdir@12@B
CONST	SEGMENT
?beg@?$_Iosb@H@std@@2W4_Seekdir@12@B DD 00H		; std::_Iosb<int>::beg
CONST	ENDS
;	COMDAT ?cur@?$_Iosb@H@std@@2W4_Seekdir@12@B
CONST	SEGMENT
?cur@?$_Iosb@H@std@@2W4_Seekdir@12@B DD 01H		; std::_Iosb<int>::cur
CONST	ENDS
;	COMDAT ?end@?$_Iosb@H@std@@2W4_Seekdir@12@B
CONST	SEGMENT
?end@?$_Iosb@H@std@@2W4_Seekdir@12@B DD 02H		; std::_Iosb<int>::end
CONST	ENDS
CONST	SEGMENT
$SG64569 DB	'\', 00H
	ORG $+2
$SG64589 DB	'\', 00H
	ORG $+2
$SG64593 DB	'.', 00H
	ORG $+2
$SG64613 DB	'.', 00H
$SG64615 DB	00H
$SG64618 DB	00H
$SG64637 DB	'\', 00H
$SG64645 DB	00H
	ORG $+1
$SG64647 DB	'r', 00H
	ORG $+2
$SG64658 DB	'w', 00H
CONST	ENDS
PUBLIC	?IsValid@YL_FileInfo@@SA_NPBD@Z			; YL_FileInfo::IsValid
PUBLIC	?IsValid@YL_FileInfo@@SA_NABV?$basic_string@DU?$char_traits@D@std@@V?$allocator@D@2@@std@@@Z ; YL_FileInfo::IsValid
EXTRN	__imp_??0?$basic_string@DU?$char_traits@D@std@@V?$allocator@D@2@@std@@QAE@PBD@Z:NEAR
EXTRN	__imp_??1?$basic_string@DU?$char_traits@D@std@@V?$allocator@D@2@@std@@QAE@XZ:NEAR
EXTRN	__except_list:DWORD
EXTRN	___CxxFrameHandler:NEAR
xdata$x	SEGMENT
$T68570	DD	0ffffffffH
	DD	FLAT:$L68563
$T68567	DD	019930520H
	DD	01H
	DD	FLAT:$T68570
	DD	2 DUP(00H)
	DD	2 DUP(00H)
; Function compile flags: /Odt
; File d:\boxgit\playbox\commonlib\common\yl_fileinfo.cpp
xdata$x	ENDS
_TEXT	SEGMENT
tv73 = -52						; size = 4
tv74 = -48						; size = 4
$T68562 = -44						; size = 28
$T68561 = -13						; size = 1
__$EHRec$ = -12						; size = 12
_pszFilePath$ = 8					; size = 4
?IsValid@YL_FileInfo@@SA_NPBD@Z PROC NEAR		; YL_FileInfo::IsValid

; 10   : {

  00000	55		 push	 ebp
  00001	8b ec		 mov	 ebp, esp
  00003	6a ff		 push	 -1
  00005	68 00 00 00 00	 push	 __ehhandler$?IsValid@YL_FileInfo@@SA_NPBD@Z
  0000a	64 a1 00 00 00
	00		 mov	 eax, DWORD PTR fs:__except_list
  00010	50		 push	 eax
  00011	64 89 25 00 00
	00 00		 mov	 DWORD PTR fs:__except_list, esp
  00018	83 ec 28	 sub	 esp, 40			; 00000028H

; 11   : 	if( pszFilePath == NULL )

  0001b	83 7d 08 00	 cmp	 DWORD PTR _pszFilePath$[ebp], 0
  0001f	75 04		 jne	 SHORT $L64481

; 12   : 	{
; 13   : 		return false;

  00021	32 c0		 xor	 al, al
  00023	eb 3f		 jmp	 SHORT $L64480
$L64481:

; 14   : 	}
; 15   : 	return IsValid(string(pszFilePath));

  00025	8b 45 08	 mov	 eax, DWORD PTR _pszFilePath$[ebp]
  00028	50		 push	 eax
  00029	8d 4d d4	 lea	 ecx, DWORD PTR $T68562[ebp]
  0002c	ff 15 00 00 00
	00		 call	 DWORD PTR __imp_??0?$basic_string@DU?$char_traits@D@std@@V?$allocator@D@2@@std@@QAE@PBD@Z
  00032	89 45 d0	 mov	 DWORD PTR tv74[ebp], eax
  00035	8b 4d d0	 mov	 ecx, DWORD PTR tv74[ebp]
  00038	89 4d cc	 mov	 DWORD PTR tv73[ebp], ecx
  0003b	c7 45 fc 00 00
	00 00		 mov	 DWORD PTR __$EHRec$[ebp+8], 0
  00042	8b 55 cc	 mov	 edx, DWORD PTR tv73[ebp]
  00045	52		 push	 edx
  00046	e8 00 00 00 00	 call	 ?IsValid@YL_FileInfo@@SA_NABV?$basic_string@DU?$char_traits@D@std@@V?$allocator@D@2@@std@@@Z ; YL_FileInfo::IsValid
  0004b	83 c4 04	 add	 esp, 4
  0004e	88 45 f3	 mov	 BYTE PTR $T68561[ebp], al
  00051	c7 45 fc ff ff
	ff ff		 mov	 DWORD PTR __$EHRec$[ebp+8], -1
  00058	8d 4d d4	 lea	 ecx, DWORD PTR $T68562[ebp]
  0005b	ff 15 00 00 00
	00		 call	 DWORD PTR __imp_??1?$basic_string@DU?$char_traits@D@std@@V?$allocator@D@2@@std@@QAE@XZ
  00061	8a 45 f3	 mov	 al, BYTE PTR $T68561[ebp]
$L64480:

; 16   : }

  00064	8b 4d f4	 mov	 ecx, DWORD PTR __$EHRec$[ebp]
  00067	64 89 0d 00 00
	00 00		 mov	 DWORD PTR fs:__except_list, ecx
  0006e	8b e5		 mov	 esp, ebp
  00070	5d		 pop	 ebp
  00071	c3		 ret	 0
_TEXT	ENDS
text$x	SEGMENT
$L68563:
  00000	8d 4d d4	 lea	 ecx, DWORD PTR $T68562[ebp]
  00003	ff 25 00 00 00
	00		 jmp	 DWORD PTR __imp_??1?$basic_string@DU?$char_traits@D@std@@V?$allocator@D@2@@std@@QAE@XZ
__ehhandler$?IsValid@YL_FileInfo@@SA_NPBD@Z:
  00009	b8 00 00 00 00	 mov	 eax, OFFSET FLAT:$T68567
  0000e	e9 00 00 00 00	 jmp	 ___CxxFrameHandler
text$x	ENDS
?IsValid@YL_FileInfo@@SA_NPBD@Z ENDP			; YL_FileInfo::IsValid
EXTRN	__imp___stat64:NEAR
EXTRN	__imp_?c_str@?$basic_string@DU?$char_traits@D@std@@V?$allocator@D@2@@std@@QBEPBDXZ:NEAR
; Function compile flags: /Odt
_TEXT	SEGMENT
_m_buf$ = -56						; size = 56
_strFilePath$ = 8					; size = 4
?IsValid@YL_FileInfo@@SA_NABV?$basic_string@DU?$char_traits@D@std@@V?$allocator@D@2@@std@@@Z PROC NEAR ; YL_FileInfo::IsValid

; 19   : {

  00080	55		 push	 ebp
  00081	8b ec		 mov	 ebp, esp
  00083	83 ec 38	 sub	 esp, 56			; 00000038H

; 20   : 	struct __stat64 m_buf;
; 21   : 	return !_stat64( strFilePath.c_str(), &m_buf );

  00086	8d 45 c8	 lea	 eax, DWORD PTR _m_buf$[ebp]
  00089	50		 push	 eax
  0008a	8b 4d 08	 mov	 ecx, DWORD PTR _strFilePath$[ebp]
  0008d	ff 15 00 00 00
	00		 call	 DWORD PTR __imp_?c_str@?$basic_string@DU?$char_traits@D@std@@V?$allocator@D@2@@std@@QBEPBDXZ
  00093	50		 push	 eax
  00094	ff 15 00 00 00
	00		 call	 DWORD PTR __imp___stat64
  0009a	83 c4 08	 add	 esp, 8
  0009d	f7 d8		 neg	 eax
  0009f	1b c0		 sbb	 eax, eax
  000a1	40		 inc	 eax

; 22   : }

  000a2	8b e5		 mov	 esp, ebp
  000a4	5d		 pop	 ebp
  000a5	c3		 ret	 0
?IsValid@YL_FileInfo@@SA_NABV?$basic_string@DU?$char_traits@D@std@@V?$allocator@D@2@@std@@@Z ENDP ; YL_FileInfo::IsValid
_TEXT	ENDS
PUBLIC	?IsDirectory@YL_FileInfo@@SA_NPBD@Z		; YL_FileInfo::IsDirectory
PUBLIC	?IsDirectory@YL_FileInfo@@SA_NABV?$basic_string@DU?$char_traits@D@std@@V?$allocator@D@2@@std@@@Z ; YL_FileInfo::IsDirectory
xdata$x	SEGMENT
$T68580	DD	0ffffffffH
	DD	FLAT:$L68576
$T68578	DD	019930520H
	DD	01H
	DD	FLAT:$T68580
	DD	2 DUP(00H)
	DD	2 DUP(00H)
; Function compile flags: /Odt
xdata$x	ENDS
_TEXT	SEGMENT
tv73 = -52						; size = 4
tv74 = -48						; size = 4
$T68575 = -44						; size = 28
$T68574 = -13						; size = 1
__$EHRec$ = -12						; size = 12
_pszFilePath$ = 8					; size = 4
?IsDirectory@YL_FileInfo@@SA_NPBD@Z PROC NEAR		; YL_FileInfo::IsDirectory

; 25   : {

  000b0	55		 push	 ebp
  000b1	8b ec		 mov	 ebp, esp
  000b3	6a ff		 push	 -1
  000b5	68 00 00 00 00	 push	 __ehhandler$?IsDirectory@YL_FileInfo@@SA_NPBD@Z
  000ba	64 a1 00 00 00
	00		 mov	 eax, DWORD PTR fs:__except_list
  000c0	50		 push	 eax
  000c1	64 89 25 00 00
	00 00		 mov	 DWORD PTR fs:__except_list, esp
  000c8	83 ec 28	 sub	 esp, 40			; 00000028H

; 26   : 	if( pszFilePath == NULL )

  000cb	83 7d 08 00	 cmp	 DWORD PTR _pszFilePath$[ebp], 0
  000cf	75 04		 jne	 SHORT $L64491

; 27   : 	{
; 28   : 		return false;

  000d1	32 c0		 xor	 al, al
  000d3	eb 3f		 jmp	 SHORT $L64490
$L64491:

; 29   : 	}	
; 30   : 	return IsDirectory(string(pszFilePath));

  000d5	8b 45 08	 mov	 eax, DWORD PTR _pszFilePath$[ebp]
  000d8	50		 push	 eax
  000d9	8d 4d d4	 lea	 ecx, DWORD PTR $T68575[ebp]
  000dc	ff 15 00 00 00
	00		 call	 DWORD PTR __imp_??0?$basic_string@DU?$char_traits@D@std@@V?$allocator@D@2@@std@@QAE@PBD@Z
  000e2	89 45 d0	 mov	 DWORD PTR tv74[ebp], eax
  000e5	8b 4d d0	 mov	 ecx, DWORD PTR tv74[ebp]
  000e8	89 4d cc	 mov	 DWORD PTR tv73[ebp], ecx
  000eb	c7 45 fc 00 00
	00 00		 mov	 DWORD PTR __$EHRec$[ebp+8], 0
  000f2	8b 55 cc	 mov	 edx, DWORD PTR tv73[ebp]
  000f5	52		 push	 edx
  000f6	e8 00 00 00 00	 call	 ?IsDirectory@YL_FileInfo@@SA_NABV?$basic_string@DU?$char_traits@D@std@@V?$allocator@D@2@@std@@@Z ; YL_FileInfo::IsDirectory
  000fb	83 c4 04	 add	 esp, 4
  000fe	88 45 f3	 mov	 BYTE PTR $T68574[ebp], al
  00101	c7 45 fc ff ff
	ff ff		 mov	 DWORD PTR __$EHRec$[ebp+8], -1
  00108	8d 4d d4	 lea	 ecx, DWORD PTR $T68575[ebp]
  0010b	ff 15 00 00 00
	00		 call	 DWORD PTR __imp_??1?$basic_string@DU?$char_traits@D@std@@V?$allocator@D@2@@std@@QAE@XZ
  00111	8a 45 f3	 mov	 al, BYTE PTR $T68574[ebp]
$L64490:

; 31   : }

  00114	8b 4d f4	 mov	 ecx, DWORD PTR __$EHRec$[ebp]
  00117	64 89 0d 00 00
	00 00		 mov	 DWORD PTR fs:__except_list, ecx
  0011e	8b e5		 mov	 esp, ebp
  00120	5d		 pop	 ebp
  00121	c3		 ret	 0
_TEXT	ENDS
text$x	SEGMENT
$L68576:
  00013	8d 4d d4	 lea	 ecx, DWORD PTR $T68575[ebp]
  00016	ff 25 00 00 00
	00		 jmp	 DWORD PTR __imp_??1?$basic_string@DU?$char_traits@D@std@@V?$allocator@D@2@@std@@QAE@XZ
__ehhandler$?IsDirectory@YL_FileInfo@@SA_NPBD@Z:
  0001c	b8 00 00 00 00	 mov	 eax, OFFSET FLAT:$T68578
  00021	e9 00 00 00 00	 jmp	 ___CxxFrameHandler
text$x	ENDS
?IsDirectory@YL_FileInfo@@SA_NPBD@Z ENDP		; YL_FileInfo::IsDirectory
EXTRN	__imp__GetFileAttributesA@4:NEAR
; Function compile flags: /Odt
_TEXT	SEGMENT
tv71 = -8						; size = 4
_m_dwFileAttr$ = -4					; size = 4
_strFilePath$ = 8					; size = 4
?IsDirectory@YL_FileInfo@@SA_NABV?$basic_string@DU?$char_traits@D@std@@V?$allocator@D@2@@std@@@Z PROC NEAR ; YL_FileInfo::IsDirectory

; 34   : {

  00130	55		 push	 ebp
  00131	8b ec		 mov	 ebp, esp
  00133	83 ec 08	 sub	 esp, 8

; 35   : 	DWORD  m_dwFileAttr = ::GetFileAttributes( strFilePath.c_str() );

  00136	8b 4d 08	 mov	 ecx, DWORD PTR _strFilePath$[ebp]
  00139	ff 15 00 00 00
	00		 call	 DWORD PTR __imp_?c_str@?$basic_string@DU?$char_traits@D@std@@V?$allocator@D@2@@std@@QBEPBDXZ
  0013f	50		 push	 eax
  00140	ff 15 00 00 00
	00		 call	 DWORD PTR __imp__GetFileAttributesA@4
  00146	89 45 fc	 mov	 DWORD PTR _m_dwFileAttr$[ebp], eax

; 36   : 	return m_dwFileAttr != INVALID_FILE_ATTRIBUTES && (m_dwFileAttr & FILE_ATTRIBUTE_DIRECTORY) > 0 ;

  00149	83 7d fc ff	 cmp	 DWORD PTR _m_dwFileAttr$[ebp], -1
  0014d	74 11		 je	 SHORT $L68582
  0014f	8b 45 fc	 mov	 eax, DWORD PTR _m_dwFileAttr$[ebp]
  00152	83 e0 10	 and	 eax, 16			; 00000010H
  00155	76 09		 jbe	 SHORT $L68582
  00157	c7 45 f8 01 00
	00 00		 mov	 DWORD PTR tv71[ebp], 1
  0015e	eb 07		 jmp	 SHORT $L68583
$L68582:
  00160	c7 45 f8 00 00
	00 00		 mov	 DWORD PTR tv71[ebp], 0
$L68583:
  00167	8a 45 f8	 mov	 al, BYTE PTR tv71[ebp]

; 37   : }

  0016a	8b e5		 mov	 esp, ebp
  0016c	5d		 pop	 ebp
  0016d	c3		 ret	 0
?IsDirectory@YL_FileInfo@@SA_NABV?$basic_string@DU?$char_traits@D@std@@V?$allocator@D@2@@std@@@Z ENDP ; YL_FileInfo::IsDirectory
_TEXT	ENDS
PUBLIC	?IsAttrSystem@YL_FileInfo@@SA_NPBD@Z		; YL_FileInfo::IsAttrSystem
PUBLIC	?IsAttrSystem@YL_FileInfo@@SA_NABV?$basic_string@DU?$char_traits@D@std@@V?$allocator@D@2@@std@@@Z ; YL_FileInfo::IsAttrSystem
xdata$x	SEGMENT
$T68591	DD	0ffffffffH
	DD	FLAT:$L68587
$T68589	DD	019930520H
	DD	01H
	DD	FLAT:$T68591
	DD	2 DUP(00H)
	DD	2 DUP(00H)
; Function compile flags: /Odt
xdata$x	ENDS
_TEXT	SEGMENT
tv73 = -52						; size = 4
tv74 = -48						; size = 4
$T68586 = -44						; size = 28
$T68585 = -13						; size = 1
__$EHRec$ = -12						; size = 12
_pszFilePath$ = 8					; size = 4
?IsAttrSystem@YL_FileInfo@@SA_NPBD@Z PROC NEAR		; YL_FileInfo::IsAttrSystem

; 40   : {

  00170	55		 push	 ebp
  00171	8b ec		 mov	 ebp, esp
  00173	6a ff		 push	 -1
  00175	68 00 00 00 00	 push	 __ehhandler$?IsAttrSystem@YL_FileInfo@@SA_NPBD@Z
  0017a	64 a1 00 00 00
	00		 mov	 eax, DWORD PTR fs:__except_list
  00180	50		 push	 eax
  00181	64 89 25 00 00
	00 00		 mov	 DWORD PTR fs:__except_list, esp
  00188	83 ec 28	 sub	 esp, 40			; 00000028H

; 41   : 	if( pszFilePath == NULL )

  0018b	83 7d 08 00	 cmp	 DWORD PTR _pszFilePath$[ebp], 0
  0018f	75 04		 jne	 SHORT $L64502

; 42   : 	{
; 43   : 		return false;

  00191	32 c0		 xor	 al, al
  00193	eb 3f		 jmp	 SHORT $L64501
$L64502:

; 44   : 	}
; 45   : 	return IsAttrSystem(string(pszFilePath));

  00195	8b 45 08	 mov	 eax, DWORD PTR _pszFilePath$[ebp]
  00198	50		 push	 eax
  00199	8d 4d d4	 lea	 ecx, DWORD PTR $T68586[ebp]
  0019c	ff 15 00 00 00
	00		 call	 DWORD PTR __imp_??0?$basic_string@DU?$char_traits@D@std@@V?$allocator@D@2@@std@@QAE@PBD@Z
  001a2	89 45 d0	 mov	 DWORD PTR tv74[ebp], eax
  001a5	8b 4d d0	 mov	 ecx, DWORD PTR tv74[ebp]
  001a8	89 4d cc	 mov	 DWORD PTR tv73[ebp], ecx
  001ab	c7 45 fc 00 00
	00 00		 mov	 DWORD PTR __$EHRec$[ebp+8], 0
  001b2	8b 55 cc	 mov	 edx, DWORD PTR tv73[ebp]
  001b5	52		 push	 edx
  001b6	e8 00 00 00 00	 call	 ?IsAttrSystem@YL_FileInfo@@SA_NABV?$basic_string@DU?$char_traits@D@std@@V?$allocator@D@2@@std@@@Z ; YL_FileInfo::IsAttrSystem
  001bb	83 c4 04	 add	 esp, 4
  001be	88 45 f3	 mov	 BYTE PTR $T68585[ebp], al
  001c1	c7 45 fc ff ff
	ff ff		 mov	 DWORD PTR __$EHRec$[ebp+8], -1
  001c8	8d 4d d4	 lea	 ecx, DWORD PTR $T68586[ebp]
  001cb	ff 15 00 00 00
	00		 call	 DWORD PTR __imp_??1?$basic_string@DU?$char_traits@D@std@@V?$allocator@D@2@@std@@QAE@XZ
  001d1	8a 45 f3	 mov	 al, BYTE PTR $T68585[ebp]
$L64501:

; 46   : }

  001d4	8b 4d f4	 mov	 ecx, DWORD PTR __$EHRec$[ebp]
  001d7	64 89 0d 00 00
	00 00		 mov	 DWORD PTR fs:__except_list, ecx
  001de	8b e5		 mov	 esp, ebp
  001e0	5d		 pop	 ebp
  001e1	c3		 ret	 0
_TEXT	ENDS
text$x	SEGMENT
$L68587:
  00026	8d 4d d4	 lea	 ecx, DWORD PTR $T68586[ebp]
  00029	ff 25 00 00 00
	00		 jmp	 DWORD PTR __imp_??1?$basic_string@DU?$char_traits@D@std@@V?$allocator@D@2@@std@@QAE@XZ
__ehhandler$?IsAttrSystem@YL_FileInfo@@SA_NPBD@Z:
  0002f	b8 00 00 00 00	 mov	 eax, OFFSET FLAT:$T68589
  00034	e9 00 00 00 00	 jmp	 ___CxxFrameHandler
text$x	ENDS
?IsAttrSystem@YL_FileInfo@@SA_NPBD@Z ENDP		; YL_FileInfo::IsAttrSystem
; Function compile flags: /Odt
_TEXT	SEGMENT
tv71 = -8						; size = 4
_m_dwFileAttr$ = -4					; size = 4
_strFilePath$ = 8					; size = 4
?IsAttrSystem@YL_FileInfo@@SA_NABV?$basic_string@DU?$char_traits@D@std@@V?$allocator@D@2@@std@@@Z PROC NEAR ; YL_FileInfo::IsAttrSystem

; 49   : {	

  001f0	55		 push	 ebp
  001f1	8b ec		 mov	 ebp, esp
  001f3	83 ec 08	 sub	 esp, 8

; 50   : 	DWORD  m_dwFileAttr = ::GetFileAttributes( strFilePath.c_str() );

  001f6	8b 4d 08	 mov	 ecx, DWORD PTR _strFilePath$[ebp]
  001f9	ff 15 00 00 00
	00		 call	 DWORD PTR __imp_?c_str@?$basic_string@DU?$char_traits@D@std@@V?$allocator@D@2@@std@@QBEPBDXZ
  001ff	50		 push	 eax
  00200	ff 15 00 00 00
	00		 call	 DWORD PTR __imp__GetFileAttributesA@4
  00206	89 45 fc	 mov	 DWORD PTR _m_dwFileAttr$[ebp], eax

; 51   : 	return m_dwFileAttr != INVALID_FILE_ATTRIBUTES && (m_dwFileAttr & FILE_ATTRIBUTE_SYSTEM) > 0 ;

  00209	83 7d fc ff	 cmp	 DWORD PTR _m_dwFileAttr$[ebp], -1
  0020d	74 11		 je	 SHORT $L68593
  0020f	8b 45 fc	 mov	 eax, DWORD PTR _m_dwFileAttr$[ebp]
  00212	83 e0 04	 and	 eax, 4
  00215	76 09		 jbe	 SHORT $L68593
  00217	c7 45 f8 01 00
	00 00		 mov	 DWORD PTR tv71[ebp], 1
  0021e	eb 07		 jmp	 SHORT $L68594
$L68593:
  00220	c7 45 f8 00 00
	00 00		 mov	 DWORD PTR tv71[ebp], 0
$L68594:
  00227	8a 45 f8	 mov	 al, BYTE PTR tv71[ebp]

; 52   : }

  0022a	8b e5		 mov	 esp, ebp
  0022c	5d		 pop	 ebp
  0022d	c3		 ret	 0
?IsAttrSystem@YL_FileInfo@@SA_NABV?$basic_string@DU?$char_traits@D@std@@V?$allocator@D@2@@std@@@Z ENDP ; YL_FileInfo::IsAttrSystem
_TEXT	ENDS
PUBLIC	?IsAttrReadOnly@YL_FileInfo@@SA_NPBD@Z		; YL_FileInfo::IsAttrReadOnly
PUBLIC	?IsAttrReadOnly@YL_FileInfo@@SA_NABV?$basic_string@DU?$char_traits@D@std@@V?$allocator@D@2@@std@@@Z ; YL_FileInfo::IsAttrReadOnly
xdata$x	SEGMENT
$T68602	DD	0ffffffffH
	DD	FLAT:$L68598
$T68600	DD	019930520H
	DD	01H
	DD	FLAT:$T68602
	DD	2 DUP(00H)
	DD	2 DUP(00H)
; Function compile flags: /Odt
xdata$x	ENDS
_TEXT	SEGMENT
tv73 = -52						; size = 4
tv74 = -48						; size = 4
$T68597 = -44						; size = 28
$T68596 = -13						; size = 1
__$EHRec$ = -12						; size = 12
_pszFilePath$ = 8					; size = 4
?IsAttrReadOnly@YL_FileInfo@@SA_NPBD@Z PROC NEAR	; YL_FileInfo::IsAttrReadOnly

; 55   : {

  00230	55		 push	 ebp
  00231	8b ec		 mov	 ebp, esp
  00233	6a ff		 push	 -1
  00235	68 00 00 00 00	 push	 __ehhandler$?IsAttrReadOnly@YL_FileInfo@@SA_NPBD@Z
  0023a	64 a1 00 00 00
	00		 mov	 eax, DWORD PTR fs:__except_list
  00240	50		 push	 eax
  00241	64 89 25 00 00
	00 00		 mov	 DWORD PTR fs:__except_list, esp
  00248	83 ec 28	 sub	 esp, 40			; 00000028H

; 56   : 	if( pszFilePath == NULL )

  0024b	83 7d 08 00	 cmp	 DWORD PTR _pszFilePath$[ebp], 0
  0024f	75 04		 jne	 SHORT $L64513

; 57   : 	{
; 58   : 		return false;

  00251	32 c0		 xor	 al, al
  00253	eb 3f		 jmp	 SHORT $L64512
$L64513:

; 59   : 	}
; 60   : 	return IsAttrReadOnly(string(pszFilePath));

  00255	8b 45 08	 mov	 eax, DWORD PTR _pszFilePath$[ebp]
  00258	50		 push	 eax
  00259	8d 4d d4	 lea	 ecx, DWORD PTR $T68597[ebp]
  0025c	ff 15 00 00 00
	00		 call	 DWORD PTR __imp_??0?$basic_string@DU?$char_traits@D@std@@V?$allocator@D@2@@std@@QAE@PBD@Z
  00262	89 45 d0	 mov	 DWORD PTR tv74[ebp], eax
  00265	8b 4d d0	 mov	 ecx, DWORD PTR tv74[ebp]
  00268	89 4d cc	 mov	 DWORD PTR tv73[ebp], ecx
  0026b	c7 45 fc 00 00
	00 00		 mov	 DWORD PTR __$EHRec$[ebp+8], 0
  00272	8b 55 cc	 mov	 edx, DWORD PTR tv73[ebp]
  00275	52		 push	 edx
  00276	e8 00 00 00 00	 call	 ?IsAttrReadOnly@YL_FileInfo@@SA_NABV?$basic_string@DU?$char_traits@D@std@@V?$allocator@D@2@@std@@@Z ; YL_FileInfo::IsAttrReadOnly
  0027b	83 c4 04	 add	 esp, 4
  0027e	88 45 f3	 mov	 BYTE PTR $T68596[ebp], al
  00281	c7 45 fc ff ff
	ff ff		 mov	 DWORD PTR __$EHRec$[ebp+8], -1
  00288	8d 4d d4	 lea	 ecx, DWORD PTR $T68597[ebp]
  0028b	ff 15 00 00 00
	00		 call	 DWORD PTR __imp_??1?$basic_string@DU?$char_traits@D@std@@V?$allocator@D@2@@std@@QAE@XZ
  00291	8a 45 f3	 mov	 al, BYTE PTR $T68596[ebp]
$L64512:

; 61   : }

  00294	8b 4d f4	 mov	 ecx, DWORD PTR __$EHRec$[ebp]
  00297	64 89 0d 00 00
	00 00		 mov	 DWORD PTR fs:__except_list, ecx
  0029e	8b e5		 mov	 esp, ebp
  002a0	5d		 pop	 ebp
  002a1	c3		 ret	 0
_TEXT	ENDS
text$x	SEGMENT
$L68598:
  00039	8d 4d d4	 lea	 ecx, DWORD PTR $T68597[ebp]
  0003c	ff 25 00 00 00
	00		 jmp	 DWORD PTR __imp_??1?$basic_string@DU?$char_traits@D@std@@V?$allocator@D@2@@std@@QAE@XZ
__ehhandler$?IsAttrReadOnly@YL_FileInfo@@SA_NPBD@Z:
  00042	b8 00 00 00 00	 mov	 eax, OFFSET FLAT:$T68600
  00047	e9 00 00 00 00	 jmp	 ___CxxFrameHandler
text$x	ENDS
?IsAttrReadOnly@YL_FileInfo@@SA_NPBD@Z ENDP		; YL_FileInfo::IsAttrReadOnly
; Function compile flags: /Odt
_TEXT	SEGMENT
tv71 = -8						; size = 4
_m_dwFileAttr$ = -4					; size = 4
_strFilePath$ = 8					; size = 4
?IsAttrReadOnly@YL_FileInfo@@SA_NABV?$basic_string@DU?$char_traits@D@std@@V?$allocator@D@2@@std@@@Z PROC NEAR ; YL_FileInfo::IsAttrReadOnly

; 64   : {	

  002b0	55		 push	 ebp
  002b1	8b ec		 mov	 ebp, esp
  002b3	83 ec 08	 sub	 esp, 8

; 65   : 	DWORD  m_dwFileAttr = ::GetFileAttributes( strFilePath.c_str() );

  002b6	8b 4d 08	 mov	 ecx, DWORD PTR _strFilePath$[ebp]
  002b9	ff 15 00 00 00
	00		 call	 DWORD PTR __imp_?c_str@?$basic_string@DU?$char_traits@D@std@@V?$allocator@D@2@@std@@QBEPBDXZ
  002bf	50		 push	 eax
  002c0	ff 15 00 00 00
	00		 call	 DWORD PTR __imp__GetFileAttributesA@4
  002c6	89 45 fc	 mov	 DWORD PTR _m_dwFileAttr$[ebp], eax

; 66   : 	return m_dwFileAttr != INVALID_FILE_ATTRIBUTES && (m_dwFileAttr & FILE_ATTRIBUTE_READONLY) > 0 ;

  002c9	83 7d fc ff	 cmp	 DWORD PTR _m_dwFileAttr$[ebp], -1
  002cd	74 11		 je	 SHORT $L68604
  002cf	8b 45 fc	 mov	 eax, DWORD PTR _m_dwFileAttr$[ebp]
  002d2	83 e0 01	 and	 eax, 1
  002d5	76 09		 jbe	 SHORT $L68604
  002d7	c7 45 f8 01 00
	00 00		 mov	 DWORD PTR tv71[ebp], 1
  002de	eb 07		 jmp	 SHORT $L68605
$L68604:
  002e0	c7 45 f8 00 00
	00 00		 mov	 DWORD PTR tv71[ebp], 0
$L68605:
  002e7	8a 45 f8	 mov	 al, BYTE PTR tv71[ebp]

; 67   : }

  002ea	8b e5		 mov	 esp, ebp
  002ec	5d		 pop	 ebp
  002ed	c3		 ret	 0
?IsAttrReadOnly@YL_FileInfo@@SA_NABV?$basic_string@DU?$char_traits@D@std@@V?$allocator@D@2@@std@@@Z ENDP ; YL_FileInfo::IsAttrReadOnly
_TEXT	ENDS
PUBLIC	?IsAttrHidden@YL_FileInfo@@SA_NPBD@Z		; YL_FileInfo::IsAttrHidden
PUBLIC	?IsAttrHidden@YL_FileInfo@@SA_NABV?$basic_string@DU?$char_traits@D@std@@V?$allocator@D@2@@std@@@Z ; YL_FileInfo::IsAttrHidden
xdata$x	SEGMENT
$T68613	DD	0ffffffffH
	DD	FLAT:$L68609
$T68611	DD	019930520H
	DD	01H
	DD	FLAT:$T68613
	DD	2 DUP(00H)
	DD	2 DUP(00H)
; Function compile flags: /Odt
xdata$x	ENDS
_TEXT	SEGMENT
tv73 = -52						; size = 4
tv74 = -48						; size = 4
$T68608 = -44						; size = 28
$T68607 = -13						; size = 1
__$EHRec$ = -12						; size = 12
_pszFilePath$ = 8					; size = 4
?IsAttrHidden@YL_FileInfo@@SA_NPBD@Z PROC NEAR		; YL_FileInfo::IsAttrHidden

; 70   : {

  002f0	55		 push	 ebp
  002f1	8b ec		 mov	 ebp, esp
  002f3	6a ff		 push	 -1
  002f5	68 00 00 00 00	 push	 __ehhandler$?IsAttrHidden@YL_FileInfo@@SA_NPBD@Z
  002fa	64 a1 00 00 00
	00		 mov	 eax, DWORD PTR fs:__except_list
  00300	50		 push	 eax
  00301	64 89 25 00 00
	00 00		 mov	 DWORD PTR fs:__except_list, esp
  00308	83 ec 28	 sub	 esp, 40			; 00000028H

; 71   : 	if( pszFilePath == NULL )

  0030b	83 7d 08 00	 cmp	 DWORD PTR _pszFilePath$[ebp], 0
  0030f	75 04		 jne	 SHORT $L64524

; 72   : 	{
; 73   : 		return false;

  00311	32 c0		 xor	 al, al
  00313	eb 3f		 jmp	 SHORT $L64523
$L64524:

; 74   : 	}
; 75   : 	return IsAttrHidden(string(pszFilePath));

  00315	8b 45 08	 mov	 eax, DWORD PTR _pszFilePath$[ebp]
  00318	50		 push	 eax
  00319	8d 4d d4	 lea	 ecx, DWORD PTR $T68608[ebp]
  0031c	ff 15 00 00 00
	00		 call	 DWORD PTR __imp_??0?$basic_string@DU?$char_traits@D@std@@V?$allocator@D@2@@std@@QAE@PBD@Z
  00322	89 45 d0	 mov	 DWORD PTR tv74[ebp], eax
  00325	8b 4d d0	 mov	 ecx, DWORD PTR tv74[ebp]
  00328	89 4d cc	 mov	 DWORD PTR tv73[ebp], ecx
  0032b	c7 45 fc 00 00
	00 00		 mov	 DWORD PTR __$EHRec$[ebp+8], 0
  00332	8b 55 cc	 mov	 edx, DWORD PTR tv73[ebp]
  00335	52		 push	 edx
  00336	e8 00 00 00 00	 call	 ?IsAttrHidden@YL_FileInfo@@SA_NABV?$basic_string@DU?$char_traits@D@std@@V?$allocator@D@2@@std@@@Z ; YL_FileInfo::IsAttrHidden
  0033b	83 c4 04	 add	 esp, 4
  0033e	88 45 f3	 mov	 BYTE PTR $T68607[ebp], al
  00341	c7 45 fc ff ff
	ff ff		 mov	 DWORD PTR __$EHRec$[ebp+8], -1
  00348	8d 4d d4	 lea	 ecx, DWORD PTR $T68608[ebp]
  0034b	ff 15 00 00 00
	00		 call	 DWORD PTR __imp_??1?$basic_string@DU?$char_traits@D@std@@V?$allocator@D@2@@std@@QAE@XZ
  00351	8a 45 f3	 mov	 al, BYTE PTR $T68607[ebp]
$L64523:

; 76   : }

  00354	8b 4d f4	 mov	 ecx, DWORD PTR __$EHRec$[ebp]
  00357	64 89 0d 00 00
	00 00		 mov	 DWORD PTR fs:__except_list, ecx
  0035e	8b e5		 mov	 esp, ebp
  00360	5d		 pop	 ebp
  00361	c3		 ret	 0
_TEXT	ENDS
text$x	SEGMENT
$L68609:
  0004c	8d 4d d4	 lea	 ecx, DWORD PTR $T68608[ebp]
  0004f	ff 25 00 00 00
	00		 jmp	 DWORD PTR __imp_??1?$basic_string@DU?$char_traits@D@std@@V?$allocator@D@2@@std@@QAE@XZ
__ehhandler$?IsAttrHidden@YL_FileInfo@@SA_NPBD@Z:
  00055	b8 00 00 00 00	 mov	 eax, OFFSET FLAT:$T68611
  0005a	e9 00 00 00 00	 jmp	 ___CxxFrameHandler
text$x	ENDS
?IsAttrHidden@YL_FileInfo@@SA_NPBD@Z ENDP		; YL_FileInfo::IsAttrHidden
; Function compile flags: /Odt
_TEXT	SEGMENT
tv71 = -8						; size = 4
_m_dwFileAttr$ = -4					; size = 4
_strFilePath$ = 8					; size = 4
?IsAttrHidden@YL_FileInfo@@SA_NABV?$basic_string@DU?$char_traits@D@std@@V?$allocator@D@2@@std@@@Z PROC NEAR ; YL_FileInfo::IsAttrHidden

; 79   : {	

  00370	55		 push	 ebp
  00371	8b ec		 mov	 ebp, esp
  00373	83 ec 08	 sub	 esp, 8

; 80   : 	DWORD  m_dwFileAttr = ::GetFileAttributes( strFilePath.c_str() );

  00376	8b 4d 08	 mov	 ecx, DWORD PTR _strFilePath$[ebp]
  00379	ff 15 00 00 00
	00		 call	 DWORD PTR __imp_?c_str@?$basic_string@DU?$char_traits@D@std@@V?$allocator@D@2@@std@@QBEPBDXZ
  0037f	50		 push	 eax
  00380	ff 15 00 00 00
	00		 call	 DWORD PTR __imp__GetFileAttributesA@4
  00386	89 45 fc	 mov	 DWORD PTR _m_dwFileAttr$[ebp], eax

; 81   : 	return m_dwFileAttr != INVALID_FILE_ATTRIBUTES && (m_dwFileAttr & FILE_ATTRIBUTE_HIDDEN) > 0;

  00389	83 7d fc ff	 cmp	 DWORD PTR _m_dwFileAttr$[ebp], -1
  0038d	74 11		 je	 SHORT $L68615
  0038f	8b 45 fc	 mov	 eax, DWORD PTR _m_dwFileAttr$[ebp]
  00392	83 e0 02	 and	 eax, 2
  00395	76 09		 jbe	 SHORT $L68615
  00397	c7 45 f8 01 00
	00 00		 mov	 DWORD PTR tv71[ebp], 1
  0039e	eb 07		 jmp	 SHORT $L68616
$L68615:
  003a0	c7 45 f8 00 00
	00 00		 mov	 DWORD PTR tv71[ebp], 0
$L68616:
  003a7	8a 45 f8	 mov	 al, BYTE PTR tv71[ebp]

; 82   : }

  003aa	8b e5		 mov	 esp, ebp
  003ac	5d		 pop	 ebp
  003ad	c3		 ret	 0
?IsAttrHidden@YL_FileInfo@@SA_NABV?$basic_string@DU?$char_traits@D@std@@V?$allocator@D@2@@std@@@Z ENDP ; YL_FileInfo::IsAttrHidden
_TEXT	ENDS
PUBLIC	?GetFileSize@YL_FileInfo@@SA_NPBDPAI1@Z		; YL_FileInfo::GetFileSize
PUBLIC	?GetFileSize@YL_FileInfo@@SA_NABV?$basic_string@DU?$char_traits@D@std@@V?$allocator@D@2@@std@@PAI1@Z ; YL_FileInfo::GetFileSize
xdata$x	SEGMENT
$T68624	DD	0ffffffffH
	DD	FLAT:$L68620
$T68622	DD	019930520H
	DD	01H
	DD	FLAT:$T68624
	DD	2 DUP(00H)
	DD	2 DUP(00H)
; Function compile flags: /Odt
xdata$x	ENDS
_TEXT	SEGMENT
tv75 = -52						; size = 4
tv76 = -48						; size = 4
$T68619 = -44						; size = 28
$T68618 = -13						; size = 1
__$EHRec$ = -12						; size = 12
_pszFilePath$ = 8					; size = 4
_pUnLowSize$ = 12					; size = 4
_pUnHighSize$ = 16					; size = 4
?GetFileSize@YL_FileInfo@@SA_NPBDPAI1@Z PROC NEAR	; YL_FileInfo::GetFileSize

; 85   : {

  003b0	55		 push	 ebp
  003b1	8b ec		 mov	 ebp, esp
  003b3	6a ff		 push	 -1
  003b5	68 00 00 00 00	 push	 __ehhandler$?GetFileSize@YL_FileInfo@@SA_NPBDPAI1@Z
  003ba	64 a1 00 00 00
	00		 mov	 eax, DWORD PTR fs:__except_list
  003c0	50		 push	 eax
  003c1	64 89 25 00 00
	00 00		 mov	 DWORD PTR fs:__except_list, esp
  003c8	83 ec 28	 sub	 esp, 40			; 00000028H

; 86   : 	if( pszFilePath == NULL )

  003cb	83 7d 08 00	 cmp	 DWORD PTR _pszFilePath$[ebp], 0
  003cf	75 04		 jne	 SHORT $L64537

; 87   : 	{
; 88   : 		return false;

  003d1	32 c0		 xor	 al, al
  003d3	eb 47		 jmp	 SHORT $L64536
$L64537:

; 89   : 	}
; 90   : 	return GetFileSize(string(pszFilePath),pUnLowSize,pUnHighSize);

  003d5	8b 45 08	 mov	 eax, DWORD PTR _pszFilePath$[ebp]
  003d8	50		 push	 eax
  003d9	8d 4d d4	 lea	 ecx, DWORD PTR $T68619[ebp]
  003dc	ff 15 00 00 00
	00		 call	 DWORD PTR __imp_??0?$basic_string@DU?$char_traits@D@std@@V?$allocator@D@2@@std@@QAE@PBD@Z
  003e2	89 45 d0	 mov	 DWORD PTR tv76[ebp], eax
  003e5	8b 4d d0	 mov	 ecx, DWORD PTR tv76[ebp]
  003e8	89 4d cc	 mov	 DWORD PTR tv75[ebp], ecx
  003eb	c7 45 fc 00 00
	00 00		 mov	 DWORD PTR __$EHRec$[ebp+8], 0
  003f2	8b 55 10	 mov	 edx, DWORD PTR _pUnHighSize$[ebp]
  003f5	52		 push	 edx
  003f6	8b 45 0c	 mov	 eax, DWORD PTR _pUnLowSize$[ebp]
  003f9	50		 push	 eax
  003fa	8b 4d cc	 mov	 ecx, DWORD PTR tv75[ebp]
  003fd	51		 push	 ecx
  003fe	e8 00 00 00 00	 call	 ?GetFileSize@YL_FileInfo@@SA_NABV?$basic_string@DU?$char_traits@D@std@@V?$allocator@D@2@@std@@PAI1@Z ; YL_FileInfo::GetFileSize
  00403	83 c4 0c	 add	 esp, 12			; 0000000cH
  00406	88 45 f3	 mov	 BYTE PTR $T68618[ebp], al
  00409	c7 45 fc ff ff
	ff ff		 mov	 DWORD PTR __$EHRec$[ebp+8], -1
  00410	8d 4d d4	 lea	 ecx, DWORD PTR $T68619[ebp]
  00413	ff 15 00 00 00
	00		 call	 DWORD PTR __imp_??1?$basic_string@DU?$char_traits@D@std@@V?$allocator@D@2@@std@@QAE@XZ
  00419	8a 45 f3	 mov	 al, BYTE PTR $T68618[ebp]
$L64536:

; 91   : }

  0041c	8b 4d f4	 mov	 ecx, DWORD PTR __$EHRec$[ebp]
  0041f	64 89 0d 00 00
	00 00		 mov	 DWORD PTR fs:__except_list, ecx
  00426	8b e5		 mov	 esp, ebp
  00428	5d		 pop	 ebp
  00429	c3		 ret	 0
_TEXT	ENDS
text$x	SEGMENT
$L68620:
  0005f	8d 4d d4	 lea	 ecx, DWORD PTR $T68619[ebp]
  00062	ff 25 00 00 00
	00		 jmp	 DWORD PTR __imp_??1?$basic_string@DU?$char_traits@D@std@@V?$allocator@D@2@@std@@QAE@XZ
__ehhandler$?GetFileSize@YL_FileInfo@@SA_NPBDPAI1@Z:
  00068	b8 00 00 00 00	 mov	 eax, OFFSET FLAT:$T68622
  0006d	e9 00 00 00 00	 jmp	 ___CxxFrameHandler
text$x	ENDS
?GetFileSize@YL_FileInfo@@SA_NPBDPAI1@Z ENDP		; YL_FileInfo::GetFileSize
EXTRN	__allshr:NEAR
; Function compile flags: /Odt
_TEXT	SEGMENT
_bRet$64547 = -57					; size = 1
_m_buf$ = -56						; size = 56
_strFilePath$ = 8					; size = 4
_pUnLowSize$ = 12					; size = 4
_pUnHighSize$ = 16					; size = 4
?GetFileSize@YL_FileInfo@@SA_NABV?$basic_string@DU?$char_traits@D@std@@V?$allocator@D@2@@std@@PAI1@Z PROC NEAR ; YL_FileInfo::GetFileSize

; 94   : {

  00430	55		 push	 ebp
  00431	8b ec		 mov	 ebp, esp
  00433	83 ec 3c	 sub	 esp, 60			; 0000003cH

; 95   : 	if( pUnLowSize == NULL )

  00436	83 7d 0c 00	 cmp	 DWORD PTR _pUnLowSize$[ebp], 0
  0043a	75 04		 jne	 SHORT $L64545

; 96   : 	{
; 97   : 		return false;

  0043c	32 c0		 xor	 al, al
  0043e	eb 53		 jmp	 SHORT $L64544
$L64545:

; 98   : 	}
; 99   : 
; 100  : 	struct __stat64 m_buf;
; 101  : 	if( bool bRet = !_stat64( strFilePath.c_str(), &m_buf ) )

  00440	8d 45 c8	 lea	 eax, DWORD PTR _m_buf$[ebp]
  00443	50		 push	 eax
  00444	8b 4d 08	 mov	 ecx, DWORD PTR _strFilePath$[ebp]
  00447	ff 15 00 00 00
	00		 call	 DWORD PTR __imp_?c_str@?$basic_string@DU?$char_traits@D@std@@V?$allocator@D@2@@std@@QBEPBDXZ
  0044d	50		 push	 eax
  0044e	ff 15 00 00 00
	00		 call	 DWORD PTR __imp___stat64
  00454	83 c4 08	 add	 esp, 8
  00457	f7 d8		 neg	 eax
  00459	1b c0		 sbb	 eax, eax
  0045b	40		 inc	 eax
  0045c	88 45 c7	 mov	 BYTE PTR _bRet$64547[ebp], al
  0045f	0f b6 4d c7	 movzx	 ecx, BYTE PTR _bRet$64547[ebp]
  00463	85 c9		 test	 ecx, ecx
  00465	74 2a		 je	 SHORT $L64548

; 102  : 	{
; 103  : 		*pUnLowSize = (unsigned int )(m_buf.st_size & 0xffffffff);

  00467	8b 55 e0	 mov	 edx, DWORD PTR _m_buf$[ebp+24]
  0046a	8b 45 e4	 mov	 eax, DWORD PTR _m_buf$[ebp+28]
  0046d	83 e0 00	 and	 eax, 0
  00470	8b 4d 0c	 mov	 ecx, DWORD PTR _pUnLowSize$[ebp]
  00473	89 11		 mov	 DWORD PTR [ecx], edx

; 104  : 		if( pUnHighSize != NULL )

  00475	83 7d 10 00	 cmp	 DWORD PTR _pUnHighSize$[ebp], 0
  00479	74 12		 je	 SHORT $L64550

; 105  : 		{
; 106  : 			*pUnHighSize = (unsigned int)(m_buf.st_size >> 32);

  0047b	8b 45 e0	 mov	 eax, DWORD PTR _m_buf$[ebp+24]
  0047e	8b 55 e4	 mov	 edx, DWORD PTR _m_buf$[ebp+28]
  00481	b1 20		 mov	 cl, 32			; 00000020H
  00483	e8 00 00 00 00	 call	 __allshr
  00488	8b 55 10	 mov	 edx, DWORD PTR _pUnHighSize$[ebp]
  0048b	89 02		 mov	 DWORD PTR [edx], eax
$L64550:

; 107  : 		}
; 108  : 		return true;

  0048d	b0 01		 mov	 al, 1
  0048f	eb 02		 jmp	 SHORT $L64544
$L64548:

; 109  : 	}
; 110  : 	
; 111  : 	return false;

  00491	32 c0		 xor	 al, al
$L64544:

; 112  : }

  00493	8b e5		 mov	 esp, ebp
  00495	5d		 pop	 ebp
  00496	c3		 ret	 0
?GetFileSize@YL_FileInfo@@SA_NABV?$basic_string@DU?$char_traits@D@std@@V?$allocator@D@2@@std@@PAI1@Z ENDP ; YL_FileInfo::GetFileSize
_TEXT	ENDS
PUBLIC	?GetFileName@YL_FileInfo@@SA_NPBDQADI@Z		; YL_FileInfo::GetFileName
PUBLIC	?GetFileName@YL_FileInfo@@SA_NABV?$basic_string@DU?$char_traits@D@std@@V?$allocator@D@2@@std@@AAV23@@Z ; YL_FileInfo::GetFileName
EXTRN	__imp_?size@?$basic_string@DU?$char_traits@D@std@@V?$allocator@D@2@@std@@QBEIXZ:NEAR
EXTRN	___security_cookie:DWORD
EXTRN	@__security_check_cookie@4:NEAR
EXTRN	_strcpy:NEAR
EXTRN	__imp_??0?$basic_string@DU?$char_traits@D@std@@V?$allocator@D@2@@std@@QAE@XZ:NEAR
xdata$x	SEGMENT
$T68646	DD	0ffffffffH
	DD	FLAT:$L68635
	DD	00H
	DD	FLAT:$L68637
$T68641	DD	019930520H
	DD	02H
	DD	FLAT:$T68646
	DD	2 DUP(00H)
	DD	2 DUP(00H)
; Function compile flags: /Odt
xdata$x	ENDS
_TEXT	SEGMENT
tv81 = -96						; size = 4
tv94 = -92						; size = 4
tv66 = -88						; size = 4
$T68636 = -84						; size = 4
$T68634 = -78						; size = 1
$T68633 = -77						; size = 1
$T68630 = -76						; size = 28
$T68629 = -45						; size = 1
_strFileName$ = -44					; size = 28
__$ArrayPad$ = -16					; size = 4
__$EHRec$ = -12						; size = 12
__$ReturnAddr$ = 4					; size = 4
_pszFilePath$ = 8					; size = 4
_szBufferName$ = 12					; size = 4
_unBufferLen$ = 16					; size = 4
?GetFileName@YL_FileInfo@@SA_NPBDQADI@Z PROC NEAR	; YL_FileInfo::GetFileName

; 115  : {

  004a0	55		 push	 ebp
  004a1	8b ec		 mov	 ebp, esp
  004a3	6a ff		 push	 -1
  004a5	68 00 00 00 00	 push	 __ehhandler$?GetFileName@YL_FileInfo@@SA_NPBDQADI@Z
  004aa	64 a1 00 00 00
	00		 mov	 eax, DWORD PTR fs:__except_list
  004b0	50		 push	 eax
  004b1	64 89 25 00 00
	00 00		 mov	 DWORD PTR fs:__except_list, esp
  004b8	83 ec 54	 sub	 esp, 84			; 00000054H
  004bb	a1 00 00 00 00	 mov	 eax, DWORD PTR ___security_cookie
  004c0	89 45 f0	 mov	 DWORD PTR __$ArrayPad$[ebp], eax
  004c3	c7 45 ac 00 00
	00 00		 mov	 DWORD PTR $T68636[ebp], 0

; 116  : 	if( pszFilePath == NULL )

  004ca	83 7d 08 00	 cmp	 DWORD PTR _pszFilePath$[ebp], 0
  004ce	75 07		 jne	 SHORT $L64557

; 117  : 	{
; 118  : 		return false;

  004d0	32 c0		 xor	 al, al
  004d2	e9 d8 00 00 00	 jmp	 $L64556
$L64557:

; 119  : 	}
; 120  : 	string strFileName;

  004d7	8d 4d d4	 lea	 ecx, DWORD PTR _strFileName$[ebp]
  004da	ff 15 00 00 00
	00		 call	 DWORD PTR __imp_??0?$basic_string@DU?$char_traits@D@std@@V?$allocator@D@2@@std@@QAE@XZ
  004e0	c7 45 fc 00 00
	00 00		 mov	 DWORD PTR __$EHRec$[ebp+8], 0

; 121  : 	if( GetFileName( string(pszFilePath),strFileName) && strFileName.size() < unBufferLen )

  004e7	8b 45 08	 mov	 eax, DWORD PTR _pszFilePath$[ebp]
  004ea	50		 push	 eax
  004eb	8d 4d b4	 lea	 ecx, DWORD PTR $T68630[ebp]
  004ee	ff 15 00 00 00
	00		 call	 DWORD PTR __imp_??0?$basic_string@DU?$char_traits@D@std@@V?$allocator@D@2@@std@@QAE@PBD@Z
  004f4	89 45 a8	 mov	 DWORD PTR tv66[ebp], eax
  004f7	8b 4d a8	 mov	 ecx, DWORD PTR tv66[ebp]
  004fa	89 4d a4	 mov	 DWORD PTR tv94[ebp], ecx
  004fd	c6 45 fc 01	 mov	 BYTE PTR __$EHRec$[ebp+8], 1
  00501	8b 55 ac	 mov	 edx, DWORD PTR $T68636[ebp]
  00504	83 ca 01	 or	 edx, 1
  00507	89 55 ac	 mov	 DWORD PTR $T68636[ebp], edx
  0050a	8d 45 d4	 lea	 eax, DWORD PTR _strFileName$[ebp]
  0050d	50		 push	 eax
  0050e	8b 4d a4	 mov	 ecx, DWORD PTR tv94[ebp]
  00511	51		 push	 ecx
  00512	e8 00 00 00 00	 call	 ?GetFileName@YL_FileInfo@@SA_NABV?$basic_string@DU?$char_traits@D@std@@V?$allocator@D@2@@std@@AAV23@@Z ; YL_FileInfo::GetFileName
  00517	83 c4 08	 add	 esp, 8
  0051a	0f b6 d0	 movzx	 edx, al
  0051d	85 d2		 test	 edx, edx
  0051f	74 17		 je	 SHORT $L68631
  00521	8d 4d d4	 lea	 ecx, DWORD PTR _strFileName$[ebp]
  00524	ff 15 00 00 00
	00		 call	 DWORD PTR __imp_?size@?$basic_string@DU?$char_traits@D@std@@V?$allocator@D@2@@std@@QBEIXZ
  0052a	3b 45 10	 cmp	 eax, DWORD PTR _unBufferLen$[ebp]
  0052d	73 09		 jae	 SHORT $L68631
  0052f	c7 45 a0 01 00
	00 00		 mov	 DWORD PTR tv81[ebp], 1
  00536	eb 07		 jmp	 SHORT $L68632
$L68631:
  00538	c7 45 a0 00 00
	00 00		 mov	 DWORD PTR tv81[ebp], 0
$L68632:
  0053f	8a 45 a0	 mov	 al, BYTE PTR tv81[ebp]
  00542	88 45 d3	 mov	 BYTE PTR $T68629[ebp], al
  00545	c7 45 fc 00 00
	00 00		 mov	 DWORD PTR __$EHRec$[ebp+8], 0
  0054c	8b 4d ac	 mov	 ecx, DWORD PTR $T68636[ebp]
  0054f	83 e1 01	 and	 ecx, 1
  00552	74 0d		 je	 SHORT $L68639
  00554	83 65 ac fe	 and	 DWORD PTR $T68636[ebp], -2 ; fffffffeH
  00558	8d 4d b4	 lea	 ecx, DWORD PTR $T68630[ebp]
  0055b	ff 15 00 00 00
	00		 call	 DWORD PTR __imp_??1?$basic_string@DU?$char_traits@D@std@@V?$allocator@D@2@@std@@QAE@XZ
$L68639:
  00561	0f b6 55 d3	 movzx	 edx, BYTE PTR $T68629[ebp]
  00565	85 d2		 test	 edx, edx
  00567	74 2f		 je	 SHORT $L64560

; 122  : 	{
; 123  : 		strcpy( szBufferName,strFileName.c_str() );

  00569	8d 4d d4	 lea	 ecx, DWORD PTR _strFileName$[ebp]
  0056c	ff 15 00 00 00
	00		 call	 DWORD PTR __imp_?c_str@?$basic_string@DU?$char_traits@D@std@@V?$allocator@D@2@@std@@QBEPBDXZ
  00572	50		 push	 eax
  00573	8b 45 0c	 mov	 eax, DWORD PTR _szBufferName$[ebp]
  00576	50		 push	 eax
  00577	e8 00 00 00 00	 call	 _strcpy
  0057c	83 c4 08	 add	 esp, 8

; 124  : 		return true;

  0057f	c6 45 b3 01	 mov	 BYTE PTR $T68633[ebp], 1
  00583	c7 45 fc ff ff
	ff ff		 mov	 DWORD PTR __$EHRec$[ebp+8], -1
  0058a	8d 4d d4	 lea	 ecx, DWORD PTR _strFileName$[ebp]
  0058d	ff 15 00 00 00
	00		 call	 DWORD PTR __imp_??1?$basic_string@DU?$char_traits@D@std@@V?$allocator@D@2@@std@@QAE@XZ
  00593	8a 45 b3	 mov	 al, BYTE PTR $T68633[ebp]
  00596	eb 17		 jmp	 SHORT $L64556
$L64560:

; 125  : 	}
; 126  : 	return false;	

  00598	c6 45 b2 00	 mov	 BYTE PTR $T68634[ebp], 0
  0059c	c7 45 fc ff ff
	ff ff		 mov	 DWORD PTR __$EHRec$[ebp+8], -1
  005a3	8d 4d d4	 lea	 ecx, DWORD PTR _strFileName$[ebp]
  005a6	ff 15 00 00 00
	00		 call	 DWORD PTR __imp_??1?$basic_string@DU?$char_traits@D@std@@V?$allocator@D@2@@std@@QAE@XZ
  005ac	8a 45 b2	 mov	 al, BYTE PTR $T68634[ebp]
$L64556:

; 127  : }

  005af	8b 4d f4	 mov	 ecx, DWORD PTR __$EHRec$[ebp]
  005b2	64 89 0d 00 00
	00 00		 mov	 DWORD PTR fs:__except_list, ecx
  005b9	8b 4d f0	 mov	 ecx, DWORD PTR __$ArrayPad$[ebp]
  005bc	e8 00 00 00 00	 call	 @__security_check_cookie@4
  005c1	8b e5		 mov	 esp, ebp
  005c3	5d		 pop	 ebp
  005c4	c3		 ret	 0
_TEXT	ENDS
text$x	SEGMENT
$L68635:
  00072	8d 4d d4	 lea	 ecx, DWORD PTR _strFileName$[ebp]
  00075	ff 25 00 00 00
	00		 jmp	 DWORD PTR __imp_??1?$basic_string@DU?$char_traits@D@std@@V?$allocator@D@2@@std@@QAE@XZ
$L68637:
  0007b	8b 45 ac	 mov	 eax, DWORD PTR $T68636[ebp]
  0007e	83 e0 01	 and	 eax, 1
  00081	0f 84 0d 00 00
	00		 je	 $L68638
  00087	83 65 ac fe	 and	 DWORD PTR $T68636[ebp], -2 ; fffffffeH
  0008b	8d 4d b4	 lea	 ecx, DWORD PTR $T68630[ebp]
  0008e	ff 25 00 00 00
	00		 jmp	 DWORD PTR __imp_??1?$basic_string@DU?$char_traits@D@std@@V?$allocator@D@2@@std@@QAE@XZ
$L68638:
  00094	c3		 ret	 0
__ehhandler$?GetFileName@YL_FileInfo@@SA_NPBDQADI@Z:
  00095	b8 00 00 00 00	 mov	 eax, OFFSET FLAT:$T68641
  0009a	e9 00 00 00 00	 jmp	 ___CxxFrameHandler
text$x	ENDS
?GetFileName@YL_FileInfo@@SA_NPBDQADI@Z ENDP		; YL_FileInfo::GetFileName
EXTRN	__imp_?length@?$basic_string@DU?$char_traits@D@std@@V?$allocator@D@2@@std@@QBEIXZ:NEAR
EXTRN	__imp_?find_last_of@?$basic_string@DU?$char_traits@D@std@@V?$allocator@D@2@@std@@QBEIPBDI@Z:NEAR
EXTRN	__imp_?substr@?$basic_string@DU?$char_traits@D@std@@V?$allocator@D@2@@std@@QBE?AV12@II@Z:NEAR
EXTRN	__imp_?npos@?$basic_string@DU?$char_traits@D@std@@V?$allocator@D@2@@std@@2IB:DWORD
EXTRN	__imp_??4?$basic_string@DU?$char_traits@D@std@@V?$allocator@D@2@@std@@QAEAAV01@ABV01@@Z:NEAR
xdata$x	SEGMENT
$T68653	DD	0ffffffffH
	DD	FLAT:$L68649
$T68651	DD	019930520H
	DD	01H
	DD	FLAT:$T68653
	DD	2 DUP(00H)
	DD	2 DUP(00H)
; Function compile flags: /Odt
xdata$x	ENDS
_TEXT	SEGMENT
tv85 = -52						; size = 4
tv86 = -48						; size = 4
$T68648 = -44						; size = 28
_n$ = -16						; size = 4
__$EHRec$ = -12						; size = 12
_strFilePath$ = 8					; size = 4
_strFileName$ = 12					; size = 4
?GetFileName@YL_FileInfo@@SA_NABV?$basic_string@DU?$char_traits@D@std@@V?$allocator@D@2@@std@@AAV23@@Z PROC NEAR ; YL_FileInfo::GetFileName

; 130  : {

  005d0	55		 push	 ebp
  005d1	8b ec		 mov	 ebp, esp
  005d3	6a ff		 push	 -1
  005d5	68 00 00 00 00	 push	 __ehhandler$?GetFileName@YL_FileInfo@@SA_NABV?$basic_string@DU?$char_traits@D@std@@V?$allocator@D@2@@std@@AAV23@@Z
  005da	64 a1 00 00 00
	00		 mov	 eax, DWORD PTR fs:__except_list
  005e0	50		 push	 eax
  005e1	64 89 25 00 00
	00 00		 mov	 DWORD PTR fs:__except_list, esp
  005e8	83 ec 28	 sub	 esp, 40			; 00000028H

; 131  : 	size_t n = strFilePath.find_last_of("\\");

  005eb	a1 00 00 00 00	 mov	 eax, DWORD PTR __imp_?npos@?$basic_string@DU?$char_traits@D@std@@V?$allocator@D@2@@std@@2IB
  005f0	8b 08		 mov	 ecx, DWORD PTR [eax]
  005f2	51		 push	 ecx
  005f3	68 00 00 00 00	 push	 OFFSET FLAT:$SG64569
  005f8	8b 4d 08	 mov	 ecx, DWORD PTR _strFilePath$[ebp]
  005fb	ff 15 00 00 00
	00		 call	 DWORD PTR __imp_?find_last_of@?$basic_string@DU?$char_traits@D@std@@V?$allocator@D@2@@std@@QBEIPBDI@Z
  00601	89 45 f0	 mov	 DWORD PTR _n$[ebp], eax

; 132  : 	if( n == string::npos )

  00604	8b 15 00 00 00
	00		 mov	 edx, DWORD PTR __imp_?npos@?$basic_string@DU?$char_traits@D@std@@V?$allocator@D@2@@std@@2IB
  0060a	8b 45 f0	 mov	 eax, DWORD PTR _n$[ebp]
  0060d	3b 02		 cmp	 eax, DWORD PTR [edx]
  0060f	75 11		 jne	 SHORT $L64570

; 133  : 	{
; 134  : 		strFileName = strFilePath;

  00611	8b 4d 08	 mov	 ecx, DWORD PTR _strFilePath$[ebp]
  00614	51		 push	 ecx
  00615	8b 4d 0c	 mov	 ecx, DWORD PTR _strFileName$[ebp]
  00618	ff 15 00 00 00
	00		 call	 DWORD PTR __imp_??4?$basic_string@DU?$char_traits@D@std@@V?$allocator@D@2@@std@@QAEAAV01@ABV01@@Z

; 135  : 		return true;

  0061e	b0 01		 mov	 al, 1
  00620	eb 50		 jmp	 SHORT $L64567
$L64570:

; 136  : 	}
; 137  : 	strFileName = strFilePath.substr(n+1, strFilePath.length() - n);

  00622	8b 4d 08	 mov	 ecx, DWORD PTR _strFilePath$[ebp]
  00625	ff 15 00 00 00
	00		 call	 DWORD PTR __imp_?length@?$basic_string@DU?$char_traits@D@std@@V?$allocator@D@2@@std@@QBEIXZ
  0062b	2b 45 f0	 sub	 eax, DWORD PTR _n$[ebp]
  0062e	50		 push	 eax
  0062f	8b 55 f0	 mov	 edx, DWORD PTR _n$[ebp]
  00632	83 c2 01	 add	 edx, 1
  00635	52		 push	 edx
  00636	8d 45 d4	 lea	 eax, DWORD PTR $T68648[ebp]
  00639	50		 push	 eax
  0063a	8b 4d 08	 mov	 ecx, DWORD PTR _strFilePath$[ebp]
  0063d	ff 15 00 00 00
	00		 call	 DWORD PTR __imp_?substr@?$basic_string@DU?$char_traits@D@std@@V?$allocator@D@2@@std@@QBE?AV12@II@Z
  00643	89 45 d0	 mov	 DWORD PTR tv86[ebp], eax
  00646	8b 4d d0	 mov	 ecx, DWORD PTR tv86[ebp]
  00649	89 4d cc	 mov	 DWORD PTR tv85[ebp], ecx
  0064c	c7 45 fc 00 00
	00 00		 mov	 DWORD PTR __$EHRec$[ebp+8], 0
  00653	8b 55 cc	 mov	 edx, DWORD PTR tv85[ebp]
  00656	52		 push	 edx
  00657	8b 4d 0c	 mov	 ecx, DWORD PTR _strFileName$[ebp]
  0065a	ff 15 00 00 00
	00		 call	 DWORD PTR __imp_??4?$basic_string@DU?$char_traits@D@std@@V?$allocator@D@2@@std@@QAEAAV01@ABV01@@Z
  00660	c7 45 fc ff ff
	ff ff		 mov	 DWORD PTR __$EHRec$[ebp+8], -1
  00667	8d 4d d4	 lea	 ecx, DWORD PTR $T68648[ebp]
  0066a	ff 15 00 00 00
	00		 call	 DWORD PTR __imp_??1?$basic_string@DU?$char_traits@D@std@@V?$allocator@D@2@@std@@QAE@XZ

; 138  : 	return true;

  00670	b0 01		 mov	 al, 1
$L64567:

; 139  : }

  00672	8b 4d f4	 mov	 ecx, DWORD PTR __$EHRec$[ebp]
  00675	64 89 0d 00 00
	00 00		 mov	 DWORD PTR fs:__except_list, ecx
  0067c	8b e5		 mov	 esp, ebp
  0067e	5d		 pop	 ebp
  0067f	c3		 ret	 0
_TEXT	ENDS
text$x	SEGMENT
$L68649:
  0009f	8d 4d d4	 lea	 ecx, DWORD PTR $T68648[ebp]
  000a2	ff 25 00 00 00
	00		 jmp	 DWORD PTR __imp_??1?$basic_string@DU?$char_traits@D@std@@V?$allocator@D@2@@std@@QAE@XZ
__ehhandler$?GetFileName@YL_FileInfo@@SA_NABV?$basic_string@DU?$char_traits@D@std@@V?$allocator@D@2@@std@@AAV23@@Z:
  000a8	b8 00 00 00 00	 mov	 eax, OFFSET FLAT:$T68651
  000ad	e9 00 00 00 00	 jmp	 ___CxxFrameHandler
text$x	ENDS
?GetFileName@YL_FileInfo@@SA_NABV?$basic_string@DU?$char_traits@D@std@@V?$allocator@D@2@@std@@AAV23@@Z ENDP ; YL_FileInfo::GetFileName
PUBLIC	?GetFileNamePrefix@YL_FileInfo@@SA_NPBDQADI@Z	; YL_FileInfo::GetFileNamePrefix
PUBLIC	?GetFileNamePrefix@YL_FileInfo@@SA_NABV?$basic_string@DU?$char_traits@D@std@@V?$allocator@D@2@@std@@AAV23@@Z ; YL_FileInfo::GetFileNamePrefix
xdata$x	SEGMENT
$T68671	DD	0ffffffffH
	DD	FLAT:$L68662
	DD	00H
	DD	FLAT:$L68664
$T68668	DD	019930520H
	DD	02H
	DD	FLAT:$T68671
	DD	2 DUP(00H)
	DD	2 DUP(00H)
; Function compile flags: /Odt
xdata$x	ENDS
_TEXT	SEGMENT
tv81 = -96						; size = 4
tv94 = -92						; size = 4
tv66 = -88						; size = 4
$T68663 = -84						; size = 4
$T68661 = -78						; size = 1
$T68660 = -77						; size = 1
$T68657 = -76						; size = 28
$T68656 = -45						; size = 1
_strFileNamePrefix$ = -44				; size = 28
__$ArrayPad$ = -16					; size = 4
__$EHRec$ = -12						; size = 12
__$ReturnAddr$ = 4					; size = 4
_pszFilePath$ = 8					; size = 4
_szBufferName$ = 12					; size = 4
_unBufferLen$ = 16					; size = 4
?GetFileNamePrefix@YL_FileInfo@@SA_NPBDQADI@Z PROC NEAR	; YL_FileInfo::GetFileNamePrefix

; 143  : {

  00680	55		 push	 ebp
  00681	8b ec		 mov	 ebp, esp
  00683	6a ff		 push	 -1
  00685	68 00 00 00 00	 push	 __ehhandler$?GetFileNamePrefix@YL_FileInfo@@SA_NPBDQADI@Z
  0068a	64 a1 00 00 00
	00		 mov	 eax, DWORD PTR fs:__except_list
  00690	50		 push	 eax
  00691	64 89 25 00 00
	00 00		 mov	 DWORD PTR fs:__except_list, esp
  00698	83 ec 54	 sub	 esp, 84			; 00000054H
  0069b	a1 00 00 00 00	 mov	 eax, DWORD PTR ___security_cookie
  006a0	89 45 f0	 mov	 DWORD PTR __$ArrayPad$[ebp], eax
  006a3	c7 45 ac 00 00
	00 00		 mov	 DWORD PTR $T68663[ebp], 0

; 144  : 	if( pszFilePath == NULL )

  006aa	83 7d 08 00	 cmp	 DWORD PTR _pszFilePath$[ebp], 0
  006ae	75 07		 jne	 SHORT $L64577

; 145  : 	{
; 146  : 		return false;

  006b0	32 c0		 xor	 al, al
  006b2	e9 d8 00 00 00	 jmp	 $L64576
$L64577:

; 147  : 	}
; 148  : 	
; 149  : 	string strFileNamePrefix;

  006b7	8d 4d d4	 lea	 ecx, DWORD PTR _strFileNamePrefix$[ebp]
  006ba	ff 15 00 00 00
	00		 call	 DWORD PTR __imp_??0?$basic_string@DU?$char_traits@D@std@@V?$allocator@D@2@@std@@QAE@XZ
  006c0	c7 45 fc 00 00
	00 00		 mov	 DWORD PTR __$EHRec$[ebp+8], 0

; 150  : 	if( GetFileNamePrefix( string(pszFilePath),strFileNamePrefix) && strFileNamePrefix.size() < unBufferLen )

  006c7	8b 45 08	 mov	 eax, DWORD PTR _pszFilePath$[ebp]
  006ca	50		 push	 eax
  006cb	8d 4d b4	 lea	 ecx, DWORD PTR $T68657[ebp]
  006ce	ff 15 00 00 00
	00		 call	 DWORD PTR __imp_??0?$basic_string@DU?$char_traits@D@std@@V?$allocator@D@2@@std@@QAE@PBD@Z
  006d4	89 45 a8	 mov	 DWORD PTR tv66[ebp], eax
  006d7	8b 4d a8	 mov	 ecx, DWORD PTR tv66[ebp]
  006da	89 4d a4	 mov	 DWORD PTR tv94[ebp], ecx
  006dd	c6 45 fc 01	 mov	 BYTE PTR __$EHRec$[ebp+8], 1
  006e1	8b 55 ac	 mov	 edx, DWORD PTR $T68663[ebp]
  006e4	83 ca 01	 or	 edx, 1
  006e7	89 55 ac	 mov	 DWORD PTR $T68663[ebp], edx
  006ea	8d 45 d4	 lea	 eax, DWORD PTR _strFileNamePrefix$[ebp]
  006ed	50		 push	 eax
  006ee	8b 4d a4	 mov	 ecx, DWORD PTR tv94[ebp]
  006f1	51		 push	 ecx
  006f2	e8 00 00 00 00	 call	 ?GetFileNamePrefix@YL_FileInfo@@SA_NABV?$basic_string@DU?$char_traits@D@std@@V?$allocator@D@2@@std@@AAV23@@Z ; YL_FileInfo::GetFileNamePrefix
  006f7	83 c4 08	 add	 esp, 8
  006fa	0f b6 d0	 movzx	 edx, al
  006fd	85 d2		 test	 edx, edx
  006ff	74 17		 je	 SHORT $L68658
  00701	8d 4d d4	 lea	 ecx, DWORD PTR _strFileNamePrefix$[ebp]
  00704	ff 15 00 00 00
	00		 call	 DWORD PTR __imp_?size@?$basic_string@DU?$char_traits@D@std@@V?$allocator@D@2@@std@@QBEIXZ
  0070a	3b 45 10	 cmp	 eax, DWORD PTR _unBufferLen$[ebp]
  0070d	73 09		 jae	 SHORT $L68658
  0070f	c7 45 a0 01 00
	00 00		 mov	 DWORD PTR tv81[ebp], 1
  00716	eb 07		 jmp	 SHORT $L68659
$L68658:
  00718	c7 45 a0 00 00
	00 00		 mov	 DWORD PTR tv81[ebp], 0
$L68659:
  0071f	8a 45 a0	 mov	 al, BYTE PTR tv81[ebp]
  00722	88 45 d3	 mov	 BYTE PTR $T68656[ebp], al
  00725	c7 45 fc 00 00
	00 00		 mov	 DWORD PTR __$EHRec$[ebp+8], 0
  0072c	8b 4d ac	 mov	 ecx, DWORD PTR $T68663[ebp]
  0072f	83 e1 01	 and	 ecx, 1
  00732	74 0d		 je	 SHORT $L68666
  00734	83 65 ac fe	 and	 DWORD PTR $T68663[ebp], -2 ; fffffffeH
  00738	8d 4d b4	 lea	 ecx, DWORD PTR $T68657[ebp]
  0073b	ff 15 00 00 00
	00		 call	 DWORD PTR __imp_??1?$basic_string@DU?$char_traits@D@std@@V?$allocator@D@2@@std@@QAE@XZ
$L68666:
  00741	0f b6 55 d3	 movzx	 edx, BYTE PTR $T68656[ebp]
  00745	85 d2		 test	 edx, edx
  00747	74 2f		 je	 SHORT $L64580

; 151  : 	{
; 152  : 		strcpy( szBufferName,strFileNamePrefix.c_str() );

  00749	8d 4d d4	 lea	 ecx, DWORD PTR _strFileNamePrefix$[ebp]
  0074c	ff 15 00 00 00
	00		 call	 DWORD PTR __imp_?c_str@?$basic_string@DU?$char_traits@D@std@@V?$allocator@D@2@@std@@QBEPBDXZ
  00752	50		 push	 eax
  00753	8b 45 0c	 mov	 eax, DWORD PTR _szBufferName$[ebp]
  00756	50		 push	 eax
  00757	e8 00 00 00 00	 call	 _strcpy
  0075c	83 c4 08	 add	 esp, 8

; 153  : 		return true;

  0075f	c6 45 b3 01	 mov	 BYTE PTR $T68660[ebp], 1
  00763	c7 45 fc ff ff
	ff ff		 mov	 DWORD PTR __$EHRec$[ebp+8], -1
  0076a	8d 4d d4	 lea	 ecx, DWORD PTR _strFileNamePrefix$[ebp]
  0076d	ff 15 00 00 00
	00		 call	 DWORD PTR __imp_??1?$basic_string@DU?$char_traits@D@std@@V?$allocator@D@2@@std@@QAE@XZ
  00773	8a 45 b3	 mov	 al, BYTE PTR $T68660[ebp]
  00776	eb 17		 jmp	 SHORT $L64576
$L64580:

; 154  : 
; 155  : 	}
; 156  : 	return false;	

  00778	c6 45 b2 00	 mov	 BYTE PTR $T68661[ebp], 0
  0077c	c7 45 fc ff ff
	ff ff		 mov	 DWORD PTR __$EHRec$[ebp+8], -1
  00783	8d 4d d4	 lea	 ecx, DWORD PTR _strFileNamePrefix$[ebp]
  00786	ff 15 00 00 00
	00		 call	 DWORD PTR __imp_??1?$basic_string@DU?$char_traits@D@std@@V?$allocator@D@2@@std@@QAE@XZ
  0078c	8a 45 b2	 mov	 al, BYTE PTR $T68661[ebp]
$L64576:

; 157  : }

  0078f	8b 4d f4	 mov	 ecx, DWORD PTR __$EHRec$[ebp]
  00792	64 89 0d 00 00
	00 00		 mov	 DWORD PTR fs:__except_list, ecx
  00799	8b 4d f0	 mov	 ecx, DWORD PTR __$ArrayPad$[ebp]
  0079c	e8 00 00 00 00	 call	 @__security_check_cookie@4
  007a1	8b e5		 mov	 esp, ebp
  007a3	5d		 pop	 ebp
  007a4	c3		 ret	 0
_TEXT	ENDS
text$x	SEGMENT
$L68662:
  000b2	8d 4d d4	 lea	 ecx, DWORD PTR _strFileNamePrefix$[ebp]
  000b5	ff 25 00 00 00
	00		 jmp	 DWORD PTR __imp_??1?$basic_string@DU?$char_traits@D@std@@V?$allocator@D@2@@std@@QAE@XZ
$L68664:
  000bb	8b 45 ac	 mov	 eax, DWORD PTR $T68663[ebp]
  000be	83 e0 01	 and	 eax, 1
  000c1	0f 84 0d 00 00
	00		 je	 $L68665
  000c7	83 65 ac fe	 and	 DWORD PTR $T68663[ebp], -2 ; fffffffeH
  000cb	8d 4d b4	 lea	 ecx, DWORD PTR $T68657[ebp]
  000ce	ff 25 00 00 00
	00		 jmp	 DWORD PTR __imp_??1?$basic_string@DU?$char_traits@D@std@@V?$allocator@D@2@@std@@QAE@XZ
$L68665:
  000d4	c3		 ret	 0
__ehhandler$?GetFileNamePrefix@YL_FileInfo@@SA_NPBDQADI@Z:
  000d5	b8 00 00 00 00	 mov	 eax, OFFSET FLAT:$T68668
  000da	e9 00 00 00 00	 jmp	 ___CxxFrameHandler
text$x	ENDS
?GetFileNamePrefix@YL_FileInfo@@SA_NPBDQADI@Z ENDP	; YL_FileInfo::GetFileNamePrefix
xdata$x	SEGMENT
$T68678	DD	0ffffffffH
	DD	FLAT:$L68674
$T68676	DD	019930520H
	DD	01H
	DD	FLAT:$T68678
	DD	2 DUP(00H)
	DD	2 DUP(00H)
; Function compile flags: /Odt
xdata$x	ENDS
_TEXT	SEGMENT
tv88 = -56						; size = 4
tv89 = -52						; size = 4
$T68673 = -48						; size = 28
_n2$ = -20						; size = 4
_n$ = -16						; size = 4
__$EHRec$ = -12						; size = 12
_strFilePath$ = 8					; size = 4
_strFileName$ = 12					; size = 4
?GetFileNamePrefix@YL_FileInfo@@SA_NABV?$basic_string@DU?$char_traits@D@std@@V?$allocator@D@2@@std@@AAV23@@Z PROC NEAR ; YL_FileInfo::GetFileNamePrefix

; 160  : {

  007b0	55		 push	 ebp
  007b1	8b ec		 mov	 ebp, esp
  007b3	6a ff		 push	 -1
  007b5	68 00 00 00 00	 push	 __ehhandler$?GetFileNamePrefix@YL_FileInfo@@SA_NABV?$basic_string@DU?$char_traits@D@std@@V?$allocator@D@2@@std@@AAV23@@Z
  007ba	64 a1 00 00 00
	00		 mov	 eax, DWORD PTR fs:__except_list
  007c0	50		 push	 eax
  007c1	64 89 25 00 00
	00 00		 mov	 DWORD PTR fs:__except_list, esp
  007c8	83 ec 2c	 sub	 esp, 44			; 0000002cH

; 161  : 	size_t n = strFilePath.find_last_of("\\");

  007cb	a1 00 00 00 00	 mov	 eax, DWORD PTR __imp_?npos@?$basic_string@DU?$char_traits@D@std@@V?$allocator@D@2@@std@@2IB
  007d0	8b 08		 mov	 ecx, DWORD PTR [eax]
  007d2	51		 push	 ecx
  007d3	68 00 00 00 00	 push	 OFFSET FLAT:$SG64589
  007d8	8b 4d 08	 mov	 ecx, DWORD PTR _strFilePath$[ebp]
  007db	ff 15 00 00 00
	00		 call	 DWORD PTR __imp_?find_last_of@?$basic_string@DU?$char_traits@D@std@@V?$allocator@D@2@@std@@QBEIPBDI@Z
  007e1	89 45 f0	 mov	 DWORD PTR _n$[ebp], eax

; 162  : 	if( n == string::npos )

  007e4	8b 15 00 00 00
	00		 mov	 edx, DWORD PTR __imp_?npos@?$basic_string@DU?$char_traits@D@std@@V?$allocator@D@2@@std@@2IB
  007ea	8b 45 f0	 mov	 eax, DWORD PTR _n$[ebp]
  007ed	3b 02		 cmp	 eax, DWORD PTR [edx]
  007ef	75 09		 jne	 SHORT $L64590

; 163  : 	{
; 164  : 		n = 0;

  007f1	c7 45 f0 00 00
	00 00		 mov	 DWORD PTR _n$[ebp], 0

; 165  : 	}
; 166  : 	else

  007f8	eb 09		 jmp	 SHORT $L64591
$L64590:

; 167  : 	{
; 168  : 		n++;

  007fa	8b 4d f0	 mov	 ecx, DWORD PTR _n$[ebp]
  007fd	83 c1 01	 add	 ecx, 1
  00800	89 4d f0	 mov	 DWORD PTR _n$[ebp], ecx
$L64591:

; 169  : 	}
; 170  : 
; 171  : 	size_t n2 = strFilePath.find_last_of(".");

  00803	8b 15 00 00 00
	00		 mov	 edx, DWORD PTR __imp_?npos@?$basic_string@DU?$char_traits@D@std@@V?$allocator@D@2@@std@@2IB
  00809	8b 02		 mov	 eax, DWORD PTR [edx]
  0080b	50		 push	 eax
  0080c	68 00 00 00 00	 push	 OFFSET FLAT:$SG64593
  00811	8b 4d 08	 mov	 ecx, DWORD PTR _strFilePath$[ebp]
  00814	ff 15 00 00 00
	00		 call	 DWORD PTR __imp_?find_last_of@?$basic_string@DU?$char_traits@D@std@@V?$allocator@D@2@@std@@QBEIPBDI@Z
  0081a	89 45 ec	 mov	 DWORD PTR _n2$[ebp], eax

; 172  : 	if( n2 == string::npos )

  0081d	8b 0d 00 00 00
	00		 mov	 ecx, DWORD PTR __imp_?npos@?$basic_string@DU?$char_traits@D@std@@V?$allocator@D@2@@std@@2IB
  00823	8b 55 ec	 mov	 edx, DWORD PTR _n2$[ebp]
  00826	3b 11		 cmp	 edx, DWORD PTR [ecx]
  00828	75 0c		 jne	 SHORT $L64594

; 173  : 	{
; 174  : 		n2 = strFilePath.size() ;

  0082a	8b 4d 08	 mov	 ecx, DWORD PTR _strFilePath$[ebp]
  0082d	ff 15 00 00 00
	00		 call	 DWORD PTR __imp_?size@?$basic_string@DU?$char_traits@D@std@@V?$allocator@D@2@@std@@QBEIXZ
  00833	89 45 ec	 mov	 DWORD PTR _n2$[ebp], eax
$L64594:

; 175  : 	}
; 176  : 
; 177  : 	strFileName = strFilePath.substr(n, n2 - n);

  00836	8b 45 ec	 mov	 eax, DWORD PTR _n2$[ebp]
  00839	2b 45 f0	 sub	 eax, DWORD PTR _n$[ebp]
  0083c	50		 push	 eax
  0083d	8b 4d f0	 mov	 ecx, DWORD PTR _n$[ebp]
  00840	51		 push	 ecx
  00841	8d 55 d0	 lea	 edx, DWORD PTR $T68673[ebp]
  00844	52		 push	 edx
  00845	8b 4d 08	 mov	 ecx, DWORD PTR _strFilePath$[ebp]
  00848	ff 15 00 00 00
	00		 call	 DWORD PTR __imp_?substr@?$basic_string@DU?$char_traits@D@std@@V?$allocator@D@2@@std@@QBE?AV12@II@Z
  0084e	89 45 cc	 mov	 DWORD PTR tv89[ebp], eax
  00851	8b 45 cc	 mov	 eax, DWORD PTR tv89[ebp]
  00854	89 45 c8	 mov	 DWORD PTR tv88[ebp], eax
  00857	c7 45 fc 00 00
	00 00		 mov	 DWORD PTR __$EHRec$[ebp+8], 0
  0085e	8b 4d c8	 mov	 ecx, DWORD PTR tv88[ebp]
  00861	51		 push	 ecx
  00862	8b 4d 0c	 mov	 ecx, DWORD PTR _strFileName$[ebp]
  00865	ff 15 00 00 00
	00		 call	 DWORD PTR __imp_??4?$basic_string@DU?$char_traits@D@std@@V?$allocator@D@2@@std@@QAEAAV01@ABV01@@Z
  0086b	c7 45 fc ff ff
	ff ff		 mov	 DWORD PTR __$EHRec$[ebp+8], -1
  00872	8d 4d d0	 lea	 ecx, DWORD PTR $T68673[ebp]
  00875	ff 15 00 00 00
	00		 call	 DWORD PTR __imp_??1?$basic_string@DU?$char_traits@D@std@@V?$allocator@D@2@@std@@QAE@XZ

; 178  : 	return true;

  0087b	b0 01		 mov	 al, 1

; 179  : }

  0087d	8b 4d f4	 mov	 ecx, DWORD PTR __$EHRec$[ebp]
  00880	64 89 0d 00 00
	00 00		 mov	 DWORD PTR fs:__except_list, ecx
  00887	8b e5		 mov	 esp, ebp
  00889	5d		 pop	 ebp
  0088a	c3		 ret	 0
_TEXT	ENDS
text$x	SEGMENT
$L68674:
  000df	8d 4d d0	 lea	 ecx, DWORD PTR $T68673[ebp]
  000e2	ff 25 00 00 00
	00		 jmp	 DWORD PTR __imp_??1?$basic_string@DU?$char_traits@D@std@@V?$allocator@D@2@@std@@QAE@XZ
__ehhandler$?GetFileNamePrefix@YL_FileInfo@@SA_NABV?$basic_string@DU?$char_traits@D@std@@V?$allocator@D@2@@std@@AAV23@@Z:
  000e8	b8 00 00 00 00	 mov	 eax, OFFSET FLAT:$T68676
  000ed	e9 00 00 00 00	 jmp	 ___CxxFrameHandler
text$x	ENDS
?GetFileNamePrefix@YL_FileInfo@@SA_NABV?$basic_string@DU?$char_traits@D@std@@V?$allocator@D@2@@std@@AAV23@@Z ENDP ; YL_FileInfo::GetFileNamePrefix
PUBLIC	?GetFileNameSuffix@YL_FileInfo@@SA_NPBDQADI@Z	; YL_FileInfo::GetFileNameSuffix
PUBLIC	?GetFileNameSuffix@YL_FileInfo@@SA_NABV?$basic_string@DU?$char_traits@D@std@@V?$allocator@D@2@@std@@AAV23@@Z ; YL_FileInfo::GetFileNameSuffix
xdata$x	SEGMENT
$T68696	DD	0ffffffffH
	DD	FLAT:$L68687
	DD	00H
	DD	FLAT:$L68689
$T68693	DD	019930520H
	DD	02H
	DD	FLAT:$T68696
	DD	2 DUP(00H)
	DD	2 DUP(00H)
; Function compile flags: /Odt
xdata$x	ENDS
_TEXT	SEGMENT
tv81 = -96						; size = 4
tv94 = -92						; size = 4
tv66 = -88						; size = 4
$T68688 = -84						; size = 4
$T68686 = -78						; size = 1
$T68685 = -77						; size = 1
$T68682 = -76						; size = 28
$T68681 = -45						; size = 1
_strFileNameSuffix$ = -44				; size = 28
__$ArrayPad$ = -16					; size = 4
__$EHRec$ = -12						; size = 12
__$ReturnAddr$ = 4					; size = 4
_pszFilePath$ = 8					; size = 4
_szBufferName$ = 12					; size = 4
_unBufferLen$ = 16					; size = 4
?GetFileNameSuffix@YL_FileInfo@@SA_NPBDQADI@Z PROC NEAR	; YL_FileInfo::GetFileNameSuffix

; 182  : {

  00890	55		 push	 ebp
  00891	8b ec		 mov	 ebp, esp
  00893	6a ff		 push	 -1
  00895	68 00 00 00 00	 push	 __ehhandler$?GetFileNameSuffix@YL_FileInfo@@SA_NPBDQADI@Z
  0089a	64 a1 00 00 00
	00		 mov	 eax, DWORD PTR fs:__except_list
  008a0	50		 push	 eax
  008a1	64 89 25 00 00
	00 00		 mov	 DWORD PTR fs:__except_list, esp
  008a8	83 ec 54	 sub	 esp, 84			; 00000054H
  008ab	a1 00 00 00 00	 mov	 eax, DWORD PTR ___security_cookie
  008b0	89 45 f0	 mov	 DWORD PTR __$ArrayPad$[ebp], eax
  008b3	c7 45 ac 00 00
	00 00		 mov	 DWORD PTR $T68688[ebp], 0

; 183  : 	if( pszFilePath == NULL )

  008ba	83 7d 08 00	 cmp	 DWORD PTR _pszFilePath$[ebp], 0
  008be	75 07		 jne	 SHORT $L64601

; 184  : 	{
; 185  : 		return false;

  008c0	32 c0		 xor	 al, al
  008c2	e9 d8 00 00 00	 jmp	 $L64600
$L64601:

; 186  : 	}
; 187  : 
; 188  : 	string strFileNameSuffix;

  008c7	8d 4d d4	 lea	 ecx, DWORD PTR _strFileNameSuffix$[ebp]
  008ca	ff 15 00 00 00
	00		 call	 DWORD PTR __imp_??0?$basic_string@DU?$char_traits@D@std@@V?$allocator@D@2@@std@@QAE@XZ
  008d0	c7 45 fc 00 00
	00 00		 mov	 DWORD PTR __$EHRec$[ebp+8], 0

; 189  : 	if( GetFileNameSuffix( string(pszFilePath),strFileNameSuffix) && strFileNameSuffix.size() < unBufferLen )

  008d7	8b 45 08	 mov	 eax, DWORD PTR _pszFilePath$[ebp]
  008da	50		 push	 eax
  008db	8d 4d b4	 lea	 ecx, DWORD PTR $T68682[ebp]
  008de	ff 15 00 00 00
	00		 call	 DWORD PTR __imp_??0?$basic_string@DU?$char_traits@D@std@@V?$allocator@D@2@@std@@QAE@PBD@Z
  008e4	89 45 a8	 mov	 DWORD PTR tv66[ebp], eax
  008e7	8b 4d a8	 mov	 ecx, DWORD PTR tv66[ebp]
  008ea	89 4d a4	 mov	 DWORD PTR tv94[ebp], ecx
  008ed	c6 45 fc 01	 mov	 BYTE PTR __$EHRec$[ebp+8], 1
  008f1	8b 55 ac	 mov	 edx, DWORD PTR $T68688[ebp]
  008f4	83 ca 01	 or	 edx, 1
  008f7	89 55 ac	 mov	 DWORD PTR $T68688[ebp], edx
  008fa	8d 45 d4	 lea	 eax, DWORD PTR _strFileNameSuffix$[ebp]
  008fd	50		 push	 eax
  008fe	8b 4d a4	 mov	 ecx, DWORD PTR tv94[ebp]
  00901	51		 push	 ecx
  00902	e8 00 00 00 00	 call	 ?GetFileNameSuffix@YL_FileInfo@@SA_NABV?$basic_string@DU?$char_traits@D@std@@V?$allocator@D@2@@std@@AAV23@@Z ; YL_FileInfo::GetFileNameSuffix
  00907	83 c4 08	 add	 esp, 8
  0090a	0f b6 d0	 movzx	 edx, al
  0090d	85 d2		 test	 edx, edx
  0090f	74 17		 je	 SHORT $L68683
  00911	8d 4d d4	 lea	 ecx, DWORD PTR _strFileNameSuffix$[ebp]
  00914	ff 15 00 00 00
	00		 call	 DWORD PTR __imp_?size@?$basic_string@DU?$char_traits@D@std@@V?$allocator@D@2@@std@@QBEIXZ
  0091a	3b 45 10	 cmp	 eax, DWORD PTR _unBufferLen$[ebp]
  0091d	73 09		 jae	 SHORT $L68683
  0091f	c7 45 a0 01 00
	00 00		 mov	 DWORD PTR tv81[ebp], 1
  00926	eb 07		 jmp	 SHORT $L68684
$L68683:
  00928	c7 45 a0 00 00
	00 00		 mov	 DWORD PTR tv81[ebp], 0
$L68684:
  0092f	8a 45 a0	 mov	 al, BYTE PTR tv81[ebp]
  00932	88 45 d3	 mov	 BYTE PTR $T68681[ebp], al
  00935	c7 45 fc 00 00
	00 00		 mov	 DWORD PTR __$EHRec$[ebp+8], 0
  0093c	8b 4d ac	 mov	 ecx, DWORD PTR $T68688[ebp]
  0093f	83 e1 01	 and	 ecx, 1
  00942	74 0d		 je	 SHORT $L68691
  00944	83 65 ac fe	 and	 DWORD PTR $T68688[ebp], -2 ; fffffffeH
  00948	8d 4d b4	 lea	 ecx, DWORD PTR $T68682[ebp]
  0094b	ff 15 00 00 00
	00		 call	 DWORD PTR __imp_??1?$basic_string@DU?$char_traits@D@std@@V?$allocator@D@2@@std@@QAE@XZ
$L68691:
  00951	0f b6 55 d3	 movzx	 edx, BYTE PTR $T68681[ebp]
  00955	85 d2		 test	 edx, edx
  00957	74 2f		 je	 SHORT $L64604

; 190  : 	{
; 191  : 		strcpy( szBufferName,strFileNameSuffix.c_str() );

  00959	8d 4d d4	 lea	 ecx, DWORD PTR _strFileNameSuffix$[ebp]
  0095c	ff 15 00 00 00
	00		 call	 DWORD PTR __imp_?c_str@?$basic_string@DU?$char_traits@D@std@@V?$allocator@D@2@@std@@QBEPBDXZ
  00962	50		 push	 eax
  00963	8b 45 0c	 mov	 eax, DWORD PTR _szBufferName$[ebp]
  00966	50		 push	 eax
  00967	e8 00 00 00 00	 call	 _strcpy
  0096c	83 c4 08	 add	 esp, 8

; 192  : 		return true;

  0096f	c6 45 b3 01	 mov	 BYTE PTR $T68685[ebp], 1
  00973	c7 45 fc ff ff
	ff ff		 mov	 DWORD PTR __$EHRec$[ebp+8], -1
  0097a	8d 4d d4	 lea	 ecx, DWORD PTR _strFileNameSuffix$[ebp]
  0097d	ff 15 00 00 00
	00		 call	 DWORD PTR __imp_??1?$basic_string@DU?$char_traits@D@std@@V?$allocator@D@2@@std@@QAE@XZ
  00983	8a 45 b3	 mov	 al, BYTE PTR $T68685[ebp]
  00986	eb 17		 jmp	 SHORT $L64600
$L64604:

; 193  : 
; 194  : 	}
; 195  : 	return false;	

  00988	c6 45 b2 00	 mov	 BYTE PTR $T68686[ebp], 0
  0098c	c7 45 fc ff ff
	ff ff		 mov	 DWORD PTR __$EHRec$[ebp+8], -1
  00993	8d 4d d4	 lea	 ecx, DWORD PTR _strFileNameSuffix$[ebp]
  00996	ff 15 00 00 00
	00		 call	 DWORD PTR __imp_??1?$basic_string@DU?$char_traits@D@std@@V?$allocator@D@2@@std@@QAE@XZ
  0099c	8a 45 b2	 mov	 al, BYTE PTR $T68686[ebp]
$L64600:

; 196  : }

  0099f	8b 4d f4	 mov	 ecx, DWORD PTR __$EHRec$[ebp]
  009a2	64 89 0d 00 00
	00 00		 mov	 DWORD PTR fs:__except_list, ecx
  009a9	8b 4d f0	 mov	 ecx, DWORD PTR __$ArrayPad$[ebp]
  009ac	e8 00 00 00 00	 call	 @__security_check_cookie@4
  009b1	8b e5		 mov	 esp, ebp
  009b3	5d		 pop	 ebp
  009b4	c3		 ret	 0
_TEXT	ENDS
text$x	SEGMENT
$L68687:
  000f2	8d 4d d4	 lea	 ecx, DWORD PTR _strFileNameSuffix$[ebp]
  000f5	ff 25 00 00 00
	00		 jmp	 DWORD PTR __imp_??1?$basic_string@DU?$char_traits@D@std@@V?$allocator@D@2@@std@@QAE@XZ
$L68689:
  000fb	8b 45 ac	 mov	 eax, DWORD PTR $T68688[ebp]
  000fe	83 e0 01	 and	 eax, 1
  00101	0f 84 0d 00 00
	00		 je	 $L68690
  00107	83 65 ac fe	 and	 DWORD PTR $T68688[ebp], -2 ; fffffffeH
  0010b	8d 4d b4	 lea	 ecx, DWORD PTR $T68682[ebp]
  0010e	ff 25 00 00 00
	00		 jmp	 DWORD PTR __imp_??1?$basic_string@DU?$char_traits@D@std@@V?$allocator@D@2@@std@@QAE@XZ
$L68690:
  00114	c3		 ret	 0
__ehhandler$?GetFileNameSuffix@YL_FileInfo@@SA_NPBDQADI@Z:
  00115	b8 00 00 00 00	 mov	 eax, OFFSET FLAT:$T68693
  0011a	e9 00 00 00 00	 jmp	 ___CxxFrameHandler
text$x	ENDS
?GetFileNameSuffix@YL_FileInfo@@SA_NPBDQADI@Z ENDP	; YL_FileInfo::GetFileNameSuffix
EXTRN	__imp_??4?$basic_string@DU?$char_traits@D@std@@V?$allocator@D@2@@std@@QAEAAV01@PBD@Z:NEAR
xdata$x	SEGMENT
$T68703	DD	0ffffffffH
	DD	FLAT:$L68699
$T68701	DD	019930520H
	DD	01H
	DD	FLAT:$T68703
	DD	2 DUP(00H)
	DD	2 DUP(00H)
; Function compile flags: /Odt
xdata$x	ENDS
_TEXT	SEGMENT
tv87 = -52						; size = 4
tv88 = -48						; size = 4
$T68698 = -44						; size = 28
_n$ = -16						; size = 4
__$EHRec$ = -12						; size = 12
_strFilePath$ = 8					; size = 4
_strFileName$ = 12					; size = 4
?GetFileNameSuffix@YL_FileInfo@@SA_NABV?$basic_string@DU?$char_traits@D@std@@V?$allocator@D@2@@std@@AAV23@@Z PROC NEAR ; YL_FileInfo::GetFileNameSuffix

; 199  : {

  009c0	55		 push	 ebp
  009c1	8b ec		 mov	 ebp, esp
  009c3	6a ff		 push	 -1
  009c5	68 00 00 00 00	 push	 __ehhandler$?GetFileNameSuffix@YL_FileInfo@@SA_NABV?$basic_string@DU?$char_traits@D@std@@V?$allocator@D@2@@std@@AAV23@@Z
  009ca	64 a1 00 00 00
	00		 mov	 eax, DWORD PTR fs:__except_list
  009d0	50		 push	 eax
  009d1	64 89 25 00 00
	00 00		 mov	 DWORD PTR fs:__except_list, esp
  009d8	83 ec 28	 sub	 esp, 40			; 00000028H

; 200  : 	size_t n = strFilePath.find_last_of(".");

  009db	a1 00 00 00 00	 mov	 eax, DWORD PTR __imp_?npos@?$basic_string@DU?$char_traits@D@std@@V?$allocator@D@2@@std@@2IB
  009e0	8b 08		 mov	 ecx, DWORD PTR [eax]
  009e2	51		 push	 ecx
  009e3	68 00 00 00 00	 push	 OFFSET FLAT:$SG64613
  009e8	8b 4d 08	 mov	 ecx, DWORD PTR _strFilePath$[ebp]
  009eb	ff 15 00 00 00
	00		 call	 DWORD PTR __imp_?find_last_of@?$basic_string@DU?$char_traits@D@std@@V?$allocator@D@2@@std@@QBEIPBDI@Z
  009f1	89 45 f0	 mov	 DWORD PTR _n$[ebp], eax

; 201  : 	if( n == string::npos )

  009f4	8b 15 00 00 00
	00		 mov	 edx, DWORD PTR __imp_?npos@?$basic_string@DU?$char_traits@D@std@@V?$allocator@D@2@@std@@2IB
  009fa	8b 45 f0	 mov	 eax, DWORD PTR _n$[ebp]
  009fd	3b 02		 cmp	 eax, DWORD PTR [edx]
  009ff	75 12		 jne	 SHORT $L64614

; 202  : 	{
; 203  : 		strFileName = "";

  00a01	68 00 00 00 00	 push	 OFFSET FLAT:$SG64615
  00a06	8b 4d 0c	 mov	 ecx, DWORD PTR _strFileName$[ebp]
  00a09	ff 15 00 00 00
	00		 call	 DWORD PTR __imp_??4?$basic_string@DU?$char_traits@D@std@@V?$allocator@D@2@@std@@QAEAAV01@PBD@Z

; 204  : 		return true;

  00a0f	b0 01		 mov	 al, 1
  00a11	eb 72		 jmp	 SHORT $L64611
$L64614:

; 205  : 	}
; 206  : 	else
; 207  : 	{
; 208  : 		n++;

  00a13	8b 4d f0	 mov	 ecx, DWORD PTR _n$[ebp]
  00a16	83 c1 01	 add	 ecx, 1
  00a19	89 4d f0	 mov	 DWORD PTR _n$[ebp], ecx

; 209  : 	}	
; 210  : 	if( n >= strFilePath.size() )

  00a1c	8b 4d 08	 mov	 ecx, DWORD PTR _strFilePath$[ebp]
  00a1f	ff 15 00 00 00
	00		 call	 DWORD PTR __imp_?size@?$basic_string@DU?$char_traits@D@std@@V?$allocator@D@2@@std@@QBEIXZ
  00a25	39 45 f0	 cmp	 DWORD PTR _n$[ebp], eax
  00a28	72 12		 jb	 SHORT $L64617

; 211  : 	{
; 212  : 		strFileName = "";

  00a2a	68 00 00 00 00	 push	 OFFSET FLAT:$SG64618
  00a2f	8b 4d 0c	 mov	 ecx, DWORD PTR _strFileName$[ebp]
  00a32	ff 15 00 00 00
	00		 call	 DWORD PTR __imp_??4?$basic_string@DU?$char_traits@D@std@@V?$allocator@D@2@@std@@QAEAAV01@PBD@Z

; 213  : 		return true;

  00a38	b0 01		 mov	 al, 1
  00a3a	eb 49		 jmp	 SHORT $L64611
$L64617:

; 214  : 	}
; 215  : 
; 216  : 	strFileName = strFilePath.substr(n);

  00a3c	8b 15 00 00 00
	00		 mov	 edx, DWORD PTR __imp_?npos@?$basic_string@DU?$char_traits@D@std@@V?$allocator@D@2@@std@@2IB
  00a42	8b 02		 mov	 eax, DWORD PTR [edx]
  00a44	50		 push	 eax
  00a45	8b 4d f0	 mov	 ecx, DWORD PTR _n$[ebp]
  00a48	51		 push	 ecx
  00a49	8d 55 d4	 lea	 edx, DWORD PTR $T68698[ebp]
  00a4c	52		 push	 edx
  00a4d	8b 4d 08	 mov	 ecx, DWORD PTR _strFilePath$[ebp]
  00a50	ff 15 00 00 00
	00		 call	 DWORD PTR __imp_?substr@?$basic_string@DU?$char_traits@D@std@@V?$allocator@D@2@@std@@QBE?AV12@II@Z
  00a56	89 45 d0	 mov	 DWORD PTR tv88[ebp], eax
  00a59	8b 45 d0	 mov	 eax, DWORD PTR tv88[ebp]
  00a5c	89 45 cc	 mov	 DWORD PTR tv87[ebp], eax
  00a5f	c7 45 fc 00 00
	00 00		 mov	 DWORD PTR __$EHRec$[ebp+8], 0
  00a66	8b 4d cc	 mov	 ecx, DWORD PTR tv87[ebp]
  00a69	51		 push	 ecx
  00a6a	8b 4d 0c	 mov	 ecx, DWORD PTR _strFileName$[ebp]
  00a6d	ff 15 00 00 00
	00		 call	 DWORD PTR __imp_??4?$basic_string@DU?$char_traits@D@std@@V?$allocator@D@2@@std@@QAEAAV01@ABV01@@Z
  00a73	c7 45 fc ff ff
	ff ff		 mov	 DWORD PTR __$EHRec$[ebp+8], -1
  00a7a	8d 4d d4	 lea	 ecx, DWORD PTR $T68698[ebp]
  00a7d	ff 15 00 00 00
	00		 call	 DWORD PTR __imp_??1?$basic_string@DU?$char_traits@D@std@@V?$allocator@D@2@@std@@QAE@XZ

; 217  : 	return true;

  00a83	b0 01		 mov	 al, 1
$L64611:

; 218  : 
; 219  : }

  00a85	8b 4d f4	 mov	 ecx, DWORD PTR __$EHRec$[ebp]
  00a88	64 89 0d 00 00
	00 00		 mov	 DWORD PTR fs:__except_list, ecx
  00a8f	8b e5		 mov	 esp, ebp
  00a91	5d		 pop	 ebp
  00a92	c3		 ret	 0
_TEXT	ENDS
text$x	SEGMENT
$L68699:
  0011f	8d 4d d4	 lea	 ecx, DWORD PTR $T68698[ebp]
  00122	ff 25 00 00 00
	00		 jmp	 DWORD PTR __imp_??1?$basic_string@DU?$char_traits@D@std@@V?$allocator@D@2@@std@@QAE@XZ
__ehhandler$?GetFileNameSuffix@YL_FileInfo@@SA_NABV?$basic_string@DU?$char_traits@D@std@@V?$allocator@D@2@@std@@AAV23@@Z:
  00128	b8 00 00 00 00	 mov	 eax, OFFSET FLAT:$T68701
  0012d	e9 00 00 00 00	 jmp	 ___CxxFrameHandler
text$x	ENDS
?GetFileNameSuffix@YL_FileInfo@@SA_NABV?$basic_string@DU?$char_traits@D@std@@V?$allocator@D@2@@std@@AAV23@@Z ENDP ; YL_FileInfo::GetFileNameSuffix
PUBLIC	?GetFileDirPath@YL_FileInfo@@SA_NPBDQADI@Z	; YL_FileInfo::GetFileDirPath
EXTRN	__imp__strncpy:NEAR
EXTRN	__imp__strrchr:NEAR
; Function compile flags: /Odt
_TEXT	SEGMENT
_pTmp$ = -4						; size = 4
_pszFilePath$ = 8					; size = 4
_szBufferDirPath$ = 12					; size = 4
_unBufferLen$ = 16					; size = 4
?GetFileDirPath@YL_FileInfo@@SA_NPBDQADI@Z PROC NEAR	; YL_FileInfo::GetFileDirPath

; 223  : {

  00aa0	55		 push	 ebp
  00aa1	8b ec		 mov	 ebp, esp
  00aa3	51		 push	 ecx

; 224  : 	if( pszFilePath == NULL )

  00aa4	83 7d 08 00	 cmp	 DWORD PTR _pszFilePath$[ebp], 0
  00aa8	75 04		 jne	 SHORT $L64625

; 225  : 	{
; 226  : 		return false;

  00aaa	32 c0		 xor	 al, al
  00aac	eb 5d		 jmp	 SHORT $L64624
$L64625:

; 227  : 	}
; 228  : 	char* pTmp =(char*) strrchr(pszFilePath,'\\');

  00aae	6a 5c		 push	 92			; 0000005cH
  00ab0	8b 45 08	 mov	 eax, DWORD PTR _pszFilePath$[ebp]
  00ab3	50		 push	 eax
  00ab4	ff 15 00 00 00
	00		 call	 DWORD PTR __imp__strrchr
  00aba	83 c4 08	 add	 esp, 8
  00abd	89 45 fc	 mov	 DWORD PTR _pTmp$[ebp], eax

; 229  : 	if( pTmp == NULL || *(pTmp+1) == '\0' )

  00ac0	83 7d fc 00	 cmp	 DWORD PTR _pTmp$[ebp], 0
  00ac4	74 0b		 je	 SHORT $L64629
  00ac6	8b 4d fc	 mov	 ecx, DWORD PTR _pTmp$[ebp]
  00ac9	0f be 51 01	 movsx	 edx, BYTE PTR [ecx+1]
  00acd	85 d2		 test	 edx, edx
  00acf	75 04		 jne	 SHORT $L64628
$L64629:

; 230  : 	{
; 231  : 		return false;

  00ad1	32 c0		 xor	 al, al
  00ad3	eb 36		 jmp	 SHORT $L64624
$L64628:

; 232  : 	}
; 233  : 	
; 234  : 	if( ((unsigned int) (pTmp - pszFilePath))  >= unBufferLen )

  00ad5	8b 45 fc	 mov	 eax, DWORD PTR _pTmp$[ebp]
  00ad8	2b 45 08	 sub	 eax, DWORD PTR _pszFilePath$[ebp]
  00adb	3b 45 10	 cmp	 eax, DWORD PTR _unBufferLen$[ebp]
  00ade	72 04		 jb	 SHORT $L64631

; 235  : 	{
; 236  : 		return false;

  00ae0	32 c0		 xor	 al, al
  00ae2	eb 27		 jmp	 SHORT $L64624
$L64631:

; 237  : 	}
; 238  : 	strncpy(szBufferDirPath,pszFilePath,pTmp-pszFilePath);

  00ae4	8b 4d fc	 mov	 ecx, DWORD PTR _pTmp$[ebp]
  00ae7	2b 4d 08	 sub	 ecx, DWORD PTR _pszFilePath$[ebp]
  00aea	51		 push	 ecx
  00aeb	8b 55 08	 mov	 edx, DWORD PTR _pszFilePath$[ebp]
  00aee	52		 push	 edx
  00aef	8b 45 0c	 mov	 eax, DWORD PTR _szBufferDirPath$[ebp]
  00af2	50		 push	 eax
  00af3	ff 15 00 00 00
	00		 call	 DWORD PTR __imp__strncpy
  00af9	83 c4 0c	 add	 esp, 12			; 0000000cH

; 239  : 	szBufferDirPath[pTmp-pszFilePath] = '\0';

  00afc	8b 4d fc	 mov	 ecx, DWORD PTR _pTmp$[ebp]
  00aff	2b 4d 08	 sub	 ecx, DWORD PTR _pszFilePath$[ebp]
  00b02	8b 55 0c	 mov	 edx, DWORD PTR _szBufferDirPath$[ebp]
  00b05	c6 04 0a 00	 mov	 BYTE PTR [edx+ecx], 0

; 240  : 	return true;	

  00b09	b0 01		 mov	 al, 1
$L64624:

; 241  : }

  00b0b	8b e5		 mov	 esp, ebp
  00b0d	5d		 pop	 ebp
  00b0e	c3		 ret	 0
?GetFileDirPath@YL_FileInfo@@SA_NPBDQADI@Z ENDP		; YL_FileInfo::GetFileDirPath
_TEXT	ENDS
PUBLIC	?GetFileDirPath@YL_FileInfo@@SA_NABV?$basic_string@DU?$char_traits@D@std@@V?$allocator@D@2@@std@@AAV23@@Z ; YL_FileInfo::GetFileDirPath
xdata$x	SEGMENT
$T68711	DD	0ffffffffH
	DD	FLAT:$L68707
$T68709	DD	019930520H
	DD	01H
	DD	FLAT:$T68711
	DD	2 DUP(00H)
	DD	2 DUP(00H)
; Function compile flags: /Odt
xdata$x	ENDS
_TEXT	SEGMENT
tv79 = -52						; size = 4
tv80 = -48						; size = 4
$T68706 = -44						; size = 28
_n$ = -16						; size = 4
__$EHRec$ = -12						; size = 12
_strFilePath$ = 8					; size = 4
_strFileDirPath$ = 12					; size = 4
?GetFileDirPath@YL_FileInfo@@SA_NABV?$basic_string@DU?$char_traits@D@std@@V?$allocator@D@2@@std@@AAV23@@Z PROC NEAR ; YL_FileInfo::GetFileDirPath

; 244  : {

  00b10	55		 push	 ebp
  00b11	8b ec		 mov	 ebp, esp
  00b13	6a ff		 push	 -1
  00b15	68 00 00 00 00	 push	 __ehhandler$?GetFileDirPath@YL_FileInfo@@SA_NABV?$basic_string@DU?$char_traits@D@std@@V?$allocator@D@2@@std@@AAV23@@Z
  00b1a	64 a1 00 00 00
	00		 mov	 eax, DWORD PTR fs:__except_list
  00b20	50		 push	 eax
  00b21	64 89 25 00 00
	00 00		 mov	 DWORD PTR fs:__except_list, esp
  00b28	83 ec 28	 sub	 esp, 40			; 00000028H

; 245  : 	size_t n = strFilePath.find_last_of("\\");

  00b2b	a1 00 00 00 00	 mov	 eax, DWORD PTR __imp_?npos@?$basic_string@DU?$char_traits@D@std@@V?$allocator@D@2@@std@@2IB
  00b30	8b 08		 mov	 ecx, DWORD PTR [eax]
  00b32	51		 push	 ecx
  00b33	68 00 00 00 00	 push	 OFFSET FLAT:$SG64637
  00b38	8b 4d 08	 mov	 ecx, DWORD PTR _strFilePath$[ebp]
  00b3b	ff 15 00 00 00
	00		 call	 DWORD PTR __imp_?find_last_of@?$basic_string@DU?$char_traits@D@std@@V?$allocator@D@2@@std@@QBEIPBDI@Z
  00b41	89 45 f0	 mov	 DWORD PTR _n$[ebp], eax

; 246  : 	if( n == string::npos )

  00b44	8b 15 00 00 00
	00		 mov	 edx, DWORD PTR __imp_?npos@?$basic_string@DU?$char_traits@D@std@@V?$allocator@D@2@@std@@2IB
  00b4a	8b 45 f0	 mov	 eax, DWORD PTR _n$[ebp]
  00b4d	3b 02		 cmp	 eax, DWORD PTR [edx]
  00b4f	75 04		 jne	 SHORT $L64638

; 247  : 	{
; 248  : 		return false;

  00b51	32 c0		 xor	 al, al
  00b53	eb 42		 jmp	 SHORT $L64635
$L64638:

; 249  : 	}
; 250  : 	strFileDirPath = strFilePath.substr(0,n);

  00b55	8b 4d f0	 mov	 ecx, DWORD PTR _n$[ebp]
  00b58	51		 push	 ecx
  00b59	6a 00		 push	 0
  00b5b	8d 55 d4	 lea	 edx, DWORD PTR $T68706[ebp]
  00b5e	52		 push	 edx
  00b5f	8b 4d 08	 mov	 ecx, DWORD PTR _strFilePath$[ebp]
  00b62	ff 15 00 00 00
	00		 call	 DWORD PTR __imp_?substr@?$basic_string@DU?$char_traits@D@std@@V?$allocator@D@2@@std@@QBE?AV12@II@Z
  00b68	89 45 d0	 mov	 DWORD PTR tv80[ebp], eax
  00b6b	8b 45 d0	 mov	 eax, DWORD PTR tv80[ebp]
  00b6e	89 45 cc	 mov	 DWORD PTR tv79[ebp], eax
  00b71	c7 45 fc 00 00
	00 00		 mov	 DWORD PTR __$EHRec$[ebp+8], 0
  00b78	8b 4d cc	 mov	 ecx, DWORD PTR tv79[ebp]
  00b7b	51		 push	 ecx
  00b7c	8b 4d 0c	 mov	 ecx, DWORD PTR _strFileDirPath$[ebp]
  00b7f	ff 15 00 00 00
	00		 call	 DWORD PTR __imp_??4?$basic_string@DU?$char_traits@D@std@@V?$allocator@D@2@@std@@QAEAAV01@ABV01@@Z
  00b85	c7 45 fc ff ff
	ff ff		 mov	 DWORD PTR __$EHRec$[ebp+8], -1
  00b8c	8d 4d d4	 lea	 ecx, DWORD PTR $T68706[ebp]
  00b8f	ff 15 00 00 00
	00		 call	 DWORD PTR __imp_??1?$basic_string@DU?$char_traits@D@std@@V?$allocator@D@2@@std@@QAE@XZ

; 251  : 	return true;

  00b95	b0 01		 mov	 al, 1
$L64635:

; 252  : }

  00b97	8b 4d f4	 mov	 ecx, DWORD PTR __$EHRec$[ebp]
  00b9a	64 89 0d 00 00
	00 00		 mov	 DWORD PTR fs:__except_list, ecx
  00ba1	8b e5		 mov	 esp, ebp
  00ba3	5d		 pop	 ebp
  00ba4	c3		 ret	 0
_TEXT	ENDS
text$x	SEGMENT
$L68707:
  00132	8d 4d d4	 lea	 ecx, DWORD PTR $T68706[ebp]
  00135	ff 25 00 00 00
	00		 jmp	 DWORD PTR __imp_??1?$basic_string@DU?$char_traits@D@std@@V?$allocator@D@2@@std@@QAE@XZ
__ehhandler$?GetFileDirPath@YL_FileInfo@@SA_NABV?$basic_string@DU?$char_traits@D@std@@V?$allocator@D@2@@std@@AAV23@@Z:
  0013b	b8 00 00 00 00	 mov	 eax, OFFSET FLAT:$T68709
  00140	e9 00 00 00 00	 jmp	 ___CxxFrameHandler
text$x	ENDS
?GetFileDirPath@YL_FileInfo@@SA_NABV?$basic_string@DU?$char_traits@D@std@@V?$allocator@D@2@@std@@AAV23@@Z ENDP ; YL_FileInfo::GetFileDirPath
PUBLIC	?GetFileContent@YL_FileInfo@@SA?AV?$basic_string@DU?$char_traits@D@std@@V?$allocator@D@2@@std@@ABV23@@Z ; YL_FileInfo::GetFileContent
EXTRN	__imp__fclose:NEAR
EXTRN	__imp__fopen:NEAR
EXTRN	__imp__fread:NEAR
EXTRN	_memset:NEAR
EXTRN	__imp_??0?$basic_string@DU?$char_traits@D@std@@V?$allocator@D@2@@std@@QAE@ABV01@@Z:NEAR
EXTRN	__imp_??Y?$basic_string@DU?$char_traits@D@std@@V?$allocator@D@2@@std@@QAEAAV01@PBD@Z:NEAR
xdata$x	SEGMENT
$T68722	DD	0ffffffffH
	DD	FLAT:$L68715
	DD	00H
	DD	FLAT:$L68714
$T68719	DD	019930520H
	DD	02H
	DD	FLAT:$T68722
	DD	2 DUP(00H)
	DD	2 DUP(00H)
; Function compile flags: /Odt
xdata$x	ENDS
_TEXT	SEGMENT
$T68716 = -1080						; size = 4
_szBuffer$64649 = -1076					; size = 1024
_f$ = -48						; size = 4
_res$ = -44						; size = 28
__$ArrayPad$ = -16					; size = 4
__$EHRec$ = -12						; size = 12
__$ReturnAddr$ = 4					; size = 4
___$ReturnUdt$ = 8					; size = 4
_strFileName$ = 12					; size = 4
?GetFileContent@YL_FileInfo@@SA?AV?$basic_string@DU?$char_traits@D@std@@V?$allocator@D@2@@std@@ABV23@@Z PROC NEAR ; YL_FileInfo::GetFileContent

; 255  : {

  00bb0	55		 push	 ebp
  00bb1	8b ec		 mov	 ebp, esp
  00bb3	6a ff		 push	 -1
  00bb5	68 00 00 00 00	 push	 __ehhandler$?GetFileContent@YL_FileInfo@@SA?AV?$basic_string@DU?$char_traits@D@std@@V?$allocator@D@2@@std@@ABV23@@Z
  00bba	64 a1 00 00 00
	00		 mov	 eax, DWORD PTR fs:__except_list
  00bc0	50		 push	 eax
  00bc1	64 89 25 00 00
	00 00		 mov	 DWORD PTR fs:__except_list, esp
  00bc8	81 ec 2c 04 00
	00		 sub	 esp, 1068		; 0000042cH
  00bce	a1 00 00 00 00	 mov	 eax, DWORD PTR ___security_cookie
  00bd3	89 45 f0	 mov	 DWORD PTR __$ArrayPad$[ebp], eax
  00bd6	c7 85 c8 fb ff
	ff 00 00 00 00	 mov	 DWORD PTR $T68716[ebp], 0

; 256  : 	string res = "";

  00be0	68 00 00 00 00	 push	 OFFSET FLAT:$SG64645
  00be5	8d 4d d4	 lea	 ecx, DWORD PTR _res$[ebp]
  00be8	ff 15 00 00 00
	00		 call	 DWORD PTR __imp_??0?$basic_string@DU?$char_traits@D@std@@V?$allocator@D@2@@std@@QAE@PBD@Z
  00bee	c7 45 fc 01 00
	00 00		 mov	 DWORD PTR __$EHRec$[ebp+8], 1

; 257  : 	FILE * f = fopen(strFileName.c_str(), "r");

  00bf5	68 00 00 00 00	 push	 OFFSET FLAT:$SG64647
  00bfa	8b 4d 0c	 mov	 ecx, DWORD PTR _strFileName$[ebp]
  00bfd	ff 15 00 00 00
	00		 call	 DWORD PTR __imp_?c_str@?$basic_string@DU?$char_traits@D@std@@V?$allocator@D@2@@std@@QBEPBDXZ
  00c03	50		 push	 eax
  00c04	ff 15 00 00 00
	00		 call	 DWORD PTR __imp__fopen
  00c0a	83 c4 08	 add	 esp, 8
  00c0d	89 45 d0	 mov	 DWORD PTR _f$[ebp], eax

; 258  : 	if (f)

  00c10	83 7d d0 00	 cmp	 DWORD PTR _f$[ebp], 0
  00c14	74 6e		 je	 SHORT $L64648

; 259  : 	{
; 260  : 		char szBuffer[1024];
; 261  : 		memset( szBuffer,0,1024);

  00c16	68 00 04 00 00	 push	 1024			; 00000400H
  00c1b	6a 00		 push	 0
  00c1d	8d 85 cc fb ff
	ff		 lea	 eax, DWORD PTR _szBuffer$64649[ebp]
  00c23	50		 push	 eax
  00c24	e8 00 00 00 00	 call	 _memset
  00c29	83 c4 0c	 add	 esp, 12			; 0000000cH
$L64651:

; 262  : 		while( fread( szBuffer,1,1023,f) )

  00c2c	8b 4d d0	 mov	 ecx, DWORD PTR _f$[ebp]
  00c2f	51		 push	 ecx
  00c30	68 ff 03 00 00	 push	 1023			; 000003ffH
  00c35	6a 01		 push	 1
  00c37	8d 95 cc fb ff
	ff		 lea	 edx, DWORD PTR _szBuffer$64649[ebp]
  00c3d	52		 push	 edx
  00c3e	ff 15 00 00 00
	00		 call	 DWORD PTR __imp__fread
  00c44	83 c4 10	 add	 esp, 16			; 00000010H
  00c47	85 c0		 test	 eax, eax
  00c49	74 2c		 je	 SHORT $L64652

; 263  : 		{			
; 264  : 			szBuffer[1023] = '\0';

  00c4b	c6 45 cb 00	 mov	 BYTE PTR _szBuffer$64649[ebp+1023], 0

; 265  : 			res += szBuffer;			

  00c4f	8d 85 cc fb ff
	ff		 lea	 eax, DWORD PTR _szBuffer$64649[ebp]
  00c55	50		 push	 eax
  00c56	8d 4d d4	 lea	 ecx, DWORD PTR _res$[ebp]
  00c59	ff 15 00 00 00
	00		 call	 DWORD PTR __imp_??Y?$basic_string@DU?$char_traits@D@std@@V?$allocator@D@2@@std@@QAEAAV01@PBD@Z

; 266  : 			memset( szBuffer,0,1024);

  00c5f	68 00 04 00 00	 push	 1024			; 00000400H
  00c64	6a 00		 push	 0
  00c66	8d 8d cc fb ff
	ff		 lea	 ecx, DWORD PTR _szBuffer$64649[ebp]
  00c6c	51		 push	 ecx
  00c6d	e8 00 00 00 00	 call	 _memset
  00c72	83 c4 0c	 add	 esp, 12			; 0000000cH

; 267  : 		}

  00c75	eb b5		 jmp	 SHORT $L64651
$L64652:

; 268  : 		fclose(f);

  00c77	8b 55 d0	 mov	 edx, DWORD PTR _f$[ebp]
  00c7a	52		 push	 edx
  00c7b	ff 15 00 00 00
	00		 call	 DWORD PTR __imp__fclose
  00c81	83 c4 04	 add	 esp, 4
$L64648:

; 269  : 	}
; 270  : 	return res;

  00c84	8d 45 d4	 lea	 eax, DWORD PTR _res$[ebp]
  00c87	50		 push	 eax
  00c88	8b 4d 08	 mov	 ecx, DWORD PTR ___$ReturnUdt$[ebp]
  00c8b	ff 15 00 00 00
	00		 call	 DWORD PTR __imp_??0?$basic_string@DU?$char_traits@D@std@@V?$allocator@D@2@@std@@QAE@ABV01@@Z
  00c91	8b 8d c8 fb ff
	ff		 mov	 ecx, DWORD PTR $T68716[ebp]
  00c97	83 c9 01	 or	 ecx, 1
  00c9a	89 8d c8 fb ff
	ff		 mov	 DWORD PTR $T68716[ebp], ecx
  00ca0	c6 45 fc 00	 mov	 BYTE PTR __$EHRec$[ebp+8], 0
  00ca4	8d 4d d4	 lea	 ecx, DWORD PTR _res$[ebp]
  00ca7	ff 15 00 00 00
	00		 call	 DWORD PTR __imp_??1?$basic_string@DU?$char_traits@D@std@@V?$allocator@D@2@@std@@QAE@XZ
  00cad	8b 45 08	 mov	 eax, DWORD PTR ___$ReturnUdt$[ebp]

; 271  : 
; 272  : }

  00cb0	8b 4d f4	 mov	 ecx, DWORD PTR __$EHRec$[ebp]
  00cb3	64 89 0d 00 00
	00 00		 mov	 DWORD PTR fs:__except_list, ecx
  00cba	8b 4d f0	 mov	 ecx, DWORD PTR __$ArrayPad$[ebp]
  00cbd	e8 00 00 00 00	 call	 @__security_check_cookie@4
  00cc2	8b e5		 mov	 esp, ebp
  00cc4	5d		 pop	 ebp
  00cc5	c3		 ret	 0
_TEXT	ENDS
text$x	SEGMENT
$L68714:
  00145	8d 4d d4	 lea	 ecx, DWORD PTR _res$[ebp]
  00148	ff 25 00 00 00
	00		 jmp	 DWORD PTR __imp_??1?$basic_string@DU?$char_traits@D@std@@V?$allocator@D@2@@std@@QAE@XZ
$L68715:
  0014e	8b 85 c8 fb ff
	ff		 mov	 eax, DWORD PTR $T68716[ebp]
  00154	83 e0 01	 and	 eax, 1
  00157	0f 84 10 00 00
	00		 je	 $L68717
  0015d	83 a5 c8 fb ff
	ff fe		 and	 DWORD PTR $T68716[ebp], -2 ; fffffffeH
  00164	8b 4d 08	 mov	 ecx, DWORD PTR ___$ReturnUdt$[ebp]
  00167	ff 25 00 00 00
	00		 jmp	 DWORD PTR __imp_??1?$basic_string@DU?$char_traits@D@std@@V?$allocator@D@2@@std@@QAE@XZ
$L68717:
  0016d	c3		 ret	 0
__ehhandler$?GetFileContent@YL_FileInfo@@SA?AV?$basic_string@DU?$char_traits@D@std@@V?$allocator@D@2@@std@@ABV23@@Z:
  0016e	b8 00 00 00 00	 mov	 eax, OFFSET FLAT:$T68719
  00173	e9 00 00 00 00	 jmp	 ___CxxFrameHandler
text$x	ENDS
?GetFileContent@YL_FileInfo@@SA?AV?$basic_string@DU?$char_traits@D@std@@V?$allocator@D@2@@std@@ABV23@@Z ENDP ; YL_FileInfo::GetFileContent
PUBLIC	?SetFileContent@YL_FileInfo@@SA_NABV?$basic_string@DU?$char_traits@D@std@@V?$allocator@D@2@@std@@0@Z ; YL_FileInfo::SetFileContent
EXTRN	__imp__fprintf:NEAR
; Function compile flags: /Odt
_TEXT	SEGMENT
_f$ = -4						; size = 4
_strFileName$ = 8					; size = 4
_strContent$ = 12					; size = 4
?SetFileContent@YL_FileInfo@@SA_NABV?$basic_string@DU?$char_traits@D@std@@V?$allocator@D@2@@std@@0@Z PROC NEAR ; YL_FileInfo::SetFileContent

; 275  : {

  00cd0	55		 push	 ebp
  00cd1	8b ec		 mov	 ebp, esp
  00cd3	51		 push	 ecx

; 276  : 	FILE * f = fopen(strFileName.c_str(), "w");

  00cd4	68 00 00 00 00	 push	 OFFSET FLAT:$SG64658
  00cd9	8b 4d 08	 mov	 ecx, DWORD PTR _strFileName$[ebp]
  00cdc	ff 15 00 00 00
	00		 call	 DWORD PTR __imp_?c_str@?$basic_string@DU?$char_traits@D@std@@V?$allocator@D@2@@std@@QBEPBDXZ
  00ce2	50		 push	 eax
  00ce3	ff 15 00 00 00
	00		 call	 DWORD PTR __imp__fopen
  00ce9	83 c4 08	 add	 esp, 8
  00cec	89 45 fc	 mov	 DWORD PTR _f$[ebp], eax

; 277  : 	if (f)

  00cef	83 7d fc 00	 cmp	 DWORD PTR _f$[ebp], 0
  00cf3	74 28		 je	 SHORT $L64659

; 278  : 	{
; 279  : 		fprintf(f, strContent.c_str());

  00cf5	8b 4d 0c	 mov	 ecx, DWORD PTR _strContent$[ebp]
  00cf8	ff 15 00 00 00
	00		 call	 DWORD PTR __imp_?c_str@?$basic_string@DU?$char_traits@D@std@@V?$allocator@D@2@@std@@QBEPBDXZ
  00cfe	50		 push	 eax
  00cff	8b 45 fc	 mov	 eax, DWORD PTR _f$[ebp]
  00d02	50		 push	 eax
  00d03	ff 15 00 00 00
	00		 call	 DWORD PTR __imp__fprintf
  00d09	83 c4 08	 add	 esp, 8

; 280  : 		fclose(f);

  00d0c	8b 4d fc	 mov	 ecx, DWORD PTR _f$[ebp]
  00d0f	51		 push	 ecx
  00d10	ff 15 00 00 00
	00		 call	 DWORD PTR __imp__fclose
  00d16	83 c4 04	 add	 esp, 4

; 281  : 		return true;

  00d19	b0 01		 mov	 al, 1
  00d1b	eb 02		 jmp	 SHORT $L64656
$L64659:

; 282  : 	}
; 283  : 	else
; 284  : 	{
; 285  : 		return false;

  00d1d	32 c0		 xor	 al, al
$L64656:

; 286  : 	}
; 287  : }

  00d1f	8b e5		 mov	 esp, ebp
  00d21	5d		 pop	 ebp
  00d22	c3		 ret	 0
?SetFileContent@YL_FileInfo@@SA_NABV?$basic_string@DU?$char_traits@D@std@@V?$allocator@D@2@@std@@0@Z ENDP ; YL_FileInfo::SetFileContent
_TEXT	ENDS
PUBLIC	??$?HDU?$char_traits@D@std@@V?$allocator@D@1@@std@@YA?AV?$basic_string@DU?$char_traits@D@std@@V?$allocator@D@2@@0@ABV10@0@Z ; std::operator+<char,std::char_traits<char>,std::allocator<char> >
EXTRN	__imp_??Y?$basic_string@DU?$char_traits@D@std@@V?$allocator@D@2@@std@@QAEAAV01@ABV01@@Z:NEAR
;	COMDAT xdata$x
; File d:\program files (x86)\microsoft visual studio .net 2003\vc7\include\string
xdata$x	SEGMENT
$T68733	DD	0ffffffffH
	DD	FLAT:$L68727
	DD	00H
	DD	FLAT:$L68726
$T68731	DD	019930520H
	DD	02H
	DD	FLAT:$T68733
	DD	2 DUP(00H)
	DD	2 DUP(00H)
; Function compile flags: /Odt
xdata$x	ENDS
;	COMDAT ??$?HDU?$char_traits@D@std@@V?$allocator@D@1@@std@@YA?AV?$basic_string@DU?$char_traits@D@std@@V?$allocator@D@2@@0@ABV10@0@Z
_TEXT	SEGMENT
tv77 = -52						; size = 4
tv82 = -48						; size = 4
$T68728 = -44						; size = 4
$T68725 = -40						; size = 28
__$EHRec$ = -12						; size = 12
___$ReturnUdt$ = 8					; size = 4
__Left$ = 12						; size = 4
__Right$ = 16						; size = 4
??$?HDU?$char_traits@D@std@@V?$allocator@D@1@@std@@YA?AV?$basic_string@DU?$char_traits@D@std@@V?$allocator@D@2@@0@ABV10@0@Z PROC NEAR ; std::operator+<char,std::char_traits<char>,std::allocator<char> >, COMDAT

; 21   : 	{	// return string + string

  00000	55		 push	 ebp
  00001	8b ec		 mov	 ebp, esp
  00003	6a ff		 push	 -1
  00005	68 00 00 00 00	 push	 __ehhandler$??$?HDU?$char_traits@D@std@@V?$allocator@D@1@@std@@YA?AV?$basic_string@DU?$char_traits@D@std@@V?$allocator@D@2@@0@ABV10@0@Z
  0000a	64 a1 00 00 00
	00		 mov	 eax, DWORD PTR fs:__except_list
  00010	50		 push	 eax
  00011	64 89 25 00 00
	00 00		 mov	 DWORD PTR fs:__except_list, esp
  00018	83 ec 28	 sub	 esp, 40			; 00000028H
  0001b	c7 45 d4 00 00
	00 00		 mov	 DWORD PTR $T68728[ebp], 0

; 22   : 	return (basic_string<_Elem, _Traits, _Alloc>(_Left) += _Right);

  00022	8b 45 0c	 mov	 eax, DWORD PTR __Left$[ebp]
  00025	50		 push	 eax
  00026	8d 4d d8	 lea	 ecx, DWORD PTR $T68725[ebp]
  00029	ff 15 00 00 00
	00		 call	 DWORD PTR __imp_??0?$basic_string@DU?$char_traits@D@std@@V?$allocator@D@2@@std@@QAE@ABV01@@Z
  0002f	89 45 d0	 mov	 DWORD PTR tv82[ebp], eax
  00032	8b 4d d0	 mov	 ecx, DWORD PTR tv82[ebp]
  00035	89 4d cc	 mov	 DWORD PTR tv77[ebp], ecx
  00038	c7 45 fc 01 00
	00 00		 mov	 DWORD PTR __$EHRec$[ebp+8], 1
  0003f	8b 55 10	 mov	 edx, DWORD PTR __Right$[ebp]
  00042	52		 push	 edx
  00043	8b 4d cc	 mov	 ecx, DWORD PTR tv77[ebp]
  00046	ff 15 00 00 00
	00		 call	 DWORD PTR __imp_??Y?$basic_string@DU?$char_traits@D@std@@V?$allocator@D@2@@std@@QAEAAV01@ABV01@@Z
  0004c	50		 push	 eax
  0004d	8b 4d 08	 mov	 ecx, DWORD PTR ___$ReturnUdt$[ebp]
  00050	ff 15 00 00 00
	00		 call	 DWORD PTR __imp_??0?$basic_string@DU?$char_traits@D@std@@V?$allocator@D@2@@std@@QAE@ABV01@@Z
  00056	8b 45 d4	 mov	 eax, DWORD PTR $T68728[ebp]
  00059	83 c8 01	 or	 eax, 1
  0005c	89 45 d4	 mov	 DWORD PTR $T68728[ebp], eax
  0005f	c6 45 fc 00	 mov	 BYTE PTR __$EHRec$[ebp+8], 0
  00063	8d 4d d8	 lea	 ecx, DWORD PTR $T68725[ebp]
  00066	ff 15 00 00 00
	00		 call	 DWORD PTR __imp_??1?$basic_string@DU?$char_traits@D@std@@V?$allocator@D@2@@std@@QAE@XZ
  0006c	8b 45 08	 mov	 eax, DWORD PTR ___$ReturnUdt$[ebp]

; 23   : 	}

  0006f	8b 4d f4	 mov	 ecx, DWORD PTR __$EHRec$[ebp]
  00072	64 89 0d 00 00
	00 00		 mov	 DWORD PTR fs:__except_list, ecx
  00079	8b e5		 mov	 esp, ebp
  0007b	5d		 pop	 ebp
  0007c	c3		 ret	 0
_TEXT	ENDS
;	COMDAT text$x
text$x	SEGMENT
$L68726:
  00000	8d 4d d8	 lea	 ecx, DWORD PTR $T68725[ebp]
  00003	ff 25 00 00 00
	00		 jmp	 DWORD PTR __imp_??1?$basic_string@DU?$char_traits@D@std@@V?$allocator@D@2@@std@@QAE@XZ
$L68727:
  00009	8b 45 d4	 mov	 eax, DWORD PTR $T68728[ebp]
  0000c	83 e0 01	 and	 eax, 1
  0000f	0f 84 0d 00 00
	00		 je	 $L68729
  00015	83 65 d4 fe	 and	 DWORD PTR $T68728[ebp], -2 ; fffffffeH
  00019	8b 4d 08	 mov	 ecx, DWORD PTR ___$ReturnUdt$[ebp]
  0001c	ff 25 00 00 00
	00		 jmp	 DWORD PTR __imp_??1?$basic_string@DU?$char_traits@D@std@@V?$allocator@D@2@@std@@QAE@XZ
$L68729:
  00022	c3		 ret	 0
__ehhandler$??$?HDU?$char_traits@D@std@@V?$allocator@D@1@@std@@YA?AV?$basic_string@DU?$char_traits@D@std@@V?$allocator@D@2@@0@ABV10@0@Z:
  00023	b8 00 00 00 00	 mov	 eax, OFFSET FLAT:$T68731
  00028	e9 00 00 00 00	 jmp	 ___CxxFrameHandler
text$x	ENDS
??$?HDU?$char_traits@D@std@@V?$allocator@D@1@@std@@YA?AV?$basic_string@DU?$char_traits@D@std@@V?$allocator@D@2@@0@ABV10@0@Z ENDP ; std::operator+<char,std::char_traits<char>,std::allocator<char> >
PUBLIC	??$?HDU?$char_traits@D@std@@V?$allocator@D@1@@std@@YA?AV?$basic_string@DU?$char_traits@D@std@@V?$allocator@D@2@@0@PBDABV10@@Z ; std::operator+<char,std::char_traits<char>,std::allocator<char> >
;	COMDAT xdata$x
xdata$x	SEGMENT
$T68746	DD	0ffffffffH
	DD	FLAT:$L68740
	DD	00H
	DD	FLAT:$L68739
$T68744	DD	019930520H
	DD	02H
	DD	FLAT:$T68746
	DD	2 DUP(00H)
	DD	2 DUP(00H)
; Function compile flags: /Odt
xdata$x	ENDS
;	COMDAT ??$?HDU?$char_traits@D@std@@V?$allocator@D@1@@std@@YA?AV?$basic_string@DU?$char_traits@D@std@@V?$allocator@D@2@@0@PBDABV10@@Z
_TEXT	SEGMENT
tv77 = -52						; size = 4
tv82 = -48						; size = 4
$T68741 = -44						; size = 4
$T68738 = -40						; size = 28
__$EHRec$ = -12						; size = 12
___$ReturnUdt$ = 8					; size = 4
__Left$ = 12						; size = 4
__Right$ = 16						; size = 4
??$?HDU?$char_traits@D@std@@V?$allocator@D@1@@std@@YA?AV?$basic_string@DU?$char_traits@D@std@@V?$allocator@D@2@@0@PBDABV10@@Z PROC NEAR ; std::operator+<char,std::char_traits<char>,std::allocator<char> >, COMDAT

; 31   : 	{	// return NTCS + string

  00000	55		 push	 ebp
  00001	8b ec		 mov	 ebp, esp
  00003	6a ff		 push	 -1
  00005	68 00 00 00 00	 push	 __ehhandler$??$?HDU?$char_traits@D@std@@V?$allocator@D@1@@std@@YA?AV?$basic_string@DU?$char_traits@D@std@@V?$allocator@D@2@@0@PBDABV10@@Z
  0000a	64 a1 00 00 00
	00		 mov	 eax, DWORD PTR fs:__except_list
  00010	50		 push	 eax
  00011	64 89 25 00 00
	00 00		 mov	 DWORD PTR fs:__except_list, esp
  00018	83 ec 28	 sub	 esp, 40			; 00000028H
  0001b	c7 45 d4 00 00
	00 00		 mov	 DWORD PTR $T68741[ebp], 0

; 32   : 	return (basic_string<_Elem, _Traits, _Alloc>(_Left) += _Right);

  00022	8b 45 0c	 mov	 eax, DWORD PTR __Left$[ebp]
  00025	50		 push	 eax
  00026	8d 4d d8	 lea	 ecx, DWORD PTR $T68738[ebp]
  00029	ff 15 00 00 00
	00		 call	 DWORD PTR __imp_??0?$basic_string@DU?$char_traits@D@std@@V?$allocator@D@2@@std@@QAE@PBD@Z
  0002f	89 45 d0	 mov	 DWORD PTR tv82[ebp], eax
  00032	8b 4d d0	 mov	 ecx, DWORD PTR tv82[ebp]
  00035	89 4d cc	 mov	 DWORD PTR tv77[ebp], ecx
  00038	c7 45 fc 01 00
	00 00		 mov	 DWORD PTR __$EHRec$[ebp+8], 1
  0003f	8b 55 10	 mov	 edx, DWORD PTR __Right$[ebp]
  00042	52		 push	 edx
  00043	8b 4d cc	 mov	 ecx, DWORD PTR tv77[ebp]
  00046	ff 15 00 00 00
	00		 call	 DWORD PTR __imp_??Y?$basic_string@DU?$char_traits@D@std@@V?$allocator@D@2@@std@@QAEAAV01@ABV01@@Z
  0004c	50		 push	 eax
  0004d	8b 4d 08	 mov	 ecx, DWORD PTR ___$ReturnUdt$[ebp]
  00050	ff 15 00 00 00
	00		 call	 DWORD PTR __imp_??0?$basic_string@DU?$char_traits@D@std@@V?$allocator@D@2@@std@@QAE@ABV01@@Z
  00056	8b 45 d4	 mov	 eax, DWORD PTR $T68741[ebp]
  00059	83 c8 01	 or	 eax, 1
  0005c	89 45 d4	 mov	 DWORD PTR $T68741[ebp], eax
  0005f	c6 45 fc 00	 mov	 BYTE PTR __$EHRec$[ebp+8], 0
  00063	8d 4d d8	 lea	 ecx, DWORD PTR $T68738[ebp]
  00066	ff 15 00 00 00
	00		 call	 DWORD PTR __imp_??1?$basic_string@DU?$char_traits@D@std@@V?$allocator@D@2@@std@@QAE@XZ
  0006c	8b 45 08	 mov	 eax, DWORD PTR ___$ReturnUdt$[ebp]

; 33   : 	}

  0006f	8b 4d f4	 mov	 ecx, DWORD PTR __$EHRec$[ebp]
  00072	64 89 0d 00 00
	00 00		 mov	 DWORD PTR fs:__except_list, ecx
  00079	8b e5		 mov	 esp, ebp
  0007b	5d		 pop	 ebp
  0007c	c3		 ret	 0
_TEXT	ENDS
;	COMDAT text$x
text$x	SEGMENT
$L68739:
  00000	8d 4d d8	 lea	 ecx, DWORD PTR $T68738[ebp]
  00003	ff 25 00 00 00
	00		 jmp	 DWORD PTR __imp_??1?$basic_string@DU?$char_traits@D@std@@V?$allocator@D@2@@std@@QAE@XZ
$L68740:
  00009	8b 45 d4	 mov	 eax, DWORD PTR $T68741[ebp]
  0000c	83 e0 01	 and	 eax, 1
  0000f	0f 84 0d 00 00
	00		 je	 $L68742
  00015	83 65 d4 fe	 and	 DWORD PTR $T68741[ebp], -2 ; fffffffeH
  00019	8b 4d 08	 mov	 ecx, DWORD PTR ___$ReturnUdt$[ebp]
  0001c	ff 25 00 00 00
	00		 jmp	 DWORD PTR __imp_??1?$basic_string@DU?$char_traits@D@std@@V?$allocator@D@2@@std@@QAE@XZ
$L68742:
  00022	c3		 ret	 0
__ehhandler$??$?HDU?$char_traits@D@std@@V?$allocator@D@1@@std@@YA?AV?$basic_string@DU?$char_traits@D@std@@V?$allocator@D@2@@0@PBDABV10@@Z:
  00023	b8 00 00 00 00	 mov	 eax, OFFSET FLAT:$T68744
  00028	e9 00 00 00 00	 jmp	 ___CxxFrameHandler
text$x	ENDS
??$?HDU?$char_traits@D@std@@V?$allocator@D@1@@std@@YA?AV?$basic_string@DU?$char_traits@D@std@@V?$allocator@D@2@@0@PBDABV10@@Z ENDP ; std::operator+<char,std::char_traits<char>,std::allocator<char> >
PUBLIC	??$?HDU?$char_traits@D@std@@V?$allocator@D@1@@std@@YA?AV?$basic_string@DU?$char_traits@D@std@@V?$allocator@D@2@@0@DABV10@@Z ; std::operator+<char,std::char_traits<char>,std::allocator<char> >
EXTRN	__imp_??0?$basic_string@DU?$char_traits@D@std@@V?$allocator@D@2@@std@@QAE@ID@Z:NEAR
;	COMDAT xdata$x
xdata$x	SEGMENT
$T68759	DD	0ffffffffH
	DD	FLAT:$L68753
	DD	00H
	DD	FLAT:$L68752
$T68757	DD	019930520H
	DD	02H
	DD	FLAT:$T68759
	DD	2 DUP(00H)
	DD	2 DUP(00H)
; Function compile flags: /Odt
xdata$x	ENDS
;	COMDAT ??$?HDU?$char_traits@D@std@@V?$allocator@D@1@@std@@YA?AV?$basic_string@DU?$char_traits@D@std@@V?$allocator@D@2@@0@DABV10@@Z
_TEXT	SEGMENT
tv78 = -52						; size = 4
tv83 = -48						; size = 4
$T68754 = -44						; size = 4
$T68751 = -40						; size = 28
__$EHRec$ = -12						; size = 12
___$ReturnUdt$ = 8					; size = 4
__Left$ = 12						; size = 1
__Right$ = 16						; size = 4
??$?HDU?$char_traits@D@std@@V?$allocator@D@1@@std@@YA?AV?$basic_string@DU?$char_traits@D@std@@V?$allocator@D@2@@0@DABV10@@Z PROC NEAR ; std::operator+<char,std::char_traits<char>,std::allocator<char> >, COMDAT

; 41   : 	{	// return character + string

  00000	55		 push	 ebp
  00001	8b ec		 mov	 ebp, esp
  00003	6a ff		 push	 -1
  00005	68 00 00 00 00	 push	 __ehhandler$??$?HDU?$char_traits@D@std@@V?$allocator@D@1@@std@@YA?AV?$basic_string@DU?$char_traits@D@std@@V?$allocator@D@2@@0@DABV10@@Z
  0000a	64 a1 00 00 00
	00		 mov	 eax, DWORD PTR fs:__except_list
  00010	50		 push	 eax
  00011	64 89 25 00 00
	00 00		 mov	 DWORD PTR fs:__except_list, esp
  00018	83 ec 28	 sub	 esp, 40			; 00000028H
  0001b	c7 45 d4 00 00
	00 00		 mov	 DWORD PTR $T68754[ebp], 0

; 42   : 	return (basic_string<_Elem, _Traits, _Alloc>(1, _Left) += _Right);

  00022	8a 45 0c	 mov	 al, BYTE PTR __Left$[ebp]
  00025	50		 push	 eax
  00026	6a 01		 push	 1
  00028	8d 4d d8	 lea	 ecx, DWORD PTR $T68751[ebp]
  0002b	ff 15 00 00 00
	00		 call	 DWORD PTR __imp_??0?$basic_string@DU?$char_traits@D@std@@V?$allocator@D@2@@std@@QAE@ID@Z
  00031	89 45 d0	 mov	 DWORD PTR tv83[ebp], eax
  00034	8b 4d d0	 mov	 ecx, DWORD PTR tv83[ebp]
  00037	89 4d cc	 mov	 DWORD PTR tv78[ebp], ecx
  0003a	c7 45 fc 01 00
	00 00		 mov	 DWORD PTR __$EHRec$[ebp+8], 1
  00041	8b 55 10	 mov	 edx, DWORD PTR __Right$[ebp]
  00044	52		 push	 edx
  00045	8b 4d cc	 mov	 ecx, DWORD PTR tv78[ebp]
  00048	ff 15 00 00 00
	00		 call	 DWORD PTR __imp_??Y?$basic_string@DU?$char_traits@D@std@@V?$allocator@D@2@@std@@QAEAAV01@ABV01@@Z
  0004e	50		 push	 eax
  0004f	8b 4d 08	 mov	 ecx, DWORD PTR ___$ReturnUdt$[ebp]
  00052	ff 15 00 00 00
	00		 call	 DWORD PTR __imp_??0?$basic_string@DU?$char_traits@D@std@@V?$allocator@D@2@@std@@QAE@ABV01@@Z
  00058	8b 45 d4	 mov	 eax, DWORD PTR $T68754[ebp]
  0005b	83 c8 01	 or	 eax, 1
  0005e	89 45 d4	 mov	 DWORD PTR $T68754[ebp], eax
  00061	c6 45 fc 00	 mov	 BYTE PTR __$EHRec$[ebp+8], 0
  00065	8d 4d d8	 lea	 ecx, DWORD PTR $T68751[ebp]
  00068	ff 15 00 00 00
	00		 call	 DWORD PTR __imp_??1?$basic_string@DU?$char_traits@D@std@@V?$allocator@D@2@@std@@QAE@XZ
  0006e	8b 45 08	 mov	 eax, DWORD PTR ___$ReturnUdt$[ebp]

; 43   : 	}

  00071	8b 4d f4	 mov	 ecx, DWORD PTR __$EHRec$[ebp]
  00074	64 89 0d 00 00
	00 00		 mov	 DWORD PTR fs:__except_list, ecx
  0007b	8b e5		 mov	 esp, ebp
  0007d	5d		 pop	 ebp
  0007e	c3		 ret	 0
_TEXT	ENDS
;	COMDAT text$x
text$x	SEGMENT
$L68752:
  00000	8d 4d d8	 lea	 ecx, DWORD PTR $T68751[ebp]
  00003	ff 25 00 00 00
	00		 jmp	 DWORD PTR __imp_??1?$basic_string@DU?$char_traits@D@std@@V?$allocator@D@2@@std@@QAE@XZ
$L68753:
  00009	8b 45 d4	 mov	 eax, DWORD PTR $T68754[ebp]
  0000c	83 e0 01	 and	 eax, 1
  0000f	0f 84 0d 00 00
	00		 je	 $L68755
  00015	83 65 d4 fe	 and	 DWORD PTR $T68754[ebp], -2 ; fffffffeH
  00019	8b 4d 08	 mov	 ecx, DWORD PTR ___$ReturnUdt$[ebp]
  0001c	ff 25 00 00 00
	00		 jmp	 DWORD PTR __imp_??1?$basic_string@DU?$char_traits@D@std@@V?$allocator@D@2@@std@@QAE@XZ
$L68755:
  00022	c3		 ret	 0
__ehhandler$??$?HDU?$char_traits@D@std@@V?$allocator@D@1@@std@@YA?AV?$basic_string@DU?$char_traits@D@std@@V?$allocator@D@2@@0@DABV10@@Z:
  00023	b8 00 00 00 00	 mov	 eax, OFFSET FLAT:$T68757
  00028	e9 00 00 00 00	 jmp	 ___CxxFrameHandler
text$x	ENDS
??$?HDU?$char_traits@D@std@@V?$allocator@D@1@@std@@YA?AV?$basic_string@DU?$char_traits@D@std@@V?$allocator@D@2@@0@DABV10@@Z ENDP ; std::operator+<char,std::char_traits<char>,std::allocator<char> >
PUBLIC	??$?HDU?$char_traits@D@std@@V?$allocator@D@1@@std@@YA?AV?$basic_string@DU?$char_traits@D@std@@V?$allocator@D@2@@0@ABV10@PBD@Z ; std::operator+<char,std::char_traits<char>,std::allocator<char> >
;	COMDAT xdata$x
xdata$x	SEGMENT
$T68772	DD	0ffffffffH
	DD	FLAT:$L68766
	DD	00H
	DD	FLAT:$L68765
$T68770	DD	019930520H
	DD	02H
	DD	FLAT:$T68772
	DD	2 DUP(00H)
	DD	2 DUP(00H)
; Function compile flags: /Odt
xdata$x	ENDS
;	COMDAT ??$?HDU?$char_traits@D@std@@V?$allocator@D@1@@std@@YA?AV?$basic_string@DU?$char_traits@D@std@@V?$allocator@D@2@@0@ABV10@PBD@Z
_TEXT	SEGMENT
tv77 = -52						; size = 4
tv82 = -48						; size = 4
$T68767 = -44						; size = 4
$T68764 = -40						; size = 28
__$EHRec$ = -12						; size = 12
___$ReturnUdt$ = 8					; size = 4
__Left$ = 12						; size = 4
__Right$ = 16						; size = 4
??$?HDU?$char_traits@D@std@@V?$allocator@D@1@@std@@YA?AV?$basic_string@DU?$char_traits@D@std@@V?$allocator@D@2@@0@ABV10@PBD@Z PROC NEAR ; std::operator+<char,std::char_traits<char>,std::allocator<char> >, COMDAT

; 51   : 	{	// return string + NTCS

  00000	55		 push	 ebp
  00001	8b ec		 mov	 ebp, esp
  00003	6a ff		 push	 -1
  00005	68 00 00 00 00	 push	 __ehhandler$??$?HDU?$char_traits@D@std@@V?$allocator@D@1@@std@@YA?AV?$basic_string@DU?$char_traits@D@std@@V?$allocator@D@2@@0@ABV10@PBD@Z
  0000a	64 a1 00 00 00
	00		 mov	 eax, DWORD PTR fs:__except_list
  00010	50		 push	 eax
  00011	64 89 25 00 00
	00 00		 mov	 DWORD PTR fs:__except_list, esp
  00018	83 ec 28	 sub	 esp, 40			; 00000028H
  0001b	c7 45 d4 00 00
	00 00		 mov	 DWORD PTR $T68767[ebp], 0

; 52   : 	return (basic_string<_Elem, _Traits, _Alloc>(_Left) += _Right);

  00022	8b 45 0c	 mov	 eax, DWORD PTR __Left$[ebp]
  00025	50		 push	 eax
  00026	8d 4d d8	 lea	 ecx, DWORD PTR $T68764[ebp]
  00029	ff 15 00 00 00
	00		 call	 DWORD PTR __imp_??0?$basic_string@DU?$char_traits@D@std@@V?$allocator@D@2@@std@@QAE@ABV01@@Z
  0002f	89 45 d0	 mov	 DWORD PTR tv82[ebp], eax
  00032	8b 4d d0	 mov	 ecx, DWORD PTR tv82[ebp]
  00035	89 4d cc	 mov	 DWORD PTR tv77[ebp], ecx
  00038	c7 45 fc 01 00
	00 00		 mov	 DWORD PTR __$EHRec$[ebp+8], 1
  0003f	8b 55 10	 mov	 edx, DWORD PTR __Right$[ebp]
  00042	52		 push	 edx
  00043	8b 4d cc	 mov	 ecx, DWORD PTR tv77[ebp]
  00046	ff 15 00 00 00
	00		 call	 DWORD PTR __imp_??Y?$basic_string@DU?$char_traits@D@std@@V?$allocator@D@2@@std@@QAEAAV01@PBD@Z
  0004c	50		 push	 eax
  0004d	8b 4d 08	 mov	 ecx, DWORD PTR ___$ReturnUdt$[ebp]
  00050	ff 15 00 00 00
	00		 call	 DWORD PTR __imp_??0?$basic_string@DU?$char_traits@D@std@@V?$allocator@D@2@@std@@QAE@ABV01@@Z
  00056	8b 45 d4	 mov	 eax, DWORD PTR $T68767[ebp]
  00059	83 c8 01	 or	 eax, 1
  0005c	89 45 d4	 mov	 DWORD PTR $T68767[ebp], eax
  0005f	c6 45 fc 00	 mov	 BYTE PTR __$EHRec$[ebp+8], 0
  00063	8d 4d d8	 lea	 ecx, DWORD PTR $T68764[ebp]
  00066	ff 15 00 00 00
	00		 call	 DWORD PTR __imp_??1?$basic_string@DU?$char_traits@D@std@@V?$allocator@D@2@@std@@QAE@XZ
  0006c	8b 45 08	 mov	 eax, DWORD PTR ___$ReturnUdt$[ebp]

; 53   : 	}

  0006f	8b 4d f4	 mov	 ecx, DWORD PTR __$EHRec$[ebp]
  00072	64 89 0d 00 00
	00 00		 mov	 DWORD PTR fs:__except_list, ecx
  00079	8b e5		 mov	 esp, ebp
  0007b	5d		 pop	 ebp
  0007c	c3		 ret	 0
_TEXT	ENDS
;	COMDAT text$x
text$x	SEGMENT
$L68765:
  00000	8d 4d d8	 lea	 ecx, DWORD PTR $T68764[ebp]
  00003	ff 25 00 00 00
	00		 jmp	 DWORD PTR __imp_??1?$basic_string@DU?$char_traits@D@std@@V?$allocator@D@2@@std@@QAE@XZ
$L68766:
  00009	8b 45 d4	 mov	 eax, DWORD PTR $T68767[ebp]
  0000c	83 e0 01	 and	 eax, 1
  0000f	0f 84 0d 00 00
	00		 je	 $L68768
  00015	83 65 d4 fe	 and	 DWORD PTR $T68767[ebp], -2 ; fffffffeH
  00019	8b 4d 08	 mov	 ecx, DWORD PTR ___$ReturnUdt$[ebp]
  0001c	ff 25 00 00 00
	00		 jmp	 DWORD PTR __imp_??1?$basic_string@DU?$char_traits@D@std@@V?$allocator@D@2@@std@@QAE@XZ
$L68768:
  00022	c3		 ret	 0
__ehhandler$??$?HDU?$char_traits@D@std@@V?$allocator@D@1@@std@@YA?AV?$basic_string@DU?$char_traits@D@std@@V?$allocator@D@2@@0@ABV10@PBD@Z:
  00023	b8 00 00 00 00	 mov	 eax, OFFSET FLAT:$T68770
  00028	e9 00 00 00 00	 jmp	 ___CxxFrameHandler
text$x	ENDS
??$?HDU?$char_traits@D@std@@V?$allocator@D@1@@std@@YA?AV?$basic_string@DU?$char_traits@D@std@@V?$allocator@D@2@@0@ABV10@PBD@Z ENDP ; std::operator+<char,std::char_traits<char>,std::allocator<char> >
PUBLIC	??$?HDU?$char_traits@D@std@@V?$allocator@D@1@@std@@YA?AV?$basic_string@DU?$char_traits@D@std@@V?$allocator@D@2@@0@ABV10@D@Z ; std::operator+<char,std::char_traits<char>,std::allocator<char> >
EXTRN	__imp_??Y?$basic_string@DU?$char_traits@D@std@@V?$allocator@D@2@@std@@QAEAAV01@D@Z:NEAR
;	COMDAT xdata$x
xdata$x	SEGMENT
$T68785	DD	0ffffffffH
	DD	FLAT:$L68779
	DD	00H
	DD	FLAT:$L68778
$T68783	DD	019930520H
	DD	02H
	DD	FLAT:$T68785
	DD	2 DUP(00H)
	DD	2 DUP(00H)
; Function compile flags: /Odt
xdata$x	ENDS
;	COMDAT ??$?HDU?$char_traits@D@std@@V?$allocator@D@1@@std@@YA?AV?$basic_string@DU?$char_traits@D@std@@V?$allocator@D@2@@0@ABV10@D@Z
_TEXT	SEGMENT
tv77 = -52						; size = 4
tv82 = -48						; size = 4
$T68780 = -44						; size = 4
$T68777 = -40						; size = 28
__$EHRec$ = -12						; size = 12
___$ReturnUdt$ = 8					; size = 4
__Left$ = 12						; size = 4
__Right$ = 16						; size = 1
??$?HDU?$char_traits@D@std@@V?$allocator@D@1@@std@@YA?AV?$basic_string@DU?$char_traits@D@std@@V?$allocator@D@2@@0@ABV10@D@Z PROC NEAR ; std::operator+<char,std::char_traits<char>,std::allocator<char> >, COMDAT

; 61   : 	{	// return string + character

  00000	55		 push	 ebp
  00001	8b ec		 mov	 ebp, esp
  00003	6a ff		 push	 -1
  00005	68 00 00 00 00	 push	 __ehhandler$??$?HDU?$char_traits@D@std@@V?$allocator@D@1@@std@@YA?AV?$basic_string@DU?$char_traits@D@std@@V?$allocator@D@2@@0@ABV10@D@Z
  0000a	64 a1 00 00 00
	00		 mov	 eax, DWORD PTR fs:__except_list
  00010	50		 push	 eax
  00011	64 89 25 00 00
	00 00		 mov	 DWORD PTR fs:__except_list, esp
  00018	83 ec 28	 sub	 esp, 40			; 00000028H
  0001b	c7 45 d4 00 00
	00 00		 mov	 DWORD PTR $T68780[ebp], 0

; 62   : 	return (basic_string<_Elem, _Traits, _Alloc>(_Left) += _Right);

  00022	8b 45 0c	 mov	 eax, DWORD PTR __Left$[ebp]
  00025	50		 push	 eax
  00026	8d 4d d8	 lea	 ecx, DWORD PTR $T68777[ebp]
  00029	ff 15 00 00 00
	00		 call	 DWORD PTR __imp_??0?$basic_string@DU?$char_traits@D@std@@V?$allocator@D@2@@std@@QAE@ABV01@@Z
  0002f	89 45 d0	 mov	 DWORD PTR tv82[ebp], eax
  00032	8b 4d d0	 mov	 ecx, DWORD PTR tv82[ebp]
  00035	89 4d cc	 mov	 DWORD PTR tv77[ebp], ecx
  00038	c7 45 fc 01 00
	00 00		 mov	 DWORD PTR __$EHRec$[ebp+8], 1
  0003f	8a 55 10	 mov	 dl, BYTE PTR __Right$[ebp]
  00042	52		 push	 edx
  00043	8b 4d cc	 mov	 ecx, DWORD PTR tv77[ebp]
  00046	ff 15 00 00 00
	00		 call	 DWORD PTR __imp_??Y?$basic_string@DU?$char_traits@D@std@@V?$allocator@D@2@@std@@QAEAAV01@D@Z
  0004c	50		 push	 eax
  0004d	8b 4d 08	 mov	 ecx, DWORD PTR ___$ReturnUdt$[ebp]
  00050	ff 15 00 00 00
	00		 call	 DWORD PTR __imp_??0?$basic_string@DU?$char_traits@D@std@@V?$allocator@D@2@@std@@QAE@ABV01@@Z
  00056	8b 45 d4	 mov	 eax, DWORD PTR $T68780[ebp]
  00059	83 c8 01	 or	 eax, 1
  0005c	89 45 d4	 mov	 DWORD PTR $T68780[ebp], eax
  0005f	c6 45 fc 00	 mov	 BYTE PTR __$EHRec$[ebp+8], 0
  00063	8d 4d d8	 lea	 ecx, DWORD PTR $T68777[ebp]
  00066	ff 15 00 00 00
	00		 call	 DWORD PTR __imp_??1?$basic_string@DU?$char_traits@D@std@@V?$allocator@D@2@@std@@QAE@XZ
  0006c	8b 45 08	 mov	 eax, DWORD PTR ___$ReturnUdt$[ebp]

; 63   : 	}

  0006f	8b 4d f4	 mov	 ecx, DWORD PTR __$EHRec$[ebp]
  00072	64 89 0d 00 00
	00 00		 mov	 DWORD PTR fs:__except_list, ecx
  00079	8b e5		 mov	 esp, ebp
  0007b	5d		 pop	 ebp
  0007c	c3		 ret	 0
_TEXT	ENDS
;	COMDAT text$x
text$x	SEGMENT
$L68778:
  00000	8d 4d d8	 lea	 ecx, DWORD PTR $T68777[ebp]
  00003	ff 25 00 00 00
	00		 jmp	 DWORD PTR __imp_??1?$basic_string@DU?$char_traits@D@std@@V?$allocator@D@2@@std@@QAE@XZ
$L68779:
  00009	8b 45 d4	 mov	 eax, DWORD PTR $T68780[ebp]
  0000c	83 e0 01	 and	 eax, 1
  0000f	0f 84 0d 00 00
	00		 je	 $L68781
  00015	83 65 d4 fe	 and	 DWORD PTR $T68780[ebp], -2 ; fffffffeH
  00019	8b 4d 08	 mov	 ecx, DWORD PTR ___$ReturnUdt$[ebp]
  0001c	ff 25 00 00 00
	00		 jmp	 DWORD PTR __imp_??1?$basic_string@DU?$char_traits@D@std@@V?$allocator@D@2@@std@@QAE@XZ
$L68781:
  00022	c3		 ret	 0
__ehhandler$??$?HDU?$char_traits@D@std@@V?$allocator@D@1@@std@@YA?AV?$basic_string@DU?$char_traits@D@std@@V?$allocator@D@2@@0@ABV10@D@Z:
  00023	b8 00 00 00 00	 mov	 eax, OFFSET FLAT:$T68783
  00028	e9 00 00 00 00	 jmp	 ___CxxFrameHandler
text$x	ENDS
??$?HDU?$char_traits@D@std@@V?$allocator@D@1@@std@@YA?AV?$basic_string@DU?$char_traits@D@std@@V?$allocator@D@2@@0@ABV10@D@Z ENDP ; std::operator+<char,std::char_traits<char>,std::allocator<char> >
PUBLIC	??$?H_WU?$char_traits@_W@std@@V?$allocator@_W@1@@std@@YA?AV?$basic_string@_WU?$char_traits@_W@std@@V?$allocator@_W@2@@0@ABV10@0@Z ; std::operator+<wchar_t,std::char_traits<wchar_t>,std::allocator<wchar_t> >
EXTRN	__imp_??0?$basic_string@_WU?$char_traits@_W@std@@V?$allocator@_W@2@@std@@QAE@ABV01@@Z:NEAR
EXTRN	__imp_??1?$basic_string@_WU?$char_traits@_W@std@@V?$allocator@_W@2@@std@@QAE@XZ:NEAR
EXTRN	__imp_??Y?$basic_string@_WU?$char_traits@_W@std@@V?$allocator@_W@2@@std@@QAEAAV01@ABV01@@Z:NEAR
;	COMDAT xdata$x
xdata$x	SEGMENT
$T68798	DD	0ffffffffH
	DD	FLAT:$L68792
	DD	00H
	DD	FLAT:$L68791
$T68796	DD	019930520H
	DD	02H
	DD	FLAT:$T68798
	DD	2 DUP(00H)
	DD	2 DUP(00H)
; Function compile flags: /Odt
xdata$x	ENDS
;	COMDAT ??$?H_WU?$char_traits@_W@std@@V?$allocator@_W@1@@std@@YA?AV?$basic_string@_WU?$char_traits@_W@std@@V?$allocator@_W@2@@0@ABV10@0@Z
_TEXT	SEGMENT
tv77 = -52						; size = 4
tv82 = -48						; size = 4
$T68793 = -44						; size = 4
$T68790 = -40						; size = 28
__$EHRec$ = -12						; size = 12
___$ReturnUdt$ = 8					; size = 4
__Left$ = 12						; size = 4
__Right$ = 16						; size = 4
??$?H_WU?$char_traits@_W@std@@V?$allocator@_W@1@@std@@YA?AV?$basic_string@_WU?$char_traits@_W@std@@V?$allocator@_W@2@@0@ABV10@0@Z PROC NEAR ; std::operator+<wchar_t,std::char_traits<wchar_t>,std::allocator<wchar_t> >, COMDAT

; 21   : 	{	// return string + string

  00000	55		 push	 ebp
  00001	8b ec		 mov	 ebp, esp
  00003	6a ff		 push	 -1
  00005	68 00 00 00 00	 push	 __ehhandler$??$?H_WU?$char_traits@_W@std@@V?$allocator@_W@1@@std@@YA?AV?$basic_string@_WU?$char_traits@_W@std@@V?$allocator@_W@2@@0@ABV10@0@Z
  0000a	64 a1 00 00 00
	00		 mov	 eax, DWORD PTR fs:__except_list
  00010	50		 push	 eax
  00011	64 89 25 00 00
	00 00		 mov	 DWORD PTR fs:__except_list, esp
  00018	83 ec 28	 sub	 esp, 40			; 00000028H
  0001b	c7 45 d4 00 00
	00 00		 mov	 DWORD PTR $T68793[ebp], 0

; 22   : 	return (basic_string<_Elem, _Traits, _Alloc>(_Left) += _Right);

  00022	8b 45 0c	 mov	 eax, DWORD PTR __Left$[ebp]
  00025	50		 push	 eax
  00026	8d 4d d8	 lea	 ecx, DWORD PTR $T68790[ebp]
  00029	ff 15 00 00 00
	00		 call	 DWORD PTR __imp_??0?$basic_string@_WU?$char_traits@_W@std@@V?$allocator@_W@2@@std@@QAE@ABV01@@Z
  0002f	89 45 d0	 mov	 DWORD PTR tv82[ebp], eax
  00032	8b 4d d0	 mov	 ecx, DWORD PTR tv82[ebp]
  00035	89 4d cc	 mov	 DWORD PTR tv77[ebp], ecx
  00038	c7 45 fc 01 00
	00 00		 mov	 DWORD PTR __$EHRec$[ebp+8], 1
  0003f	8b 55 10	 mov	 edx, DWORD PTR __Right$[ebp]
  00042	52		 push	 edx
  00043	8b 4d cc	 mov	 ecx, DWORD PTR tv77[ebp]
  00046	ff 15 00 00 00
	00		 call	 DWORD PTR __imp_??Y?$basic_string@_WU?$char_traits@_W@std@@V?$allocator@_W@2@@std@@QAEAAV01@ABV01@@Z
  0004c	50		 push	 eax
  0004d	8b 4d 08	 mov	 ecx, DWORD PTR ___$ReturnUdt$[ebp]
  00050	ff 15 00 00 00
	00		 call	 DWORD PTR __imp_??0?$basic_string@_WU?$char_traits@_W@std@@V?$allocator@_W@2@@std@@QAE@ABV01@@Z
  00056	8b 45 d4	 mov	 eax, DWORD PTR $T68793[ebp]
  00059	83 c8 01	 or	 eax, 1
  0005c	89 45 d4	 mov	 DWORD PTR $T68793[ebp], eax
  0005f	c6 45 fc 00	 mov	 BYTE PTR __$EHRec$[ebp+8], 0
  00063	8d 4d d8	 lea	 ecx, DWORD PTR $T68790[ebp]
  00066	ff 15 00 00 00
	00		 call	 DWORD PTR __imp_??1?$basic_string@_WU?$char_traits@_W@std@@V?$allocator@_W@2@@std@@QAE@XZ
  0006c	8b 45 08	 mov	 eax, DWORD PTR ___$ReturnUdt$[ebp]

; 23   : 	}

  0006f	8b 4d f4	 mov	 ecx, DWORD PTR __$EHRec$[ebp]
  00072	64 89 0d 00 00
	00 00		 mov	 DWORD PTR fs:__except_list, ecx
  00079	8b e5		 mov	 esp, ebp
  0007b	5d		 pop	 ebp
  0007c	c3		 ret	 0
_TEXT	ENDS
;	COMDAT text$x
text$x	SEGMENT
$L68791:
  00000	8d 4d d8	 lea	 ecx, DWORD PTR $T68790[ebp]
  00003	ff 25 00 00 00
	00		 jmp	 DWORD PTR __imp_??1?$basic_string@_WU?$char_traits@_W@std@@V?$allocator@_W@2@@std@@QAE@XZ
$L68792:
  00009	8b 45 d4	 mov	 eax, DWORD PTR $T68793[ebp]
  0000c	83 e0 01	 and	 eax, 1
  0000f	0f 84 0d 00 00
	00		 je	 $L68794
  00015	83 65 d4 fe	 and	 DWORD PTR $T68793[ebp], -2 ; fffffffeH
  00019	8b 4d 08	 mov	 ecx, DWORD PTR ___$ReturnUdt$[ebp]
  0001c	ff 25 00 00 00
	00		 jmp	 DWORD PTR __imp_??1?$basic_string@_WU?$char_traits@_W@std@@V?$allocator@_W@2@@std@@QAE@XZ
$L68794:
  00022	c3		 ret	 0
__ehhandler$??$?H_WU?$char_traits@_W@std@@V?$allocator@_W@1@@std@@YA?AV?$basic_string@_WU?$char_traits@_W@std@@V?$allocator@_W@2@@0@ABV10@0@Z:
  00023	b8 00 00 00 00	 mov	 eax, OFFSET FLAT:$T68796
  00028	e9 00 00 00 00	 jmp	 ___CxxFrameHandler
text$x	ENDS
??$?H_WU?$char_traits@_W@std@@V?$allocator@_W@1@@std@@YA?AV?$basic_string@_WU?$char_traits@_W@std@@V?$allocator@_W@2@@0@ABV10@0@Z ENDP ; std::operator+<wchar_t,std::char_traits<wchar_t>,std::allocator<wchar_t> >
PUBLIC	??$?H_WU?$char_traits@_W@std@@V?$allocator@_W@1@@std@@YA?AV?$basic_string@_WU?$char_traits@_W@std@@V?$allocator@_W@2@@0@PB_WABV10@@Z ; std::operator+<wchar_t,std::char_traits<wchar_t>,std::allocator<wchar_t> >
EXTRN	__imp_??0?$basic_string@_WU?$char_traits@_W@std@@V?$allocator@_W@2@@std@@QAE@PB_W@Z:NEAR
;	COMDAT xdata$x
xdata$x	SEGMENT
$T68811	DD	0ffffffffH
	DD	FLAT:$L68805
	DD	00H
	DD	FLAT:$L68804
$T68809	DD	019930520H
	DD	02H
	DD	FLAT:$T68811
	DD	2 DUP(00H)
	DD	2 DUP(00H)
; Function compile flags: /Odt
xdata$x	ENDS
;	COMDAT ??$?H_WU?$char_traits@_W@std@@V?$allocator@_W@1@@std@@YA?AV?$basic_string@_WU?$char_traits@_W@std@@V?$allocator@_W@2@@0@PB_WABV10@@Z
_TEXT	SEGMENT
tv77 = -52						; size = 4
tv82 = -48						; size = 4
$T68806 = -44						; size = 4
$T68803 = -40						; size = 28
__$EHRec$ = -12						; size = 12
___$ReturnUdt$ = 8					; size = 4
__Left$ = 12						; size = 4
__Right$ = 16						; size = 4
??$?H_WU?$char_traits@_W@std@@V?$allocator@_W@1@@std@@YA?AV?$basic_string@_WU?$char_traits@_W@std@@V?$allocator@_W@2@@0@PB_WABV10@@Z PROC NEAR ; std::operator+<wchar_t,std::char_traits<wchar_t>,std::allocator<wchar_t> >, COMDAT

; 31   : 	{	// return NTCS + string

  00000	55		 push	 ebp
  00001	8b ec		 mov	 ebp, esp
  00003	6a ff		 push	 -1
  00005	68 00 00 00 00	 push	 __ehhandler$??$?H_WU?$char_traits@_W@std@@V?$allocator@_W@1@@std@@YA?AV?$basic_string@_WU?$char_traits@_W@std@@V?$allocator@_W@2@@0@PB_WABV10@@Z
  0000a	64 a1 00 00 00
	00		 mov	 eax, DWORD PTR fs:__except_list
  00010	50		 push	 eax
  00011	64 89 25 00 00
	00 00		 mov	 DWORD PTR fs:__except_list, esp
  00018	83 ec 28	 sub	 esp, 40			; 00000028H
  0001b	c7 45 d4 00 00
	00 00		 mov	 DWORD PTR $T68806[ebp], 0

; 32   : 	return (basic_string<_Elem, _Traits, _Alloc>(_Left) += _Right);

  00022	8b 45 0c	 mov	 eax, DWORD PTR __Left$[ebp]
  00025	50		 push	 eax
  00026	8d 4d d8	 lea	 ecx, DWORD PTR $T68803[ebp]
  00029	ff 15 00 00 00
	00		 call	 DWORD PTR __imp_??0?$basic_string@_WU?$char_traits@_W@std@@V?$allocator@_W@2@@std@@QAE@PB_W@Z
  0002f	89 45 d0	 mov	 DWORD PTR tv82[ebp], eax
  00032	8b 4d d0	 mov	 ecx, DWORD PTR tv82[ebp]
  00035	89 4d cc	 mov	 DWORD PTR tv77[ebp], ecx
  00038	c7 45 fc 01 00
	00 00		 mov	 DWORD PTR __$EHRec$[ebp+8], 1
  0003f	8b 55 10	 mov	 edx, DWORD PTR __Right$[ebp]
  00042	52		 push	 edx
  00043	8b 4d cc	 mov	 ecx, DWORD PTR tv77[ebp]
  00046	ff 15 00 00 00
	00		 call	 DWORD PTR __imp_??Y?$basic_string@_WU?$char_traits@_W@std@@V?$allocator@_W@2@@std@@QAEAAV01@ABV01@@Z
  0004c	50		 push	 eax
  0004d	8b 4d 08	 mov	 ecx, DWORD PTR ___$ReturnUdt$[ebp]
  00050	ff 15 00 00 00
	00		 call	 DWORD PTR __imp_??0?$basic_string@_WU?$char_traits@_W@std@@V?$allocator@_W@2@@std@@QAE@ABV01@@Z
  00056	8b 45 d4	 mov	 eax, DWORD PTR $T68806[ebp]
  00059	83 c8 01	 or	 eax, 1
  0005c	89 45 d4	 mov	 DWORD PTR $T68806[ebp], eax
  0005f	c6 45 fc 00	 mov	 BYTE PTR __$EHRec$[ebp+8], 0
  00063	8d 4d d8	 lea	 ecx, DWORD PTR $T68803[ebp]
  00066	ff 15 00 00 00
	00		 call	 DWORD PTR __imp_??1?$basic_string@_WU?$char_traits@_W@std@@V?$allocator@_W@2@@std@@QAE@XZ
  0006c	8b 45 08	 mov	 eax, DWORD PTR ___$ReturnUdt$[ebp]

; 33   : 	}

  0006f	8b 4d f4	 mov	 ecx, DWORD PTR __$EHRec$[ebp]
  00072	64 89 0d 00 00
	00 00		 mov	 DWORD PTR fs:__except_list, ecx
  00079	8b e5		 mov	 esp, ebp
  0007b	5d		 pop	 ebp
  0007c	c3		 ret	 0
_TEXT	ENDS
;	COMDAT text$x
text$x	SEGMENT
$L68804:
  00000	8d 4d d8	 lea	 ecx, DWORD PTR $T68803[ebp]
  00003	ff 25 00 00 00
	00		 jmp	 DWORD PTR __imp_??1?$basic_string@_WU?$char_traits@_W@std@@V?$allocator@_W@2@@std@@QAE@XZ
$L68805:
  00009	8b 45 d4	 mov	 eax, DWORD PTR $T68806[ebp]
  0000c	83 e0 01	 and	 eax, 1
  0000f	0f 84 0d 00 00
	00		 je	 $L68807
  00015	83 65 d4 fe	 and	 DWORD PTR $T68806[ebp], -2 ; fffffffeH
  00019	8b 4d 08	 mov	 ecx, DWORD PTR ___$ReturnUdt$[ebp]
  0001c	ff 25 00 00 00
	00		 jmp	 DWORD PTR __imp_??1?$basic_string@_WU?$char_traits@_W@std@@V?$allocator@_W@2@@std@@QAE@XZ
$L68807:
  00022	c3		 ret	 0
__ehhandler$??$?H_WU?$char_traits@_W@std@@V?$allocator@_W@1@@std@@YA?AV?$basic_string@_WU?$char_traits@_W@std@@V?$allocator@_W@2@@0@PB_WABV10@@Z:
  00023	b8 00 00 00 00	 mov	 eax, OFFSET FLAT:$T68809
  00028	e9 00 00 00 00	 jmp	 ___CxxFrameHandler
text$x	ENDS
??$?H_WU?$char_traits@_W@std@@V?$allocator@_W@1@@std@@YA?AV?$basic_string@_WU?$char_traits@_W@std@@V?$allocator@_W@2@@0@PB_WABV10@@Z ENDP ; std::operator+<wchar_t,std::char_traits<wchar_t>,std::allocator<wchar_t> >
PUBLIC	??$?H_WU?$char_traits@_W@std@@V?$allocator@_W@1@@std@@YA?AV?$basic_string@_WU?$char_traits@_W@std@@V?$allocator@_W@2@@0@_WABV10@@Z ; std::operator+<wchar_t,std::char_traits<wchar_t>,std::allocator<wchar_t> >
EXTRN	__imp_??0?$basic_string@_WU?$char_traits@_W@std@@V?$allocator@_W@2@@std@@QAE@I_W@Z:NEAR
;	COMDAT xdata$x
xdata$x	SEGMENT
$T68824	DD	0ffffffffH
	DD	FLAT:$L68818
	DD	00H
	DD	FLAT:$L68817
$T68822	DD	019930520H
	DD	02H
	DD	FLAT:$T68824
	DD	2 DUP(00H)
	DD	2 DUP(00H)
; Function compile flags: /Odt
xdata$x	ENDS
;	COMDAT ??$?H_WU?$char_traits@_W@std@@V?$allocator@_W@1@@std@@YA?AV?$basic_string@_WU?$char_traits@_W@std@@V?$allocator@_W@2@@0@_WABV10@@Z
_TEXT	SEGMENT
tv78 = -52						; size = 4
tv83 = -48						; size = 4
$T68819 = -44						; size = 4
$T68816 = -40						; size = 28
__$EHRec$ = -12						; size = 12
___$ReturnUdt$ = 8					; size = 4
__Left$ = 12						; size = 2
__Right$ = 16						; size = 4
??$?H_WU?$char_traits@_W@std@@V?$allocator@_W@1@@std@@YA?AV?$basic_string@_WU?$char_traits@_W@std@@V?$allocator@_W@2@@0@_WABV10@@Z PROC NEAR ; std::operator+<wchar_t,std::char_traits<wchar_t>,std::allocator<wchar_t> >, COMDAT

; 41   : 	{	// return character + string

  00000	55		 push	 ebp
  00001	8b ec		 mov	 ebp, esp
  00003	6a ff		 push	 -1
  00005	68 00 00 00 00	 push	 __ehhandler$??$?H_WU?$char_traits@_W@std@@V?$allocator@_W@1@@std@@YA?AV?$basic_string@_WU?$char_traits@_W@std@@V?$allocator@_W@2@@0@_WABV10@@Z
  0000a	64 a1 00 00 00
	00		 mov	 eax, DWORD PTR fs:__except_list
  00010	50		 push	 eax
  00011	64 89 25 00 00
	00 00		 mov	 DWORD PTR fs:__except_list, esp
  00018	83 ec 28	 sub	 esp, 40			; 00000028H
  0001b	c7 45 d4 00 00
	00 00		 mov	 DWORD PTR $T68819[ebp], 0

; 42   : 	return (basic_string<_Elem, _Traits, _Alloc>(1, _Left) += _Right);

  00022	66 8b 45 0c	 mov	 ax, WORD PTR __Left$[ebp]
  00026	50		 push	 eax
  00027	6a 01		 push	 1
  00029	8d 4d d8	 lea	 ecx, DWORD PTR $T68816[ebp]
  0002c	ff 15 00 00 00
	00		 call	 DWORD PTR __imp_??0?$basic_string@_WU?$char_traits@_W@std@@V?$allocator@_W@2@@std@@QAE@I_W@Z
  00032	89 45 d0	 mov	 DWORD PTR tv83[ebp], eax
  00035	8b 4d d0	 mov	 ecx, DWORD PTR tv83[ebp]
  00038	89 4d cc	 mov	 DWORD PTR tv78[ebp], ecx
  0003b	c7 45 fc 01 00
	00 00		 mov	 DWORD PTR __$EHRec$[ebp+8], 1
  00042	8b 55 10	 mov	 edx, DWORD PTR __Right$[ebp]
  00045	52		 push	 edx
  00046	8b 4d cc	 mov	 ecx, DWORD PTR tv78[ebp]
  00049	ff 15 00 00 00
	00		 call	 DWORD PTR __imp_??Y?$basic_string@_WU?$char_traits@_W@std@@V?$allocator@_W@2@@std@@QAEAAV01@ABV01@@Z
  0004f	50		 push	 eax
  00050	8b 4d 08	 mov	 ecx, DWORD PTR ___$ReturnUdt$[ebp]
  00053	ff 15 00 00 00
	00		 call	 DWORD PTR __imp_??0?$basic_string@_WU?$char_traits@_W@std@@V?$allocator@_W@2@@std@@QAE@ABV01@@Z
  00059	8b 45 d4	 mov	 eax, DWORD PTR $T68819[ebp]
  0005c	83 c8 01	 or	 eax, 1
  0005f	89 45 d4	 mov	 DWORD PTR $T68819[ebp], eax
  00062	c6 45 fc 00	 mov	 BYTE PTR __$EHRec$[ebp+8], 0
  00066	8d 4d d8	 lea	 ecx, DWORD PTR $T68816[ebp]
  00069	ff 15 00 00 00
	00		 call	 DWORD PTR __imp_??1?$basic_string@_WU?$char_traits@_W@std@@V?$allocator@_W@2@@std@@QAE@XZ
  0006f	8b 45 08	 mov	 eax, DWORD PTR ___$ReturnUdt$[ebp]

; 43   : 	}

  00072	8b 4d f4	 mov	 ecx, DWORD PTR __$EHRec$[ebp]
  00075	64 89 0d 00 00
	00 00		 mov	 DWORD PTR fs:__except_list, ecx
  0007c	8b e5		 mov	 esp, ebp
  0007e	5d		 pop	 ebp
  0007f	c3		 ret	 0
_TEXT	ENDS
;	COMDAT text$x
text$x	SEGMENT
$L68817:
  00000	8d 4d d8	 lea	 ecx, DWORD PTR $T68816[ebp]
  00003	ff 25 00 00 00
	00		 jmp	 DWORD PTR __imp_??1?$basic_string@_WU?$char_traits@_W@std@@V?$allocator@_W@2@@std@@QAE@XZ
$L68818:
  00009	8b 45 d4	 mov	 eax, DWORD PTR $T68819[ebp]
  0000c	83 e0 01	 and	 eax, 1
  0000f	0f 84 0d 00 00
	00		 je	 $L68820
  00015	83 65 d4 fe	 and	 DWORD PTR $T68819[ebp], -2 ; fffffffeH
  00019	8b 4d 08	 mov	 ecx, DWORD PTR ___$ReturnUdt$[ebp]
  0001c	ff 25 00 00 00
	00		 jmp	 DWORD PTR __imp_??1?$basic_string@_WU?$char_traits@_W@std@@V?$allocator@_W@2@@std@@QAE@XZ
$L68820:
  00022	c3		 ret	 0
__ehhandler$??$?H_WU?$char_traits@_W@std@@V?$allocator@_W@1@@std@@YA?AV?$basic_string@_WU?$char_traits@_W@std@@V?$allocator@_W@2@@0@_WABV10@@Z:
  00023	b8 00 00 00 00	 mov	 eax, OFFSET FLAT:$T68822
  00028	e9 00 00 00 00	 jmp	 ___CxxFrameHandler
text$x	ENDS
??$?H_WU?$char_traits@_W@std@@V?$allocator@_W@1@@std@@YA?AV?$basic_string@_WU?$char_traits@_W@std@@V?$allocator@_W@2@@0@_WABV10@@Z ENDP ; std::operator+<wchar_t,std::char_traits<wchar_t>,std::allocator<wchar_t> >
PUBLIC	??$?H_WU?$char_traits@_W@std@@V?$allocator@_W@1@@std@@YA?AV?$basic_string@_WU?$char_traits@_W@std@@V?$allocator@_W@2@@0@ABV10@PB_W@Z ; std::operator+<wchar_t,std::char_traits<wchar_t>,std::allocator<wchar_t> >
EXTRN	__imp_??Y?$basic_string@_WU?$char_traits@_W@std@@V?$allocator@_W@2@@std@@QAEAAV01@PB_W@Z:NEAR
;	COMDAT xdata$x
xdata$x	SEGMENT
$T68837	DD	0ffffffffH
	DD	FLAT:$L68831
	DD	00H
	DD	FLAT:$L68830
$T68835	DD	019930520H
	DD	02H
	DD	FLAT:$T68837
	DD	2 DUP(00H)
	DD	2 DUP(00H)
; Function compile flags: /Odt
xdata$x	ENDS
;	COMDAT ??$?H_WU?$char_traits@_W@std@@V?$allocator@_W@1@@std@@YA?AV?$basic_string@_WU?$char_traits@_W@std@@V?$allocator@_W@2@@0@ABV10@PB_W@Z
_TEXT	SEGMENT
tv77 = -52						; size = 4
tv82 = -48						; size = 4
$T68832 = -44						; size = 4
$T68829 = -40						; size = 28
__$EHRec$ = -12						; size = 12
___$ReturnUdt$ = 8					; size = 4
__Left$ = 12						; size = 4
__Right$ = 16						; size = 4
??$?H_WU?$char_traits@_W@std@@V?$allocator@_W@1@@std@@YA?AV?$basic_string@_WU?$char_traits@_W@std@@V?$allocator@_W@2@@0@ABV10@PB_W@Z PROC NEAR ; std::operator+<wchar_t,std::char_traits<wchar_t>,std::allocator<wchar_t> >, COMDAT

; 51   : 	{	// return string + NTCS

  00000	55		 push	 ebp
  00001	8b ec		 mov	 ebp, esp
  00003	6a ff		 push	 -1
  00005	68 00 00 00 00	 push	 __ehhandler$??$?H_WU?$char_traits@_W@std@@V?$allocator@_W@1@@std@@YA?AV?$basic_string@_WU?$char_traits@_W@std@@V?$allocator@_W@2@@0@ABV10@PB_W@Z
  0000a	64 a1 00 00 00
	00		 mov	 eax, DWORD PTR fs:__except_list
  00010	50		 push	 eax
  00011	64 89 25 00 00
	00 00		 mov	 DWORD PTR fs:__except_list, esp
  00018	83 ec 28	 sub	 esp, 40			; 00000028H
  0001b	c7 45 d4 00 00
	00 00		 mov	 DWORD PTR $T68832[ebp], 0

; 52   : 	return (basic_string<_Elem, _Traits, _Alloc>(_Left) += _Right);

  00022	8b 45 0c	 mov	 eax, DWORD PTR __Left$[ebp]
  00025	50		 push	 eax
  00026	8d 4d d8	 lea	 ecx, DWORD PTR $T68829[ebp]
  00029	ff 15 00 00 00
	00		 call	 DWORD PTR __imp_??0?$basic_string@_WU?$char_traits@_W@std@@V?$allocator@_W@2@@std@@QAE@ABV01@@Z
  0002f	89 45 d0	 mov	 DWORD PTR tv82[ebp], eax
  00032	8b 4d d0	 mov	 ecx, DWORD PTR tv82[ebp]
  00035	89 4d cc	 mov	 DWORD PTR tv77[ebp], ecx
  00038	c7 45 fc 01 00
	00 00		 mov	 DWORD PTR __$EHRec$[ebp+8], 1
  0003f	8b 55 10	 mov	 edx, DWORD PTR __Right$[ebp]
  00042	52		 push	 edx
  00043	8b 4d cc	 mov	 ecx, DWORD PTR tv77[ebp]
  00046	ff 15 00 00 00
	00		 call	 DWORD PTR __imp_??Y?$basic_string@_WU?$char_traits@_W@std@@V?$allocator@_W@2@@std@@QAEAAV01@PB_W@Z
  0004c	50		 push	 eax
  0004d	8b 4d 08	 mov	 ecx, DWORD PTR ___$ReturnUdt$[ebp]
  00050	ff 15 00 00 00
	00		 call	 DWORD PTR __imp_??0?$basic_string@_WU?$char_traits@_W@std@@V?$allocator@_W@2@@std@@QAE@ABV01@@Z
  00056	8b 45 d4	 mov	 eax, DWORD PTR $T68832[ebp]
  00059	83 c8 01	 or	 eax, 1
  0005c	89 45 d4	 mov	 DWORD PTR $T68832[ebp], eax
  0005f	c6 45 fc 00	 mov	 BYTE PTR __$EHRec$[ebp+8], 0
  00063	8d 4d d8	 lea	 ecx, DWORD PTR $T68829[ebp]
  00066	ff 15 00 00 00
	00		 call	 DWORD PTR __imp_??1?$basic_string@_WU?$char_traits@_W@std@@V?$allocator@_W@2@@std@@QAE@XZ
  0006c	8b 45 08	 mov	 eax, DWORD PTR ___$ReturnUdt$[ebp]

; 53   : 	}

  0006f	8b 4d f4	 mov	 ecx, DWORD PTR __$EHRec$[ebp]
  00072	64 89 0d 00 00
	00 00		 mov	 DWORD PTR fs:__except_list, ecx
  00079	8b e5		 mov	 esp, ebp
  0007b	5d		 pop	 ebp
  0007c	c3		 ret	 0
_TEXT	ENDS
;	COMDAT text$x
text$x	SEGMENT
$L68830:
  00000	8d 4d d8	 lea	 ecx, DWORD PTR $T68829[ebp]
  00003	ff 25 00 00 00
	00		 jmp	 DWORD PTR __imp_??1?$basic_string@_WU?$char_traits@_W@std@@V?$allocator@_W@2@@std@@QAE@XZ
$L68831:
  00009	8b 45 d4	 mov	 eax, DWORD PTR $T68832[ebp]
  0000c	83 e0 01	 and	 eax, 1
  0000f	0f 84 0d 00 00
	00		 je	 $L68833
  00015	83 65 d4 fe	 and	 DWORD PTR $T68832[ebp], -2 ; fffffffeH
  00019	8b 4d 08	 mov	 ecx, DWORD PTR ___$ReturnUdt$[ebp]
  0001c	ff 25 00 00 00
	00		 jmp	 DWORD PTR __imp_??1?$basic_string@_WU?$char_traits@_W@std@@V?$allocator@_W@2@@std@@QAE@XZ
$L68833:
  00022	c3		 ret	 0
__ehhandler$??$?H_WU?$char_traits@_W@std@@V?$allocator@_W@1@@std@@YA?AV?$basic_string@_WU?$char_traits@_W@std@@V?$allocator@_W@2@@0@ABV10@PB_W@Z:
  00023	b8 00 00 00 00	 mov	 eax, OFFSET FLAT:$T68835
  00028	e9 00 00 00 00	 jmp	 ___CxxFrameHandler
text$x	ENDS
??$?H_WU?$char_traits@_W@std@@V?$allocator@_W@1@@std@@YA?AV?$basic_string@_WU?$char_traits@_W@std@@V?$allocator@_W@2@@0@ABV10@PB_W@Z ENDP ; std::operator+<wchar_t,std::char_traits<wchar_t>,std::allocator<wchar_t> >
PUBLIC	??$?H_WU?$char_traits@_W@std@@V?$allocator@_W@1@@std@@YA?AV?$basic_string@_WU?$char_traits@_W@std@@V?$allocator@_W@2@@0@ABV10@_W@Z ; std::operator+<wchar_t,std::char_traits<wchar_t>,std::allocator<wchar_t> >
EXTRN	__imp_??Y?$basic_string@_WU?$char_traits@_W@std@@V?$allocator@_W@2@@std@@QAEAAV01@_W@Z:NEAR
;	COMDAT xdata$x
xdata$x	SEGMENT
$T68850	DD	0ffffffffH
	DD	FLAT:$L68844
	DD	00H
	DD	FLAT:$L68843
$T68848	DD	019930520H
	DD	02H
	DD	FLAT:$T68850
	DD	2 DUP(00H)
	DD	2 DUP(00H)
; Function compile flags: /Odt
xdata$x	ENDS
;	COMDAT ??$?H_WU?$char_traits@_W@std@@V?$allocator@_W@1@@std@@YA?AV?$basic_string@_WU?$char_traits@_W@std@@V?$allocator@_W@2@@0@ABV10@_W@Z
_TEXT	SEGMENT
tv77 = -52						; size = 4
tv82 = -48						; size = 4
$T68845 = -44						; size = 4
$T68842 = -40						; size = 28
__$EHRec$ = -12						; size = 12
___$ReturnUdt$ = 8					; size = 4
__Left$ = 12						; size = 4
__Right$ = 16						; size = 2
??$?H_WU?$char_traits@_W@std@@V?$allocator@_W@1@@std@@YA?AV?$basic_string@_WU?$char_traits@_W@std@@V?$allocator@_W@2@@0@ABV10@_W@Z PROC NEAR ; std::operator+<wchar_t,std::char_traits<wchar_t>,std::allocator<wchar_t> >, COMDAT

; 61   : 	{	// return string + character

  00000	55		 push	 ebp
  00001	8b ec		 mov	 ebp, esp
  00003	6a ff		 push	 -1
  00005	68 00 00 00 00	 push	 __ehhandler$??$?H_WU?$char_traits@_W@std@@V?$allocator@_W@1@@std@@YA?AV?$basic_string@_WU?$char_traits@_W@std@@V?$allocator@_W@2@@0@ABV10@_W@Z
  0000a	64 a1 00 00 00
	00		 mov	 eax, DWORD PTR fs:__except_list
  00010	50		 push	 eax
  00011	64 89 25 00 00
	00 00		 mov	 DWORD PTR fs:__except_list, esp
  00018	83 ec 28	 sub	 esp, 40			; 00000028H
  0001b	c7 45 d4 00 00
	00 00		 mov	 DWORD PTR $T68845[ebp], 0

; 62   : 	return (basic_string<_Elem, _Traits, _Alloc>(_Left) += _Right);

  00022	8b 45 0c	 mov	 eax, DWORD PTR __Left$[ebp]
  00025	50		 push	 eax
  00026	8d 4d d8	 lea	 ecx, DWORD PTR $T68842[ebp]
  00029	ff 15 00 00 00
	00		 call	 DWORD PTR __imp_??0?$basic_string@_WU?$char_traits@_W@std@@V?$allocator@_W@2@@std@@QAE@ABV01@@Z
  0002f	89 45 d0	 mov	 DWORD PTR tv82[ebp], eax
  00032	8b 4d d0	 mov	 ecx, DWORD PTR tv82[ebp]
  00035	89 4d cc	 mov	 DWORD PTR tv77[ebp], ecx
  00038	c7 45 fc 01 00
	00 00		 mov	 DWORD PTR __$EHRec$[ebp+8], 1
  0003f	66 8b 55 10	 mov	 dx, WORD PTR __Right$[ebp]
  00043	52		 push	 edx
  00044	8b 4d cc	 mov	 ecx, DWORD PTR tv77[ebp]
  00047	ff 15 00 00 00
	00		 call	 DWORD PTR __imp_??Y?$basic_string@_WU?$char_traits@_W@std@@V?$allocator@_W@2@@std@@QAEAAV01@_W@Z
  0004d	50		 push	 eax
  0004e	8b 4d 08	 mov	 ecx, DWORD PTR ___$ReturnUdt$[ebp]
  00051	ff 15 00 00 00
	00		 call	 DWORD PTR __imp_??0?$basic_string@_WU?$char_traits@_W@std@@V?$allocator@_W@2@@std@@QAE@ABV01@@Z
  00057	8b 45 d4	 mov	 eax, DWORD PTR $T68845[ebp]
  0005a	83 c8 01	 or	 eax, 1
  0005d	89 45 d4	 mov	 DWORD PTR $T68845[ebp], eax
  00060	c6 45 fc 00	 mov	 BYTE PTR __$EHRec$[ebp+8], 0
  00064	8d 4d d8	 lea	 ecx, DWORD PTR $T68842[ebp]
  00067	ff 15 00 00 00
	00		 call	 DWORD PTR __imp_??1?$basic_string@_WU?$char_traits@_W@std@@V?$allocator@_W@2@@std@@QAE@XZ
  0006d	8b 45 08	 mov	 eax, DWORD PTR ___$ReturnUdt$[ebp]

; 63   : 	}

  00070	8b 4d f4	 mov	 ecx, DWORD PTR __$EHRec$[ebp]
  00073	64 89 0d 00 00
	00 00		 mov	 DWORD PTR fs:__except_list, ecx
  0007a	8b e5		 mov	 esp, ebp
  0007c	5d		 pop	 ebp
  0007d	c3		 ret	 0
_TEXT	ENDS
;	COMDAT text$x
text$x	SEGMENT
$L68843:
  00000	8d 4d d8	 lea	 ecx, DWORD PTR $T68842[ebp]
  00003	ff 25 00 00 00
	00		 jmp	 DWORD PTR __imp_??1?$basic_string@_WU?$char_traits@_W@std@@V?$allocator@_W@2@@std@@QAE@XZ
$L68844:
  00009	8b 45 d4	 mov	 eax, DWORD PTR $T68845[ebp]
  0000c	83 e0 01	 and	 eax, 1
  0000f	0f 84 0d 00 00
	00		 je	 $L68846
  00015	83 65 d4 fe	 and	 DWORD PTR $T68845[ebp], -2 ; fffffffeH
  00019	8b 4d 08	 mov	 ecx, DWORD PTR ___$ReturnUdt$[ebp]
  0001c	ff 25 00 00 00
	00		 jmp	 DWORD PTR __imp_??1?$basic_string@_WU?$char_traits@_W@std@@V?$allocator@_W@2@@std@@QAE@XZ
$L68846:
  00022	c3		 ret	 0
__ehhandler$??$?H_WU?$char_traits@_W@std@@V?$allocator@_W@1@@std@@YA?AV?$basic_string@_WU?$char_traits@_W@std@@V?$allocator@_W@2@@0@ABV10@_W@Z:
  00023	b8 00 00 00 00	 mov	 eax, OFFSET FLAT:$T68848
  00028	e9 00 00 00 00	 jmp	 ___CxxFrameHandler
text$x	ENDS
??$?H_WU?$char_traits@_W@std@@V?$allocator@_W@1@@std@@YA?AV?$basic_string@_WU?$char_traits@_W@std@@V?$allocator@_W@2@@0@ABV10@_W@Z ENDP ; std::operator+<wchar_t,std::char_traits<wchar_t>,std::allocator<wchar_t> >
PUBLIC	??$use_facet@V?$ctype@D@std@@@std@@YAABV?$ctype@D@0@ABVlocale@0@@Z ; std::use_facet<std::ctype<char> >
PUBLIC	??0sentry@?$basic_istream@DU?$char_traits@D@std@@@std@@QAE@AAV12@_N@Z ; std::basic_istream<char,std::char_traits<char> >::sentry::sentry
PUBLIC	??Bsentry@?$basic_istream@DU?$char_traits@D@std@@@std@@QBE_NXZ ; std::basic_istream<char,std::char_traits<char> >::sentry::operator bool
PUBLIC	??1sentry@?$basic_istream@DU?$char_traits@D@std@@@std@@QAE@XZ ; std::basic_istream<char,std::char_traits<char> >::sentry::~sentry
PUBLIC	??$?5DU?$char_traits@D@std@@V?$allocator@D@1@@std@@YAAAV?$basic_istream@DU?$char_traits@D@std@@@0@AAV10@AAV?$basic_string@DU?$char_traits@D@std@@V?$allocator@D@2@@0@@Z ; std::operator>><char,std::char_traits<char>,std::allocator<char> >
EXTRN	__imp_?max_size@?$basic_string@DU?$char_traits@D@std@@V?$allocator@D@2@@std@@QBEIXZ:NEAR
EXTRN	__imp_?is@?$ctype@D@std@@QBE_NFD@Z:NEAR
EXTRN	__imp_?to_char_type@?$char_traits@D@std@@SADABH@Z:NEAR
EXTRN	__imp_?eq_int_type@?$char_traits@D@std@@SA_NABH0@Z:NEAR
EXTRN	__imp_?eof@?$char_traits@D@std@@SAHXZ:NEAR
EXTRN	__imp_?sgetc@?$basic_streambuf@DU?$char_traits@D@std@@@std@@QAEHXZ:NEAR
EXTRN	__imp_?snextc@?$basic_streambuf@DU?$char_traits@D@std@@@std@@QAEHXZ:NEAR
EXTRN	__imp_??1locale@std@@QAE@XZ:NEAR
EXTRN	__imp_?setstate@?$basic_ios@DU?$char_traits@D@std@@@std@@QAEXH_N@Z:NEAR
EXTRN	__imp_?rdbuf@?$basic_ios@DU?$char_traits@D@std@@@std@@QBEPAV?$basic_streambuf@DU?$char_traits@D@std@@@2@XZ:NEAR
EXTRN	__imp_?width@ios_base@std@@QBEHXZ:NEAR
EXTRN	__imp_?width@ios_base@std@@QAEHH@Z:NEAR
EXTRN	__imp_?getloc@ios_base@std@@QBE?AVlocale@2@XZ:NEAR
EXTRN	__imp_?append@?$basic_string@DU?$char_traits@D@std@@V?$allocator@D@2@@std@@QAEAAV12@ID@Z:NEAR
EXTRN	__imp_?erase@?$basic_string@DU?$char_traits@D@std@@V?$allocator@D@2@@std@@QAEAAV12@II@Z:NEAR
;	COMDAT xdata$x
xdata$x	SEGMENT
$T68867	DD	0ffffffffH
	DD	FLAT:$L68862
	DD	00H
	DD	FLAT:$L68863
	DD	00H
	DD	00H
	DD	00H
	DD	00H
$T68869	DD	00H
	DD	00H
	DD	00H
	DD	FLAT:$L68861
$T68868	DD	02H
	DD	02H
	DD	03H
	DD	01H
	DD	FLAT:$T68869
$T68865	DD	019930520H
	DD	04H
	DD	FLAT:$T68867
	DD	01H
	DD	FLAT:$T68868
	DD	2 DUP(00H)
; Function compile flags: /Odt
xdata$x	ENDS
;	COMDAT ??$?5DU?$char_traits@D@std@@V?$allocator@D@1@@std@@YAAAV?$basic_istream@DU?$char_traits@D@std@@@0@AAV10@AAV?$basic_string@DU?$char_traits@D@std@@V?$allocator@D@2@@0@@Z
_TEXT	SEGMENT
tv205 = -112						; size = 1
tv204 = -111						; size = 1
tv203 = -110						; size = 1
tv202 = -109						; size = 1
tv201 = -108						; size = 4
tv200 = -104						; size = 4
tv199 = -100						; size = 4
tv198 = -96						; size = 4
tv197 = -92						; size = 4
tv196 = -88						; size = 4
tv135 = -84						; size = 4
tv195 = -80						; size = 4
tv194 = -76						; size = 4
tv193 = -72						; size = 4
tv192 = -68						; size = 4
tv189 = -64						; size = 4
tv65 = -60						; size = 4
$T68859 = -56						; size = 4
$T68858 = -52						; size = 4
$T68855 = -48						; size = 4
__Meta$67354 = -44					; size = 4
__Size$67351 = -40					; size = 4
__Ctype_fac$67348 = -36					; size = 4
__Changed$ = -29					; size = 1
__Ok$ = -28						; size = 8
__State$ = -20						; size = 4
__$EHRec$ = -16						; size = 16
__Istr$ = 8						; size = 4
__Str$ = 12						; size = 4
??$?5DU?$char_traits@D@std@@V?$allocator@D@1@@std@@YAAAV?$basic_istream@DU?$char_traits@D@std@@@0@AAV10@AAV?$basic_string@DU?$char_traits@D@std@@V?$allocator@D@2@@0@@Z PROC NEAR ; std::operator>><char,std::char_traits<char>,std::allocator<char> >, COMDAT

; 425  : 	{	// extract a string

  00000	55		 push	 ebp
  00001	8b ec		 mov	 ebp, esp
  00003	6a ff		 push	 -1
  00005	68 00 00 00 00	 push	 __ehhandler$??$?5DU?$char_traits@D@std@@V?$allocator@D@1@@std@@YAAAV?$basic_istream@DU?$char_traits@D@std@@@0@AAV10@AAV?$basic_string@DU?$char_traits@D@std@@V?$allocator@D@2@@0@@Z
  0000a	64 a1 00 00 00
	00		 mov	 eax, DWORD PTR fs:__except_list
  00010	50		 push	 eax
  00011	64 89 25 00 00
	00 00		 mov	 DWORD PTR fs:__except_list, esp
  00018	51		 push	 ecx
  00019	83 ec 60	 sub	 esp, 96			; 00000060H
  0001c	53		 push	 ebx
  0001d	56		 push	 esi
  0001e	57		 push	 edi
  0001f	89 65 f0	 mov	 DWORD PTR __$EHRec$[ebp], esp

; 426  : 	typedef ctype<_Elem> _Ctype;
; 427  : 	typedef basic_istream<_Elem, _Traits> _Myis;
; 428  : 	typedef basic_string<_Elem, _Traits, _Alloc> _Mystr;
; 429  : 	typedef typename _Mystr::size_type _Mysizt;
; 430  : 
; 431  : 	ios_base::iostate _State = ios_base::goodbit;

  00022	c7 45 ec 00 00
	00 00		 mov	 DWORD PTR __State$[ebp], 0

; 432  : 	bool _Changed = false;

  00029	c6 45 e3 00	 mov	 BYTE PTR __Changed$[ebp], 0

; 433  : 	const typename _Myis::sentry _Ok(_Istr);

  0002d	6a 00		 push	 0
  0002f	8b 45 08	 mov	 eax, DWORD PTR __Istr$[ebp]
  00032	50		 push	 eax
  00033	8d 4d e4	 lea	 ecx, DWORD PTR __Ok$[ebp]
  00036	e8 00 00 00 00	 call	 ??0sentry@?$basic_istream@DU?$char_traits@D@std@@@std@@QAE@AAV12@_N@Z ; std::basic_istream<char,std::char_traits<char> >::sentry::sentry
  0003b	c7 45 fc 00 00
	00 00		 mov	 DWORD PTR __$EHRec$[ebp+12], 0

; 434  : 
; 435  : 	if (_Ok)

  00042	8d 4d e4	 lea	 ecx, DWORD PTR __Ok$[ebp]
  00045	e8 00 00 00 00	 call	 ??Bsentry@?$basic_istream@DU?$char_traits@D@std@@@std@@QBE_NXZ ; std::basic_istream<char,std::char_traits<char> >::sentry::operator bool
  0004a	0f b6 c8	 movzx	 ecx, al
  0004d	85 c9		 test	 ecx, ecx
  0004f	0f 84 dc 01 00
	00		 je	 $L68860

; 436  : 		{	// state okay, extract characters
; 437  : 		const _Ctype& _Ctype_fac = _USE(_Istr.getloc(), _Ctype);

  00055	8d 55 d0	 lea	 edx, DWORD PTR $T68855[ebp]
  00058	52		 push	 edx
  00059	8b 45 08	 mov	 eax, DWORD PTR __Istr$[ebp]
  0005c	8b 08		 mov	 ecx, DWORD PTR [eax]
  0005e	8b 55 08	 mov	 edx, DWORD PTR __Istr$[ebp]
  00061	03 51 04	 add	 edx, DWORD PTR [ecx+4]
  00064	8b ca		 mov	 ecx, edx
  00066	ff 15 00 00 00
	00		 call	 DWORD PTR __imp_?getloc@ios_base@std@@QBE?AVlocale@2@XZ
  0006c	89 45 c4	 mov	 DWORD PTR tv65[ebp], eax
  0006f	8b 45 c4	 mov	 eax, DWORD PTR tv65[ebp]
  00072	89 45 c0	 mov	 DWORD PTR tv189[ebp], eax
  00075	c6 45 fc 01	 mov	 BYTE PTR __$EHRec$[ebp+12], 1
  00079	8b 4d c0	 mov	 ecx, DWORD PTR tv189[ebp]
  0007c	51		 push	 ecx
  0007d	e8 00 00 00 00	 call	 ??$use_facet@V?$ctype@D@std@@@std@@YAABV?$ctype@D@0@ABVlocale@0@@Z ; std::use_facet<std::ctype<char> >
  00082	83 c4 04	 add	 esp, 4
  00085	89 45 dc	 mov	 DWORD PTR __Ctype_fac$67348[ebp], eax
  00088	c6 45 fc 00	 mov	 BYTE PTR __$EHRec$[ebp+12], 0
  0008c	8d 4d d0	 lea	 ecx, DWORD PTR $T68855[ebp]
  0008f	ff 15 00 00 00
	00		 call	 DWORD PTR __imp_??1locale@std@@QAE@XZ

; 438  : 		_Str.erase();

  00095	8b 15 00 00 00
	00		 mov	 edx, DWORD PTR __imp_?npos@?$basic_string@DU?$char_traits@D@std@@V?$allocator@D@2@@std@@2IB
  0009b	8b 02		 mov	 eax, DWORD PTR [edx]
  0009d	50		 push	 eax
  0009e	6a 00		 push	 0
  000a0	8b 4d 0c	 mov	 ecx, DWORD PTR __Str$[ebp]
  000a3	ff 15 00 00 00
	00		 call	 DWORD PTR __imp_?erase@?$basic_string@DU?$char_traits@D@std@@V?$allocator@D@2@@std@@QAEAAV12@II@Z

; 439  : 
; 440  : 		_TRY_IO_BEGIN

  000a9	c6 45 fc 02	 mov	 BYTE PTR __$EHRec$[ebp+12], 2

; 441  : 		_Mysizt _Size = 0 < _Istr.width()
; 442  : 			&& (_Mysizt)_Istr.width() < _Str.max_size()
; 443  : 				? (_Mysizt)_Istr.width() : _Str.max_size();

  000ad	8b 4d 08	 mov	 ecx, DWORD PTR __Istr$[ebp]
  000b0	8b 11		 mov	 edx, DWORD PTR [ecx]
  000b2	8b 4d 08	 mov	 ecx, DWORD PTR __Istr$[ebp]
  000b5	03 4a 04	 add	 ecx, DWORD PTR [edx+4]
  000b8	ff 15 00 00 00
	00		 call	 DWORD PTR __imp_?width@ios_base@std@@QBEHXZ
  000be	89 45 bc	 mov	 DWORD PTR tv192[ebp], eax
  000c1	83 7d bc 00	 cmp	 DWORD PTR tv192[ebp], 0
  000c5	7e 46		 jle	 SHORT $L68856
  000c7	8b 45 08	 mov	 eax, DWORD PTR __Istr$[ebp]
  000ca	8b 08		 mov	 ecx, DWORD PTR [eax]
  000cc	8b 55 08	 mov	 edx, DWORD PTR __Istr$[ebp]
  000cf	03 51 04	 add	 edx, DWORD PTR [ecx+4]
  000d2	8b ca		 mov	 ecx, edx
  000d4	ff 15 00 00 00
	00		 call	 DWORD PTR __imp_?width@ios_base@std@@QBEHXZ
  000da	89 45 b8	 mov	 DWORD PTR tv193[ebp], eax
  000dd	8b 4d 0c	 mov	 ecx, DWORD PTR __Str$[ebp]
  000e0	ff 15 00 00 00
	00		 call	 DWORD PTR __imp_?max_size@?$basic_string@DU?$char_traits@D@std@@V?$allocator@D@2@@std@@QBEIXZ
  000e6	89 45 b4	 mov	 DWORD PTR tv194[ebp], eax
  000e9	8b 45 b8	 mov	 eax, DWORD PTR tv193[ebp]
  000ec	3b 45 b4	 cmp	 eax, DWORD PTR tv194[ebp]
  000ef	73 1c		 jae	 SHORT $L68856
  000f1	8b 4d 08	 mov	 ecx, DWORD PTR __Istr$[ebp]
  000f4	8b 11		 mov	 edx, DWORD PTR [ecx]
  000f6	8b 4d 08	 mov	 ecx, DWORD PTR __Istr$[ebp]
  000f9	03 4a 04	 add	 ecx, DWORD PTR [edx+4]
  000fc	ff 15 00 00 00
	00		 call	 DWORD PTR __imp_?width@ios_base@std@@QBEHXZ
  00102	89 45 b0	 mov	 DWORD PTR tv195[ebp], eax
  00105	8b 45 b0	 mov	 eax, DWORD PTR tv195[ebp]
  00108	89 45 ac	 mov	 DWORD PTR tv135[ebp], eax
  0010b	eb 12		 jmp	 SHORT $L68857
$L68856:
  0010d	8b 4d 0c	 mov	 ecx, DWORD PTR __Str$[ebp]
  00110	ff 15 00 00 00
	00		 call	 DWORD PTR __imp_?max_size@?$basic_string@DU?$char_traits@D@std@@V?$allocator@D@2@@std@@QBEIXZ
  00116	89 45 a8	 mov	 DWORD PTR tv196[ebp], eax
  00119	8b 4d a8	 mov	 ecx, DWORD PTR tv196[ebp]
  0011c	89 4d ac	 mov	 DWORD PTR tv135[ebp], ecx
$L68857:
  0011f	8b 55 ac	 mov	 edx, DWORD PTR tv135[ebp]
  00122	89 55 d8	 mov	 DWORD PTR __Size$67351[ebp], edx

; 444  : 		typename _Traits::int_type _Meta = _Istr.rdbuf()->sgetc();

  00125	8b 45 08	 mov	 eax, DWORD PTR __Istr$[ebp]
  00128	8b 08		 mov	 ecx, DWORD PTR [eax]
  0012a	8b 55 08	 mov	 edx, DWORD PTR __Istr$[ebp]
  0012d	03 51 04	 add	 edx, DWORD PTR [ecx+4]
  00130	8b ca		 mov	 ecx, edx
  00132	ff 15 00 00 00
	00		 call	 DWORD PTR __imp_?rdbuf@?$basic_ios@DU?$char_traits@D@std@@@std@@QBEPAV?$basic_streambuf@DU?$char_traits@D@std@@@2@XZ
  00138	89 45 a4	 mov	 DWORD PTR tv197[ebp], eax
  0013b	8b 4d a4	 mov	 ecx, DWORD PTR tv197[ebp]
  0013e	ff 15 00 00 00
	00		 call	 DWORD PTR __imp_?sgetc@?$basic_streambuf@DU?$char_traits@D@std@@@std@@QAEHXZ
  00144	89 45 a0	 mov	 DWORD PTR tv198[ebp], eax
  00147	8b 45 a0	 mov	 eax, DWORD PTR tv198[ebp]
  0014a	89 45 d4	 mov	 DWORD PTR __Meta$67354[ebp], eax

; 445  : 
; 446  : 		for (; 0 < _Size; --_Size, _Meta = _Istr.rdbuf()->snextc())

  0014d	eb 2f		 jmp	 SHORT $L67355
$L67356:
  0014f	8b 4d d8	 mov	 ecx, DWORD PTR __Size$67351[ebp]
  00152	83 e9 01	 sub	 ecx, 1
  00155	89 4d d8	 mov	 DWORD PTR __Size$67351[ebp], ecx
  00158	8b 55 08	 mov	 edx, DWORD PTR __Istr$[ebp]
  0015b	8b 02		 mov	 eax, DWORD PTR [edx]
  0015d	8b 4d 08	 mov	 ecx, DWORD PTR __Istr$[ebp]
  00160	03 48 04	 add	 ecx, DWORD PTR [eax+4]
  00163	ff 15 00 00 00
	00		 call	 DWORD PTR __imp_?rdbuf@?$basic_ios@DU?$char_traits@D@std@@@std@@QBEPAV?$basic_streambuf@DU?$char_traits@D@std@@@2@XZ
  00169	89 45 9c	 mov	 DWORD PTR tv199[ebp], eax
  0016c	8b 4d 9c	 mov	 ecx, DWORD PTR tv199[ebp]
  0016f	ff 15 00 00 00
	00		 call	 DWORD PTR __imp_?snextc@?$basic_streambuf@DU?$char_traits@D@std@@@std@@QAEHXZ
  00175	89 45 98	 mov	 DWORD PTR tv200[ebp], eax
  00178	8b 4d 98	 mov	 ecx, DWORD PTR tv200[ebp]
  0017b	89 4d d4	 mov	 DWORD PTR __Meta$67354[ebp], ecx
$L67355:
  0017e	83 7d d8 00	 cmp	 DWORD PTR __Size$67351[ebp], 0
  00182	0f 86 8a 00 00
	00		 jbe	 $L67357

; 447  : 			if(_Traits::eq_int_type(_Traits::eof(), _Meta))

  00188	ff 15 00 00 00
	00		 call	 DWORD PTR __imp_?eof@?$char_traits@D@std@@SAHXZ
  0018e	89 45 94	 mov	 DWORD PTR tv201[ebp], eax
  00191	8b 55 94	 mov	 edx, DWORD PTR tv201[ebp]
  00194	89 55 cc	 mov	 DWORD PTR $T68858[ebp], edx
  00197	8d 45 d4	 lea	 eax, DWORD PTR __Meta$67354[ebp]
  0019a	50		 push	 eax
  0019b	8d 4d cc	 lea	 ecx, DWORD PTR $T68858[ebp]
  0019e	51		 push	 ecx
  0019f	ff 15 00 00 00
	00		 call	 DWORD PTR __imp_?eq_int_type@?$char_traits@D@std@@SA_NABH0@Z
  001a5	83 c4 08	 add	 esp, 8
  001a8	88 45 93	 mov	 BYTE PTR tv202[ebp], al
  001ab	0f b6 55 93	 movzx	 edx, BYTE PTR tv202[ebp]
  001af	85 d2		 test	 edx, edx
  001b1	74 0b		 je	 SHORT $L67359

; 448  : 				{	// end of file, quit
; 449  : 				_State |= ios_base::eofbit;

  001b3	8b 45 ec	 mov	 eax, DWORD PTR __State$[ebp]
  001b6	83 c8 01	 or	 eax, 1
  001b9	89 45 ec	 mov	 DWORD PTR __State$[ebp], eax

; 450  : 				break;

  001bc	eb 54		 jmp	 SHORT $L67357
$L67359:

; 451  : 				}
; 452  : 			else if (_Ctype_fac.is(_Ctype::space,
; 453  : 				_Traits::to_char_type(_Meta)))

  001be	8d 4d d4	 lea	 ecx, DWORD PTR __Meta$67354[ebp]
  001c1	51		 push	 ecx
  001c2	ff 15 00 00 00
	00		 call	 DWORD PTR __imp_?to_char_type@?$char_traits@D@std@@SADABH@Z
  001c8	83 c4 04	 add	 esp, 4
  001cb	88 45 92	 mov	 BYTE PTR tv203[ebp], al
  001ce	8a 55 92	 mov	 dl, BYTE PTR tv203[ebp]
  001d1	52		 push	 edx
  001d2	6a 48		 push	 72			; 00000048H
  001d4	8b 4d dc	 mov	 ecx, DWORD PTR __Ctype_fac$67348[ebp]
  001d7	ff 15 00 00 00
	00		 call	 DWORD PTR __imp_?is@?$ctype@D@std@@QBE_NFD@Z
  001dd	88 45 91	 mov	 BYTE PTR tv204[ebp], al
  001e0	0f b6 45 91	 movzx	 eax, BYTE PTR tv204[ebp]
  001e4	85 c0		 test	 eax, eax
  001e6	74 02		 je	 SHORT $L67361

; 454  : 				break;	// whitespace, quit

  001e8	eb 28		 jmp	 SHORT $L67357
$L67361:

; 455  : 			else
; 456  : 				{	// add character to string
; 457  : 				_Str.append(1, _Traits::to_char_type(_Meta));

  001ea	8d 4d d4	 lea	 ecx, DWORD PTR __Meta$67354[ebp]
  001ed	51		 push	 ecx
  001ee	ff 15 00 00 00
	00		 call	 DWORD PTR __imp_?to_char_type@?$char_traits@D@std@@SADABH@Z
  001f4	83 c4 04	 add	 esp, 4
  001f7	88 45 90	 mov	 BYTE PTR tv205[ebp], al
  001fa	8a 55 90	 mov	 dl, BYTE PTR tv205[ebp]
  001fd	52		 push	 edx
  001fe	6a 01		 push	 1
  00200	8b 4d 0c	 mov	 ecx, DWORD PTR __Str$[ebp]
  00203	ff 15 00 00 00
	00		 call	 DWORD PTR __imp_?append@?$basic_string@DU?$char_traits@D@std@@V?$allocator@D@2@@std@@QAEAAV12@ID@Z

; 458  : 				_Changed = true;

  00209	c6 45 e3 01	 mov	 BYTE PTR __Changed$[ebp], 1

; 459  : 				}

  0020d	e9 3d ff ff ff	 jmp	 $L67356
$L67357:
  00212	eb 1d		 jmp	 SHORT $L68860
$L68861:

; 460  : 		_CATCH_IO_(_Istr)

  00214	6a 01		 push	 1
  00216	6a 04		 push	 4
  00218	8b 45 08	 mov	 eax, DWORD PTR __Istr$[ebp]
  0021b	8b 08		 mov	 ecx, DWORD PTR [eax]
  0021d	8b 55 08	 mov	 edx, DWORD PTR __Istr$[ebp]
  00220	03 51 04	 add	 edx, DWORD PTR [ecx+4]
  00223	8b ca		 mov	 ecx, edx
  00225	ff 15 00 00 00
	00		 call	 DWORD PTR __imp_?setstate@?$basic_ios@DU?$char_traits@D@std@@@std@@QAEXH_N@Z
  0022b	b8 00 00 00 00	 mov	 eax, $L68860
  00230	c3		 ret	 0
$L68860:
  00231	c7 45 fc 00 00
	00 00		 mov	 DWORD PTR __$EHRec$[ebp+12], 0

; 461  : 		}
; 462  : 
; 463  : 	_Istr.width(0);

  00238	6a 00		 push	 0
  0023a	8b 45 08	 mov	 eax, DWORD PTR __Istr$[ebp]
  0023d	8b 08		 mov	 ecx, DWORD PTR [eax]
  0023f	8b 55 08	 mov	 edx, DWORD PTR __Istr$[ebp]
  00242	03 51 04	 add	 edx, DWORD PTR [ecx+4]
  00245	8b ca		 mov	 ecx, edx
  00247	ff 15 00 00 00
	00		 call	 DWORD PTR __imp_?width@ios_base@std@@QAEHH@Z

; 464  : 	if (!_Changed)

  0024d	0f b6 45 e3	 movzx	 eax, BYTE PTR __Changed$[ebp]
  00251	85 c0		 test	 eax, eax
  00253	75 09		 jne	 SHORT $L67363

; 465  : 		_State |= ios_base::failbit;

  00255	8b 4d ec	 mov	 ecx, DWORD PTR __State$[ebp]
  00258	83 c9 02	 or	 ecx, 2
  0025b	89 4d ec	 mov	 DWORD PTR __State$[ebp], ecx
$L67363:

; 466  : 	_Istr.setstate(_State);

  0025e	6a 00		 push	 0
  00260	8b 55 ec	 mov	 edx, DWORD PTR __State$[ebp]
  00263	52		 push	 edx
  00264	8b 45 08	 mov	 eax, DWORD PTR __Istr$[ebp]
  00267	8b 08		 mov	 ecx, DWORD PTR [eax]
  00269	8b 55 08	 mov	 edx, DWORD PTR __Istr$[ebp]
  0026c	03 51 04	 add	 edx, DWORD PTR [ecx+4]
  0026f	8b ca		 mov	 ecx, edx
  00271	ff 15 00 00 00
	00		 call	 DWORD PTR __imp_?setstate@?$basic_ios@DU?$char_traits@D@std@@@std@@QAEXH_N@Z

; 467  : 	return (_Istr);

  00277	8b 45 08	 mov	 eax, DWORD PTR __Istr$[ebp]
  0027a	89 45 c8	 mov	 DWORD PTR $T68859[ebp], eax
  0027d	c7 45 fc ff ff
	ff ff		 mov	 DWORD PTR __$EHRec$[ebp+12], -1
  00284	8d 4d e4	 lea	 ecx, DWORD PTR __Ok$[ebp]
  00287	e8 00 00 00 00	 call	 ??1sentry@?$basic_istream@DU?$char_traits@D@std@@@std@@QAE@XZ
  0028c	8b 45 c8	 mov	 eax, DWORD PTR $T68859[ebp]

; 468  : 	}

  0028f	8b 4d f4	 mov	 ecx, DWORD PTR __$EHRec$[ebp+4]
  00292	64 89 0d 00 00
	00 00		 mov	 DWORD PTR fs:__except_list, ecx
  00299	5f		 pop	 edi
  0029a	5e		 pop	 esi
  0029b	5b		 pop	 ebx
  0029c	8b e5		 mov	 esp, ebp
  0029e	5d		 pop	 ebp
  0029f	c3		 ret	 0
_TEXT	ENDS
;	COMDAT text$x
text$x	SEGMENT
$L68862:
  00000	8d 4d e4	 lea	 ecx, DWORD PTR __Ok$[ebp]
  00003	e9 00 00 00 00	 jmp	 ??1sentry@?$basic_istream@DU?$char_traits@D@std@@@std@@QAE@XZ
$L68863:
  00008	8d 4d d0	 lea	 ecx, DWORD PTR $T68855[ebp]
  0000b	ff 25 00 00 00
	00		 jmp	 DWORD PTR __imp_??1locale@std@@QAE@XZ
__ehhandler$??$?5DU?$char_traits@D@std@@V?$allocator@D@1@@std@@YAAAV?$basic_istream@DU?$char_traits@D@std@@@0@AAV10@AAV?$basic_string@DU?$char_traits@D@std@@V?$allocator@D@2@@0@@Z:
  00011	b8 00 00 00 00	 mov	 eax, OFFSET FLAT:$T68865
  00016	e9 00 00 00 00	 jmp	 ___CxxFrameHandler
text$x	ENDS
??$?5DU?$char_traits@D@std@@V?$allocator@D@1@@std@@YAAAV?$basic_istream@DU?$char_traits@D@std@@@0@AAV10@AAV?$basic_string@DU?$char_traits@D@std@@V?$allocator@D@2@@0@@Z ENDP ; std::operator>><char,std::char_traits<char>,std::allocator<char> >
PUBLIC	??1_Sentry_base@?$basic_istream@DU?$char_traits@D@std@@@std@@QAE@XZ ; std::basic_istream<char,std::char_traits<char> >::_Sentry_base::~_Sentry_base
; Function compile flags: /Odt
;	COMDAT ??1sentry@?$basic_istream@DU?$char_traits@D@std@@@std@@QAE@XZ
_TEXT	SEGMENT
_this$ = -4						; size = 4
??1sentry@?$basic_istream@DU?$char_traits@D@std@@@std@@QAE@XZ PROC NEAR ; std::basic_istream<char,std::char_traits<char> >::sentry::~sentry, COMDAT
; _this$ = ecx
  00000	55		 push	 ebp
  00001	8b ec		 mov	 ebp, esp
  00003	51		 push	 ecx
  00004	89 4d fc	 mov	 DWORD PTR _this$[ebp], ecx
  00007	8b 4d fc	 mov	 ecx, DWORD PTR _this$[ebp]
  0000a	e8 00 00 00 00	 call	 ??1_Sentry_base@?$basic_istream@DU?$char_traits@D@std@@@std@@QAE@XZ ; std::basic_istream<char,std::char_traits<char> >::_Sentry_base::~_Sentry_base
  0000f	8b e5		 mov	 esp, ebp
  00011	5d		 pop	 ebp
  00012	c3		 ret	 0
??1sentry@?$basic_istream@DU?$char_traits@D@std@@@std@@QAE@XZ ENDP ; std::basic_istream<char,std::char_traits<char> >::sentry::~sentry
_TEXT	ENDS
PUBLIC	??0_Sentry_base@?$basic_istream@DU?$char_traits@D@std@@@std@@QAE@AAV12@@Z ; std::basic_istream<char,std::char_traits<char> >::_Sentry_base::_Sentry_base
EXTRN	__imp_?_Ipfx@?$basic_istream@DU?$char_traits@D@std@@@std@@QAE_N_N@Z:NEAR
;	COMDAT xdata$x
; File d:\program files (x86)\microsoft visual studio .net 2003\vc7\include\istream
xdata$x	SEGMENT
$T68881	DD	0ffffffffH
	DD	FLAT:$L68877
$T68879	DD	019930520H
	DD	01H
	DD	FLAT:$T68881
	DD	2 DUP(00H)
	DD	2 DUP(00H)
; Function compile flags: /Odt
xdata$x	ENDS
;	COMDAT ??0sentry@?$basic_istream@DU?$char_traits@D@std@@@std@@QAE@AAV12@_N@Z
_TEXT	SEGMENT
_this$ = -16						; size = 4
__$EHRec$ = -12						; size = 12
__Istr$ = 8						; size = 4
__Noskip$ = 12						; size = 1
??0sentry@?$basic_istream@DU?$char_traits@D@std@@@std@@QAE@AAV12@_N@Z PROC NEAR ; std::basic_istream<char,std::char_traits<char> >::sentry::sentry, COMDAT
; _this$ = ecx

; 72   : 			{	// construct locking and calling _Ipfx

  00000	55		 push	 ebp
  00001	8b ec		 mov	 ebp, esp
  00003	6a ff		 push	 -1
  00005	68 00 00 00 00	 push	 __ehhandler$??0sentry@?$basic_istream@DU?$char_traits@D@std@@@std@@QAE@AAV12@_N@Z
  0000a	64 a1 00 00 00
	00		 mov	 eax, DWORD PTR fs:__except_list
  00010	50		 push	 eax
  00011	64 89 25 00 00
	00 00		 mov	 DWORD PTR fs:__except_list, esp
  00018	51		 push	 ecx
  00019	89 4d f0	 mov	 DWORD PTR _this$[ebp], ecx
  0001c	8b 45 08	 mov	 eax, DWORD PTR __Istr$[ebp]
  0001f	50		 push	 eax
  00020	8b 4d f0	 mov	 ecx, DWORD PTR _this$[ebp]
  00023	e8 00 00 00 00	 call	 ??0_Sentry_base@?$basic_istream@DU?$char_traits@D@std@@@std@@QAE@AAV12@@Z ; std::basic_istream<char,std::char_traits<char> >::_Sentry_base::_Sentry_base
  00028	c7 45 fc 00 00
	00 00		 mov	 DWORD PTR __$EHRec$[ebp+8], 0

; 73   : 			_Ok = this->_Myistr._Ipfx(_Noskip);

  0002f	8a 4d 0c	 mov	 cl, BYTE PTR __Noskip$[ebp]
  00032	51		 push	 ecx
  00033	8b 55 f0	 mov	 edx, DWORD PTR _this$[ebp]
  00036	8b 0a		 mov	 ecx, DWORD PTR [edx]
  00038	ff 15 00 00 00
	00		 call	 DWORD PTR __imp_?_Ipfx@?$basic_istream@DU?$char_traits@D@std@@@std@@QAE_N_N@Z
  0003e	8b 4d f0	 mov	 ecx, DWORD PTR _this$[ebp]
  00041	88 41 04	 mov	 BYTE PTR [ecx+4], al

; 74   : 			}

  00044	c7 45 fc ff ff
	ff ff		 mov	 DWORD PTR __$EHRec$[ebp+8], -1
  0004b	8b 45 f0	 mov	 eax, DWORD PTR _this$[ebp]
  0004e	8b 4d f4	 mov	 ecx, DWORD PTR __$EHRec$[ebp]
  00051	64 89 0d 00 00
	00 00		 mov	 DWORD PTR fs:__except_list, ecx
  00058	8b e5		 mov	 esp, ebp
  0005a	5d		 pop	 ebp
  0005b	c2 08 00	 ret	 8
_TEXT	ENDS
;	COMDAT text$x
text$x	SEGMENT
$L68877:
  00000	8b 4d f0	 mov	 ecx, DWORD PTR _this$[ebp]
  00003	e9 00 00 00 00	 jmp	 ??1_Sentry_base@?$basic_istream@DU?$char_traits@D@std@@@std@@QAE@XZ ; std::basic_istream<char,std::char_traits<char> >::_Sentry_base::~_Sentry_base
__ehhandler$??0sentry@?$basic_istream@DU?$char_traits@D@std@@@std@@QAE@AAV12@_N@Z:
  00008	b8 00 00 00 00	 mov	 eax, OFFSET FLAT:$T68879
  0000d	e9 00 00 00 00	 jmp	 ___CxxFrameHandler
text$x	ENDS
??0sentry@?$basic_istream@DU?$char_traits@D@std@@@std@@QAE@AAV12@_N@Z ENDP ; std::basic_istream<char,std::char_traits<char> >::sentry::sentry
; Function compile flags: /Odt
;	COMDAT ??Bsentry@?$basic_istream@DU?$char_traits@D@std@@@std@@QBE_NXZ
_TEXT	SEGMENT
_this$ = -4						; size = 4
??Bsentry@?$basic_istream@DU?$char_traits@D@std@@@std@@QBE_NXZ PROC NEAR ; std::basic_istream<char,std::char_traits<char> >::sentry::operator bool, COMDAT
; _this$ = ecx

; 77   : 			{	// test if _Ipfx succeeded

  00000	55		 push	 ebp
  00001	8b ec		 mov	 ebp, esp
  00003	51		 push	 ecx
  00004	89 4d fc	 mov	 DWORD PTR _this$[ebp], ecx

; 78   : 			return (_Ok);

  00007	8b 45 fc	 mov	 eax, DWORD PTR _this$[ebp]
  0000a	8a 40 04	 mov	 al, BYTE PTR [eax+4]

; 79   : 			}

  0000d	8b e5		 mov	 esp, ebp
  0000f	5d		 pop	 ebp
  00010	c3		 ret	 0
??Bsentry@?$basic_istream@DU?$char_traits@D@std@@@std@@QBE_NXZ ENDP ; std::basic_istream<char,std::char_traits<char> >::sentry::operator bool
_TEXT	ENDS
EXTRN	__imp_?_Unlock@?$basic_streambuf@DU?$char_traits@D@std@@@std@@QAEXXZ:NEAR
; Function compile flags: /Odt
;	COMDAT ??1_Sentry_base@?$basic_istream@DU?$char_traits@D@std@@@std@@QAE@XZ
_TEXT	SEGMENT
_this$ = -4						; size = 4
??1_Sentry_base@?$basic_istream@DU?$char_traits@D@std@@@std@@QAE@XZ PROC NEAR ; std::basic_istream<char,std::char_traits<char> >::_Sentry_base::~_Sentry_base, COMDAT
; _this$ = ecx

; 58   : 			{	// destroy after unlocking

  00000	55		 push	 ebp
  00001	8b ec		 mov	 ebp, esp
  00003	51		 push	 ecx
  00004	89 4d fc	 mov	 DWORD PTR _this$[ebp], ecx

; 59   : 			if (_Myistr.rdbuf() != 0)

  00007	8b 45 fc	 mov	 eax, DWORD PTR _this$[ebp]
  0000a	8b 08		 mov	 ecx, DWORD PTR [eax]
  0000c	8b 11		 mov	 edx, DWORD PTR [ecx]
  0000e	8b 45 fc	 mov	 eax, DWORD PTR _this$[ebp]
  00011	8b 08		 mov	 ecx, DWORD PTR [eax]
  00013	03 4a 04	 add	 ecx, DWORD PTR [edx+4]
  00016	ff 15 00 00 00
	00		 call	 DWORD PTR __imp_?rdbuf@?$basic_ios@DU?$char_traits@D@std@@@std@@QBEPAV?$basic_streambuf@DU?$char_traits@D@std@@@2@XZ
  0001c	85 c0		 test	 eax, eax
  0001e	74 1d		 je	 SHORT $L65865

; 60   : 				_Myistr.rdbuf()->_Unlock();

  00020	8b 4d fc	 mov	 ecx, DWORD PTR _this$[ebp]
  00023	8b 11		 mov	 edx, DWORD PTR [ecx]
  00025	8b 02		 mov	 eax, DWORD PTR [edx]
  00027	8b 4d fc	 mov	 ecx, DWORD PTR _this$[ebp]
  0002a	8b 09		 mov	 ecx, DWORD PTR [ecx]
  0002c	03 48 04	 add	 ecx, DWORD PTR [eax+4]
  0002f	ff 15 00 00 00
	00		 call	 DWORD PTR __imp_?rdbuf@?$basic_ios@DU?$char_traits@D@std@@@std@@QBEPAV?$basic_streambuf@DU?$char_traits@D@std@@@2@XZ
  00035	8b c8		 mov	 ecx, eax
  00037	ff 15 00 00 00
	00		 call	 DWORD PTR __imp_?_Unlock@?$basic_streambuf@DU?$char_traits@D@std@@@std@@QAEXXZ
$L65865:

; 61   : 			}

  0003d	8b e5		 mov	 esp, ebp
  0003f	5d		 pop	 ebp
  00040	c3		 ret	 0
??1_Sentry_base@?$basic_istream@DU?$char_traits@D@std@@@std@@QAE@XZ ENDP ; std::basic_istream<char,std::char_traits<char> >::_Sentry_base::~_Sentry_base
_TEXT	ENDS
EXTRN	__imp_?_Lock@?$basic_streambuf@DU?$char_traits@D@std@@@std@@QAEXXZ:NEAR
; Function compile flags: /Odt
;	COMDAT ??0_Sentry_base@?$basic_istream@DU?$char_traits@D@std@@@std@@QAE@AAV12@@Z
_TEXT	SEGMENT
_this$ = -4						; size = 4
__Istr$ = 8						; size = 4
??0_Sentry_base@?$basic_istream@DU?$char_traits@D@std@@@std@@QAE@AAV12@@Z PROC NEAR ; std::basic_istream<char,std::char_traits<char> >::_Sentry_base::_Sentry_base, COMDAT
; _this$ = ecx

; 52   : 			{	// lock the stream buffer, if there

  00000	55		 push	 ebp
  00001	8b ec		 mov	 ebp, esp
  00003	51		 push	 ecx
  00004	89 4d fc	 mov	 DWORD PTR _this$[ebp], ecx
  00007	8b 45 fc	 mov	 eax, DWORD PTR _this$[ebp]
  0000a	8b 4d 08	 mov	 ecx, DWORD PTR __Istr$[ebp]
  0000d	89 08		 mov	 DWORD PTR [eax], ecx

; 53   : 			if (_Myistr.rdbuf() != 0)

  0000f	8b 55 fc	 mov	 edx, DWORD PTR _this$[ebp]
  00012	8b 02		 mov	 eax, DWORD PTR [edx]
  00014	8b 08		 mov	 ecx, DWORD PTR [eax]
  00016	8b 55 fc	 mov	 edx, DWORD PTR _this$[ebp]
  00019	8b 02		 mov	 eax, DWORD PTR [edx]
  0001b	03 41 04	 add	 eax, DWORD PTR [ecx+4]
  0001e	8b c8		 mov	 ecx, eax
  00020	ff 15 00 00 00
	00		 call	 DWORD PTR __imp_?rdbuf@?$basic_ios@DU?$char_traits@D@std@@@std@@QBEPAV?$basic_streambuf@DU?$char_traits@D@std@@@2@XZ
  00026	85 c0		 test	 eax, eax
  00028	74 1d		 je	 SHORT $L66763

; 54   : 				_Myistr.rdbuf()->_Lock();

  0002a	8b 4d fc	 mov	 ecx, DWORD PTR _this$[ebp]
  0002d	8b 11		 mov	 edx, DWORD PTR [ecx]
  0002f	8b 02		 mov	 eax, DWORD PTR [edx]
  00031	8b 4d fc	 mov	 ecx, DWORD PTR _this$[ebp]
  00034	8b 09		 mov	 ecx, DWORD PTR [ecx]
  00036	03 48 04	 add	 ecx, DWORD PTR [eax+4]
  00039	ff 15 00 00 00
	00		 call	 DWORD PTR __imp_?rdbuf@?$basic_ios@DU?$char_traits@D@std@@@std@@QBEPAV?$basic_streambuf@DU?$char_traits@D@std@@@2@XZ
  0003f	8b c8		 mov	 ecx, eax
  00041	ff 15 00 00 00
	00		 call	 DWORD PTR __imp_?_Lock@?$basic_streambuf@DU?$char_traits@D@std@@@std@@QAEXXZ
$L66763:

; 55   : 			}

  00047	8b 45 fc	 mov	 eax, DWORD PTR _this$[ebp]
  0004a	8b e5		 mov	 esp, ebp
  0004c	5d		 pop	 ebp
  0004d	c2 04 00	 ret	 4
??0_Sentry_base@?$basic_istream@DU?$char_traits@D@std@@@std@@QAE@AAV12@@Z ENDP ; std::basic_istream<char,std::char_traits<char> >::_Sentry_base::_Sentry_base
_TEXT	ENDS
PUBLIC	?_Psave@?$_Facetptr@V?$ctype@D@std@@@std@@2PBVfacet@locale@2@B ; std::_Facetptr<std::ctype<char> >::_Psave
PUBLIC	__TI2?AVbad_cast@@
PUBLIC	__CTA2?AVbad_cast@@
PUBLIC	??_R0?AVbad_cast@@@8				; bad_cast `RTTI Type Descriptor'
PUBLIC	__CT??_R0?AVbad_cast@@@8??0bad_cast@@QAE@ABV0@@Z12
PUBLIC	??_R0?AVexception@@@8				; exception `RTTI Type Descriptor'
PUBLIC	__CT??_R0?AVexception@@@8??0exception@@QAE@ABV0@@Z12
PUBLIC	??_C@_08EPJLHIJG@bad?5cast?$AA@			; `string'
EXTRN	__imp_??0_Lockit@std@@QAE@H@Z:NEAR
EXTRN	__imp_??1_Lockit@std@@QAE@XZ:NEAR
EXTRN	__imp_?id@?$ctype@D@std@@2V0locale@2@A:DWORD
EXTRN	__imp_?_Getcat@?$ctype@D@std@@SAIPAPBVfacet@locale@2@@Z:NEAR
EXTRN	__CxxThrowException@8:NEAR
EXTRN	__imp_??Bid@locale@std@@QAEIXZ:NEAR
EXTRN	__imp_?_Incref@facet@locale@std@@QAEXXZ:NEAR
EXTRN	__imp_?_Register@facet@locale@std@@QAEXXZ:NEAR
EXTRN	__imp_?_Getfacet@locale@std@@QBEPBVfacet@12@I@Z:NEAR
EXTRN	??0exception@@QAE@ABV0@@Z:NEAR			; exception::exception
EXTRN	??0bad_cast@@QAE@ABV0@@Z:NEAR			; bad_cast::bad_cast
EXTRN	??1bad_cast@@UAE@XZ:NEAR			; bad_cast::~bad_cast
EXTRN	??_7type_info@@6B@:QWORD			; type_info::`vftable'
EXTRN	__imp_??0bad_cast@@QAE@PBD@Z:NEAR
;	COMDAT ?_Psave@?$_Facetptr@V?$ctype@D@std@@@std@@2PBVfacet@locale@2@B
; File d:\program files (x86)\microsoft visual studio .net 2003\vc7\include\xlocale
_BSS	SEGMENT
?_Psave@?$_Facetptr@V?$ctype@D@std@@@std@@2PBVfacet@locale@2@B DD 01H DUP (?) ; std::_Facetptr<std::ctype<char> >::_Psave
_BSS	ENDS
;	COMDAT xdata$x
xdata$x	SEGMENT
$T68899	DD	0ffffffffH
	DD	FLAT:$L68895
$T68897	DD	019930520H
	DD	01H
	DD	FLAT:$T68899
	DD	2 DUP(00H)
	DD	2 DUP(00H)
xdata$x	ENDS
;	COMDAT ??_C@_08EPJLHIJG@bad?5cast?$AA@
CONST	SEGMENT
??_C@_08EPJLHIJG@bad?5cast?$AA@ DB 'bad cast', 00H	; `string'
CONST	ENDS
;	COMDAT __TI2?AVbad_cast@@
xdata$x	SEGMENT
__TI2?AVbad_cast@@ DD 00H
	DD	FLAT:??1bad_cast@@UAE@XZ
	DD	00H
	DD	FLAT:__CTA2?AVbad_cast@@
xdata$x	ENDS
;	COMDAT __CTA2?AVbad_cast@@
xdata$x	SEGMENT
__CTA2?AVbad_cast@@ DD 02H
	DD	FLAT:__CT??_R0?AVbad_cast@@@8??0bad_cast@@QAE@ABV0@@Z12
	DD	FLAT:__CT??_R0?AVexception@@@8??0exception@@QAE@ABV0@@Z12
xdata$x	ENDS
;	COMDAT __CT??_R0?AVbad_cast@@@8??0bad_cast@@QAE@ABV0@@Z12
xdata$x	SEGMENT
__CT??_R0?AVbad_cast@@@8??0bad_cast@@QAE@ABV0@@Z12 DD 00H
	DD	FLAT:??_R0?AVbad_cast@@@8
	DD	00H
	DD	0ffffffffH
	ORG $+4
	DD	0cH
	DD	FLAT:??0bad_cast@@QAE@ABV0@@Z
xdata$x	ENDS
;	COMDAT ??_R0?AVbad_cast@@@8
_DATA	SEGMENT
??_R0?AVbad_cast@@@8 DD FLAT:??_7type_info@@6B@		; bad_cast `RTTI Type Descriptor'
	DD	00H
	DB	'.?AVbad_cast@@', 00H
_DATA	ENDS
;	COMDAT __CT??_R0?AVexception@@@8??0exception@@QAE@ABV0@@Z12
xdata$x	SEGMENT
__CT??_R0?AVexception@@@8??0exception@@QAE@ABV0@@Z12 DD 00H
	DD	FLAT:??_R0?AVexception@@@8
	DD	00H
	DD	0ffffffffH
	ORG $+4
	DD	0cH
	DD	FLAT:??0exception@@QAE@ABV0@@Z
xdata$x	ENDS
;	COMDAT ??_R0?AVexception@@@8
_DATA	SEGMENT
??_R0?AVexception@@@8 DD FLAT:??_7type_info@@6B@	; exception `RTTI Type Descriptor'
	DD	00H
	DB	'.?AVexception@@', 00H
; Function compile flags: /Odt
_DATA	ENDS
;	COMDAT ??$use_facet@V?$ctype@D@std@@@std@@YAABV?$ctype@D@0@ABVlocale@0@@Z
_TEXT	SEGMENT
$T68894 = -48						; size = 4
$T68892 = -44						; size = 12
__Pfmod$67277 = -32					; size = 4
__Psave$ = -28						; size = 4
__Lock$ = -24						; size = 4
__Id$ = -20						; size = 4
__Pf$ = -16						; size = 4
__$EHRec$ = -12						; size = 12
__Loc$ = 8						; size = 4
??$use_facet@V?$ctype@D@std@@@std@@YAABV?$ctype@D@0@ABVlocale@0@@Z PROC NEAR ; std::use_facet<std::ctype<char> >, COMDAT

; 315  : 	{	// get facet reference from locale

  00000	55		 push	 ebp
  00001	8b ec		 mov	 ebp, esp
  00003	6a ff		 push	 -1
  00005	68 00 00 00 00	 push	 __ehhandler$??$use_facet@V?$ctype@D@std@@@std@@YAABV?$ctype@D@0@ABVlocale@0@@Z
  0000a	64 a1 00 00 00
	00		 mov	 eax, DWORD PTR fs:__except_list
  00010	50		 push	 eax
  00011	64 89 25 00 00
	00 00		 mov	 DWORD PTR fs:__except_list, esp
  00018	83 ec 24	 sub	 esp, 36			; 00000024H

; 316  : 	_Lockit _Lock(_LOCK_LOCALE);	// the thread lock, make get atomic

  0001b	6a 00		 push	 0
  0001d	8d 4d e8	 lea	 ecx, DWORD PTR __Lock$[ebp]
  00020	ff 15 00 00 00
	00		 call	 DWORD PTR __imp_??0_Lockit@std@@QAE@H@Z
  00026	c7 45 fc 00 00
	00 00		 mov	 DWORD PTR __$EHRec$[ebp+8], 0

; 317  : 	const locale::facet *_Psave =
; 318  : 		_Facetptr<_Facet>::_Psave;	// static pointer to lazy facet

  0002d	a1 00 00 00 00	 mov	 eax, DWORD PTR ?_Psave@?$_Facetptr@V?$ctype@D@std@@@std@@2PBVfacet@locale@2@B ; std::_Facetptr<std::ctype<char> >::_Psave
  00032	89 45 e4	 mov	 DWORD PTR __Psave$[ebp], eax

; 319  : 
; 320  : 	size_t _Id = _Facet::id;

  00035	8b 0d 00 00 00
	00		 mov	 ecx, DWORD PTR __imp_?id@?$ctype@D@std@@2V0locale@2@A
  0003b	ff 15 00 00 00
	00		 call	 DWORD PTR __imp_??Bid@locale@std@@QAEIXZ
  00041	89 45 ec	 mov	 DWORD PTR __Id$[ebp], eax

; 321  : 	const locale::facet *_Pf = _Loc._Getfacet(_Id);

  00044	8b 4d ec	 mov	 ecx, DWORD PTR __Id$[ebp]
  00047	51		 push	 ecx
  00048	8b 4d 08	 mov	 ecx, DWORD PTR __Loc$[ebp]
  0004b	ff 15 00 00 00
	00		 call	 DWORD PTR __imp_?_Getfacet@locale@std@@QBEPBVfacet@12@I@Z
  00051	89 45 f0	 mov	 DWORD PTR __Pf$[ebp], eax

; 322  : 
; 323  : 	if (_Pf != 0)

  00054	83 7d f0 00	 cmp	 DWORD PTR __Pf$[ebp], 0
  00058	74 02		 je	 SHORT $L67260

; 324  : 		;	// got facet from locale
; 325  : 	else if (_Psave != 0)

  0005a	eb 62		 jmp	 SHORT $L67261
$L67260:
  0005c	83 7d e4 00	 cmp	 DWORD PTR __Psave$[ebp], 0
  00060	74 08		 je	 SHORT $L67262

; 326  : 		_Pf = _Psave;	// lazy facet already allocated

  00062	8b 55 e4	 mov	 edx, DWORD PTR __Psave$[ebp]
  00065	89 55 f0	 mov	 DWORD PTR __Pf$[ebp], edx

; 327  : 	else if (_Facet::_Getcat(&_Psave) == (size_t)(-1))

  00068	eb 54		 jmp	 SHORT $L67261
$L67262:
  0006a	8d 45 e4	 lea	 eax, DWORD PTR __Psave$[ebp]
  0006d	50		 push	 eax
  0006e	ff 15 00 00 00
	00		 call	 DWORD PTR __imp_?_Getcat@?$ctype@D@std@@SAIPAPBVfacet@locale@2@@Z
  00074	83 c4 04	 add	 esp, 4
  00077	83 f8 ff	 cmp	 eax, -1
  0007a	75 1c		 jne	 SHORT $L67265

; 328  : 
; 329  :  #if _HAS_EXCEPTIONS
; 330  : 		throw bad_cast();	// lazy disallowed

  0007c	68 00 00 00 00	 push	 OFFSET FLAT:??_C@_08EPJLHIJG@bad?5cast?$AA@
  00081	8d 4d d4	 lea	 ecx, DWORD PTR $T68892[ebp]
  00084	ff 15 00 00 00
	00		 call	 DWORD PTR __imp_??0bad_cast@@QAE@PBD@Z
  0008a	68 00 00 00 00	 push	 OFFSET FLAT:__TI2?AVbad_cast@@
  0008f	8d 4d d4	 lea	 ecx, DWORD PTR $T68892[ebp]
  00092	51		 push	 ecx
  00093	e8 00 00 00 00	 call	 __CxxThrowException@8
$L67265:

; 331  : 
; 332  :  #else /* _HAS_EXCEPTIONS */
; 333  : 		abort();	// lazy disallowed
; 334  :  #endif /* _HAS_EXCEPTIONS */
; 335  : 
; 336  : 	else
; 337  : 		{	// queue up lazy facet for destruction
; 338  : 		_Pf = _Psave;

  00098	8b 55 e4	 mov	 edx, DWORD PTR __Psave$[ebp]
  0009b	89 55 f0	 mov	 DWORD PTR __Pf$[ebp], edx

; 339  : 		_Facetptr<_Facet>::_Psave = _Psave;

  0009e	8b 45 e4	 mov	 eax, DWORD PTR __Psave$[ebp]
  000a1	a3 00 00 00 00	 mov	 DWORD PTR ?_Psave@?$_Facetptr@V?$ctype@D@std@@@std@@2PBVfacet@locale@2@B, eax ; std::_Facetptr<std::ctype<char> >::_Psave

; 340  : 
; 341  : 		locale::facet *_Pfmod = (_Facet *)_Psave;

  000a6	8b 4d e4	 mov	 ecx, DWORD PTR __Psave$[ebp]
  000a9	89 4d e0	 mov	 DWORD PTR __Pfmod$67277[ebp], ecx

; 342  : 		_Pfmod->_Incref();

  000ac	8b 4d e0	 mov	 ecx, DWORD PTR __Pfmod$67277[ebp]
  000af	ff 15 00 00 00
	00		 call	 DWORD PTR __imp_?_Incref@facet@locale@std@@QAEXXZ

; 343  : 		_Pfmod->_Register();

  000b5	8b 4d e0	 mov	 ecx, DWORD PTR __Pfmod$67277[ebp]
  000b8	ff 15 00 00 00
	00		 call	 DWORD PTR __imp_?_Register@facet@locale@std@@QAEXXZ
$L67261:

; 344  : 		}
; 345  : 
; 346  : 	return ((const _Facet&)(*_Pf));	// should be dynamic_cast

  000be	8b 55 f0	 mov	 edx, DWORD PTR __Pf$[ebp]
  000c1	89 55 d0	 mov	 DWORD PTR $T68894[ebp], edx
  000c4	c7 45 fc ff ff
	ff ff		 mov	 DWORD PTR __$EHRec$[ebp+8], -1
  000cb	8d 4d e8	 lea	 ecx, DWORD PTR __Lock$[ebp]
  000ce	ff 15 00 00 00
	00		 call	 DWORD PTR __imp_??1_Lockit@std@@QAE@XZ
  000d4	8b 45 d0	 mov	 eax, DWORD PTR $T68894[ebp]
$L68891:

; 347  : 	}

  000d7	8b 4d f4	 mov	 ecx, DWORD PTR __$EHRec$[ebp]
  000da	64 89 0d 00 00
	00 00		 mov	 DWORD PTR fs:__except_list, ecx
  000e1	8b e5		 mov	 esp, ebp
  000e3	5d		 pop	 ebp
  000e4	c3		 ret	 0
_TEXT	ENDS
;	COMDAT text$x
text$x	SEGMENT
$L68895:
  00000	8d 4d e8	 lea	 ecx, DWORD PTR __Lock$[ebp]
  00003	ff 25 00 00 00
	00		 jmp	 DWORD PTR __imp_??1_Lockit@std@@QAE@XZ
__ehhandler$??$use_facet@V?$ctype@D@std@@@std@@YAABV?$ctype@D@0@ABVlocale@0@@Z:
  00009	b8 00 00 00 00	 mov	 eax, OFFSET FLAT:$T68897
  0000e	e9 00 00 00 00	 jmp	 ___CxxFrameHandler
text$x	ENDS
??$use_facet@V?$ctype@D@std@@@std@@YAABV?$ctype@D@0@ABVlocale@0@@Z ENDP ; std::use_facet<std::ctype<char> >
PUBLIC	??$getline@DU?$char_traits@D@std@@V?$allocator@D@2@@std@@YAAAV?$basic_istream@DU?$char_traits@D@std@@@0@AAV10@AAV?$basic_string@DU?$char_traits@D@std@@V?$allocator@D@2@@0@@Z ; std::getline<char,std::char_traits<char>,std::allocator<char> >
PUBLIC	??$getline@DU?$char_traits@D@std@@V?$allocator@D@2@@std@@YAAAV?$basic_istream@DU?$char_traits@D@std@@@0@AAV10@AAV?$basic_string@DU?$char_traits@D@std@@V?$allocator@D@2@@0@D@Z ; std::getline<char,std::char_traits<char>,std::allocator<char> >
EXTRN	__imp_?widen@?$basic_ios@DU?$char_traits@D@std@@@std@@QBEDD@Z:NEAR
; Function compile flags: /Odt
; File d:\program files (x86)\microsoft visual studio .net 2003\vc7\include\string
;	COMDAT ??$getline@DU?$char_traits@D@std@@V?$allocator@D@2@@std@@YAAAV?$basic_istream@DU?$char_traits@D@std@@@0@AAV10@AAV?$basic_string@DU?$char_traits@D@std@@V?$allocator@D@2@@0@@Z
_TEXT	SEGMENT
__Istr$ = 8						; size = 4
__Str$ = 12						; size = 4
??$getline@DU?$char_traits@D@std@@V?$allocator@D@2@@std@@YAAAV?$basic_istream@DU?$char_traits@D@std@@@0@AAV10@AAV?$basic_string@DU?$char_traits@D@std@@V?$allocator@D@2@@0@@Z PROC NEAR ; std::getline<char,std::char_traits<char>,std::allocator<char> >, COMDAT

; 528  : 	{	// get characters into string, discard newline

  00000	55		 push	 ebp
  00001	8b ec		 mov	 ebp, esp

; 529  : 	return (getline(_Istr, _Str, _Istr.widen('\n')));

  00003	6a 0a		 push	 10			; 0000000aH
  00005	8b 45 08	 mov	 eax, DWORD PTR __Istr$[ebp]
  00008	8b 08		 mov	 ecx, DWORD PTR [eax]
  0000a	8b 55 08	 mov	 edx, DWORD PTR __Istr$[ebp]
  0000d	03 51 04	 add	 edx, DWORD PTR [ecx+4]
  00010	8b ca		 mov	 ecx, edx
  00012	ff 15 00 00 00
	00		 call	 DWORD PTR __imp_?widen@?$basic_ios@DU?$char_traits@D@std@@@std@@QBEDD@Z
  00018	50		 push	 eax
  00019	8b 45 0c	 mov	 eax, DWORD PTR __Str$[ebp]
  0001c	50		 push	 eax
  0001d	8b 4d 08	 mov	 ecx, DWORD PTR __Istr$[ebp]
  00020	51		 push	 ecx
  00021	e8 00 00 00 00	 call	 ??$getline@DU?$char_traits@D@std@@V?$allocator@D@2@@std@@YAAAV?$basic_istream@DU?$char_traits@D@std@@@0@AAV10@AAV?$basic_string@DU?$char_traits@D@std@@V?$allocator@D@2@@0@D@Z ; std::getline<char,std::char_traits<char>,std::allocator<char> >
  00026	83 c4 0c	 add	 esp, 12			; 0000000cH

; 530  : 	}

  00029	5d		 pop	 ebp
  0002a	c3		 ret	 0
??$getline@DU?$char_traits@D@std@@V?$allocator@D@2@@std@@YAAAV?$basic_istream@DU?$char_traits@D@std@@@0@AAV10@AAV?$basic_string@DU?$char_traits@D@std@@V?$allocator@D@2@@0@@Z ENDP ; std::getline<char,std::char_traits<char>,std::allocator<char> >
_TEXT	ENDS
EXTRN	__imp_?to_int_type@?$char_traits@D@std@@SAHABD@Z:NEAR
EXTRN	__imp_?sbumpc@?$basic_streambuf@DU?$char_traits@D@std@@@std@@QAEHXZ:NEAR
;	COMDAT xdata$x
xdata$x	SEGMENT
$T68915	DD	0ffffffffH
	DD	FLAT:$L68911
	DD	00H
	DD	00H
	DD	00H
	DD	00H
$T68917	DD	00H
	DD	00H
	DD	00H
	DD	FLAT:$L68910
$T68916	DD	01H
	DD	01H
	DD	02H
	DD	01H
	DD	FLAT:$T68917
$T68913	DD	019930520H
	DD	03H
	DD	FLAT:$T68915
	DD	01H
	DD	FLAT:$T68916
	DD	2 DUP(00H)
; Function compile flags: /Odt
xdata$x	ENDS
;	COMDAT ??$getline@DU?$char_traits@D@std@@V?$allocator@D@2@@std@@YAAAV?$basic_istream@DU?$char_traits@D@std@@@0@AAV10@AAV?$basic_string@DU?$char_traits@D@std@@V?$allocator@D@2@@0@D@Z
_TEXT	SEGMENT
tv175 = -89						; size = 1
tv174 = -88						; size = 4
tv173 = -84						; size = 4
tv172 = -80						; size = 4
tv171 = -74						; size = 1
tv170 = -73						; size = 1
tv169 = -72						; size = 4
tv168 = -68						; size = 4
tv167 = -64						; size = 4
tv166 = -60						; size = 4
tv165 = -56						; size = 4
tv65 = -52						; size = 4
$T68908 = -48						; size = 4
$T68907 = -44						; size = 4
__Meta$67374 = -40					; size = 4
__Metadelim$67373 = -36					; size = 4
__Changed$ = -29					; size = 1
__Ok$ = -28						; size = 8
__State$ = -20						; size = 4
__$EHRec$ = -16						; size = 16
__Istr$ = 8						; size = 4
__Str$ = 12						; size = 4
__Delim$ = 16						; size = 1
??$getline@DU?$char_traits@D@std@@V?$allocator@D@2@@std@@YAAAV?$basic_istream@DU?$char_traits@D@std@@@0@AAV10@AAV?$basic_string@DU?$char_traits@D@std@@V?$allocator@D@2@@0@D@Z PROC NEAR ; std::getline<char,std::char_traits<char>,std::allocator<char> >, COMDAT

; 477  : 	{	// get characters into string, discard delimiter

  00000	55		 push	 ebp
  00001	8b ec		 mov	 ebp, esp
  00003	6a ff		 push	 -1
  00005	68 00 00 00 00	 push	 __ehhandler$??$getline@DU?$char_traits@D@std@@V?$allocator@D@2@@std@@YAAAV?$basic_istream@DU?$char_traits@D@std@@@0@AAV10@AAV?$basic_string@DU?$char_traits@D@std@@V?$allocator@D@2@@0@D@Z
  0000a	64 a1 00 00 00
	00		 mov	 eax, DWORD PTR fs:__except_list
  00010	50		 push	 eax
  00011	64 89 25 00 00
	00 00		 mov	 DWORD PTR fs:__except_list, esp
  00018	51		 push	 ecx
  00019	83 ec 4c	 sub	 esp, 76			; 0000004cH
  0001c	53		 push	 ebx
  0001d	56		 push	 esi
  0001e	57		 push	 edi
  0001f	89 65 f0	 mov	 DWORD PTR __$EHRec$[ebp], esp

; 478  : 	typedef basic_istream<_Elem, _Traits> _Myis;
; 479  : 	ios_base::iostate _State = ios_base::goodbit;

  00022	c7 45 ec 00 00
	00 00		 mov	 DWORD PTR __State$[ebp], 0

; 480  : 	bool _Changed = false;

  00029	c6 45 e3 00	 mov	 BYTE PTR __Changed$[ebp], 0

; 481  : 	const typename _Myis::sentry _Ok(_Istr, true);

  0002d	6a 01		 push	 1
  0002f	8b 45 08	 mov	 eax, DWORD PTR __Istr$[ebp]
  00032	50		 push	 eax
  00033	8d 4d e4	 lea	 ecx, DWORD PTR __Ok$[ebp]
  00036	e8 00 00 00 00	 call	 ??0sentry@?$basic_istream@DU?$char_traits@D@std@@@std@@QAE@AAV12@_N@Z ; std::basic_istream<char,std::char_traits<char> >::sentry::sentry
  0003b	c7 45 fc 00 00
	00 00		 mov	 DWORD PTR __$EHRec$[ebp+12], 0

; 482  : 
; 483  : 	if (_Ok)

  00042	8d 4d e4	 lea	 ecx, DWORD PTR __Ok$[ebp]
  00045	e8 00 00 00 00	 call	 ??Bsentry@?$basic_istream@DU?$char_traits@D@std@@@std@@QBE_NXZ ; std::basic_istream<char,std::char_traits<char> >::sentry::operator bool
  0004a	0f b6 c8	 movzx	 ecx, al
  0004d	85 c9		 test	 ecx, ecx
  0004f	0f 84 66 01 00
	00		 je	 $L68909

; 484  : 		{	// state okay, extract characters
; 485  : 		_TRY_IO_BEGIN

  00055	c6 45 fc 01	 mov	 BYTE PTR __$EHRec$[ebp+12], 1

; 486  : 		_Str.erase();

  00059	8b 15 00 00 00
	00		 mov	 edx, DWORD PTR __imp_?npos@?$basic_string@DU?$char_traits@D@std@@V?$allocator@D@2@@std@@2IB
  0005f	8b 02		 mov	 eax, DWORD PTR [edx]
  00061	50		 push	 eax
  00062	6a 00		 push	 0
  00064	8b 4d 0c	 mov	 ecx, DWORD PTR __Str$[ebp]
  00067	ff 15 00 00 00
	00		 call	 DWORD PTR __imp_?erase@?$basic_string@DU?$char_traits@D@std@@V?$allocator@D@2@@std@@QAEAAV12@II@Z

; 487  : 		const typename _Traits::int_type _Metadelim =
; 488  : 			_Traits::to_int_type(_Delim);

  0006d	8d 4d 10	 lea	 ecx, DWORD PTR __Delim$[ebp]
  00070	51		 push	 ecx
  00071	ff 15 00 00 00
	00		 call	 DWORD PTR __imp_?to_int_type@?$char_traits@D@std@@SAHABD@Z
  00077	83 c4 04	 add	 esp, 4
  0007a	89 45 cc	 mov	 DWORD PTR tv65[ebp], eax
  0007d	8b 55 cc	 mov	 edx, DWORD PTR tv65[ebp]
  00080	89 55 dc	 mov	 DWORD PTR __Metadelim$67373[ebp], edx

; 489  : 		typename _Traits::int_type _Meta = _Istr.rdbuf()->sgetc();

  00083	8b 45 08	 mov	 eax, DWORD PTR __Istr$[ebp]
  00086	8b 08		 mov	 ecx, DWORD PTR [eax]
  00088	8b 55 08	 mov	 edx, DWORD PTR __Istr$[ebp]
  0008b	03 51 04	 add	 edx, DWORD PTR [ecx+4]
  0008e	8b ca		 mov	 ecx, edx
  00090	ff 15 00 00 00
	00		 call	 DWORD PTR __imp_?rdbuf@?$basic_ios@DU?$char_traits@D@std@@@std@@QBEPAV?$basic_streambuf@DU?$char_traits@D@std@@@2@XZ
  00096	89 45 c8	 mov	 DWORD PTR tv165[ebp], eax
  00099	8b 4d c8	 mov	 ecx, DWORD PTR tv165[ebp]
  0009c	ff 15 00 00 00
	00		 call	 DWORD PTR __imp_?sgetc@?$basic_streambuf@DU?$char_traits@D@std@@@std@@QAEHXZ
  000a2	89 45 c4	 mov	 DWORD PTR tv166[ebp], eax
  000a5	8b 45 c4	 mov	 eax, DWORD PTR tv166[ebp]
  000a8	89 45 d8	 mov	 DWORD PTR __Meta$67374[ebp], eax

; 490  : 
; 491  : 		for (; ; _Meta = _Istr.rdbuf()->snextc())

  000ab	eb 26		 jmp	 SHORT $L67375
$L67376:
  000ad	8b 4d 08	 mov	 ecx, DWORD PTR __Istr$[ebp]
  000b0	8b 11		 mov	 edx, DWORD PTR [ecx]
  000b2	8b 4d 08	 mov	 ecx, DWORD PTR __Istr$[ebp]
  000b5	03 4a 04	 add	 ecx, DWORD PTR [edx+4]
  000b8	ff 15 00 00 00
	00		 call	 DWORD PTR __imp_?rdbuf@?$basic_ios@DU?$char_traits@D@std@@@std@@QBEPAV?$basic_streambuf@DU?$char_traits@D@std@@@2@XZ
  000be	89 45 c0	 mov	 DWORD PTR tv167[ebp], eax
  000c1	8b 4d c0	 mov	 ecx, DWORD PTR tv167[ebp]
  000c4	ff 15 00 00 00
	00		 call	 DWORD PTR __imp_?snextc@?$basic_streambuf@DU?$char_traits@D@std@@@std@@QAEHXZ
  000ca	89 45 bc	 mov	 DWORD PTR tv168[ebp], eax
  000cd	8b 45 bc	 mov	 eax, DWORD PTR tv168[ebp]
  000d0	89 45 d8	 mov	 DWORD PTR __Meta$67374[ebp], eax
$L67375:

; 492  : 			if (_Traits::eq_int_type(_Traits::eof(), _Meta))

  000d3	ff 15 00 00 00
	00		 call	 DWORD PTR __imp_?eof@?$char_traits@D@std@@SAHXZ
  000d9	89 45 b8	 mov	 DWORD PTR tv169[ebp], eax
  000dc	8b 4d b8	 mov	 ecx, DWORD PTR tv169[ebp]
  000df	89 4d d4	 mov	 DWORD PTR $T68907[ebp], ecx
  000e2	8d 55 d8	 lea	 edx, DWORD PTR __Meta$67374[ebp]
  000e5	52		 push	 edx
  000e6	8d 45 d4	 lea	 eax, DWORD PTR $T68907[ebp]
  000e9	50		 push	 eax
  000ea	ff 15 00 00 00
	00		 call	 DWORD PTR __imp_?eq_int_type@?$char_traits@D@std@@SA_NABH0@Z
  000f0	83 c4 08	 add	 esp, 8
  000f3	88 45 b7	 mov	 BYTE PTR tv170[ebp], al
  000f6	0f b6 4d b7	 movzx	 ecx, BYTE PTR tv170[ebp]
  000fa	85 c9		 test	 ecx, ecx
  000fc	74 0e		 je	 SHORT $L67379

; 493  : 				{	// end of file, quit
; 494  : 				_State |= ios_base::eofbit;

  000fe	8b 55 ec	 mov	 edx, DWORD PTR __State$[ebp]
  00101	83 ca 01	 or	 edx, 1
  00104	89 55 ec	 mov	 DWORD PTR __State$[ebp], edx

; 495  : 				break;

  00107	e9 92 00 00 00	 jmp	 $L67377
$L67379:

; 496  : 				}
; 497  : 			else if (_Traits::eq_int_type(_Meta, _Metadelim))

  0010c	8d 45 dc	 lea	 eax, DWORD PTR __Metadelim$67373[ebp]
  0010f	50		 push	 eax
  00110	8d 4d d8	 lea	 ecx, DWORD PTR __Meta$67374[ebp]
  00113	51		 push	 ecx
  00114	ff 15 00 00 00
	00		 call	 DWORD PTR __imp_?eq_int_type@?$char_traits@D@std@@SA_NABH0@Z
  0011a	83 c4 08	 add	 esp, 8
  0011d	88 45 b6	 mov	 BYTE PTR tv171[ebp], al
  00120	0f b6 55 b6	 movzx	 edx, BYTE PTR tv171[ebp]
  00124	85 d2		 test	 edx, edx
  00126	74 25		 je	 SHORT $L67381

; 498  : 				{	// got a delimiter, discard it and quit
; 499  : 				_Changed = true;

  00128	c6 45 e3 01	 mov	 BYTE PTR __Changed$[ebp], 1

; 500  : 				_Istr.rdbuf()->sbumpc();

  0012c	8b 45 08	 mov	 eax, DWORD PTR __Istr$[ebp]
  0012f	8b 08		 mov	 ecx, DWORD PTR [eax]
  00131	8b 55 08	 mov	 edx, DWORD PTR __Istr$[ebp]
  00134	03 51 04	 add	 edx, DWORD PTR [ecx+4]
  00137	8b ca		 mov	 ecx, edx
  00139	ff 15 00 00 00
	00		 call	 DWORD PTR __imp_?rdbuf@?$basic_ios@DU?$char_traits@D@std@@@std@@QBEPAV?$basic_streambuf@DU?$char_traits@D@std@@@2@XZ
  0013f	89 45 b0	 mov	 DWORD PTR tv172[ebp], eax
  00142	8b 4d b0	 mov	 ecx, DWORD PTR tv172[ebp]
  00145	ff 15 00 00 00
	00		 call	 DWORD PTR __imp_?sbumpc@?$basic_streambuf@DU?$char_traits@D@std@@@std@@QAEHXZ

; 501  : 				break;

  0014b	eb 51		 jmp	 SHORT $L67377
$L67381:

; 502  : 				}
; 503  : 			else if (_Str.max_size() <= _Str.size())

  0014d	8b 4d 0c	 mov	 ecx, DWORD PTR __Str$[ebp]
  00150	ff 15 00 00 00
	00		 call	 DWORD PTR __imp_?max_size@?$basic_string@DU?$char_traits@D@std@@V?$allocator@D@2@@std@@QBEIXZ
  00156	89 45 ac	 mov	 DWORD PTR tv173[ebp], eax
  00159	8b 4d 0c	 mov	 ecx, DWORD PTR __Str$[ebp]
  0015c	ff 15 00 00 00
	00		 call	 DWORD PTR __imp_?size@?$basic_string@DU?$char_traits@D@std@@V?$allocator@D@2@@std@@QBEIXZ
  00162	89 45 a8	 mov	 DWORD PTR tv174[ebp], eax
  00165	8b 45 ac	 mov	 eax, DWORD PTR tv173[ebp]
  00168	3b 45 a8	 cmp	 eax, DWORD PTR tv174[ebp]
  0016b	77 0b		 ja	 SHORT $L67383

; 504  : 				{	// string too large, quit
; 505  : 				_State |= ios_base::failbit;

  0016d	8b 4d ec	 mov	 ecx, DWORD PTR __State$[ebp]
  00170	83 c9 02	 or	 ecx, 2
  00173	89 4d ec	 mov	 DWORD PTR __State$[ebp], ecx

; 506  : 				break;

  00176	eb 26		 jmp	 SHORT $L67377
$L67383:

; 507  : 				}
; 508  : 			else
; 509  : 				{	// got a character, add it to string
; 510  : 				_Str += _Traits::to_char_type(_Meta);

  00178	8d 55 d8	 lea	 edx, DWORD PTR __Meta$67374[ebp]
  0017b	52		 push	 edx
  0017c	ff 15 00 00 00
	00		 call	 DWORD PTR __imp_?to_char_type@?$char_traits@D@std@@SADABH@Z
  00182	83 c4 04	 add	 esp, 4
  00185	88 45 a7	 mov	 BYTE PTR tv175[ebp], al
  00188	8a 45 a7	 mov	 al, BYTE PTR tv175[ebp]
  0018b	50		 push	 eax
  0018c	8b 4d 0c	 mov	 ecx, DWORD PTR __Str$[ebp]
  0018f	ff 15 00 00 00
	00		 call	 DWORD PTR __imp_??Y?$basic_string@DU?$char_traits@D@std@@V?$allocator@D@2@@std@@QAEAAV01@D@Z

; 511  : 				_Changed = true;

  00195	c6 45 e3 01	 mov	 BYTE PTR __Changed$[ebp], 1

; 512  : 				}

  00199	e9 0f ff ff ff	 jmp	 $L67376
$L67377:
  0019e	eb 1b		 jmp	 SHORT $L68909
$L68910:

; 513  : 		_CATCH_IO_(_Istr)

  001a0	6a 01		 push	 1
  001a2	6a 04		 push	 4
  001a4	8b 4d 08	 mov	 ecx, DWORD PTR __Istr$[ebp]
  001a7	8b 11		 mov	 edx, DWORD PTR [ecx]
  001a9	8b 4d 08	 mov	 ecx, DWORD PTR __Istr$[ebp]
  001ac	03 4a 04	 add	 ecx, DWORD PTR [edx+4]
  001af	ff 15 00 00 00
	00		 call	 DWORD PTR __imp_?setstate@?$basic_ios@DU?$char_traits@D@std@@@std@@QAEXH_N@Z
  001b5	b8 00 00 00 00	 mov	 eax, $L68909
  001ba	c3		 ret	 0
$L68909:
  001bb	c7 45 fc 00 00
	00 00		 mov	 DWORD PTR __$EHRec$[ebp+12], 0

; 514  : 		}
; 515  : 
; 516  : 	if (!_Changed)

  001c2	0f b6 45 e3	 movzx	 eax, BYTE PTR __Changed$[ebp]
  001c6	85 c0		 test	 eax, eax
  001c8	75 09		 jne	 SHORT $L67385

; 517  : 		_State |= ios_base::failbit;

  001ca	8b 4d ec	 mov	 ecx, DWORD PTR __State$[ebp]
  001cd	83 c9 02	 or	 ecx, 2
  001d0	89 4d ec	 mov	 DWORD PTR __State$[ebp], ecx
$L67385:

; 518  : 	_Istr.setstate(_State);

  001d3	6a 00		 push	 0
  001d5	8b 55 ec	 mov	 edx, DWORD PTR __State$[ebp]
  001d8	52		 push	 edx
  001d9	8b 45 08	 mov	 eax, DWORD PTR __Istr$[ebp]
  001dc	8b 08		 mov	 ecx, DWORD PTR [eax]
  001de	8b 55 08	 mov	 edx, DWORD PTR __Istr$[ebp]
  001e1	03 51 04	 add	 edx, DWORD PTR [ecx+4]
  001e4	8b ca		 mov	 ecx, edx
  001e6	ff 15 00 00 00
	00		 call	 DWORD PTR __imp_?setstate@?$basic_ios@DU?$char_traits@D@std@@@std@@QAEXH_N@Z

; 519  : 	return (_Istr);

  001ec	8b 45 08	 mov	 eax, DWORD PTR __Istr$[ebp]
  001ef	89 45 d0	 mov	 DWORD PTR $T68908[ebp], eax
  001f2	c7 45 fc ff ff
	ff ff		 mov	 DWORD PTR __$EHRec$[ebp+12], -1
  001f9	8d 4d e4	 lea	 ecx, DWORD PTR __Ok$[ebp]
  001fc	e8 00 00 00 00	 call	 ??1sentry@?$basic_istream@DU?$char_traits@D@std@@@std@@QAE@XZ
  00201	8b 45 d0	 mov	 eax, DWORD PTR $T68908[ebp]

; 520  : 	}

  00204	8b 4d f4	 mov	 ecx, DWORD PTR __$EHRec$[ebp+4]
  00207	64 89 0d 00 00
	00 00		 mov	 DWORD PTR fs:__except_list, ecx
  0020e	5f		 pop	 edi
  0020f	5e		 pop	 esi
  00210	5b		 pop	 ebx
  00211	8b e5		 mov	 esp, ebp
  00213	5d		 pop	 ebp
  00214	c3		 ret	 0
_TEXT	ENDS
;	COMDAT text$x
text$x	SEGMENT
$L68911:
  00000	8d 4d e4	 lea	 ecx, DWORD PTR __Ok$[ebp]
  00003	e9 00 00 00 00	 jmp	 ??1sentry@?$basic_istream@DU?$char_traits@D@std@@@std@@QAE@XZ
__ehhandler$??$getline@DU?$char_traits@D@std@@V?$allocator@D@2@@std@@YAAAV?$basic_istream@DU?$char_traits@D@std@@@0@AAV10@AAV?$basic_string@DU?$char_traits@D@std@@V?$allocator@D@2@@0@D@Z:
  00008	b8 00 00 00 00	 mov	 eax, OFFSET FLAT:$T68913
  0000d	e9 00 00 00 00	 jmp	 ___CxxFrameHandler
text$x	ENDS
??$getline@DU?$char_traits@D@std@@V?$allocator@D@2@@std@@YAAAV?$basic_istream@DU?$char_traits@D@std@@@0@AAV10@AAV?$basic_string@DU?$char_traits@D@std@@V?$allocator@D@2@@0@D@Z ENDP ; std::getline<char,std::char_traits<char>,std::allocator<char> >
PUBLIC	??0sentry@?$basic_ostream@DU?$char_traits@D@std@@@std@@QAE@AAV12@@Z ; std::basic_ostream<char,std::char_traits<char> >::sentry::sentry
PUBLIC	??1sentry@?$basic_ostream@DU?$char_traits@D@std@@@std@@QAE@XZ ; std::basic_ostream<char,std::char_traits<char> >::sentry::~sentry
PUBLIC	??Bsentry@?$basic_ostream@DU?$char_traits@D@std@@@std@@QBE_NXZ ; std::basic_ostream<char,std::char_traits<char> >::sentry::operator bool
PUBLIC	??$?6DU?$char_traits@D@std@@V?$allocator@D@1@@std@@YAAAV?$basic_ostream@DU?$char_traits@D@std@@@0@AAV10@ABV?$basic_string@DU?$char_traits@D@std@@V?$allocator@D@2@@0@@Z ; std::operator<<<char,std::char_traits<char>,std::allocator<char> >
EXTRN	__imp_??A?$basic_string@DU?$char_traits@D@std@@V?$allocator@D@2@@std@@QBEABDI@Z:NEAR
EXTRN	__imp_?sputc@?$basic_streambuf@DU?$char_traits@D@std@@@std@@QAEHD@Z:NEAR
EXTRN	__imp_?fill@?$basic_ios@DU?$char_traits@D@std@@@std@@QBEDXZ:NEAR
EXTRN	__imp_?flags@ios_base@std@@QBEHXZ:NEAR
;	COMDAT xdata$x
xdata$x	SEGMENT
$T68937	DD	0ffffffffH
	DD	FLAT:$L68933
	DD	00H
	DD	00H
	DD	00H
	DD	00H
$T68939	DD	00H
	DD	00H
	DD	00H
	DD	FLAT:$L68932
$T68938	DD	01H
	DD	01H
	DD	02H
	DD	01H
	DD	FLAT:$T68939
$T68935	DD	019930520H
	DD	03H
	DD	FLAT:$T68937
	DD	01H
	DD	FLAT:$T68938
	DD	2 DUP(00H)
; Function compile flags: /Odt
xdata$x	ENDS
;	COMDAT ??$?6DU?$char_traits@D@std@@V?$allocator@D@1@@std@@YAAAV?$basic_ostream@DU?$char_traits@D@std@@@0@AAV10@ABV?$basic_string@DU?$char_traits@D@std@@V?$allocator@D@2@@0@@Z
_TEXT	SEGMENT
tv221 = -129						; size = 1
tv220 = -128						; size = 4
tv219 = -124						; size = 4
tv218 = -120						; size = 4
tv217 = -114						; size = 1
tv216 = -113						; size = 1
tv215 = -112						; size = 4
tv214 = -108						; size = 4
tv213 = -104						; size = 4
tv212 = -100						; size = 4
tv211 = -93						; size = 1
tv210 = -92						; size = 4
tv209 = -88						; size = 4
tv208 = -84						; size = 4
tv207 = -77						; size = 1
tv83 = -76						; size = 4
tv81 = -72						; size = 4
$T68930 = -68						; size = 4
$T68929 = -64						; size = 4
$T68928 = -60						; size = 4
$T68927 = -56						; size = 4
$T68926 = -52						; size = 4
$T68925 = -48						; size = 4
$T68924 = -44						; size = 4
__Count$67408 = -40					; size = 4
__Size$ = -36						; size = 4
__Ok$ = -32						; size = 8
__Pad$ = -24						; size = 4
__State$ = -20						; size = 4
__$EHRec$ = -16						; size = 16
__Ostr$ = 8						; size = 4
__Str$ = 12						; size = 4
??$?6DU?$char_traits@D@std@@V?$allocator@D@1@@std@@YAAAV?$basic_ostream@DU?$char_traits@D@std@@@0@AAV10@ABV?$basic_string@DU?$char_traits@D@std@@V?$allocator@D@2@@0@@Z PROC NEAR ; std::operator<<<char,std::char_traits<char>,std::allocator<char> >, COMDAT

; 538  : 	{	// insert a string

  00000	55		 push	 ebp
  00001	8b ec		 mov	 ebp, esp
  00003	6a ff		 push	 -1
  00005	68 00 00 00 00	 push	 __ehhandler$??$?6DU?$char_traits@D@std@@V?$allocator@D@1@@std@@YAAAV?$basic_ostream@DU?$char_traits@D@std@@@0@AAV10@ABV?$basic_string@DU?$char_traits@D@std@@V?$allocator@D@2@@0@@Z
  0000a	64 a1 00 00 00
	00		 mov	 eax, DWORD PTR fs:__except_list
  00010	50		 push	 eax
  00011	64 89 25 00 00
	00 00		 mov	 DWORD PTR fs:__except_list, esp
  00018	51		 push	 ecx
  00019	83 ec 74	 sub	 esp, 116		; 00000074H
  0001c	53		 push	 ebx
  0001d	56		 push	 esi
  0001e	57		 push	 edi
  0001f	89 65 f0	 mov	 DWORD PTR __$EHRec$[ebp], esp

; 539  : 	typedef basic_ostream<_Elem, _Traits> _Myos;
; 540  : 	typedef basic_string<_Elem, _Traits, _Alloc> _Mystr;
; 541  : 	typedef typename _Mystr::size_type _Mysizt;
; 542  : 
; 543  : 	ios_base::iostate _State = ios_base::goodbit;

  00022	c7 45 ec 00 00
	00 00		 mov	 DWORD PTR __State$[ebp], 0

; 544  : 	_Mysizt _Size = _Str.size();

  00029	8b 4d 0c	 mov	 ecx, DWORD PTR __Str$[ebp]
  0002c	ff 15 00 00 00
	00		 call	 DWORD PTR __imp_?size@?$basic_string@DU?$char_traits@D@std@@V?$allocator@D@2@@std@@QBEIXZ
  00032	89 45 dc	 mov	 DWORD PTR __Size$[ebp], eax

; 545  : 	_Mysizt _Pad = _Ostr.width() <= 0 || (_Mysizt)_Ostr.width() <= _Size
; 546  : 			? 0 : (_Mysizt)_Ostr.width() - _Size;

  00035	8b 45 08	 mov	 eax, DWORD PTR __Ostr$[ebp]
  00038	8b 08		 mov	 ecx, DWORD PTR [eax]
  0003a	8b 55 08	 mov	 edx, DWORD PTR __Ostr$[ebp]
  0003d	03 51 04	 add	 edx, DWORD PTR [ecx+4]
  00040	8b ca		 mov	 ecx, edx
  00042	ff 15 00 00 00
	00		 call	 DWORD PTR __imp_?width@ios_base@std@@QBEHXZ
  00048	85 c0		 test	 eax, eax
  0004a	7e 33		 jle	 SHORT $L68922
  0004c	8b 45 08	 mov	 eax, DWORD PTR __Ostr$[ebp]
  0004f	8b 08		 mov	 ecx, DWORD PTR [eax]
  00051	8b 55 08	 mov	 edx, DWORD PTR __Ostr$[ebp]
  00054	03 51 04	 add	 edx, DWORD PTR [ecx+4]
  00057	8b ca		 mov	 ecx, edx
  00059	ff 15 00 00 00
	00		 call	 DWORD PTR __imp_?width@ios_base@std@@QBEHXZ
  0005f	3b 45 dc	 cmp	 eax, DWORD PTR __Size$[ebp]
  00062	76 1b		 jbe	 SHORT $L68922
  00064	8b 45 08	 mov	 eax, DWORD PTR __Ostr$[ebp]
  00067	8b 08		 mov	 ecx, DWORD PTR [eax]
  00069	8b 55 08	 mov	 edx, DWORD PTR __Ostr$[ebp]
  0006c	03 51 04	 add	 edx, DWORD PTR [ecx+4]
  0006f	8b ca		 mov	 ecx, edx
  00071	ff 15 00 00 00
	00		 call	 DWORD PTR __imp_?width@ios_base@std@@QBEHXZ
  00077	2b 45 dc	 sub	 eax, DWORD PTR __Size$[ebp]
  0007a	89 45 b8	 mov	 DWORD PTR tv81[ebp], eax
  0007d	eb 07		 jmp	 SHORT $L68923
$L68922:
  0007f	c7 45 b8 00 00
	00 00		 mov	 DWORD PTR tv81[ebp], 0
$L68923:
  00086	8b 45 b8	 mov	 eax, DWORD PTR tv81[ebp]
  00089	89 45 e8	 mov	 DWORD PTR __Pad$[ebp], eax

; 547  : 	const typename _Myos::sentry _Ok(_Ostr);

  0008c	8b 4d 08	 mov	 ecx, DWORD PTR __Ostr$[ebp]
  0008f	51		 push	 ecx
  00090	8d 4d e0	 lea	 ecx, DWORD PTR __Ok$[ebp]
  00093	e8 00 00 00 00	 call	 ??0sentry@?$basic_ostream@DU?$char_traits@D@std@@@std@@QAE@AAV12@@Z ; std::basic_ostream<char,std::char_traits<char> >::sentry::sentry
  00098	c7 45 fc 00 00
	00 00		 mov	 DWORD PTR __$EHRec$[ebp+12], 0

; 548  : 
; 549  : 	if (!_Ok)

  0009f	8d 4d e0	 lea	 ecx, DWORD PTR __Ok$[ebp]
  000a2	e8 00 00 00 00	 call	 ??Bsentry@?$basic_ostream@DU?$char_traits@D@std@@@std@@QBE_NXZ ; std::basic_ostream<char,std::char_traits<char> >::sentry::operator bool
  000a7	0f b6 d0	 movzx	 edx, al
  000aa	85 d2		 test	 edx, edx
  000ac	75 0e		 jne	 SHORT $L67397

; 550  : 		_State |= ios_base::badbit;

  000ae	8b 45 ec	 mov	 eax, DWORD PTR __State$[ebp]
  000b1	83 c8 04	 or	 eax, 4
  000b4	89 45 ec	 mov	 DWORD PTR __State$[ebp], eax

; 551  : 	else

  000b7	e9 22 02 00 00	 jmp	 $L68931
$L67397:

; 552  : 		{	// state okay, insert characters
; 553  : 	_TRY_IO_BEGIN

  000bc	c6 45 fc 01	 mov	 BYTE PTR __$EHRec$[ebp+12], 1

; 554  : 		if ((_Ostr.flags() & ios_base::adjustfield) != ios_base::left)

  000c0	8b 4d 08	 mov	 ecx, DWORD PTR __Ostr$[ebp]
  000c3	8b 11		 mov	 edx, DWORD PTR [ecx]
  000c5	8b 4d 08	 mov	 ecx, DWORD PTR __Ostr$[ebp]
  000c8	03 4a 04	 add	 ecx, DWORD PTR [edx+4]
  000cb	ff 15 00 00 00
	00		 call	 DWORD PTR __imp_?flags@ios_base@std@@QBEHXZ
  000d1	89 45 b4	 mov	 DWORD PTR tv83[ebp], eax
  000d4	8b 45 b4	 mov	 eax, DWORD PTR tv83[ebp]
  000d7	25 c0 01 00 00	 and	 eax, 448		; 000001c0H
  000dc	83 f8 40	 cmp	 eax, 64			; 00000040H
  000df	0f 84 8a 00 00
	00		 je	 $L67400

; 555  : 			for (; 0 < _Pad; --_Pad)	// pad on left

  000e5	eb 09		 jmp	 SHORT $L67401
$L67402:
  000e7	8b 4d e8	 mov	 ecx, DWORD PTR __Pad$[ebp]
  000ea	83 e9 01	 sub	 ecx, 1
  000ed	89 4d e8	 mov	 DWORD PTR __Pad$[ebp], ecx
$L67401:
  000f0	83 7d e8 00	 cmp	 DWORD PTR __Pad$[ebp], 0
  000f4	76 79		 jbe	 SHORT $L67400

; 556  : 				if (_Traits::eq_int_type(_Traits::eof(),
; 557  : 					_Ostr.rdbuf()->sputc(_Ostr.fill())))

  000f6	8b 55 08	 mov	 edx, DWORD PTR __Ostr$[ebp]
  000f9	8b 02		 mov	 eax, DWORD PTR [edx]
  000fb	8b 4d 08	 mov	 ecx, DWORD PTR __Ostr$[ebp]
  000fe	03 48 04	 add	 ecx, DWORD PTR [eax+4]
  00101	ff 15 00 00 00
	00		 call	 DWORD PTR __imp_?fill@?$basic_ios@DU?$char_traits@D@std@@@std@@QBEDXZ
  00107	88 45 b3	 mov	 BYTE PTR tv207[ebp], al
  0010a	8b 4d 08	 mov	 ecx, DWORD PTR __Ostr$[ebp]
  0010d	8b 11		 mov	 edx, DWORD PTR [ecx]
  0010f	8b 4d 08	 mov	 ecx, DWORD PTR __Ostr$[ebp]
  00112	03 4a 04	 add	 ecx, DWORD PTR [edx+4]
  00115	ff 15 00 00 00
	00		 call	 DWORD PTR __imp_?rdbuf@?$basic_ios@DU?$char_traits@D@std@@@std@@QBEPAV?$basic_streambuf@DU?$char_traits@D@std@@@2@XZ
  0011b	89 45 ac	 mov	 DWORD PTR tv208[ebp], eax
  0011e	8a 45 b3	 mov	 al, BYTE PTR tv207[ebp]
  00121	50		 push	 eax
  00122	8b 4d ac	 mov	 ecx, DWORD PTR tv208[ebp]
  00125	ff 15 00 00 00
	00		 call	 DWORD PTR __imp_?sputc@?$basic_streambuf@DU?$char_traits@D@std@@@std@@QAEHD@Z
  0012b	89 45 a8	 mov	 DWORD PTR tv209[ebp], eax
  0012e	8b 4d a8	 mov	 ecx, DWORD PTR tv209[ebp]
  00131	89 4d d4	 mov	 DWORD PTR $T68924[ebp], ecx
  00134	ff 15 00 00 00
	00		 call	 DWORD PTR __imp_?eof@?$char_traits@D@std@@SAHXZ
  0013a	89 45 a4	 mov	 DWORD PTR tv210[ebp], eax
  0013d	8b 55 a4	 mov	 edx, DWORD PTR tv210[ebp]
  00140	89 55 d0	 mov	 DWORD PTR $T68925[ebp], edx
  00143	8d 45 d4	 lea	 eax, DWORD PTR $T68924[ebp]
  00146	50		 push	 eax
  00147	8d 4d d0	 lea	 ecx, DWORD PTR $T68925[ebp]
  0014a	51		 push	 ecx
  0014b	ff 15 00 00 00
	00		 call	 DWORD PTR __imp_?eq_int_type@?$char_traits@D@std@@SA_NABH0@Z
  00151	83 c4 08	 add	 esp, 8
  00154	88 45 a3	 mov	 BYTE PTR tv211[ebp], al
  00157	0f b6 55 a3	 movzx	 edx, BYTE PTR tv211[ebp]
  0015b	85 d2		 test	 edx, edx
  0015d	74 0b		 je	 SHORT $L67406

; 558  : 					{	// insertion failed, quit
; 559  : 					_State |= ios_base::badbit;

  0015f	8b 45 ec	 mov	 eax, DWORD PTR __State$[ebp]
  00162	83 c8 04	 or	 eax, 4
  00165	89 45 ec	 mov	 DWORD PTR __State$[ebp], eax

; 560  : 					break;

  00168	eb 05		 jmp	 SHORT $L67400
$L67406:

; 561  : 					}
; 562  : 
; 563  : 		if (_State == ios_base::goodbit)

  0016a	e9 78 ff ff ff	 jmp	 $L67402
$L67400:
  0016f	83 7d ec 00	 cmp	 DWORD PTR __State$[ebp], 0
  00173	0f 85 91 00 00
	00		 jne	 $L67407

; 564  : 			for (_Mysizt _Count = 0; _Count < _Size; ++_Count)

  00179	c7 45 d8 00 00
	00 00		 mov	 DWORD PTR __Count$67408[ebp], 0
  00180	eb 09		 jmp	 SHORT $L67409
$L67410:
  00182	8b 4d d8	 mov	 ecx, DWORD PTR __Count$67408[ebp]
  00185	83 c1 01	 add	 ecx, 1
  00188	89 4d d8	 mov	 DWORD PTR __Count$67408[ebp], ecx
$L67409:
  0018b	8b 55 d8	 mov	 edx, DWORD PTR __Count$67408[ebp]
  0018e	3b 55 dc	 cmp	 edx, DWORD PTR __Size$[ebp]
  00191	73 77		 jae	 SHORT $L67407

; 565  : 				if (_Traits::eq_int_type(_Traits::eof(),
; 566  : 					_Ostr.rdbuf()->sputc(_Str[_Count])))

  00193	8b 45 d8	 mov	 eax, DWORD PTR __Count$67408[ebp]
  00196	50		 push	 eax
  00197	8b 4d 0c	 mov	 ecx, DWORD PTR __Str$[ebp]
  0019a	ff 15 00 00 00
	00		 call	 DWORD PTR __imp_??A?$basic_string@DU?$char_traits@D@std@@V?$allocator@D@2@@std@@QBEABDI@Z
  001a0	89 45 9c	 mov	 DWORD PTR tv212[ebp], eax
  001a3	8b 4d 08	 mov	 ecx, DWORD PTR __Ostr$[ebp]
  001a6	8b 11		 mov	 edx, DWORD PTR [ecx]
  001a8	8b 4d 08	 mov	 ecx, DWORD PTR __Ostr$[ebp]
  001ab	03 4a 04	 add	 ecx, DWORD PTR [edx+4]
  001ae	ff 15 00 00 00
	00		 call	 DWORD PTR __imp_?rdbuf@?$basic_ios@DU?$char_traits@D@std@@@std@@QBEPAV?$basic_streambuf@DU?$char_traits@D@std@@@2@XZ
  001b4	89 45 98	 mov	 DWORD PTR tv213[ebp], eax
  001b7	8b 45 9c	 mov	 eax, DWORD PTR tv212[ebp]
  001ba	8a 08		 mov	 cl, BYTE PTR [eax]
  001bc	51		 push	 ecx
  001bd	8b 4d 98	 mov	 ecx, DWORD PTR tv213[ebp]
  001c0	ff 15 00 00 00
	00		 call	 DWORD PTR __imp_?sputc@?$basic_streambuf@DU?$char_traits@D@std@@@std@@QAEHD@Z
  001c6	89 45 94	 mov	 DWORD PTR tv214[ebp], eax
  001c9	8b 55 94	 mov	 edx, DWORD PTR tv214[ebp]
  001cc	89 55 cc	 mov	 DWORD PTR $T68926[ebp], edx
  001cf	ff 15 00 00 00
	00		 call	 DWORD PTR __imp_?eof@?$char_traits@D@std@@SAHXZ
  001d5	89 45 90	 mov	 DWORD PTR tv215[ebp], eax
  001d8	8b 45 90	 mov	 eax, DWORD PTR tv215[ebp]
  001db	89 45 c8	 mov	 DWORD PTR $T68927[ebp], eax
  001de	8d 4d cc	 lea	 ecx, DWORD PTR $T68926[ebp]
  001e1	51		 push	 ecx
  001e2	8d 55 c8	 lea	 edx, DWORD PTR $T68927[ebp]
  001e5	52		 push	 edx
  001e6	ff 15 00 00 00
	00		 call	 DWORD PTR __imp_?eq_int_type@?$char_traits@D@std@@SA_NABH0@Z
  001ec	83 c4 08	 add	 esp, 8
  001ef	88 45 8f	 mov	 BYTE PTR tv216[ebp], al
  001f2	0f b6 45 8f	 movzx	 eax, BYTE PTR tv216[ebp]
  001f6	85 c0		 test	 eax, eax
  001f8	74 0b		 je	 SHORT $L67414

; 567  : 					{	// insertion failed, quit
; 568  : 					_State |= ios_base::badbit;

  001fa	8b 4d ec	 mov	 ecx, DWORD PTR __State$[ebp]
  001fd	83 c9 04	 or	 ecx, 4
  00200	89 4d ec	 mov	 DWORD PTR __State$[ebp], ecx

; 569  : 					break;

  00203	eb 05		 jmp	 SHORT $L67407
$L67414:

; 570  : 					}
; 571  : 
; 572  : 		if (_State == ios_base::goodbit)

  00205	e9 78 ff ff ff	 jmp	 $L67410
$L67407:
  0020a	83 7d ec 00	 cmp	 DWORD PTR __State$[ebp], 0
  0020e	0f 85 98 00 00
	00		 jne	 $L67415

; 573  : 			for (; 0 < _Pad; --_Pad)	// pad on right

  00214	eb 09		 jmp	 SHORT $L67416
$L67417:
  00216	8b 55 e8	 mov	 edx, DWORD PTR __Pad$[ebp]
  00219	83 ea 01	 sub	 edx, 1
  0021c	89 55 e8	 mov	 DWORD PTR __Pad$[ebp], edx
$L67416:
  0021f	83 7d e8 00	 cmp	 DWORD PTR __Pad$[ebp], 0
  00223	0f 86 83 00 00
	00		 jbe	 $L67415

; 574  : 				if (_Traits::eq_int_type(_Traits::eof(),
; 575  : 					_Ostr.rdbuf()->sputc(_Ostr.fill())))

  00229	8b 45 08	 mov	 eax, DWORD PTR __Ostr$[ebp]
  0022c	8b 08		 mov	 ecx, DWORD PTR [eax]
  0022e	8b 55 08	 mov	 edx, DWORD PTR __Ostr$[ebp]
  00231	03 51 04	 add	 edx, DWORD PTR [ecx+4]
  00234	8b ca		 mov	 ecx, edx
  00236	ff 15 00 00 00
	00		 call	 DWORD PTR __imp_?fill@?$basic_ios@DU?$char_traits@D@std@@@std@@QBEDXZ
  0023c	88 45 8e	 mov	 BYTE PTR tv217[ebp], al
  0023f	8b 45 08	 mov	 eax, DWORD PTR __Ostr$[ebp]
  00242	8b 08		 mov	 ecx, DWORD PTR [eax]
  00244	8b 55 08	 mov	 edx, DWORD PTR __Ostr$[ebp]
  00247	03 51 04	 add	 edx, DWORD PTR [ecx+4]
  0024a	8b ca		 mov	 ecx, edx
  0024c	ff 15 00 00 00
	00		 call	 DWORD PTR __imp_?rdbuf@?$basic_ios@DU?$char_traits@D@std@@@std@@QBEPAV?$basic_streambuf@DU?$char_traits@D@std@@@2@XZ
  00252	89 45 88	 mov	 DWORD PTR tv218[ebp], eax
  00255	8a 45 8e	 mov	 al, BYTE PTR tv217[ebp]
  00258	50		 push	 eax
  00259	8b 4d 88	 mov	 ecx, DWORD PTR tv218[ebp]
  0025c	ff 15 00 00 00
	00		 call	 DWORD PTR __imp_?sputc@?$basic_streambuf@DU?$char_traits@D@std@@@std@@QAEHD@Z
  00262	89 45 84	 mov	 DWORD PTR tv219[ebp], eax
  00265	8b 4d 84	 mov	 ecx, DWORD PTR tv219[ebp]
  00268	89 4d c4	 mov	 DWORD PTR $T68928[ebp], ecx
  0026b	ff 15 00 00 00
	00		 call	 DWORD PTR __imp_?eof@?$char_traits@D@std@@SAHXZ
  00271	89 45 80	 mov	 DWORD PTR tv220[ebp], eax
  00274	8b 55 80	 mov	 edx, DWORD PTR tv220[ebp]
  00277	89 55 c0	 mov	 DWORD PTR $T68929[ebp], edx
  0027a	8d 45 c4	 lea	 eax, DWORD PTR $T68928[ebp]
  0027d	50		 push	 eax
  0027e	8d 4d c0	 lea	 ecx, DWORD PTR $T68929[ebp]
  00281	51		 push	 ecx
  00282	ff 15 00 00 00
	00		 call	 DWORD PTR __imp_?eq_int_type@?$char_traits@D@std@@SA_NABH0@Z
  00288	83 c4 08	 add	 esp, 8
  0028b	88 85 7f ff ff
	ff		 mov	 BYTE PTR tv221[ebp], al
  00291	0f b6 95 7f ff
	ff ff		 movzx	 edx, BYTE PTR tv221[ebp]
  00298	85 d2		 test	 edx, edx
  0029a	74 0b		 je	 SHORT $L67421

; 576  : 					{	// insertion failed, quit
; 577  : 					_State |= ios_base::badbit;

  0029c	8b 45 ec	 mov	 eax, DWORD PTR __State$[ebp]
  0029f	83 c8 04	 or	 eax, 4
  002a2	89 45 ec	 mov	 DWORD PTR __State$[ebp], eax

; 578  : 					break;

  002a5	eb 05		 jmp	 SHORT $L67415
$L67421:

; 579  : 					}
; 580  : 		_Ostr.width(0);

  002a7	e9 6a ff ff ff	 jmp	 $L67417
$L67415:
  002ac	6a 00		 push	 0
  002ae	8b 4d 08	 mov	 ecx, DWORD PTR __Ostr$[ebp]
  002b1	8b 11		 mov	 edx, DWORD PTR [ecx]
  002b3	8b 4d 08	 mov	 ecx, DWORD PTR __Ostr$[ebp]
  002b6	03 4a 04	 add	 ecx, DWORD PTR [edx+4]
  002b9	ff 15 00 00 00
	00		 call	 DWORD PTR __imp_?width@ios_base@std@@QAEHH@Z
  002bf	eb 1d		 jmp	 SHORT $L68931
$L68932:

; 581  : 		_CATCH_IO_(_Ostr)

  002c1	6a 01		 push	 1
  002c3	6a 04		 push	 4
  002c5	8b 45 08	 mov	 eax, DWORD PTR __Ostr$[ebp]
  002c8	8b 08		 mov	 ecx, DWORD PTR [eax]
  002ca	8b 55 08	 mov	 edx, DWORD PTR __Ostr$[ebp]
  002cd	03 51 04	 add	 edx, DWORD PTR [ecx+4]
  002d0	8b ca		 mov	 ecx, edx
  002d2	ff 15 00 00 00
	00		 call	 DWORD PTR __imp_?setstate@?$basic_ios@DU?$char_traits@D@std@@@std@@QAEXH_N@Z
  002d8	b8 00 00 00 00	 mov	 eax, $L68931
  002dd	c3		 ret	 0
$L68931:
  002de	c7 45 fc 00 00
	00 00		 mov	 DWORD PTR __$EHRec$[ebp+12], 0

; 582  : 		}
; 583  : 
; 584  : 	_Ostr.setstate(_State);

  002e5	6a 00		 push	 0
  002e7	8b 45 ec	 mov	 eax, DWORD PTR __State$[ebp]
  002ea	50		 push	 eax
  002eb	8b 4d 08	 mov	 ecx, DWORD PTR __Ostr$[ebp]
  002ee	8b 11		 mov	 edx, DWORD PTR [ecx]
  002f0	8b 4d 08	 mov	 ecx, DWORD PTR __Ostr$[ebp]
  002f3	03 4a 04	 add	 ecx, DWORD PTR [edx+4]
  002f6	ff 15 00 00 00
	00		 call	 DWORD PTR __imp_?setstate@?$basic_ios@DU?$char_traits@D@std@@@std@@QAEXH_N@Z

; 585  : 	return (_Ostr);

  002fc	8b 45 08	 mov	 eax, DWORD PTR __Ostr$[ebp]
  002ff	89 45 bc	 mov	 DWORD PTR $T68930[ebp], eax
  00302	c7 45 fc ff ff
	ff ff		 mov	 DWORD PTR __$EHRec$[ebp+12], -1
  00309	8d 4d e0	 lea	 ecx, DWORD PTR __Ok$[ebp]
  0030c	e8 00 00 00 00	 call	 ??1sentry@?$basic_ostream@DU?$char_traits@D@std@@@std@@QAE@XZ ; std::basic_ostream<char,std::char_traits<char> >::sentry::~sentry
  00311	8b 45 bc	 mov	 eax, DWORD PTR $T68930[ebp]

; 586  : 	}

  00314	8b 4d f4	 mov	 ecx, DWORD PTR __$EHRec$[ebp+4]
  00317	64 89 0d 00 00
	00 00		 mov	 DWORD PTR fs:__except_list, ecx
  0031e	5f		 pop	 edi
  0031f	5e		 pop	 esi
  00320	5b		 pop	 ebx
  00321	8b e5		 mov	 esp, ebp
  00323	5d		 pop	 ebp
  00324	c3		 ret	 0
_TEXT	ENDS
;	COMDAT text$x
text$x	SEGMENT
$L68933:
  00000	8d 4d e0	 lea	 ecx, DWORD PTR __Ok$[ebp]
  00003	e9 00 00 00 00	 jmp	 ??1sentry@?$basic_ostream@DU?$char_traits@D@std@@@std@@QAE@XZ ; std::basic_ostream<char,std::char_traits<char> >::sentry::~sentry
__ehhandler$??$?6DU?$char_traits@D@std@@V?$allocator@D@1@@std@@YAAAV?$basic_ostream@DU?$char_traits@D@std@@@0@AAV10@ABV?$basic_string@DU?$char_traits@D@std@@V?$allocator@D@2@@0@@Z:
  00008	b8 00 00 00 00	 mov	 eax, OFFSET FLAT:$T68935
  0000d	e9 00 00 00 00	 jmp	 ___CxxFrameHandler
text$x	ENDS
??$?6DU?$char_traits@D@std@@V?$allocator@D@1@@std@@YAAAV?$basic_ostream@DU?$char_traits@D@std@@@0@AAV10@ABV?$basic_string@DU?$char_traits@D@std@@V?$allocator@D@2@@0@@Z ENDP ; std::operator<<<char,std::char_traits<char>,std::allocator<char> >
PUBLIC	??0_Sentry_base@?$basic_ostream@DU?$char_traits@D@std@@@std@@QAE@AAV12@@Z ; std::basic_ostream<char,std::char_traits<char> >::_Sentry_base::_Sentry_base
PUBLIC	??1_Sentry_base@?$basic_ostream@DU?$char_traits@D@std@@@std@@QAE@XZ ; std::basic_ostream<char,std::char_traits<char> >::_Sentry_base::~_Sentry_base
EXTRN	__imp_?tie@?$basic_ios@DU?$char_traits@D@std@@@std@@QBEPAV?$basic_ostream@DU?$char_traits@D@std@@@2@XZ:NEAR
EXTRN	__imp_?good@ios_base@std@@QBE_NXZ:NEAR
EXTRN	__imp_?flush@?$basic_ostream@DU?$char_traits@D@std@@@std@@QAEAAV12@XZ:NEAR
;	COMDAT xdata$x
; File d:\program files (x86)\microsoft visual studio .net 2003\vc7\include\ostream
xdata$x	SEGMENT
$T68948	DD	0ffffffffH
	DD	FLAT:$L68944
$T68946	DD	019930520H
	DD	01H
	DD	FLAT:$T68948
	DD	2 DUP(00H)
	DD	2 DUP(00H)
; Function compile flags: /Odt
xdata$x	ENDS
;	COMDAT ??0sentry@?$basic_ostream@DU?$char_traits@D@std@@@std@@QAE@AAV12@@Z
_TEXT	SEGMENT
_this$ = -16						; size = 4
__$EHRec$ = -12						; size = 12
__Ostr$ = 8						; size = 4
??0sentry@?$basic_ostream@DU?$char_traits@D@std@@@std@@QAE@AAV12@@Z PROC NEAR ; std::basic_ostream<char,std::char_traits<char> >::sentry::sentry, COMDAT
; _this$ = ecx

; 88   : 			{	// construct locking and testing stream

  00000	55		 push	 ebp
  00001	8b ec		 mov	 ebp, esp
  00003	6a ff		 push	 -1
  00005	68 00 00 00 00	 push	 __ehhandler$??0sentry@?$basic_ostream@DU?$char_traits@D@std@@@std@@QAE@AAV12@@Z
  0000a	64 a1 00 00 00
	00		 mov	 eax, DWORD PTR fs:__except_list
  00010	50		 push	 eax
  00011	64 89 25 00 00
	00 00		 mov	 DWORD PTR fs:__except_list, esp
  00018	51		 push	 ecx
  00019	89 4d f0	 mov	 DWORD PTR _this$[ebp], ecx
  0001c	8b 45 08	 mov	 eax, DWORD PTR __Ostr$[ebp]
  0001f	50		 push	 eax
  00020	8b 4d f0	 mov	 ecx, DWORD PTR _this$[ebp]
  00023	e8 00 00 00 00	 call	 ??0_Sentry_base@?$basic_ostream@DU?$char_traits@D@std@@@std@@QAE@AAV12@@Z ; std::basic_ostream<char,std::char_traits<char> >::_Sentry_base::_Sentry_base
  00028	c7 45 fc 00 00
	00 00		 mov	 DWORD PTR __$EHRec$[ebp+8], 0

; 89   : 			if (_Ostr.good() && _Ostr.tie() != 0)

  0002f	8b 4d 08	 mov	 ecx, DWORD PTR __Ostr$[ebp]
  00032	8b 11		 mov	 edx, DWORD PTR [ecx]
  00034	8b 4d 08	 mov	 ecx, DWORD PTR __Ostr$[ebp]
  00037	03 4a 04	 add	 ecx, DWORD PTR [edx+4]
  0003a	ff 15 00 00 00
	00		 call	 DWORD PTR __imp_?good@ios_base@std@@QBE_NXZ
  00040	0f b6 c0	 movzx	 eax, al
  00043	85 c0		 test	 eax, eax
  00045	74 30		 je	 SHORT $L66772
  00047	8b 4d 08	 mov	 ecx, DWORD PTR __Ostr$[ebp]
  0004a	8b 11		 mov	 edx, DWORD PTR [ecx]
  0004c	8b 4d 08	 mov	 ecx, DWORD PTR __Ostr$[ebp]
  0004f	03 4a 04	 add	 ecx, DWORD PTR [edx+4]
  00052	ff 15 00 00 00
	00		 call	 DWORD PTR __imp_?tie@?$basic_ios@DU?$char_traits@D@std@@@std@@QBEPAV?$basic_ostream@DU?$char_traits@D@std@@@2@XZ
  00058	85 c0		 test	 eax, eax
  0005a	74 1b		 je	 SHORT $L66772

; 90   : 				_Ostr.tie()->flush();

  0005c	8b 45 08	 mov	 eax, DWORD PTR __Ostr$[ebp]
  0005f	8b 08		 mov	 ecx, DWORD PTR [eax]
  00061	8b 55 08	 mov	 edx, DWORD PTR __Ostr$[ebp]
  00064	03 51 04	 add	 edx, DWORD PTR [ecx+4]
  00067	8b ca		 mov	 ecx, edx
  00069	ff 15 00 00 00
	00		 call	 DWORD PTR __imp_?tie@?$basic_ios@DU?$char_traits@D@std@@@std@@QBEPAV?$basic_ostream@DU?$char_traits@D@std@@@2@XZ
  0006f	8b c8		 mov	 ecx, eax
  00071	ff 15 00 00 00
	00		 call	 DWORD PTR __imp_?flush@?$basic_ostream@DU?$char_traits@D@std@@@std@@QAEAAV12@XZ
$L66772:

; 91   : 			_Ok = _Ostr.good();	// store test only after flushing tie

  00077	8b 45 08	 mov	 eax, DWORD PTR __Ostr$[ebp]
  0007a	8b 08		 mov	 ecx, DWORD PTR [eax]
  0007c	8b 55 08	 mov	 edx, DWORD PTR __Ostr$[ebp]
  0007f	03 51 04	 add	 edx, DWORD PTR [ecx+4]
  00082	8b ca		 mov	 ecx, edx
  00084	ff 15 00 00 00
	00		 call	 DWORD PTR __imp_?good@ios_base@std@@QBE_NXZ
  0008a	8b 4d f0	 mov	 ecx, DWORD PTR _this$[ebp]
  0008d	88 41 04	 mov	 BYTE PTR [ecx+4], al

; 92   : 			}

  00090	c7 45 fc ff ff
	ff ff		 mov	 DWORD PTR __$EHRec$[ebp+8], -1
  00097	8b 45 f0	 mov	 eax, DWORD PTR _this$[ebp]
  0009a	8b 4d f4	 mov	 ecx, DWORD PTR __$EHRec$[ebp]
  0009d	64 89 0d 00 00
	00 00		 mov	 DWORD PTR fs:__except_list, ecx
  000a4	8b e5		 mov	 esp, ebp
  000a6	5d		 pop	 ebp
  000a7	c2 04 00	 ret	 4
_TEXT	ENDS
;	COMDAT text$x
text$x	SEGMENT
$L68944:
  00000	8b 4d f0	 mov	 ecx, DWORD PTR _this$[ebp]
  00003	e9 00 00 00 00	 jmp	 ??1_Sentry_base@?$basic_ostream@DU?$char_traits@D@std@@@std@@QAE@XZ ; std::basic_ostream<char,std::char_traits<char> >::_Sentry_base::~_Sentry_base
__ehhandler$??0sentry@?$basic_ostream@DU?$char_traits@D@std@@@std@@QAE@AAV12@@Z:
  00008	b8 00 00 00 00	 mov	 eax, OFFSET FLAT:$T68946
  0000d	e9 00 00 00 00	 jmp	 ___CxxFrameHandler
text$x	ENDS
??0sentry@?$basic_ostream@DU?$char_traits@D@std@@@std@@QAE@AAV12@@Z ENDP ; std::basic_ostream<char,std::char_traits<char> >::sentry::sentry
EXTRN	__imp_?uncaught_exception@std@@YA_NXZ:NEAR
EXTRN	__imp_?_Osfx@?$basic_ostream@DU?$char_traits@D@std@@@std@@QAEXXZ:NEAR
;	COMDAT xdata$x
xdata$x	SEGMENT
$T68957	DD	0ffffffffH
	DD	FLAT:$L68953
$T68955	DD	019930520H
	DD	01H
	DD	FLAT:$T68957
	DD	2 DUP(00H)
	DD	2 DUP(00H)
; Function compile flags: /Odt
xdata$x	ENDS
;	COMDAT ??1sentry@?$basic_ostream@DU?$char_traits@D@std@@@std@@QAE@XZ
_TEXT	SEGMENT
_this$ = -16						; size = 4
__$EHRec$ = -12						; size = 12
??1sentry@?$basic_ostream@DU?$char_traits@D@std@@@std@@QAE@XZ PROC NEAR ; std::basic_ostream<char,std::char_traits<char> >::sentry::~sentry, COMDAT
; _this$ = ecx

; 95   : 			{	// destroy the object

  00000	55		 push	 ebp
  00001	8b ec		 mov	 ebp, esp
  00003	6a ff		 push	 -1
  00005	68 00 00 00 00	 push	 __ehhandler$??1sentry@?$basic_ostream@DU?$char_traits@D@std@@@std@@QAE@XZ
  0000a	64 a1 00 00 00
	00		 mov	 eax, DWORD PTR fs:__except_list
  00010	50		 push	 eax
  00011	64 89 25 00 00
	00 00		 mov	 DWORD PTR fs:__except_list, esp
  00018	51		 push	 ecx
  00019	89 4d f0	 mov	 DWORD PTR _this$[ebp], ecx
  0001c	c7 45 fc 00 00
	00 00		 mov	 DWORD PTR __$EHRec$[ebp+8], 0

; 96   : 
; 97   :  #if _HAS_EXCEPTIONS
; 98   : 			if (!uncaught_exception())

  00023	ff 15 00 00 00
	00		 call	 DWORD PTR __imp_?uncaught_exception@std@@YA_NXZ
  00029	0f b6 c0	 movzx	 eax, al
  0002c	85 c0		 test	 eax, eax
  0002e	75 0b		 jne	 SHORT $L66774

; 99   : 				this->_Myostr._Osfx();

  00030	8b 4d f0	 mov	 ecx, DWORD PTR _this$[ebp]
  00033	8b 09		 mov	 ecx, DWORD PTR [ecx]
  00035	ff 15 00 00 00
	00		 call	 DWORD PTR __imp_?_Osfx@?$basic_ostream@DU?$char_traits@D@std@@@std@@QAEXXZ
$L66774:

; 100  : 			}

  0003b	c7 45 fc ff ff
	ff ff		 mov	 DWORD PTR __$EHRec$[ebp+8], -1
  00042	8b 4d f0	 mov	 ecx, DWORD PTR _this$[ebp]
  00045	e8 00 00 00 00	 call	 ??1_Sentry_base@?$basic_ostream@DU?$char_traits@D@std@@@std@@QAE@XZ ; std::basic_ostream<char,std::char_traits<char> >::_Sentry_base::~_Sentry_base
  0004a	8b 4d f4	 mov	 ecx, DWORD PTR __$EHRec$[ebp]
  0004d	64 89 0d 00 00
	00 00		 mov	 DWORD PTR fs:__except_list, ecx
  00054	8b e5		 mov	 esp, ebp
  00056	5d		 pop	 ebp
  00057	c3		 ret	 0
_TEXT	ENDS
;	COMDAT text$x
text$x	SEGMENT
$L68953:
  00000	8b 4d f0	 mov	 ecx, DWORD PTR _this$[ebp]
  00003	e9 00 00 00 00	 jmp	 ??1_Sentry_base@?$basic_ostream@DU?$char_traits@D@std@@@std@@QAE@XZ ; std::basic_ostream<char,std::char_traits<char> >::_Sentry_base::~_Sentry_base
__ehhandler$??1sentry@?$basic_ostream@DU?$char_traits@D@std@@@std@@QAE@XZ:
  00008	b8 00 00 00 00	 mov	 eax, OFFSET FLAT:$T68955
  0000d	e9 00 00 00 00	 jmp	 ___CxxFrameHandler
text$x	ENDS
??1sentry@?$basic_ostream@DU?$char_traits@D@std@@@std@@QAE@XZ ENDP ; std::basic_ostream<char,std::char_traits<char> >::sentry::~sentry
; Function compile flags: /Odt
;	COMDAT ??Bsentry@?$basic_ostream@DU?$char_traits@D@std@@@std@@QBE_NXZ
_TEXT	SEGMENT
_this$ = -4						; size = 4
??Bsentry@?$basic_ostream@DU?$char_traits@D@std@@@std@@QBE_NXZ PROC NEAR ; std::basic_ostream<char,std::char_traits<char> >::sentry::operator bool, COMDAT
; _this$ = ecx

; 108  : 			{	// test if stream state okay

  00000	55		 push	 ebp
  00001	8b ec		 mov	 ebp, esp
  00003	51		 push	 ecx
  00004	89 4d fc	 mov	 DWORD PTR _this$[ebp], ecx

; 109  : 			return (_Ok);

  00007	8b 45 fc	 mov	 eax, DWORD PTR _this$[ebp]
  0000a	8a 40 04	 mov	 al, BYTE PTR [eax+4]

; 110  : 			}

  0000d	8b e5		 mov	 esp, ebp
  0000f	5d		 pop	 ebp
  00010	c3		 ret	 0
??Bsentry@?$basic_ostream@DU?$char_traits@D@std@@@std@@QBE_NXZ ENDP ; std::basic_ostream<char,std::char_traits<char> >::sentry::operator bool
; Function compile flags: /Odt
_TEXT	ENDS
;	COMDAT ??0_Sentry_base@?$basic_ostream@DU?$char_traits@D@std@@@std@@QAE@AAV12@@Z
_TEXT	SEGMENT
_this$ = -4						; size = 4
__Ostr$ = 8						; size = 4
??0_Sentry_base@?$basic_ostream@DU?$char_traits@D@std@@@std@@QAE@AAV12@@Z PROC NEAR ; std::basic_ostream<char,std::char_traits<char> >::_Sentry_base::_Sentry_base, COMDAT
; _this$ = ecx

; 68   : 			{	// lock the stream buffer, if there

  00000	55		 push	 ebp
  00001	8b ec		 mov	 ebp, esp
  00003	51		 push	 ecx
  00004	89 4d fc	 mov	 DWORD PTR _this$[ebp], ecx
  00007	8b 45 fc	 mov	 eax, DWORD PTR _this$[ebp]
  0000a	8b 4d 08	 mov	 ecx, DWORD PTR __Ostr$[ebp]
  0000d	89 08		 mov	 DWORD PTR [eax], ecx

; 69   : 			if (_Myostr.rdbuf() != 0)

  0000f	8b 55 fc	 mov	 edx, DWORD PTR _this$[ebp]
  00012	8b 02		 mov	 eax, DWORD PTR [edx]
  00014	8b 08		 mov	 ecx, DWORD PTR [eax]
  00016	8b 55 fc	 mov	 edx, DWORD PTR _this$[ebp]
  00019	8b 02		 mov	 eax, DWORD PTR [edx]
  0001b	03 41 04	 add	 eax, DWORD PTR [ecx+4]
  0001e	8b c8		 mov	 ecx, eax
  00020	ff 15 00 00 00
	00		 call	 DWORD PTR __imp_?rdbuf@?$basic_ios@DU?$char_traits@D@std@@@std@@QBEPAV?$basic_streambuf@DU?$char_traits@D@std@@@2@XZ
  00026	85 c0		 test	 eax, eax
  00028	74 1d		 je	 SHORT $L67013

; 70   : 				_Myostr.rdbuf()->_Lock();

  0002a	8b 4d fc	 mov	 ecx, DWORD PTR _this$[ebp]
  0002d	8b 11		 mov	 edx, DWORD PTR [ecx]
  0002f	8b 02		 mov	 eax, DWORD PTR [edx]
  00031	8b 4d fc	 mov	 ecx, DWORD PTR _this$[ebp]
  00034	8b 09		 mov	 ecx, DWORD PTR [ecx]
  00036	03 48 04	 add	 ecx, DWORD PTR [eax+4]
  00039	ff 15 00 00 00
	00		 call	 DWORD PTR __imp_?rdbuf@?$basic_ios@DU?$char_traits@D@std@@@std@@QBEPAV?$basic_streambuf@DU?$char_traits@D@std@@@2@XZ
  0003f	8b c8		 mov	 ecx, eax
  00041	ff 15 00 00 00
	00		 call	 DWORD PTR __imp_?_Lock@?$basic_streambuf@DU?$char_traits@D@std@@@std@@QAEXXZ
$L67013:

; 71   : 			}

  00047	8b 45 fc	 mov	 eax, DWORD PTR _this$[ebp]
  0004a	8b e5		 mov	 esp, ebp
  0004c	5d		 pop	 ebp
  0004d	c2 04 00	 ret	 4
??0_Sentry_base@?$basic_ostream@DU?$char_traits@D@std@@@std@@QAE@AAV12@@Z ENDP ; std::basic_ostream<char,std::char_traits<char> >::_Sentry_base::_Sentry_base
; Function compile flags: /Odt
_TEXT	ENDS
;	COMDAT ??1_Sentry_base@?$basic_ostream@DU?$char_traits@D@std@@@std@@QAE@XZ
_TEXT	SEGMENT
_this$ = -4						; size = 4
??1_Sentry_base@?$basic_ostream@DU?$char_traits@D@std@@@std@@QAE@XZ PROC NEAR ; std::basic_ostream<char,std::char_traits<char> >::_Sentry_base::~_Sentry_base, COMDAT
; _this$ = ecx

; 74   : 			{	// destroy after unlocking

  00000	55		 push	 ebp
  00001	8b ec		 mov	 ebp, esp
  00003	51		 push	 ecx
  00004	89 4d fc	 mov	 DWORD PTR _this$[ebp], ecx

; 75   : 			if (_Myostr.rdbuf() != 0)

  00007	8b 45 fc	 mov	 eax, DWORD PTR _this$[ebp]
  0000a	8b 08		 mov	 ecx, DWORD PTR [eax]
  0000c	8b 11		 mov	 edx, DWORD PTR [ecx]
  0000e	8b 45 fc	 mov	 eax, DWORD PTR _this$[ebp]
  00011	8b 08		 mov	 ecx, DWORD PTR [eax]
  00013	03 4a 04	 add	 ecx, DWORD PTR [edx+4]
  00016	ff 15 00 00 00
	00		 call	 DWORD PTR __imp_?rdbuf@?$basic_ios@DU?$char_traits@D@std@@@std@@QBEPAV?$basic_streambuf@DU?$char_traits@D@std@@@2@XZ
  0001c	85 c0		 test	 eax, eax
  0001e	74 1d		 je	 SHORT $L67016

; 76   : 				_Myostr.rdbuf()->_Unlock();

  00020	8b 4d fc	 mov	 ecx, DWORD PTR _this$[ebp]
  00023	8b 11		 mov	 edx, DWORD PTR [ecx]
  00025	8b 02		 mov	 eax, DWORD PTR [edx]
  00027	8b 4d fc	 mov	 ecx, DWORD PTR _this$[ebp]
  0002a	8b 09		 mov	 ecx, DWORD PTR [ecx]
  0002c	03 48 04	 add	 ecx, DWORD PTR [eax+4]
  0002f	ff 15 00 00 00
	00		 call	 DWORD PTR __imp_?rdbuf@?$basic_ios@DU?$char_traits@D@std@@@std@@QBEPAV?$basic_streambuf@DU?$char_traits@D@std@@@2@XZ
  00035	8b c8		 mov	 ecx, eax
  00037	ff 15 00 00 00
	00		 call	 DWORD PTR __imp_?_Unlock@?$basic_streambuf@DU?$char_traits@D@std@@@std@@QAEXXZ
$L67016:

; 77   : 			}

  0003d	8b e5		 mov	 esp, ebp
  0003f	5d		 pop	 ebp
  00040	c3		 ret	 0
??1_Sentry_base@?$basic_ostream@DU?$char_traits@D@std@@@std@@QAE@XZ ENDP ; std::basic_ostream<char,std::char_traits<char> >::_Sentry_base::~_Sentry_base
_TEXT	ENDS
PUBLIC	??0sentry@?$basic_istream@_WU?$char_traits@_W@std@@@std@@QAE@AAV12@_N@Z ; std::basic_istream<wchar_t,std::char_traits<wchar_t> >::sentry::sentry
PUBLIC	??Bsentry@?$basic_istream@_WU?$char_traits@_W@std@@@std@@QBE_NXZ ; std::basic_istream<wchar_t,std::char_traits<wchar_t> >::sentry::operator bool
PUBLIC	??1sentry@?$basic_istream@_WU?$char_traits@_W@std@@@std@@QAE@XZ ; std::basic_istream<wchar_t,std::char_traits<wchar_t> >::sentry::~sentry
PUBLIC	??$use_facet@V?$ctype@_W@std@@@std@@YAABV?$ctype@_W@0@ABVlocale@0@@Z ; std::use_facet<std::ctype<wchar_t> >
PUBLIC	??$?5_WU?$char_traits@_W@std@@V?$allocator@_W@1@@std@@YAAAV?$basic_istream@_WU?$char_traits@_W@std@@@0@AAV10@AAV?$basic_string@_WU?$char_traits@_W@std@@V?$allocator@_W@2@@0@@Z ; std::operator>><wchar_t,std::char_traits<wchar_t>,std::allocator<wchar_t> >
