 PlayBox

 Timestamp is 50cdc47f (Sun Dec 16 20:54:23 2012)

 Preferred load address is 00400000

 Start         Length     Name                   Class
 0001:00000000 000e78f8H .text                   CODE
 0001:000e7900 00000011H .text$AFX_COL1          CODE
 0001:000e7920 0000d11cH .text$x                 CODE
 0001:000f4a40 000028cdH .text$yc                CODE
 0001:000f7310 0000013fH .text$yd                CODE
 0002:00000000 00001620H .idata$5                DATA
 0002:00001620 00014da0H .rdata                  DATA
 0002:000163c0 00000056H .rdata$debug            DATA
 0002:00016418 0000425cH .rdata$r                DATA
 0002:0001a674 00000004H .rtc$IAA                DATA
 0002:0001a678 00000004H .rtc$IZZ                DATA
 0002:0001a67c 00000004H .rtc$TAA                DATA
 0002:0001a680 00000004H .rtc$TZZ                DATA
 0002:0001a684 0001073cH .xdata$x                DATA
 0002:0002adc0 00000000H ATL$__a                 DATA
 0002:0002adc0 00000000H ATL$__z                 DATA
 0002:0002adc0 0000017cH .idata$2                DATA
 0002:0002af3c 00000014H .idata$3                DATA
 0002:0002af50 00001620H .idata$4                DATA
 0002:0002c570 00004c2aH .idata$6                DATA
 0002:0003119a 00000000H .edata                  DATA
 0003:00000000 00000004H .CRT$XCA                DATA
 0003:00000004 00000004H .CRT$XCAA               DATA
 0003:00000008 00000018H .CRT$XCL                DATA
 0003:00000020 000000ecH .CRT$XCU                DATA
 0003:0000010c 00000004H .CRT$XCZ                DATA
 0003:00000110 00000004H .CRT$XIA                DATA
 0003:00000114 00000004H .CRT$XIZ                DATA
 0003:00000120 00002d08H .data                   DATA
 0003:00002e28 00041244H .bss                    DATA
 0004:00000000 00000004H SHARED                  DATA
 0005:00000000 00000448H .rsrc$01                DATA
 0005:00000450 00001bb8H .rsrc$02                DATA

  Address         Publics by Value              Rva+Base     Lib:Object

 0000:00000000       ___safe_se_handler_table   00000000     <absolute>
 0000:00000000       __except_list              00000000     <absolute>
 0000:00000000       ___safe_se_handler_count   00000000     <absolute>
 0000:00009876       __fltused                  00009876     <absolute>
 0000:00009876       __ldused                   00009876     <absolute>
 0000:00000000       ___ImageBase               00400000     <linker-defined>
 0001:00000000       ?GetThisMessageMap@CPlayBoxApp@@KGPBUAFX_MSGMAP@@XZ 00401000 f   PlayBox.obj
 0001:00000010       ?GetMessageMap@CPlayBoxApp@@MBEPBUAFX_MSGMAP@@XZ 00401010 f   PlayBox.obj
 0001:00000020       ??0CPlayBoxApp@@QAE@XZ     00401020 f   PlayBox.obj
 0001:00000060       ?InitInstance@CPlayBoxApp@@UAEHXZ 00401060 f   PlayBox.obj
 0001:00000590       ?GetProcessNum@CPlayBoxApp@@QAEHXZ 00401590 f   PlayBox.obj
 0001:00000670       ?KillOtherInstance@CPlayBoxApp@@QAEHXZ 00401670 f   PlayBox.obj
 0001:00000840       ?SendCmdLineMsg@CPlayBoxApp@@QAEXPAUHWND__@@@Z 00401840 f   PlayBox.obj
 0001:000008c0       ?ExitInstance@CPlayBoxApp@@MAEHXZ 004018c0 f   PlayBox.obj
 0001:000008e0       ??_GCPlayBoxApp@@UAEPAXI@Z 004018e0 f i PlayBox.obj
 0001:000008e0       ??_ECPlayBoxApp@@UAEPAXI@Z 004018e0 f i PlayBox.obj
 0001:00000910       ??1CPlayBoxApp@@UAE@XZ     00401910 f i PlayBox.obj
 0001:00000940       ?_AtlGetThreadACPThunk@ATL@@YGIXZ 00401940 f i PlayBox.obj
 0001:000009c0       ?InterlockedExchangePointer@@YGPAXPAPAXPAX@Z 004019c0 f i PlayBox.obj
 0001:000009e0       ?_AtlGetThreadACPFake@ATL@@YGIXZ 004019e0 f i PlayBox.obj
 0001:00000a70       ?_AtlGetThreadACPReal@ATL@@YGIXZ 00401a70 f i PlayBox.obj
 0001:00000a80       ??1CPlayBoxDlg@@UAE@XZ     00401a80 f i PlayBox.obj
 0001:00000b40       ?_AtlGetConversionACP@ATL@@YGIXZ 00401b40 f i PlayBox.obj
 0001:00000b50       ?_AtlVerifyStackAvailable@_ATL_SAFE_ALLOCA_IMPL@ATL@@YA_NK@Z 00401b50 f i PlayBox.obj
 0001:00000bf0       ?AtlThrow@ATL@@YGXJ@Z      00401bf0 f i PlayBox.obj
 0001:00000c10       ?AtlA2WHelper@@YGPA_WPA_WPBDHI@Z 00401c10 f i PlayBox.obj
 0001:00000c60       ??3CObject@@SGXPAX@Z       00401c60 f i PlayBox.obj
 0001:00000c80       ?Create@CDialog@@UAEHIPAVCWnd@@@Z 00401c80 f i PlayBox.obj
 0001:00000cb0       ??1IMessageObserver@@UAE@XZ 00401cb0 f i PlayBox.obj
 0001:00000cd0       ??_GIMessageObserver@@UAEPAXI@Z 00401cd0 f i PlayBox.obj
 0001:00000cd0       ??_EIMessageObserver@@UAEPAXI@Z 00401cd0 f i PlayBox.obj
 0001:00000d00       ??0GdiplusStartupInput@Gdiplus@@QAE@P6GXW4DebugEventLevel@1@PAD@ZHH@Z 00401d00 f i PlayBox.obj
 0001:00000d40       ?Allocate@?$CAtlSafeAllocBufferManager@VCCRTAllocator@ATL@@@_ATL_SAFE_ALLOCA_IMPL@ATL@@QAEPAXK@Z 00401d40 f i PlayBox.obj
 0001:00000d90       ?Allocate@CCRTAllocator@ATL@@SAPAXI@Z 00401d90 f i PlayBox.obj
 0001:00000db0       ??1?$CAtlSafeAllocBufferManager@VCCRTAllocator@ATL@@@_ATL_SAFE_ALLOCA_IMPL@ATL@@QAE@XZ 00401db0 f i PlayBox.obj
 0001:00000df0       ?Free@CCRTAllocator@ATL@@SAXPAX@Z 00401df0 f i PlayBox.obj
 0001:00000e10       ?AtlThrowLastWin32@ATL@@YGXXZ 00401e10 f i PlayBox.obj
 0001:00000e60       ??0CPlayBoxDlg@@QAE@_NPAVCWnd@@@Z 00401e60 f   PlayBoxDlg.obj
 0001:00001060       ?DoDataExchange@CPlayBoxDlg@@MAEXPAVCDataExchange@@@Z 00402060 f   PlayBoxDlg.obj
 0001:00001080       ?GetThisMessageMap@CPlayBoxDlg@@KGPBUAFX_MSGMAP@@XZ 00402080 f   PlayBoxDlg.obj
 0001:00001090       ?GetMessageMap@CPlayBoxDlg@@MBEPBUAFX_MSGMAP@@XZ 00402090 f   PlayBoxDlg.obj
 0001:000010a0       ?OnCancel@CPlayBoxDlg@@MAEXXZ 004020a0 f   PlayBoxDlg.obj
 0001:000010b0       ?OnOK@CPlayBoxDlg@@MAEXXZ  004020b0 f   PlayBoxDlg.obj
 0001:000010c0       ?DeleteTray@CPlayBoxDlg@@QAEXXZ 004020c0 f   PlayBoxDlg.obj
 0001:00001120       ?OnConfigChange@CPlayBoxDlg@@MAEXABV?$basic_string@DU?$char_traits@D@std@@V?$allocator@D@2@@std@@@Z 00402120 f   PlayBoxDlg.obj
 0001:000011d0       ?OnClose@CPlayBoxDlg@@IAEXXZ 004021d0 f   PlayBoxDlg.obj
 0001:00001390       ?OnDeleteTray@CPlayBoxDlg@@QAEJIJ@Z 00402390 f   PlayBoxDlg.obj
 0001:000013b0       ?Log_StartMessage@@YGKPAX@Z 004023b0 f   PlayBoxDlg.obj
 0001:00001450       ?OnInitDialog@CPlayBoxDlg@@MAEHXZ 00402450 f   PlayBoxDlg.obj
 0001:00001a40       ?OnPaint@CPlayBoxDlg@@IAEXXZ 00402a40 f   PlayBoxDlg.obj
 0001:00001ba0       ?OnDestroy@CPlayBoxDlg@@IAEXXZ 00402ba0 f   PlayBoxDlg.obj
 0001:00001c40       ?OnQueryDragIcon@CPlayBoxDlg@@IAEPAUHICON__@@XZ 00402c40 f   PlayBoxDlg.obj
 0001:00001c60       ?OnEraseBkgnd@CPlayBoxDlg@@IAEHPAVCDC@@@Z 00402c60 f   PlayBoxDlg.obj
 0001:00001c80       ?OnLButtonUp@CPlayBoxDlg@@IAEXIVCPoint@@@Z 00402c80 f   PlayBoxDlg.obj
 0001:00001d20       ?OnLButtonDown@CPlayBoxDlg@@IAEXIVCPoint@@@Z 00402d20 f   PlayBoxDlg.obj
 0001:00001e20       ?OnMouseMove@CPlayBoxDlg@@IAEXIVCPoint@@@Z 00402e20 f   PlayBoxDlg.obj
 0001:000021f0       ?_needChangeCursor@CPlayBoxDlg@@AAEHABVCPoint@@@Z 004031f0 f   PlayBoxDlg.obj
 0001:00002210       ?ILayoutChangeOb_SkinChanged@CPlayBoxDlg@@UAEXV?$basic_string@DU?$char_traits@D@std@@V?$allocator@D@2@@std@@0@Z 00403210 f   PlayBoxDlg.obj
 0001:00002340       ?OnSize@CPlayBoxDlg@@IAEXIHH@Z 00403340 f   PlayBoxDlg.obj
 0001:000024a0       ?PreTranslateMessage@CPlayBoxDlg@@MAEHPAUtagMSG@@@Z 004034a0 f   PlayBoxDlg.obj
 0001:00002750       ?OnTrayNotification@CPlayBoxDlg@@IAEJIJ@Z 00403750 f   PlayBoxDlg.obj
 0001:00002760       ?OnMeasureItem@CPlayBoxDlg@@IAEXHPAUtagMEASUREITEMSTRUCT@@@Z 00403760 f   PlayBoxDlg.obj
 0001:000027c0       ?OnTimer@CPlayBoxDlg@@IAEXI@Z 004037c0 f   PlayBoxDlg.obj
 0001:00002880       ?DrawMoveFrame@CPlayBoxDlg@@AAEXVCRect@@@Z 00403880 f   PlayBoxDlg.obj
 0001:000029c0       ?OnShowTrayIconBalloon@CPlayBoxDlg@@IAEJIJ@Z 004039c0 f   PlayBoxDlg.obj
 0001:00002a90       ?_AdjustDlgSize@CPlayBoxDlg@@AAEXXZ 00403a90 f   PlayBoxDlg.obj
 0001:00002ff0       ?OnSysCommand@CPlayBoxDlg@@QAEXIJ@Z 00403ff0 f   PlayBoxDlg.obj
 0001:00003100       ?IPanelChangeOb_WindowMax@CPlayBoxDlg@@UAEXXZ 00404100 f   PlayBoxDlg.obj
 0001:00003160       ?IPanelChangeOb_WindowMin@CPlayBoxDlg@@UAEXXZ 00404160 f   PlayBoxDlg.obj
 0001:000031c0       ?IPanelChangeOb_WindowRestore@CPlayBoxDlg@@UAEXXZ 004041c0 f   PlayBoxDlg.obj
 0001:00003220       ?OnTrayMenuSetting@CPlayBoxDlg@@QAEXXZ 00404220 f   PlayBoxDlg.obj
 0001:000032a0       ?OnTrayMenuOpen@CPlayBoxDlg@@QAEXXZ 004042a0 f   PlayBoxDlg.obj
 0001:00003360       ?OnTrayMenuExit@CPlayBoxDlg@@QAEXXZ 00404360 f   PlayBoxDlg.obj
 0001:00003380       ?OnMove@CPlayBoxDlg@@IAEXHH@Z 00404380 f   PlayBoxDlg.obj
 0001:00003430       ?OnShowWindow@CPlayBoxDlg@@IAEXHI@Z 00404430 f   PlayBoxDlg.obj
 0001:00003490       ?OnCopyData@CPlayBoxDlg@@IAEHPAVCWnd@@PAUtagCOPYDATASTRUCT@@@Z 00404490 f   PlayBoxDlg.obj
 0001:000034d0       ?OnKooWoProtocol@CPlayBoxDlg@@IAEXPBUtagCOPYDATASTRUCT@@@Z 004044d0 f   PlayBoxDlg.obj
 0001:00003590       ?OnExecWebCmd@CPlayBoxDlg@@IAEXPBD@Z 00404590 f   PlayBoxDlg.obj
 0001:00003650       ?NotifyWebRefresh@CPlayBoxDlg@@IAEXPBD@Z 00404650 f   PlayBoxDlg.obj
 0001:00003730       ?OnAfterUiCreate@CPlayBoxDlg@@IAEJIJ@Z 00404730 f   PlayBoxDlg.obj
 0001:00003850       ?OnConfUpdate@CPlayBoxDlg@@IAEJIJ@Z 00404850 f   PlayBoxDlg.obj
 0001:00003930       ?OnChangeText@CPlayBoxDlg@@IAEJIJ@Z 00404930 f   PlayBoxDlg.obj
 0001:00003a60       ?OnHTTPDonwload@CPlayBoxDlg@@IAEJIJ@Z 00404a60 f   PlayBoxDlg.obj
 0001:00003a90       ?OnGetMinMaxInfo@CPlayBoxDlg@@QAEXPAUtagMINMAXINFO@@@Z 00404a90 f   PlayBoxDlg.obj
 0001:00003af0       ?ILayoutChangeOb_LayerChanged@ILayoutChangeObserver@@UAEXV?$basic_string@DU?$char_traits@D@std@@V?$allocator@D@2@@std@@00@Z 00404af0 f i PlayBoxDlg.obj
 0001:00003b50       ?ILayoutChangeOb_SkinChanged@ILayoutChangeObserver@@UAEXV?$basic_string@DU?$char_traits@D@std@@V?$allocator@D@2@@std@@0@Z 00404b50 f i PlayBoxDlg.obj
 0001:00003b50       ?ILayoutChangeOb_PaneChanged@ILayoutChangeObserver@@UAEXV?$basic_string@DU?$char_traits@D@std@@V?$allocator@D@2@@std@@0@Z 00404b50 f i PlayBoxDlg.obj
 0001:00003ba0       ??_ECPlayBoxDlg@@UAEPAXI@Z 00404ba0 f i PlayBoxDlg.obj
 0001:00003ba0       ??_GCPlayBoxDlg@@UAEPAXI@Z 00404ba0 f i PlayBoxDlg.obj
 0001:00003bd0       ??0AfxUserConfig_Observer@@QAE@XZ 00404bd0 f i PlayBoxDlg.obj
 0001:00003bf0       ??0ILayoutChangeObserver@@QAE@XZ 00404bf0 f i PlayBoxDlg.obj
 0001:00003c10       ??0IPanelChangeObserver@@QAE@XZ 00404c10 f i PlayBoxDlg.obj
 0001:00003c30       ??0IMessageObserver@@QAE@XZ 00404c30 f i PlayBoxDlg.obj
 0001:00003c50       ??_DCConfigDialog@@QAEXXZ  00404c50 f i PlayBoxDlg.obj
 0001:00003c80       ??9ATL@@YA_NABV?$CStringT@DV?$StrTraitMFC_DLL@DV?$ChTraitsCRT@D@ATL@@@@@0@PBD@Z 00404c80 f i PlayBoxDlg.obj
 0001:00003ca0       ??0?$list@PAVIMessageObserver@@V?$allocator@PAVIMessageObserver@@@std@@@std@@QAE@XZ 00404ca0 f i PlayBoxDlg.obj
 0001:00003ce0       ?Width@CRect@@QBEHXZ       00404ce0 f i PlayBoxDlg.obj
 0001:00003d00       ?Height@CRect@@QBEHXZ      00404d00 f i PlayBoxDlg.obj
 0001:00003d20       ?_Buynode@?$list@PAVIMessageObserver@@V?$allocator@PAVIMessageObserver@@@std@@@std@@IAEPAU_Node@?$_List_nod@PAVIMessageObserver@@V?$allocator@PAVIMessageObserver@@@std@@@2@XZ 00404d20 f i PlayBoxDlg.obj
 0001:00003e00       ?_Parent@?$_Tree@V?$_Tmap_traits@HPAVBaseDialog@@U?$less@H@std@@V?$allocator@U?$pair@$$CBHPAVBaseDialog@@@std@@@3@$0A@@std@@@std@@KAAAPAU_Node@?$_Tree_nod@V?$_Tmap_traits@HPAVBaseDialog@@U?$less@H@std@@V?$allocator@U?$pair@$$CBHPAVBaseDialog@@@std@@@3@$0A@@std@@@2@PAU342@@Z 00404e00 f i DlgConfig.obj
 0001:00003e00       ?_Prevnode@?$list@PAVCSkinButton@@V?$allocator@PAVCSkinButton@@@std@@@std@@KAAAPAU_Node@?$_List_nod@PAVCSkinButton@@V?$allocator@PAVCSkinButton@@@std@@@2@PAU342@@Z 00404e00 f i SkinWnd.obj
 0001:00003e00       ?_Parent@?$_Tree@V?$_Tmap_traits@PAUHWND__@@UWndMoveData@@U?$less@PAUHWND__@@@std@@V?$allocator@U?$pair@QAUHWND__@@UWndMoveData@@@std@@@4@$0A@@std@@@std@@KAAAPAU_Node@?$_Tree_nod@V?$_Tmap_traits@PAUHWND__@@UWndMoveData@@U?$less@PAUHWND__@@@std@@V?$allocator@U?$pair@QAUHWND__@@UWndMoveData@@@std@@@4@$0A@@std@@@2@PAU342@@Z 00404e00 f i WindowsMover.obj
 0001:00003e00       ?_Parent@?$_Tree@V?$_Tmap_traits@V?$basic_string@DU?$char_traits@D@std@@V?$allocator@D@2@@std@@PAVCConfigObject@@U?$less@V?$basic_string@DU?$char_traits@D@std@@V?$allocator@D@2@@std@@@2@V?$allocator@U?$pair@$$CBV?$basic_string@DU?$char_traits@D@std@@V?$allocator@D@2@@std@@PAVCConfigObject@@@std@@@2@$0A@@std@@@std@@KAAAPAU_Node@?$_Tree_nod@V?$_Tmap_traits@V?$basic_string@DU?$char_traits@D@std@@V?$allocator@D@2@@std@@PAVCConfigObject@@U?$less@V?$basic_string@DU?$char_traits@D@std@@V?$allocator@D@2@@std@@@2@V?$allocator@U?$pair@$$CBV?$basic_string@DU?$char_traits@D@std@@V?$allocator@D@2@@std@@PAVCConfigObject@@@std@@@2@$0A@@std@@@2@PAU342@@Z 00404e00 f i AfxUserConfig.obj
 0001:00003e00       ?_Prevnode@?$list@PAVAfxUserConfig_Observer@@V?$allocator@PAVAfxUserConfig_Observer@@@std@@@std@@KAAAPAU_Node@?$_List_nod@PAVAfxUserConfig_Observer@@V?$allocator@PAVAfxUserConfig_Observer@@@std@@@2@PAU342@@Z 00404e00 f i AfxUserConfig.obj
 0001:00003e00       ?_Parent@?$_Tree@V?$_Tmap_traits@V?$basic_string@DU?$char_traits@D@std@@V?$allocator@D@2@@std@@HU?$less@V?$basic_string@DU?$char_traits@D@std@@V?$allocator@D@2@@std@@@2@V?$allocator@U?$pair@$$CBV?$basic_string@DU?$char_traits@D@std@@V?$allocator@D@2@@std@@H@std@@@2@$0A@@std@@@std@@KAAAPAU_Node@?$_Tree_nod@V?$_Tmap_traits@V?$basic_string@DU?$char_traits@D@std@@V?$allocator@D@2@@std@@HU?$less@V?$basic_string@DU?$char_traits@D@std@@V?$allocator@D@2@@std@@@2@V?$allocator@U?$pair@$$CBV?$basic_string@DU?$char_traits@D@std@@V?$allocator@D@2@@std@@H@std@@@2@$0A@@std@@@2@PAU342@@Z 00404e00 f i MyTreeCtrl.obj
 0001:00003e00       ?_Prevnode@?$list@PAVCSubLabel@@V?$allocator@PAVCSubLabel@@@std@@@std@@KAAAPAU_Node@?$_List_nod@PAVCSubLabel@@V?$allocator@PAVCSubLabel@@@std@@@2@PAU342@@Z 00404e00 f i SubjectChildWnd.obj
 0001:00003e00       ?_Prevnode@?$list@PAVIMessageObserver@@V?$allocator@PAVIMessageObserver@@@std@@@std@@KAAAPAU_Node@?$_List_nod@PAVIMessageObserver@@V?$allocator@PAVIMessageObserver@@@std@@@2@PAU342@@Z 00404e00 f i PlayBoxDlg.obj
 0001:00003e00       ?_Prevnode@?$list@PAUMESSAGE_OBSERVER@@V?$allocator@PAUMESSAGE_OBSERVER@@@std@@@std@@KAAAPAU_Node@?$_List_nod@PAUMESSAGE_OBSERVER@@V?$allocator@PAUMESSAGE_OBSERVER@@@std@@@2@PAU342@@Z 00404e00 f i CMessageManager.obj
 0001:00003e00       ?_Parent@?$_Tree@V?$_Tmap_traits@V?$CStringT@DV?$StrTraitMFC_DLL@DV?$ChTraitsCRT@D@ATL@@@@@ATL@@PAVCDibBitmap@@U?$less@V?$CStringT@DV?$StrTraitMFC_DLL@DV?$ChTraitsCRT@D@ATL@@@@@ATL@@@std@@V?$allocator@U?$pair@$$CBV?$CStringT@DV?$StrTraitMFC_DLL@DV?$ChTraitsCRT@D@ATL@@@@@ATL@@PAVCDibBitmap@@@std@@@5@$0A@@std@@@std@@KAAAPAU_Node@?$_Tree_nod@V?$_Tmap_traits@V?$CStringT@DV?$StrTraitMFC_DLL@DV?$ChTraitsCRT@D@ATL@@@@@ATL@@PAVCDibBitmap@@U?$less@V?$CStringT@DV?$StrTraitMFC_DLL@DV?$ChTraitsCRT@D@ATL@@@@@ATL@@@std@@V?$allocator@U?$pair@$$CBV?$CStringT@DV?$StrTraitMFC_DLL@DV?$ChTraitsCRT@D@ATL@@@@@ATL@@PAVCDibBitmap@@@std@@@5@$0A@@std@@@2@PAU342@@Z 00404e00 f i SkinMgr.obj
 0001:00003e00       ?_Parent@?$_Tree@V?$_Tmap_traits@HUMYLIST_COLUMN_INFO@@U?$less@H@std@@V?$allocator@U?$pair@$$CBHUMYLIST_COLUMN_INFO@@@std@@@3@$0A@@std@@@std@@KAAAPAU_Node@?$_Tree_nod@V?$_Tmap_traits@HUMYLIST_COLUMN_INFO@@U?$less@H@std@@V?$allocator@U?$pair@$$CBHUMYLIST_COLUMN_INFO@@@std@@@3@$0A@@std@@@2@PAU342@@Z 00404e00 f i MyListCtrl.obj
 0001:00003e00       ?_Parent@?$_Tree@V?$_Tmap_traits@V?$CStringT@DV?$StrTraitMFC_DLL@DV?$ChTraitsCRT@D@ATL@@@@@ATL@@PAVCSkinButton@@U?$less@V?$CStringT@DV?$StrTraitMFC_DLL@DV?$ChTraitsCRT@D@ATL@@@@@ATL@@@std@@V?$allocator@U?$pair@$$CBV?$CStringT@DV?$StrTraitMFC_DLL@DV?$ChTraitsCRT@D@ATL@@@@@ATL@@PAVCSkinButton@@@std@@@5@$0A@@std@@@std@@KAAAPAU_Node@?$_Tree_nod@V?$_Tmap_traits@V?$CStringT@DV?$StrTraitMFC_DLL@DV?$ChTraitsCRT@D@ATL@@@@@ATL@@PAVCSkinButton@@U?$less@V?$CStringT@DV?$StrTraitMFC_DLL@DV?$ChTraitsCRT@D@ATL@@@@@ATL@@@std@@V?$allocator@U?$pair@$$CBV?$CStringT@DV?$StrTraitMFC_DLL@DV?$ChTraitsCRT@D@ATL@@@@@ATL@@PAVCSkinButton@@@std@@@5@$0A@@std@@@2@PAU342@@Z 00404e00 f i SkinWnd.obj
 0001:00003e00       ?_Parent@?$_Tree@V?$_Tmap_traits@V?$basic_string@DU?$char_traits@D@std@@V?$allocator@D@2@@std@@_NU?$less@V?$basic_string@DU?$char_traits@D@std@@V?$allocator@D@2@@std@@@2@V?$allocator@U?$pair@$$CBV?$basic_string@DU?$char_traits@D@std@@V?$allocator@D@2@@std@@_N@std@@@2@$0A@@std@@@std@@KAAAPAU_Node@?$_Tree_nod@V?$_Tmap_traits@V?$basic_string@DU?$char_traits@D@std@@V?$allocator@D@2@@std@@_NU?$less@V?$basic_string@DU?$char_traits@D@std@@V?$allocator@D@2@@std@@@2@V?$allocator@U?$pair@$$CBV?$basic_string@DU?$char_traits@D@std@@V?$allocator@D@2@@std@@_N@std@@@2@$0A@@std@@@2@PAU342@@Z 00404e00 f i AfxUserConfig.obj
 0001:00003e00       ?_Parent@?$_Tree@V?$_Tmap_traits@KPAVIData@@U?$less@K@std@@V?$allocator@U?$pair@$$CBKPAVIData@@@std@@@3@$0A@@std@@@std@@KAAAPAU_Node@?$_Tree_nod@V?$_Tmap_traits@KPAVIData@@U?$less@K@std@@V?$allocator@U?$pair@$$CBKPAVIData@@@std@@@3@$0A@@std@@@2@PAU342@@Z 00404e00 f i CDataManager.obj
 0001:00003e00       ?_Parent@?$_Tree@V?$_Tmap_traits@V?$basic_string@DU?$char_traits@D@std@@V?$allocator@D@2@@std@@V?$list@PAVAfxUserConfig_Observer@@V?$allocator@PAVAfxUserConfig_Observer@@@std@@@2@U?$less@V?$basic_string@DU?$char_traits@D@std@@V?$allocator@D@2@@std@@@2@V?$allocator@U?$pair@$$CBV?$basic_string@DU?$char_traits@D@std@@V?$allocator@D@2@@std@@V?$list@PAVAfxUserConfig_Observer@@V?$allocator@PAVAfxUserConfig_Observer@@@std@@@2@@std@@@2@$0A@@std@@@std@@KAAAPAU_Node@?$_Tree_nod@V?$_Tmap_traits@V?$basic_string@DU?$char_traits@D@std@@V?$allocator@D@2@@std@@V?$list@PAVAfxUserConfig_Observer@@V?$allocator@PAVAfxUserConfig_Observer@@@std@@@2@U?$less@V?$basic_string@DU?$char_traits@D@std@@V?$allocator@D@2@@std@@@2@V?$allocator@U?$pair@$$CBV?$basic_string@DU?$char_traits@D@std@@V?$allocator@D@2@@std@@V?$list@PAVAfxUserConfig_Observer@@V?$allocator@PAVAfxUserConfig_Observer@@@std@@@2@@std@@@2@$0A@@std@@@2@PAU342@@Z 00404e00 f i AfxUserConfig.obj
 0001:00003e00       ?_Parent@?$_Tree@V?$_Tmap_traits@KV?$list@PAUMESSAGE_OBSERVER@@V?$allocator@PAUMESSAGE_OBSERVER@@@std@@@std@@U?$less@K@2@V?$allocator@U?$pair@$$CBKV?$list@PAUMESSAGE_OBSERVER@@V?$allocator@PAUMESSAGE_OBSERVER@@@std@@@std@@@std@@@2@$0A@@std@@@std@@KAAAPAU_Node@?$_Tree_nod@V?$_Tmap_traits@KV?$list@PAUMESSAGE_OBSERVER@@V?$allocator@PAUMESSAGE_OBSERVER@@@std@@@std@@U?$less@K@2@V?$allocator@U?$pair@$$CBKV?$list@PAUMESSAGE_OBSERVER@@V?$allocator@PAUMESSAGE_OBSERVER@@@std@@@std@@@std@@@2@$0A@@std@@@2@PAU342@@Z 00404e00 f i CMessageManager.obj
 0001:00003e00       ?_Parent@?$_Tree@V?$_Tmap_traits@V?$basic_string@DU?$char_traits@D@std@@V?$allocator@D@2@@std@@PAVYL_CHTTPDownFile@@U?$less@V?$basic_string@DU?$char_traits@D@std@@V?$allocator@D@2@@std@@@2@V?$allocator@U?$pair@$$CBV?$basic_string@DU?$char_traits@D@std@@V?$allocator@D@2@@std@@PAVYL_CHTTPDownFile@@@std@@@2@$0A@@std@@@std@@KAAAPAU_Node@?$_Tree_nod@V?$_Tmap_traits@V?$basic_string@DU?$char_traits@D@std@@V?$allocator@D@2@@std@@PAVYL_CHTTPDownFile@@U?$less@V?$basic_string@DU?$char_traits@D@std@@V?$allocator@D@2@@std@@@2@V?$allocator@U?$pair@$$CBV?$basic_string@DU?$char_traits@D@std@@V?$allocator@D@2@@std@@PAVYL_CHTTPDownFile@@@std@@@2@$0A@@std@@@2@PAU342@@Z 00404e00 f i HttpDownCtrl.obj
 0001:00003e00       ?_Parent@?$_Tree@V?$_Tmap_traits@PAUHWND__@@UCWndData@@U?$less@PAUHWND__@@@std@@V?$allocator@U?$pair@QAUHWND__@@UCWndData@@@std@@@4@$0A@@std@@@std@@KAAAPAU_Node@?$_Tree_nod@V?$_Tmap_traits@PAUHWND__@@UCWndData@@U?$less@PAUHWND__@@@std@@V?$allocator@U?$pair@QAUHWND__@@UCWndData@@@std@@@4@$0A@@std@@@2@PAU342@@Z 00404e00 f i HostWndMgr.obj
 0001:00003e00       ?_Parent@?$_Tree@V?$_Tmap_traits@V?$basic_string@DU?$char_traits@D@std@@V?$allocator@D@2@@std@@V12@U?$less@V?$basic_string@DU?$char_traits@D@std@@V?$allocator@D@2@@std@@@2@V?$allocator@U?$pair@$$CBV?$basic_string@DU?$char_traits@D@std@@V?$allocator@D@2@@std@@V12@@std@@@2@$0A@@std@@@std@@KAAAPAU_Node@?$_Tree_nod@V?$_Tmap_traits@V?$basic_string@DU?$char_traits@D@std@@V?$allocator@D@2@@std@@V12@U?$less@V?$basic_string@DU?$char_traits@D@std@@V?$allocator@D@2@@std@@@2@V?$allocator@U?$pair@$$CBV?$basic_string@DU?$char_traits@D@std@@V?$allocator@D@2@@std@@V12@@std@@@2@$0A@@std@@@2@PAU342@@Z 00404e00 f i AfxUserConfig.obj
 0001:00003e00       ?_Parent@?$_Tree@V?$_Tmap_traits@V?$CStringT@DV?$StrTraitMFC_DLL@DV?$ChTraitsCRT@D@ATL@@@@@ATL@@KU?$less@V?$CStringT@DV?$StrTraitMFC_DLL@DV?$ChTraitsCRT@D@ATL@@@@@ATL@@@std@@V?$allocator@U?$pair@$$CBV?$CStringT@DV?$StrTraitMFC_DLL@DV?$ChTraitsCRT@D@ATL@@@@@ATL@@K@std@@@4@$0A@@std@@@std@@KAAAPAU_Node@?$_Tree_nod@V?$_Tmap_traits@V?$CStringT@DV?$StrTraitMFC_DLL@DV?$ChTraitsCRT@D@ATL@@@@@ATL@@KU?$less@V?$CStringT@DV?$StrTraitMFC_DLL@DV?$ChTraitsCRT@D@ATL@@@@@ATL@@@std@@V?$allocator@U?$pair@$$CBV?$CStringT@DV?$StrTraitMFC_DLL@DV?$ChTraitsCRT@D@ATL@@@@@ATL@@K@std@@@4@$0A@@std@@@2@PAU342@@Z 00404e00 f i PanesMgr.obj
 0001:00003e10       ?_Myval@?$list@PAVCSubLabel@@V?$allocator@PAVCSubLabel@@@std@@@std@@KAAAPAVCSubLabel@@PAU_Node@?$_List_nod@PAVCSubLabel@@V?$allocator@PAVCSubLabel@@@std@@@2@@Z 00404e10 f i SubjectChildWnd.obj
 0001:00003e10       ?_Right@?$_Tree@V?$_Tmap_traits@V?$CStringT@DV?$StrTraitMFC_DLL@DV?$ChTraitsCRT@D@ATL@@@@@ATL@@KU?$less@V?$CStringT@DV?$StrTraitMFC_DLL@DV?$ChTraitsCRT@D@ATL@@@@@ATL@@@std@@V?$allocator@U?$pair@$$CBV?$CStringT@DV?$StrTraitMFC_DLL@DV?$ChTraitsCRT@D@ATL@@@@@ATL@@K@std@@@4@$0A@@std@@@std@@KAAAPAU_Node@?$_Tree_nod@V?$_Tmap_traits@V?$CStringT@DV?$StrTraitMFC_DLL@DV?$ChTraitsCRT@D@ATL@@@@@ATL@@KU?$less@V?$CStringT@DV?$StrTraitMFC_DLL@DV?$ChTraitsCRT@D@ATL@@@@@ATL@@@std@@V?$allocator@U?$pair@$$CBV?$CStringT@DV?$StrTraitMFC_DLL@DV?$ChTraitsCRT@D@ATL@@@@@ATL@@K@std@@@4@$0A@@std@@@2@PAU342@@Z 00404e10 f i PanesMgr.obj
 0001:00003e10       ?_Right@?$_Tree@V?$_Tmap_traits@PAUHWND__@@UWndMoveData@@U?$less@PAUHWND__@@@std@@V?$allocator@U?$pair@QAUHWND__@@UWndMoveData@@@std@@@4@$0A@@std@@@std@@KAAAPAU_Node@?$_Tree_nod@V?$_Tmap_traits@PAUHWND__@@UWndMoveData@@U?$less@PAUHWND__@@@std@@V?$allocator@U?$pair@QAUHWND__@@UWndMoveData@@@std@@@4@$0A@@std@@@2@PAU342@@Z 00404e10 f i WindowsMover.obj
 0001:00003e10       ?_Right@?$_Tree@V?$_Tmap_traits@V?$CStringT@DV?$StrTraitMFC_DLL@DV?$ChTraitsCRT@D@ATL@@@@@ATL@@PAVCSkinButton@@U?$less@V?$CStringT@DV?$StrTraitMFC_DLL@DV?$ChTraitsCRT@D@ATL@@@@@ATL@@@std@@V?$allocator@U?$pair@$$CBV?$CStringT@DV?$StrTraitMFC_DLL@DV?$ChTraitsCRT@D@ATL@@@@@ATL@@PAVCSkinButton@@@std@@@5@$0A@@std@@@std@@KAAAPAU_Node@?$_Tree_nod@V?$_Tmap_traits@V?$CStringT@DV?$StrTraitMFC_DLL@DV?$ChTraitsCRT@D@ATL@@@@@ATL@@PAVCSkinButton@@U?$less@V?$CStringT@DV?$StrTraitMFC_DLL@DV?$ChTraitsCRT@D@ATL@@@@@ATL@@@std@@V?$allocator@U?$pair@$$CBV?$CStringT@DV?$StrTraitMFC_DLL@DV?$ChTraitsCRT@D@ATL@@@@@ATL@@PAVCSkinButton@@@std@@@5@$0A@@std@@@2@PAU342@@Z 00404e10 f i SkinWnd.obj
 0001:00003e10       ?_Right@?$_Tree@V?$_Tmap_traits@V?$basic_string@DU?$char_traits@D@std@@V?$allocator@D@2@@std@@_NU?$less@V?$basic_string@DU?$char_traits@D@std@@V?$allocator@D@2@@std@@@2@V?$allocator@U?$pair@$$CBV?$basic_string@DU?$char_traits@D@std@@V?$allocator@D@2@@std@@_N@std@@@2@$0A@@std@@@std@@KAAAPAU_Node@?$_Tree_nod@V?$_Tmap_traits@V?$basic_string@DU?$char_traits@D@std@@V?$allocator@D@2@@std@@_NU?$less@V?$basic_string@DU?$char_traits@D@std@@V?$allocator@D@2@@std@@@2@V?$allocator@U?$pair@$$CBV?$basic_string@DU?$char_traits@D@std@@V?$allocator@D@2@@std@@_N@std@@@2@$0A@@std@@@2@PAU342@@Z 00404e10 f i AfxUserConfig.obj
 0001:00003e10       ?_Myval@?$list@PAVAfxUserConfig_Observer@@V?$allocator@PAVAfxUserConfig_Observer@@@std@@@std@@KAAAPAVAfxUserConfig_Observer@@PAU_Node@?$_List_nod@PAVAfxUserConfig_Observer@@V?$allocator@PAVAfxUserConfig_Observer@@@std@@@2@@Z 00404e10 f i AfxUserConfig.obj
 0001:00003e10       ?_Right@?$_Tree@V?$_Tmap_traits@PAUHWND__@@UCWndData@@U?$less@PAUHWND__@@@std@@V?$allocator@U?$pair@QAUHWND__@@UCWndData@@@std@@@4@$0A@@std@@@std@@KAAAPAU_Node@?$_Tree_nod@V?$_Tmap_traits@PAUHWND__@@UCWndData@@U?$less@PAUHWND__@@@std@@V?$allocator@U?$pair@QAUHWND__@@UCWndData@@@std@@@4@$0A@@std@@@2@PAU342@@Z 00404e10 f i HostWndMgr.obj
 0001:00003e10       ?_Myval@?$list@PAVIMessageObserver@@V?$allocator@PAVIMessageObserver@@@std@@@std@@KAAAPAVIMessageObserver@@PAU_Node@?$_List_nod@PAVIMessageObserver@@V?$allocator@PAVIMessageObserver@@@std@@@2@@Z 00404e10 f i PlayBoxDlg.obj
 0001:00003e10       ?_Right@?$_Tree@V?$_Tmap_traits@V?$basic_string@DU?$char_traits@D@std@@V?$allocator@D@2@@std@@V?$list@PAVAfxUserConfig_Observer@@V?$allocator@PAVAfxUserConfig_Observer@@@std@@@2@U?$less@V?$basic_string@DU?$char_traits@D@std@@V?$allocator@D@2@@std@@@2@V?$allocator@U?$pair@$$CBV?$basic_string@DU?$char_traits@D@std@@V?$allocator@D@2@@std@@V?$list@PAVAfxUserConfig_Observer@@V?$allocator@PAVAfxUserConfig_Observer@@@std@@@2@@std@@@2@$0A@@std@@@std@@KAAAPAU_Node@?$_Tree_nod@V?$_Tmap_traits@V?$basic_string@DU?$char_traits@D@std@@V?$allocator@D@2@@std@@V?$list@PAVAfxUserConfig_Observer@@V?$allocator@PAVAfxUserConfig_Observer@@@std@@@2@U?$less@V?$basic_string@DU?$char_traits@D@std@@V?$allocator@D@2@@std@@@2@V?$allocator@U?$pair@$$CBV?$basic_string@DU?$char_traits@D@std@@V?$allocator@D@2@@std@@V?$list@PAVAfxUserConfig_Observer@@V?$allocator@PAVAfxUserConfig_Observer@@@std@@@2@@std@@@2@$0A@@std@@@2@PAU342@@Z 00404e10 f i AfxUserConfig.obj
 0001:00003e10       ?_Right@?$_Tree@V?$_Tmap_traits@V?$basic_string@DU?$char_traits@D@std@@V?$allocator@D@2@@std@@HU?$less@V?$basic_string@DU?$char_traits@D@std@@V?$allocator@D@2@@std@@@2@V?$allocator@U?$pair@$$CBV?$basic_string@DU?$char_traits@D@std@@V?$allocator@D@2@@std@@H@std@@@2@$0A@@std@@@std@@KAAAPAU_Node@?$_Tree_nod@V?$_Tmap_traits@V?$basic_string@DU?$char_traits@D@std@@V?$allocator@D@2@@std@@HU?$less@V?$basic_string@DU?$char_traits@D@std@@V?$allocator@D@2@@std@@@2@V?$allocator@U?$pair@$$CBV?$basic_string@DU?$char_traits@D@std@@V?$allocator@D@2@@std@@H@std@@@2@$0A@@std@@@2@PAU342@@Z 00404e10 f i MyTreeCtrl.obj
 0001:00003e10       ?_Right@?$_Tree@V?$_Tmap_traits@HUMYLIST_COLUMN_INFO@@U?$less@H@std@@V?$allocator@U?$pair@$$CBHUMYLIST_COLUMN_INFO@@@std@@@3@$0A@@std@@@std@@KAAAPAU_Node@?$_Tree_nod@V?$_Tmap_traits@HUMYLIST_COLUMN_INFO@@U?$less@H@std@@V?$allocator@U?$pair@$$CBHUMYLIST_COLUMN_INFO@@@std@@@3@$0A@@std@@@2@PAU342@@Z 00404e10 f i MyListCtrl.obj
 0001:00003e10       ?_Right@?$_Tree@V?$_Tmap_traits@KPAVIData@@U?$less@K@std@@V?$allocator@U?$pair@$$CBKPAVIData@@@std@@@3@$0A@@std@@@std@@KAAAPAU_Node@?$_Tree_nod@V?$_Tmap_traits@KPAVIData@@U?$less@K@std@@V?$allocator@U?$pair@$$CBKPAVIData@@@std@@@3@$0A@@std@@@2@PAU342@@Z 00404e10 f i CDataManager.obj
 0001:00003e10       ?_Right@?$_Tree@V?$_Tmap_traits@KV?$list@PAUMESSAGE_OBSERVER@@V?$allocator@PAUMESSAGE_OBSERVER@@@std@@@std@@U?$less@K@2@V?$allocator@U?$pair@$$CBKV?$list@PAUMESSAGE_OBSERVER@@V?$allocator@PAUMESSAGE_OBSERVER@@@std@@@std@@@std@@@2@$0A@@std@@@std@@KAAAPAU_Node@?$_Tree_nod@V?$_Tmap_traits@KV?$list@PAUMESSAGE_OBSERVER@@V?$allocator@PAUMESSAGE_OBSERVER@@@std@@@std@@U?$less@K@2@V?$allocator@U?$pair@$$CBKV?$list@PAUMESSAGE_OBSERVER@@V?$allocator@PAUMESSAGE_OBSERVER@@@std@@@std@@@std@@@2@$0A@@std@@@2@PAU342@@Z 00404e10 f i CMessageManager.obj
 0001:00003e10       ?_Right@?$_Tree@V?$_Tmap_traits@V?$basic_string@DU?$char_traits@D@std@@V?$allocator@D@2@@std@@PAVYL_CHTTPDownFile@@U?$less@V?$basic_string@DU?$char_traits@D@std@@V?$allocator@D@2@@std@@@2@V?$allocator@U?$pair@$$CBV?$basic_string@DU?$char_traits@D@std@@V?$allocator@D@2@@std@@PAVYL_CHTTPDownFile@@@std@@@2@$0A@@std@@@std@@KAAAPAU_Node@?$_Tree_nod@V?$_Tmap_traits@V?$basic_string@DU?$char_traits@D@std@@V?$allocator@D@2@@std@@PAVYL_CHTTPDownFile@@U?$less@V?$basic_string@DU?$char_traits@D@std@@V?$allocator@D@2@@std@@@2@V?$allocator@U?$pair@$$CBV?$basic_string@DU?$char_traits@D@std@@V?$allocator@D@2@@std@@PAVYL_CHTTPDownFile@@@std@@@2@$0A@@std@@@2@PAU342@@Z 00404e10 f i HttpDownCtrl.obj
 0001:00003e10       ?_Myval@?$list@PAUMESSAGE_OBSERVER@@V?$allocator@PAUMESSAGE_OBSERVER@@@std@@@std@@KAAAPAUMESSAGE_OBSERVER@@PAU_Node@?$_List_nod@PAUMESSAGE_OBSERVER@@V?$allocator@PAUMESSAGE_OBSERVER@@@std@@@2@@Z 00404e10 f i CMessageManager.obj
 0001:00003e10       ?_Myval@?$list@PAVCSkinButton@@V?$allocator@PAVCSkinButton@@@std@@@std@@KAAAPAVCSkinButton@@PAU_Node@?$_List_nod@PAVCSkinButton@@V?$allocator@PAVCSkinButton@@@std@@@2@@Z 00404e10 f i SkinWnd.obj
 0001:00003e10       ?_Right@?$_Tree@V?$_Tmap_traits@HPAVBaseDialog@@U?$less@H@std@@V?$allocator@U?$pair@$$CBHPAVBaseDialog@@@std@@@3@$0A@@std@@@std@@KAAAPAU_Node@?$_Tree_nod@V?$_Tmap_traits@HPAVBaseDialog@@U?$less@H@std@@V?$allocator@U?$pair@$$CBHPAVBaseDialog@@@std@@@3@$0A@@std@@@2@PAU342@@Z 00404e10 f i DlgConfig.obj
 0001:00003e10       ?_Right@?$_Tree@V?$_Tmap_traits@V?$basic_string@DU?$char_traits@D@std@@V?$allocator@D@2@@std@@PAVCConfigObject@@U?$less@V?$basic_string@DU?$char_traits@D@std@@V?$allocator@D@2@@std@@@2@V?$allocator@U?$pair@$$CBV?$basic_string@DU?$char_traits@D@std@@V?$allocator@D@2@@std@@PAVCConfigObject@@@std@@@2@$0A@@std@@@std@@KAAAPAU_Node@?$_Tree_nod@V?$_Tmap_traits@V?$basic_string@DU?$char_traits@D@std@@V?$allocator@D@2@@std@@PAVCConfigObject@@U?$less@V?$basic_string@DU?$char_traits@D@std@@V?$allocator@D@2@@std@@@2@V?$allocator@U?$pair@$$CBV?$basic_string@DU?$char_traits@D@std@@V?$allocator@D@2@@std@@PAVCConfigObject@@@std@@@2@$0A@@std@@@2@PAU342@@Z 00404e10 f i AfxUserConfig.obj
 0001:00003e10       ?_Right@?$_Tree@V?$_Tmap_traits@V?$basic_string@DU?$char_traits@D@std@@V?$allocator@D@2@@std@@V12@U?$less@V?$basic_string@DU?$char_traits@D@std@@V?$allocator@D@2@@std@@@2@V?$allocator@U?$pair@$$CBV?$basic_string@DU?$char_traits@D@std@@V?$allocator@D@2@@std@@V12@@std@@@2@$0A@@std@@@std@@KAAAPAU_Node@?$_Tree_nod@V?$_Tmap_traits@V?$basic_string@DU?$char_traits@D@std@@V?$allocator@D@2@@std@@V12@U?$less@V?$basic_string@DU?$char_traits@D@std@@V?$allocator@D@2@@std@@@2@V?$allocator@U?$pair@$$CBV?$basic_string@DU?$char_traits@D@std@@V?$allocator@D@2@@std@@V12@@std@@@2@$0A@@std@@@2@PAU342@@Z 00404e10 f i AfxUserConfig.obj
 0001:00003e10       ?_Right@?$_Tree@V?$_Tmap_traits@V?$CStringT@DV?$StrTraitMFC_DLL@DV?$ChTraitsCRT@D@ATL@@@@@ATL@@PAVCDibBitmap@@U?$less@V?$CStringT@DV?$StrTraitMFC_DLL@DV?$ChTraitsCRT@D@ATL@@@@@ATL@@@std@@V?$allocator@U?$pair@$$CBV?$CStringT@DV?$StrTraitMFC_DLL@DV?$ChTraitsCRT@D@ATL@@@@@ATL@@PAVCDibBitmap@@@std@@@5@$0A@@std@@@std@@KAAAPAU_Node@?$_Tree_nod@V?$_Tmap_traits@V?$CStringT@DV?$StrTraitMFC_DLL@DV?$ChTraitsCRT@D@ATL@@@@@ATL@@PAVCDibBitmap@@U?$less@V?$CStringT@DV?$StrTraitMFC_DLL@DV?$ChTraitsCRT@D@ATL@@@@@ATL@@@std@@V?$allocator@U?$pair@$$CBV?$CStringT@DV?$StrTraitMFC_DLL@DV?$ChTraitsCRT@D@ATL@@@@@ATL@@PAVCDibBitmap@@@std@@@5@$0A@@std@@@2@PAU342@@Z 00404e10 f i SkinMgr.obj
 0001:00003e20       ??2@YAPAXIPAX@Z            00404e20 f i PlayBoxDlg.obj
 0001:00003e30       ??_9@$BBFE@AE              00404e30 f i PlayBoxDlg.obj
 0001:00003e40       ??_9@$BBFI@AE              00404e40 f i PlayBoxDlg.obj
 0001:00003e50       ??_ECPlayBoxDlg@@WHI@AEPAXI@Z 00404e50 f i PlayBoxDlg.obj
 0001:00003e60       ??_ECPlayBoxDlg@@WHM@AEPAXI@Z 00404e60 f i PlayBoxDlg.obj
 0001:00003e70       ??2CObject@@SGPAXI@Z       00404e70 f i PlayBoxDlg.obj
 0001:00003e90       ?AfxGetApp@@YGPAVCWinApp@@XZ 00404e90 f i PlayBoxDlg.obj
 0001:00003ea0       ??1CBrush@@UAE@XZ          00404ea0 f i PlayBoxDlg.obj
 0001:00003ec0       ??1CGdiObject@@UAE@XZ      00404ec0 f i PlayBoxDlg.obj
 0001:00003f20       ??_ECGdiObject@@UAEPAXI@Z  00404f20 f i PlayBoxDlg.obj
 0001:00003f20       ??_GCGdiObject@@UAEPAXI@Z  00404f20 f i PlayBoxDlg.obj
 0001:00003f50       ??_GCBrush@@UAEPAXI@Z      00404f50 f i PlayBoxDlg.obj
 0001:00003f50       ??_ECBrush@@UAEPAXI@Z      00404f50 f i PlayBoxDlg.obj
 0001:00003f80       ??0CBitmap@@QAE@XZ         00404f80 f i PlayBoxDlg.obj
 0001:00003fa0       ??0CGdiObject@@QAE@XZ      00404fa0 f i PlayBoxDlg.obj
 0001:00003fd0       ??_GCBitmap@@UAEPAXI@Z     00404fd0 f i PlayBoxDlg.obj
 0001:00003fd0       ??_ECBitmap@@UAEPAXI@Z     00404fd0 f i PlayBoxDlg.obj
 0001:00004000       ??1CBitmap@@UAE@XZ         00405000 f i PlayBoxDlg.obj
 0001:00004020       ?LoadBitmapA@CBitmap@@QAEHI@Z 00405020 f i PlayBoxDlg.obj
 0001:00004050       ?DrawIcon@CDC@@QAEHHHPAUHICON__@@@Z 00405050 f i PlayBoxDlg.obj
 0001:00004080       ?PatBlt@CDC@@QAEHHHHHK@Z   00405080 f i PlayBoxDlg.obj
 0001:000040b0       ?EnableMenuItem@CMenu@@QAEIII@Z 004050b0 f i PlayBoxDlg.obj
 0001:000040e0       ??BCWnd@@QBEPAUHWND__@@XZ  004050e0 f i SkinWnd.obj
 0001:000040e0       ?GetSafeHwnd@CWnd@@QBEPAUHWND__@@XZ 004050e0 f i PlayBoxDlg.obj
 0001:00004110       ?SendMessageA@CWnd@@QAEJIIJ@Z 00405110 f i PlayBoxDlg.obj
 0001:00004140       ?PostMessageA@CWnd@@QAEHIIJ@Z 00405140 f i PlayBoxDlg.obj
 0001:00004170       ?GetSystemMenu@CWnd@@QBEPAVCMenu@@H@Z 00405170 f i PlayBoxDlg.obj
 0001:000041a0       ?IsIconic@CWnd@@QBEHXZ     004051a0 f i PlayBoxDlg.obj
 0001:000041c0       ?MoveWindow@CWnd@@QAEXPBUtagRECT@@H@Z 004051c0 f i PlayBoxDlg.obj
 0001:00004200       ?GetWindowRect@CWnd@@QBEXPAUtagRECT@@@Z 00405200 f i PlayBoxDlg.obj
 0001:00004220       ?GetClientRect@CWnd@@QBEXPAUtagRECT@@@Z 00405220 f i PlayBoxDlg.obj
 0001:00004240       ?ClientToScreen@CWnd@@QBEXPAUtagPOINT@@@Z 00405240 f i PlayBoxDlg.obj
 0001:00004260       ?GetDC@CWnd@@QAEPAVCDC@@XZ 00405260 f i PlayBoxDlg.obj
 0001:00004280       ?ReleaseDC@CWnd@@QAEHPAVCDC@@@Z 00405280 f i PlayBoxDlg.obj
 0001:000042b0       ?IsWindowVisible@CWnd@@QBEHXZ 004052b0 f i PlayBoxDlg.obj
 0001:000042d0       ?RedrawWindow@CWnd@@QAEHPBUtagRECT@@PAVCRgn@@I@Z 004052d0 f i PlayBoxDlg.obj
 0001:00004300       ??BCBrush@@QBEPAUHBRUSH__@@XZ 00405300 f i EditGlow.obj
 0001:00004300       ??BCGdiObject@@QBEPAXXZ    00405300 f i xSkinButton.obj
 0001:00004300       ??BCBitmap@@QBEPAUHBITMAP__@@XZ 00405300 f i BalloonHelp.obj
 0001:00004300       ??BCDC@@QBEPAUHDC__@@XZ    00405300 f i ScrollBarEx.obj
 0001:00004300       ?GetSafeHandle@CGdiObject@@QBEPAXXZ 00405300 f i PlayBoxDlg.obj
 0001:00004300       ?GetSafeHdc@CDC@@QBEPAUHDC__@@XZ 00405300 f i PlayBoxDlg.obj
 0001:00004330       ?KillTimer@CWnd@@QAEHI@Z   00405330 f i PlayBoxDlg.obj
 0001:00004350       ?GetCapture@CWnd@@SGPAV1@XZ 00405350 f i PlayBoxDlg.obj
 0001:00004370       ?SetCapture@CWnd@@QAEPAV1@XZ 00405370 f i PlayBoxDlg.obj
 0001:00004390       ?GetParent@CWnd@@QBEPAV1@XZ 00405390 f i PlayBoxDlg.obj
 0001:000043b0       ?SetIcon@CWnd@@QAEPAUHICON__@@PAU2@H@Z 004053b0 f i PlayBoxDlg.obj
 0001:000043e0       ?OnClose@CWnd@@IAEXXZ      004053e0 f i PlayBoxDlg.obj
 0001:000043e0       ?OnQueryEndSession@CWnd@@IAEHXZ 004053e0 f i PlayBoxDlg.obj
 0001:00004400       ?BeginModalState@CWnd@@UAEXXZ 00405400 f i PlayBoxDlg.obj
 0001:00004420       ?EndModalState@CWnd@@UAEXXZ 00405420 f i PlayBoxDlg.obj
 0001:00004440       ?LoadIconA@CWinApp@@QBEPAUHICON__@@I@Z 00405440 f i PlayBoxDlg.obj
 0001:00004470       ??_H@YGXPAXIHP6EPAX0@Z@Z   00405470 f i stdafx.obj
 0001:000044a0       ??1CComBSTR@ATL@@QAE@XZ    004054a0 f i stdafx.obj
 0001:000044c0       ??$?HDU?$char_traits@D@std@@V?$allocator@D@1@@std@@YA?AV?$basic_string@DU?$char_traits@D@std@@V?$allocator@D@2@@0@ABV10@0@Z 004054c0 f i stdafx.obj
 0001:00004540       ??$?HDU?$char_traits@D@std@@V?$allocator@D@1@@std@@YA?AV?$basic_string@DU?$char_traits@D@std@@V?$allocator@D@2@@0@PBDABV10@@Z 00405540 f i stdafx.obj
 0001:000045c0       ??$?HDU?$char_traits@D@std@@V?$allocator@D@1@@std@@YA?AV?$basic_string@DU?$char_traits@D@std@@V?$allocator@D@2@@0@ABV10@PBD@Z 004055c0 f i stdafx.obj
 0001:00004640       ??$?5DU?$char_traits@D@std@@V?$allocator@D@1@@std@@YAAAV?$basic_istream@DU?$char_traits@D@std@@@0@AAV10@AAV?$basic_string@DU?$char_traits@D@std@@V?$allocator@D@2@@0@@Z 00405640 f i stdafx.obj
 0001:000048e0       ??1sentry@?$basic_istream@DU?$char_traits@D@std@@@std@@QAE@XZ 004058e0 f i stdafx.obj
 0001:00004900       ??0sentry@?$basic_istream@DU?$char_traits@D@std@@@std@@QAE@AAV12@_N@Z 00405900 f i stdafx.obj
 0001:00004960       ??1_Sentry_base@?$basic_istream@DU?$char_traits@D@std@@@std@@QAE@XZ 00405960 f i stdafx.obj
 0001:000049b0       ??0_Sentry_base@?$basic_istream@DU?$char_traits@D@std@@@std@@QAE@AAV12@@Z 004059b0 f i stdafx.obj
 0001:00004a00       ??$use_facet@V?$ctype@D@std@@@std@@YAABV?$ctype@D@0@ABVlocale@0@@Z 00405a00 f i stdafx.obj
 0001:00004af0       ??1sentry@?$basic_istream@_WU?$char_traits@_W@std@@@std@@QAE@XZ 00405af0 f i stdafx.obj
 0001:00004b10       ??0sentry@?$basic_istream@_WU?$char_traits@_W@std@@@std@@QAE@AAV12@_N@Z 00405b10 f i stdafx.obj
 0001:00004b70       ??Bsentry@?$basic_istream@_WU?$char_traits@_W@std@@@std@@QBE_NXZ 00405b70 f i stdafx.obj
 0001:00004b70       ??Bsentry@?$basic_istream@DU?$char_traits@D@std@@@std@@QBE_NXZ 00405b70 f i stdafx.obj
 0001:00004b90       ??1_Sentry_base@?$basic_istream@_WU?$char_traits@_W@std@@@std@@QAE@XZ 00405b90 f i stdafx.obj
 0001:00004be0       ??0_Sentry_base@?$basic_istream@_WU?$char_traits@_W@std@@@std@@QAE@AAV12@@Z 00405be0 f i stdafx.obj
 0001:00004c30       ??$getline@_WU?$char_traits@_W@std@@V?$allocator@_W@2@@std@@YAAAV?$basic_istream@_WU?$char_traits@_W@std@@@0@AAV10@AAV?$basic_string@_WU?$char_traits@_W@std@@V?$allocator@_W@2@@0@_W@Z 00405c30 f i stdafx.obj
 0001:00004e60       ??0CComCriticalSection@ATL@@QAE@XZ 00405e60 f i stdafx.obj
 0001:00004e80       ?Init@CComCriticalSection@ATL@@QAEJXZ 00405e80 f i stdafx.obj
 0001:00004f20       ?checkUpdate@@YAXPBD@Z     00405f20 f   update.obj
 0001:00004f50       ?stopCheckUpdate@@YAXXZ    00405f50 f   update.obj
 0001:00004fc0       ?checkPopUpUpdate@@YAXPAPAUHWND__@@@Z 00405fc0 f   update.obj
 0001:000050d0       ?runPopUpUpdate@@YAXPAX@Z  004060d0 f   update.obj
 0001:00005970       ?realUpdate@@YAXPAX@Z      00406970 f   update.obj
 0001:00005bf0       ?GetThisMessageMap@CHyperLinkExpand@@KGPBUAFX_MSGMAP@@XZ 00406bf0 f   UpdateTipDlg.obj
 0001:00005c00       ?GetMessageMap@CHyperLinkExpand@@MBEPBUAFX_MSGMAP@@XZ 00406c00 f   UpdateTipDlg.obj
 0001:00005c10       ?OnLButtonDown@CHyperLinkExpand@@QAEXIVCPoint@@@Z 00406c10 f   UpdateTipDlg.obj
 0001:00005c20       ?OnLButtonUp@CHyperLinkExpand@@QAEXIVCPoint@@@Z 00406c20 f   UpdateTipDlg.obj
 0001:00005ca0       ?GetThisClass@CUpdateTipDlg@@SGPAUCRuntimeClass@@XZ 00406ca0 f   UpdateTipDlg.obj
 0001:00005cb0       ?GetRuntimeClass@CUpdateTipDlg@@UBEPAUCRuntimeClass@@XZ 00406cb0 f   UpdateTipDlg.obj
 0001:00005cc0       ??0CUpdateTipDlg@@QAE@PAVCWnd@@@Z 00406cc0 f   UpdateTipDlg.obj
 0001:00005d40       ??1CUpdateTipDlg@@UAE@XZ   00406d40 f   UpdateTipDlg.obj
 0001:00005db0       ?DoDataExchange@CUpdateTipDlg@@MAEXPAVCDataExchange@@@Z 00406db0 f   UpdateTipDlg.obj
 0001:00005e00       ?GetThisMessageMap@CUpdateTipDlg@@KGPBUAFX_MSGMAP@@XZ 00406e00 f   UpdateTipDlg.obj
 0001:00005e10       ?GetMessageMap@CUpdateTipDlg@@MBEPBUAFX_MSGMAP@@XZ 00406e10 f   UpdateTipDlg.obj
 0001:00005e20       ?SetForceUpdate@CUpdateTipDlg@@QAEXH@Z 00406e20 f   UpdateTipDlg.obj
 0001:00005e40       ?OnInitDialog@CUpdateTipDlg@@UAEHXZ 00406e40 f   UpdateTipDlg.obj
 0001:000060a0       ?OnViewUpdateInfo@CUpdateTipDlg@@QAEJIJ@Z 004070a0 f   UpdateTipDlg.obj
 0001:00006100       ??_GCUpdateTipDlg@@UAEPAXI@Z 00407100 f i UpdateTipDlg.obj
 0001:00006100       ??_ECUpdateTipDlg@@UAEPAXI@Z 00407100 f i UpdateTipDlg.obj
 0001:00006130       ??0CHyperLinkExpand@@QAE@XZ 00407130 f i UpdateTipDlg.obj
 0001:00006150       ??_GCHyperLinkExpand@@UAEPAXI@Z 00407150 f i UpdateTipDlg.obj
 0001:00006150       ??_ECHyperLinkExpand@@UAEPAXI@Z 00407150 f i UpdateTipDlg.obj
 0001:00006180       ??1CHyperLinkExpand@@UAE@XZ 00407180 f i UpdateTipDlg.obj
 0001:000061a0       ?LoadCursorA@CWinApp@@QBEPAUHICON__@@I@Z 004071a0 f i UpdateTipDlg.obj
 0001:000061d0       ?AfxGetDataManager2@@YAPAVIDataManager@@XZ 004071d0 f   AfxGlobals.obj
 0001:000061e0       ?AfxGetMessageManager@@YAPAVIMessageManager@@XZ 004071e0 f   AfxGlobals.obj
 0001:000061f0       ?AfxGetUIManager@@YAPAVIUIManager@@XZ 004071f0 f   AfxGlobals.obj
 0001:00006200       ?AfxGetMainWindow@@YAPAVCWnd@@XZ 00407200 f   AfxGlobals.obj
 0001:00006210       ?AfxSetMainWindow@@YAXPAVCWnd@@@Z 00407210 f   AfxGlobals.obj
 0001:00006220       ?AfxGetUserConfig@@YAPAVAfxUserConfig@@XZ 00407220 f   AfxGlobals.obj
 0001:00006230       ??0CDataManager@@QAE@XZ    00407230 f   CDataManager.obj
 0001:000062b0       ??1CDataManager@@UAE@XZ    004072b0 f   CDataManager.obj
 0001:00006320       ?DataManAppStart@CDataManager@@UAEXXZ 00407320 f   CDataManager.obj
 0001:00006410       ?DataManAppExit@CDataManager@@UAEXXZ 00407410 f   CDataManager.obj
 0001:00006580       ?AddDataObject@CDataManager@@UAEXABKPAVIData@@@Z 00407580 f   CDataManager.obj
 0001:000065d0       ?RemoveDataObject@CDataManager@@UAEXABK@Z 004075d0 f   CDataManager.obj
 0001:00006610       ?GetDataObject@CDataManager@@UAEPAVIData@@ABK@Z 00407610 f   CDataManager.obj
 0001:000066f0       ?_GetMapObject@CDataManager@@AAEPAVIData@@ABK@Z 004076f0 f   CDataManager.obj
 0001:00006750       ?GetExportDataObject@CDataManager@@QAEPAVIData@@ABK@Z 00407750 f   CDataManager.obj
 0001:000067b0       ??_GCDataManager@@UAEPAXI@Z 004077b0 f i CDataManager.obj
 0001:000067b0       ??_ECDataManager@@UAEPAXI@Z 004077b0 f i CDataManager.obj
 0001:000067e0       ??0IDataManager@@QAE@XZ    004077e0 f i CDataManager.obj
 0001:00006800       ??1?$map@KPAVIData@@U?$less@K@std@@V?$allocator@U?$pair@$$CBKPAVIData@@@std@@@3@@std@@QAE@XZ 00407800 f i CDataManager.obj
 0001:00006820       ??0?$map@KPAVIData@@U?$less@K@std@@V?$allocator@U?$pair@$$CBKPAVIData@@@std@@@3@@std@@QAE@XZ 00407820 f i CDataManager.obj
 0001:00006850       ??A?$map@KPAVIData@@U?$less@K@std@@V?$allocator@U?$pair@$$CBKPAVIData@@@std@@@3@@std@@QAEAAPAVIData@@ABK@Z 00407850 f i CDataManager.obj
 0001:000068f0       ??1?$_Tree@V?$_Tmap_traits@KPAVIData@@U?$less@K@std@@V?$allocator@U?$pair@$$CBKPAVIData@@@std@@@3@$0A@@std@@@std@@QAE@XZ 004078f0 f i CDataManager.obj
 0001:00006910       ?begin@?$_Tree@V?$_Tmap_traits@V?$basic_string@DU?$char_traits@D@std@@V?$allocator@D@2@@std@@_NU?$less@V?$basic_string@DU?$char_traits@D@std@@V?$allocator@D@2@@std@@@2@V?$allocator@U?$pair@$$CBV?$basic_string@DU?$char_traits@D@std@@V?$allocator@D@2@@std@@_N@std@@@2@$0A@@std@@@std@@QAE?AViterator@12@XZ 00407910 f i AfxUserConfig.obj
 0001:00006910       ?begin@?$_Tree@V?$_Tmap_traits@PAUHWND__@@UCWndData@@U?$less@PAUHWND__@@@std@@V?$allocator@U?$pair@QAUHWND__@@UCWndData@@@std@@@4@$0A@@std@@@std@@QAE?AViterator@12@XZ 00407910 f i HostWndMgr.obj
 0001:00006910       ?begin@?$_Tree@V?$_Tmap_traits@KV?$list@PAUMESSAGE_OBSERVER@@V?$allocator@PAUMESSAGE_OBSERVER@@@std@@@std@@U?$less@K@2@V?$allocator@U?$pair@$$CBKV?$list@PAUMESSAGE_OBSERVER@@V?$allocator@PAUMESSAGE_OBSERVER@@@std@@@std@@@std@@@2@$0A@@std@@@std@@QAE?AViterator@12@XZ 00407910 f i CMessageManager.obj
 0001:00006910       ?begin@?$_Tree@V?$_Tmap_traits@HUMYLIST_COLUMN_INFO@@U?$less@H@std@@V?$allocator@U?$pair@$$CBHUMYLIST_COLUMN_INFO@@@std@@@3@$0A@@std@@@std@@QAE?AViterator@12@XZ 00407910 f i MyListCtrl.obj
 0001:00006910       ?begin@?$_Tree@V?$_Tmap_traits@HPAVBaseDialog@@U?$less@H@std@@V?$allocator@U?$pair@$$CBHPAVBaseDialog@@@std@@@3@$0A@@std@@@std@@QAE?AViterator@12@XZ 00407910 f i DlgConfig.obj
 0001:00006910       ?begin@?$_Tree@V?$_Tmap_traits@KPAVIData@@U?$less@K@std@@V?$allocator@U?$pair@$$CBKPAVIData@@@std@@@3@$0A@@std@@@std@@QAE?AViterator@12@XZ 00407910 f i CDataManager.obj
 0001:00006910       ?begin@?$_Tree@V?$_Tmap_traits@V?$basic_string@DU?$char_traits@D@std@@V?$allocator@D@2@@std@@V12@U?$less@V?$basic_string@DU?$char_traits@D@std@@V?$allocator@D@2@@std@@@2@V?$allocator@U?$pair@$$CBV?$basic_string@DU?$char_traits@D@std@@V?$allocator@D@2@@std@@V12@@std@@@2@$0A@@std@@@std@@QAE?AViterator@12@XZ 00407910 f i AfxUserConfig.obj
 0001:00006910       ?begin@?$_Tree@V?$_Tmap_traits@PAUHWND__@@UWndMoveData@@U?$less@PAUHWND__@@@std@@V?$allocator@U?$pair@QAUHWND__@@UWndMoveData@@@std@@@4@$0A@@std@@@std@@QAE?AViterator@12@XZ 00407910 f i WindowsMover.obj
 0001:00006910       ?begin@?$_Tree@V?$_Tmap_traits@V?$CStringT@DV?$StrTraitMFC_DLL@DV?$ChTraitsCRT@D@ATL@@@@@ATL@@KU?$less@V?$CStringT@DV?$StrTraitMFC_DLL@DV?$ChTraitsCRT@D@ATL@@@@@ATL@@@std@@V?$allocator@U?$pair@$$CBV?$CStringT@DV?$StrTraitMFC_DLL@DV?$ChTraitsCRT@D@ATL@@@@@ATL@@K@std@@@4@$0A@@std@@@std@@QAE?AViterator@12@XZ 00407910 f i SkinMgr.obj
 0001:00006910       ?begin@?$_Tree@V?$_Tmap_traits@V?$basic_string@DU?$char_traits@D@std@@V?$allocator@D@2@@std@@V?$list@PAVAfxUserConfig_Observer@@V?$allocator@PAVAfxUserConfig_Observer@@@std@@@2@U?$less@V?$basic_string@DU?$char_traits@D@std@@V?$allocator@D@2@@std@@@2@V?$allocator@U?$pair@$$CBV?$basic_string@DU?$char_traits@D@std@@V?$allocator@D@2@@std@@V?$list@PAVAfxUserConfig_Observer@@V?$allocator@PAVAfxUserConfig_Observer@@@std@@@2@@std@@@2@$0A@@std@@@std@@QAE?AViterator@12@XZ 00407910 f i AfxUserConfig.obj
 0001:00006910       ?begin@?$_Tree@V?$_Tmap_traits@V?$basic_string@DU?$char_traits@D@std@@V?$allocator@D@2@@std@@PAVCConfigObject@@U?$less@V?$basic_string@DU?$char_traits@D@std@@V?$allocator@D@2@@std@@@2@V?$allocator@U?$pair@$$CBV?$basic_string@DU?$char_traits@D@std@@V?$allocator@D@2@@std@@PAVCConfigObject@@@std@@@2@$0A@@std@@@std@@QAE?AViterator@12@XZ 00407910 f i AfxUserConfig.obj
 0001:00006910       ?begin@?$_Tree@V?$_Tmap_traits@V?$basic_string@DU?$char_traits@D@std@@V?$allocator@D@2@@std@@HU?$less@V?$basic_string@DU?$char_traits@D@std@@V?$allocator@D@2@@std@@@2@V?$allocator@U?$pair@$$CBV?$basic_string@DU?$char_traits@D@std@@V?$allocator@D@2@@std@@H@std@@@2@$0A@@std@@@std@@QAE?AViterator@12@XZ 00407910 f i MyTreeCtrl.obj
 0001:00006910       ?begin@?$_Tree@V?$_Tmap_traits@V?$CStringT@DV?$StrTraitMFC_DLL@DV?$ChTraitsCRT@D@ATL@@@@@ATL@@PAVCDibBitmap@@U?$less@V?$CStringT@DV?$StrTraitMFC_DLL@DV?$ChTraitsCRT@D@ATL@@@@@ATL@@@std@@V?$allocator@U?$pair@$$CBV?$CStringT@DV?$StrTraitMFC_DLL@DV?$ChTraitsCRT@D@ATL@@@@@ATL@@PAVCDibBitmap@@@std@@@5@$0A@@std@@@std@@QAE?AViterator@12@XZ 00407910 f i SkinMgr.obj
 0001:00006910       ?begin@?$_Tree@V?$_Tmap_traits@V?$CStringT@DV?$StrTraitMFC_DLL@DV?$ChTraitsCRT@D@ATL@@@@@ATL@@PAVCSkinButton@@U?$less@V?$CStringT@DV?$StrTraitMFC_DLL@DV?$ChTraitsCRT@D@ATL@@@@@ATL@@@std@@V?$allocator@U?$pair@$$CBV?$CStringT@DV?$StrTraitMFC_DLL@DV?$ChTraitsCRT@D@ATL@@@@@ATL@@PAVCSkinButton@@@std@@@5@$0A@@std@@@std@@QAE?AViterator@12@XZ 00407910 f i SkinWnd.obj
 0001:00006910       ?begin@?$_Tree@V?$_Tmap_traits@V?$basic_string@DU?$char_traits@D@std@@V?$allocator@D@2@@std@@PAVYL_CHTTPDownFile@@U?$less@V?$basic_string@DU?$char_traits@D@std@@V?$allocator@D@2@@std@@@2@V?$allocator@U?$pair@$$CBV?$basic_string@DU?$char_traits@D@std@@V?$allocator@D@2@@std@@PAVYL_CHTTPDownFile@@@std@@@2@$0A@@std@@@std@@QAE?AViterator@12@XZ 00407910 f i HttpDownCtrl.obj
 0001:00006940       ?erase@?$_Tree@V?$_Tmap_traits@KPAVIData@@U?$less@K@std@@V?$allocator@U?$pair@$$CBKPAVIData@@@std@@@3@$0A@@std@@@std@@QAEIABK@Z 00407940 f i CDataManager.obj
 0001:000069a0       ?clear@?$_Tree@V?$_Tmap_traits@KPAVIData@@U?$less@K@std@@V?$allocator@U?$pair@$$CBKPAVIData@@@std@@@3@$0A@@std@@@std@@QAEXXZ 004079a0 f i CDataManager.obj
 0001:00006a00       ?find@?$_Tree@V?$_Tmap_traits@KPAVIData@@U?$less@K@std@@V?$allocator@U?$pair@$$CBKPAVIData@@@std@@@3@$0A@@std@@@std@@QAE?AViterator@12@ABK@Z 00407a00 f i CDataManager.obj
 0001:00006a90       ??0?$_Tree@V?$_Tmap_traits@KPAVIData@@U?$less@K@std@@V?$allocator@U?$pair@$$CBKPAVIData@@@std@@@3@$0A@@std@@@std@@QAE@ABU?$less@K@1@ABV?$allocator@U?$pair@$$CBKPAVIData@@@std@@@1@@Z 00407a90 f i CDataManager.obj
 0001:00006ad0       ?insert@?$_Tree@V?$_Tmap_traits@KPAVIData@@U?$less@K@std@@V?$allocator@U?$pair@$$CBKPAVIData@@@std@@@3@$0A@@std@@@std@@QAE?AViterator@12@V312@ABU?$pair@$$CBKPAVIData@@@2@@Z 00407ad0 f i CDataManager.obj
 0001:000070a0       ?erase@?$_Tree@V?$_Tmap_traits@KPAVIData@@U?$less@K@std@@V?$allocator@U?$pair@$$CBKPAVIData@@@std@@@3@$0A@@std@@@std@@QAE?AViterator@12@V312@0@Z 004080a0 f i CDataManager.obj
 0001:00007140       ?lower_bound@?$_Tree@V?$_Tmap_traits@KPAVIData@@U?$less@K@std@@V?$allocator@U?$pair@$$CBKPAVIData@@@std@@@3@$0A@@std@@@std@@QAE?AViterator@12@ABK@Z 00408140 f i CDataManager.obj
 0001:00007170       ?equal_range@?$_Tree@V?$_Tmap_traits@KPAVIData@@U?$less@K@std@@V?$allocator@U?$pair@$$CBKPAVIData@@@std@@@3@$0A@@std@@@std@@QAE?AU?$pair@Viterator@?$_Tree@V?$_Tmap_traits@KPAVIData@@U?$less@K@std@@V?$allocator@U?$pair@$$CBKPAVIData@@@std@@@3@$0A@@std@@@std@@V123@@2@ABK@Z 00408170 f i CDataManager.obj
 0001:000071b0       ?_Erase@?$_Tree@V?$_Tmap_traits@KPAVIData@@U?$less@K@std@@V?$allocator@U?$pair@$$CBKPAVIData@@@std@@@3@$0A@@std@@@std@@IAEXPAU_Node@?$_Tree_nod@V?$_Tmap_traits@KPAVIData@@U?$less@K@std@@V?$allocator@U?$pair@$$CBKPAVIData@@@std@@@3@$0A@@std@@@2@@Z 004081b0 f i CDataManager.obj
 0001:00007230       ?_Tidy@?$_Tree@V?$_Tmap_traits@KPAVIData@@U?$less@K@std@@V?$allocator@U?$pair@$$CBKPAVIData@@@std@@@3@$0A@@std@@@std@@IAEXXZ 00408230 f i CDataManager.obj
 0001:000072e0       ??Eiterator@?$_Tree@V?$_Tmap_traits@HPAVBaseDialog@@U?$less@H@std@@V?$allocator@U?$pair@$$CBHPAVBaseDialog@@@std@@@3@$0A@@std@@@std@@QAEAAV012@XZ 004082e0 f i DlgConfig.obj
 0001:000072e0       ??Eiterator@?$_Tree@V?$_Tmap_traits@V?$CStringT@DV?$StrTraitMFC_DLL@DV?$ChTraitsCRT@D@ATL@@@@@ATL@@PAVCDibBitmap@@U?$less@V?$CStringT@DV?$StrTraitMFC_DLL@DV?$ChTraitsCRT@D@ATL@@@@@ATL@@@std@@V?$allocator@U?$pair@$$CBV?$CStringT@DV?$StrTraitMFC_DLL@DV?$ChTraitsCRT@D@ATL@@@@@ATL@@PAVCDibBitmap@@@std@@@5@$0A@@std@@@std@@QAEAAV012@XZ 004082e0 f i SkinMgr.obj
 0001:000072e0       ??Eiterator@?$_Tree@V?$_Tmap_traits@V?$CStringT@DV?$StrTraitMFC_DLL@DV?$ChTraitsCRT@D@ATL@@@@@ATL@@KU?$less@V?$CStringT@DV?$StrTraitMFC_DLL@DV?$ChTraitsCRT@D@ATL@@@@@ATL@@@std@@V?$allocator@U?$pair@$$CBV?$CStringT@DV?$StrTraitMFC_DLL@DV?$ChTraitsCRT@D@ATL@@@@@ATL@@K@std@@@4@$0A@@std@@@std@@QAEAAV012@XZ 004082e0 f i SkinMgr.obj
 0001:000072e0       ??Eiterator@?$_Tree@V?$_Tmap_traits@KPAVIData@@U?$less@K@std@@V?$allocator@U?$pair@$$CBKPAVIData@@@std@@@3@$0A@@std@@@std@@QAEAAV012@XZ 004082e0 f i CDataManager.obj
 0001:000072e0       ??Eiterator@?$_Tree@V?$_Tmap_traits@V?$CStringT@DV?$StrTraitMFC_DLL@DV?$ChTraitsCRT@D@ATL@@@@@ATL@@PAVCSkinButton@@U?$less@V?$CStringT@DV?$StrTraitMFC_DLL@DV?$ChTraitsCRT@D@ATL@@@@@ATL@@@std@@V?$allocator@U?$pair@$$CBV?$CStringT@DV?$StrTraitMFC_DLL@DV?$ChTraitsCRT@D@ATL@@@@@ATL@@PAVCSkinButton@@@std@@@5@$0A@@std@@@std@@QAEAAV012@XZ 004082e0 f i SkinWnd.obj
 0001:00007300       ?insert@?$_Tree@V?$_Tmap_traits@KPAVIData@@U?$less@K@std@@V?$allocator@U?$pair@$$CBKPAVIData@@@std@@@3@$0A@@std@@@std@@QAE?AU?$pair@Viterator@?$_Tree@V?$_Tmap_traits@KPAVIData@@U?$less@K@std@@V?$allocator@U?$pair@$$CBKPAVIData@@@std@@@3@$0A@@std@@@std@@_N@2@ABU?$pair@$$CBKPAVIData@@@2@@Z 00408300 f i CDataManager.obj
 0001:000074b0       ?erase@?$_Tree@V?$_Tmap_traits@KPAVIData@@U?$less@K@std@@V?$allocator@U?$pair@$$CBKPAVIData@@@std@@@3@$0A@@std@@@std@@QAE?AViterator@12@V312@@Z 004084b0 f i CDataManager.obj
 0001:00007c60       ?upper_bound@?$_Tree@V?$_Tmap_traits@KPAVIData@@U?$less@K@std@@V?$allocator@U?$pair@$$CBKPAVIData@@@std@@@3@$0A@@std@@@std@@QAE?AViterator@12@ABK@Z 00408c60 f i CDataManager.obj
 0001:00007c90       ?_Init@?$_Tree@V?$_Tmap_traits@KPAVIData@@U?$less@K@std@@V?$allocator@U?$pair@$$CBKPAVIData@@@std@@@3@$0A@@std@@@std@@IAEXXZ 00408c90 f i CDataManager.obj
 0001:00007d00       ?_Insert@?$_Tree@V?$_Tmap_traits@KPAVIData@@U?$less@K@std@@V?$allocator@U?$pair@$$CBKPAVIData@@@std@@@3@$0A@@std@@@std@@IAE?AViterator@12@_NPAU_Node@?$_Tree_nod@V?$_Tmap_traits@KPAVIData@@U?$less@K@std@@V?$allocator@U?$pair@$$CBKPAVIData@@@std@@@3@$0A@@std@@@2@ABU?$pair@$$CBKPAVIData@@@2@@Z 00408d00 f i CDataManager.obj
 0001:00008160       ?_Lbound@?$_Tree@V?$_Tmap_traits@KPAVIData@@U?$less@K@std@@V?$allocator@U?$pair@$$CBKPAVIData@@@std@@@3@$0A@@std@@@std@@IBEPAU_Node@?$_Tree_nod@V?$_Tmap_traits@KPAVIData@@U?$less@K@std@@V?$allocator@U?$pair@$$CBKPAVIData@@@std@@@3@$0A@@std@@@2@ABK@Z 00409160 f i CDataManager.obj
 0001:000081f0       ??Fiterator@?$_Tree@V?$_Tmap_traits@V?$CStringT@DV?$StrTraitMFC_DLL@DV?$ChTraitsCRT@D@ATL@@@@@ATL@@KU?$less@V?$CStringT@DV?$StrTraitMFC_DLL@DV?$ChTraitsCRT@D@ATL@@@@@ATL@@@std@@V?$allocator@U?$pair@$$CBV?$CStringT@DV?$StrTraitMFC_DLL@DV?$ChTraitsCRT@D@ATL@@@@@ATL@@K@std@@@4@$0A@@std@@@std@@QAEAAV012@XZ 004091f0 f i SkinMgr.obj
 0001:000081f0       ??Fiterator@?$_Tree@V?$_Tmap_traits@HPAVBaseDialog@@U?$less@H@std@@V?$allocator@U?$pair@$$CBHPAVBaseDialog@@@std@@@3@$0A@@std@@@std@@QAEAAV012@XZ 004091f0 f i DlgConfig.obj
 0001:000081f0       ??Fiterator@?$_Tree@V?$_Tmap_traits@V?$CStringT@DV?$StrTraitMFC_DLL@DV?$ChTraitsCRT@D@ATL@@@@@ATL@@PAVCDibBitmap@@U?$less@V?$CStringT@DV?$StrTraitMFC_DLL@DV?$ChTraitsCRT@D@ATL@@@@@ATL@@@std@@V?$allocator@U?$pair@$$CBV?$CStringT@DV?$StrTraitMFC_DLL@DV?$ChTraitsCRT@D@ATL@@@@@ATL@@PAVCDibBitmap@@@std@@@5@$0A@@std@@@std@@QAEAAV012@XZ 004091f0 f i SkinMgr.obj
 0001:000081f0       ??Fiterator@?$_Tree@V?$_Tmap_traits@V?$CStringT@DV?$StrTraitMFC_DLL@DV?$ChTraitsCRT@D@ATL@@@@@ATL@@PAVCSkinButton@@U?$less@V?$CStringT@DV?$StrTraitMFC_DLL@DV?$ChTraitsCRT@D@ATL@@@@@ATL@@@std@@V?$allocator@U?$pair@$$CBV?$CStringT@DV?$StrTraitMFC_DLL@DV?$ChTraitsCRT@D@ATL@@@@@ATL@@PAVCSkinButton@@@std@@@5@$0A@@std@@@std@@QAEAAV012@XZ 004091f0 f i SkinWnd.obj
 0001:000081f0       ??Fiterator@?$_Tree@V?$_Tmap_traits@KPAVIData@@U?$less@K@std@@V?$allocator@U?$pair@$$CBKPAVIData@@@std@@@3@$0A@@std@@@std@@QAEAAV012@XZ 004091f0 f i CDataManager.obj
 0001:00008210       ??0?$pair@Viterator@?$_Tree@V?$_Tmap_traits@KPAVIData@@U?$less@K@std@@V?$allocator@U?$pair@$$CBKPAVIData@@@std@@@3@$0A@@std@@@std@@V123@@std@@QAE@ABViterator@?$_Tree@V?$_Tmap_traits@KPAVIData@@U?$less@K@std@@V?$allocator@U?$pair@$$CBKPAVIData@@@std@@@3@$0A@@std@@@1@0@Z 00409210 f i CDataManager.obj
 0001:00008240       ??0length_error@std@@QAE@ABV01@@Z 00409240 f i CDataManager.obj
 0001:00008270       ?max_size@?$_Tree@V?$_Tmap_traits@V?$CStringT@DV?$StrTraitMFC_DLL@DV?$ChTraitsCRT@D@ATL@@@@@ATL@@PAVCSkinButton@@U?$less@V?$CStringT@DV?$StrTraitMFC_DLL@DV?$ChTraitsCRT@D@ATL@@@@@ATL@@@std@@V?$allocator@U?$pair@$$CBV?$CStringT@DV?$StrTraitMFC_DLL@DV?$ChTraitsCRT@D@ATL@@@@@ATL@@PAVCSkinButton@@@std@@@5@$0A@@std@@@std@@QBEIXZ 00409270 f i SkinWnd.obj
 0001:00008270       ?max_size@?$_Tree@V?$_Tmap_traits@HPAVBaseDialog@@U?$less@H@std@@V?$allocator@U?$pair@$$CBHPAVBaseDialog@@@std@@@3@$0A@@std@@@std@@QBEIXZ 00409270 f i DlgConfig.obj
 0001:00008270       ?max_size@?$_Tree@V?$_Tmap_traits@KPAVIData@@U?$less@K@std@@V?$allocator@U?$pair@$$CBKPAVIData@@@std@@@3@$0A@@std@@@std@@QBEIXZ 00409270 f i CDataManager.obj
 0001:00008270       ?max_size@?$_Tree@V?$_Tmap_traits@V?$CStringT@DV?$StrTraitMFC_DLL@DV?$ChTraitsCRT@D@ATL@@@@@ATL@@KU?$less@V?$CStringT@DV?$StrTraitMFC_DLL@DV?$ChTraitsCRT@D@ATL@@@@@ATL@@@std@@V?$allocator@U?$pair@$$CBV?$CStringT@DV?$StrTraitMFC_DLL@DV?$ChTraitsCRT@D@ATL@@@@@ATL@@K@std@@@4@$0A@@std@@@std@@QBEIXZ 00409270 f i SkinMgr.obj
 0001:00008270       ?max_size@?$_Tree@V?$_Tmap_traits@V?$CStringT@DV?$StrTraitMFC_DLL@DV?$ChTraitsCRT@D@ATL@@@@@ATL@@PAVCDibBitmap@@U?$less@V?$CStringT@DV?$StrTraitMFC_DLL@DV?$ChTraitsCRT@D@ATL@@@@@ATL@@@std@@V?$allocator@U?$pair@$$CBV?$CStringT@DV?$StrTraitMFC_DLL@DV?$ChTraitsCRT@D@ATL@@@@@ATL@@PAVCDibBitmap@@@std@@@5@$0A@@std@@@std@@QBEIXZ 00409270 f i SkinMgr.obj
 0001:00008290       ?_Lrotate@?$_Tree@V?$_Tmap_traits@V?$CStringT@DV?$StrTraitMFC_DLL@DV?$ChTraitsCRT@D@ATL@@@@@ATL@@PAVCDibBitmap@@U?$less@V?$CStringT@DV?$StrTraitMFC_DLL@DV?$ChTraitsCRT@D@ATL@@@@@ATL@@@std@@V?$allocator@U?$pair@$$CBV?$CStringT@DV?$StrTraitMFC_DLL@DV?$ChTraitsCRT@D@ATL@@@@@ATL@@PAVCDibBitmap@@@std@@@5@$0A@@std@@@std@@IAEXPAU_Node@?$_Tree_nod@V?$_Tmap_traits@V?$CStringT@DV?$StrTraitMFC_DLL@DV?$ChTraitsCRT@D@ATL@@@@@ATL@@PAVCDibBitmap@@U?$less@V?$CStringT@DV?$StrTraitMFC_DLL@DV?$ChTraitsCRT@D@ATL@@@@@ATL@@@std@@V?$allocator@U?$pair@$$CBV?$CStringT@DV?$StrTraitMFC_DLL@DV?$ChTraitsCRT@D@ATL@@@@@ATL@@PAVCDibBitmap@@@std@@@5@$0A@@std@@@2@@Z 00409290 f i SkinMgr.obj
 0001:00008290       ?_Lrotate@?$_Tree@V?$_Tmap_traits@V?$CStringT@DV?$StrTraitMFC_DLL@DV?$ChTraitsCRT@D@ATL@@@@@ATL@@KU?$less@V?$CStringT@DV?$StrTraitMFC_DLL@DV?$ChTraitsCRT@D@ATL@@@@@ATL@@@std@@V?$allocator@U?$pair@$$CBV?$CStringT@DV?$StrTraitMFC_DLL@DV?$ChTraitsCRT@D@ATL@@@@@ATL@@K@std@@@4@$0A@@std@@@std@@IAEXPAU_Node@?$_Tree_nod@V?$_Tmap_traits@V?$CStringT@DV?$StrTraitMFC_DLL@DV?$ChTraitsCRT@D@ATL@@@@@ATL@@KU?$less@V?$CStringT@DV?$StrTraitMFC_DLL@DV?$ChTraitsCRT@D@ATL@@@@@ATL@@@std@@V?$allocator@U?$pair@$$CBV?$CStringT@DV?$StrTraitMFC_DLL@DV?$ChTraitsCRT@D@ATL@@@@@ATL@@K@std@@@4@$0A@@std@@@2@@Z 00409290 f i SkinMgr.obj
 0001:00008290       ?_Lrotate@?$_Tree@V?$_Tmap_traits@V?$CStringT@DV?$StrTraitMFC_DLL@DV?$ChTraitsCRT@D@ATL@@@@@ATL@@PAVCSkinButton@@U?$less@V?$CStringT@DV?$StrTraitMFC_DLL@DV?$ChTraitsCRT@D@ATL@@@@@ATL@@@std@@V?$allocator@U?$pair@$$CBV?$CStringT@DV?$StrTraitMFC_DLL@DV?$ChTraitsCRT@D@ATL@@@@@ATL@@PAVCSkinButton@@@std@@@5@$0A@@std@@@std@@IAEXPAU_Node@?$_Tree_nod@V?$_Tmap_traits@V?$CStringT@DV?$StrTraitMFC_DLL@DV?$ChTraitsCRT@D@ATL@@@@@ATL@@PAVCSkinButton@@U?$less@V?$CStringT@DV?$StrTraitMFC_DLL@DV?$ChTraitsCRT@D@ATL@@@@@ATL@@@std@@V?$allocator@U?$pair@$$CBV?$CStringT@DV?$StrTraitMFC_DLL@DV?$ChTraitsCRT@D@ATL@@@@@ATL@@PAVCSkinButton@@@std@@@5@$0A@@std@@@2@@Z 00409290 f i SkinWnd.obj
 0001:00008290       ?_Lrotate@?$_Tree@V?$_Tmap_traits@HPAVBaseDialog@@U?$less@H@std@@V?$allocator@U?$pair@$$CBHPAVBaseDialog@@@std@@@3@$0A@@std@@@std@@IAEXPAU_Node@?$_Tree_nod@V?$_Tmap_traits@HPAVBaseDialog@@U?$less@H@std@@V?$allocator@U?$pair@$$CBHPAVBaseDialog@@@std@@@3@$0A@@std@@@2@@Z 00409290 f i DlgConfig.obj
 0001:00008290       ?_Lrotate@?$_Tree@V?$_Tmap_traits@KPAVIData@@U?$less@K@std@@V?$allocator@U?$pair@$$CBKPAVIData@@@std@@@3@$0A@@std@@@std@@IAEXPAU_Node@?$_Tree_nod@V?$_Tmap_traits@KPAVIData@@U?$less@K@std@@V?$allocator@U?$pair@$$CBKPAVIData@@@std@@@3@$0A@@std@@@2@@Z 00409290 f i CDataManager.obj
 0001:000083c0       ?_Ubound@?$_Tree@V?$_Tmap_traits@KPAVIData@@U?$less@K@std@@V?$allocator@U?$pair@$$CBKPAVIData@@@std@@@3@$0A@@std@@@std@@IBEPAU_Node@?$_Tree_nod@V?$_Tmap_traits@KPAVIData@@U?$less@K@std@@V?$allocator@U?$pair@$$CBKPAVIData@@@std@@@3@$0A@@std@@@2@ABK@Z 004093c0 f i CDataManager.obj
 0001:00008450       ?_Buynode@?$_Tree@V?$_Tmap_traits@KPAVIData@@U?$less@K@std@@V?$allocator@U?$pair@$$CBKPAVIData@@@std@@@3@$0A@@std@@@std@@IAEPAU_Node@?$_Tree_nod@V?$_Tmap_traits@KPAVIData@@U?$less@K@std@@V?$allocator@U?$pair@$$CBKPAVIData@@@std@@@3@$0A@@std@@@2@XZ 00409450 f i CDataManager.obj
 0001:000085c0       ?_Buynode@?$_Tree@V?$_Tmap_traits@KPAVIData@@U?$less@K@std@@V?$allocator@U?$pair@$$CBKPAVIData@@@std@@@3@$0A@@std@@@std@@IAEPAU_Node@?$_Tree_nod@V?$_Tmap_traits@KPAVIData@@U?$less@K@std@@V?$allocator@U?$pair@$$CBKPAVIData@@@std@@@3@$0A@@std@@@2@PAU342@00ABU?$pair@$$CBKPAVIData@@@2@D@Z 004095c0 f i CDataManager.obj
 0001:00008690       ?_Dec@const_iterator@?$_Tree@V?$_Tmap_traits@V?$CStringT@DV?$StrTraitMFC_DLL@DV?$ChTraitsCRT@D@ATL@@@@@ATL@@KU?$less@V?$CStringT@DV?$StrTraitMFC_DLL@DV?$ChTraitsCRT@D@ATL@@@@@ATL@@@std@@V?$allocator@U?$pair@$$CBV?$CStringT@DV?$StrTraitMFC_DLL@DV?$ChTraitsCRT@D@ATL@@@@@ATL@@K@std@@@4@$0A@@std@@@std@@QAEXXZ 00409690 f i SkinMgr.obj
 0001:00008690       ?_Dec@const_iterator@?$_Tree@V?$_Tmap_traits@V?$CStringT@DV?$StrTraitMFC_DLL@DV?$ChTraitsCRT@D@ATL@@@@@ATL@@PAVCDibBitmap@@U?$less@V?$CStringT@DV?$StrTraitMFC_DLL@DV?$ChTraitsCRT@D@ATL@@@@@ATL@@@std@@V?$allocator@U?$pair@$$CBV?$CStringT@DV?$StrTraitMFC_DLL@DV?$ChTraitsCRT@D@ATL@@@@@ATL@@PAVCDibBitmap@@@std@@@5@$0A@@std@@@std@@QAEXXZ 00409690 f i SkinMgr.obj
 0001:00008690       ?_Dec@const_iterator@?$_Tree@V?$_Tmap_traits@HPAVBaseDialog@@U?$less@H@std@@V?$allocator@U?$pair@$$CBHPAVBaseDialog@@@std@@@3@$0A@@std@@@std@@QAEXXZ 00409690 f i DlgConfig.obj
 0001:00008690       ?_Dec@const_iterator@?$_Tree@V?$_Tmap_traits@KPAVIData@@U?$less@K@std@@V?$allocator@U?$pair@$$CBKPAVIData@@@std@@@3@$0A@@std@@@std@@QAEXXZ 00409690 f i CDataManager.obj
 0001:00008690       ?_Dec@const_iterator@?$_Tree@V?$_Tmap_traits@V?$CStringT@DV?$StrTraitMFC_DLL@DV?$ChTraitsCRT@D@ATL@@@@@ATL@@PAVCSkinButton@@U?$less@V?$CStringT@DV?$StrTraitMFC_DLL@DV?$ChTraitsCRT@D@ATL@@@@@ATL@@@std@@V?$allocator@U?$pair@$$CBV?$CStringT@DV?$StrTraitMFC_DLL@DV?$ChTraitsCRT@D@ATL@@@@@ATL@@PAVCSkinButton@@@std@@@5@$0A@@std@@@std@@QAEXXZ 00409690 f i SkinWnd.obj
 0001:00008770       ??$_Distance@Viterator@?$_Tree@V?$_Tmap_traits@KPAVIData@@U?$less@K@std@@V?$allocator@U?$pair@$$CBKPAVIData@@@std@@@3@$0A@@std@@@std@@I@std@@YAXViterator@?$_Tree@V?$_Tmap_traits@KPAVIData@@U?$less@K@std@@V?$allocator@U?$pair@$$CBKPAVIData@@@std@@@3@$0A@@std@@@0@0AAI@Z 00409770 f i CDataManager.obj
 0001:000087a0       ??$_Iter_cat@Vconst_iterator@?$list@PAUMESSAGE_OBSERVER@@V?$allocator@PAUMESSAGE_OBSERVER@@@std@@@std@@@std@@YA?AUbidirectional_iterator_tag@0@ABVconst_iterator@?$list@PAUMESSAGE_OBSERVER@@V?$allocator@PAUMESSAGE_OBSERVER@@@std@@@0@@Z 004097a0 f i CMessageManager.obj
 0001:000087a0       ??$_Iter_cat@Viterator@?$_Tree@V?$_Tmap_traits@KPAVIData@@U?$less@K@std@@V?$allocator@U?$pair@$$CBKPAVIData@@@std@@@3@$0A@@std@@@std@@@std@@YA?AUbidirectional_iterator_tag@0@ABViterator@?$_Tree@V?$_Tmap_traits@KPAVIData@@U?$less@K@std@@V?$allocator@U?$pair@$$CBKPAVIData@@@std@@@3@$0A@@std@@@0@@Z 004097a0 f i CDataManager.obj
 0001:000087a0       ??$_Iter_cat@Vconst_iterator@?$list@PAVAfxUserConfig_Observer@@V?$allocator@PAVAfxUserConfig_Observer@@@std@@@std@@@std@@YA?AUbidirectional_iterator_tag@0@ABVconst_iterator@?$list@PAVAfxUserConfig_Observer@@V?$allocator@PAVAfxUserConfig_Observer@@@std@@@0@@Z 004097a0 f i AfxUserConfig.obj
 0001:000087b0       ??$_Distance2@Viterator@?$_Tree@V?$_Tmap_traits@KPAVIData@@U?$less@K@std@@V?$allocator@U?$pair@$$CBKPAVIData@@@std@@@3@$0A@@std@@@std@@I@std@@YAXViterator@?$_Tree@V?$_Tmap_traits@KPAVIData@@U?$less@K@std@@V?$allocator@U?$pair@$$CBKPAVIData@@@std@@@3@$0A@@std@@@0@0AAIUbidirectional_iterator_tag@0@@Z 004097b0 f i CDataManager.obj
 0001:000087f0       ?what@logic_error@std@@UBEPBDXZ 004097f0 f i CDataManager.obj
 0001:00008810       ??0length_error@std@@QAE@ABV?$basic_string@DU?$char_traits@D@std@@V?$allocator@D@2@@1@@Z 00409810 f i CDataManager.obj
 0001:00008840       ??0logic_error@std@@QAE@ABV?$basic_string@DU?$char_traits@D@std@@V?$allocator@D@2@@1@@Z 00409840 f i CDataManager.obj
 0001:000088a0       ??_Glogic_error@std@@UAEPAXI@Z 004098a0 f i CDataManager.obj
 0001:000088a0       ??_Elogic_error@std@@UAEPAXI@Z 004098a0 f i CDataManager.obj
 0001:000088d0       ??1logic_error@std@@UAE@XZ 004098d0 f i CDataManager.obj
 0001:00008930       ??1length_error@std@@UAE@XZ 00409930 f i CDataManager.obj
 0001:00008950       ??_Glength_error@std@@UAEPAXI@Z 00409950 f i CDataManager.obj
 0001:00008950       ??_Elength_error@std@@UAEPAXI@Z 00409950 f i CDataManager.obj
 0001:00008980       ??0out_of_range@std@@QAE@ABV?$basic_string@DU?$char_traits@D@std@@V?$allocator@D@2@@1@@Z 00409980 f i CDataManager.obj
 0001:000089b0       ??1out_of_range@std@@UAE@XZ 004099b0 f i CDataManager.obj
 0001:000089d0       ??_Gout_of_range@std@@UAEPAXI@Z 004099d0 f i CDataManager.obj
 0001:000089d0       ??_Eout_of_range@std@@UAEPAXI@Z 004099d0 f i CDataManager.obj
 0001:00008a00       ??1IDataManager@@UAE@XZ    00409a00 f i CDataManager.obj
 0001:00008a20       ??_GIDataManager@@UAEPAXI@Z 00409a20 f i CDataManager.obj
 0001:00008a20       ??_EIDataManager@@UAEPAXI@Z 00409a20 f i CDataManager.obj
 0001:00008a50       ??0out_of_range@std@@QAE@ABV01@@Z 00409a50 f i CDataManager.obj
 0001:00008a80       ??0logic_error@std@@QAE@ABV01@@Z 00409a80 f i CDataManager.obj
 0001:00008af0       ??$swap@D@std@@YAXAAD0@Z   00409af0 f i CDataManager.obj
 0001:00008b20       ??0CMessageManager@@QAE@XZ 00409b20 f   CMessageManager.obj
 0001:00008b90       ??1CMessageManager@@UAE@XZ 00409b90 f   CMessageManager.obj
 0001:00008c00       ?AttachMessage@CMessageManager@@UAEXABKPAVIMessageObserver@@W4MESSAGE_OBSERVER_PRIORITY@@@Z 00409c00 f   CMessageManager.obj
 0001:00008d90       ?DetachMessage@CMessageManager@@UAEXABKPAVIMessageObserver@@@Z 00409d90 f   CMessageManager.obj
 0001:00008e90       ?QueryObservers@CMessageManager@@UAEXABKAAV?$list@PAVIMessageObserver@@V?$allocator@PAVIMessageObserver@@@std@@@std@@@Z 00409e90 f   CMessageManager.obj
 0001:00008f40       ?AttachMessage@CMessageManager@@UAEXABU_GUID@@PAVIMessageObserver@@W4MESSAGE_OBSERVER_PRIORITY@@@Z 00409f40 f   CMessageManager.obj
 0001:00008f70       ?DetachMessage@CMessageManager@@UAEXABU_GUID@@PAVIMessageObserver@@@Z 00409f70 f   CMessageManager.obj
 0001:00008f90       ??1IMessageManager@@UAE@XZ 00409f90 f i CMessageManager.obj
 0001:00008fb0       ??_EIMessageManager@@UAEPAXI@Z 00409fb0 f i CMessageManager.obj
 0001:00008fb0       ??_GIMessageManager@@UAEPAXI@Z 00409fb0 f i CMessageManager.obj
 0001:00008fe0       ??_ECMessageManager@@UAEPAXI@Z 00409fe0 f i CMessageManager.obj
 0001:00008fe0       ??_GCMessageManager@@UAEPAXI@Z 00409fe0 f i CMessageManager.obj
 0001:00009010       ??0IMessageManager@@QAE@XZ 0040a010 f i CMessageManager.obj
 0001:00009030       ??1?$map@KV?$list@PAUMESSAGE_OBSERVER@@V?$allocator@PAUMESSAGE_OBSERVER@@@std@@@std@@U?$less@K@2@V?$allocator@U?$pair@$$CBKV?$list@PAUMESSAGE_OBSERVER@@V?$allocator@PAUMESSAGE_OBSERVER@@@std@@@std@@@std@@@2@@std@@QAE@XZ 0040a030 f i CMessageManager.obj
 0001:00009050       ??0?$map@KV?$list@PAUMESSAGE_OBSERVER@@V?$allocator@PAUMESSAGE_OBSERVER@@@std@@@std@@U?$less@K@2@V?$allocator@U?$pair@$$CBKV?$list@PAUMESSAGE_OBSERVER@@V?$allocator@PAUMESSAGE_OBSERVER@@@std@@@std@@@std@@@2@@std@@QAE@XZ 0040a050 f i CMessageManager.obj
 0001:00009080       ??A?$map@KV?$list@PAUMESSAGE_OBSERVER@@V?$allocator@PAUMESSAGE_OBSERVER@@@std@@@std@@U?$less@K@2@V?$allocator@U?$pair@$$CBKV?$list@PAUMESSAGE_OBSERVER@@V?$allocator@PAUMESSAGE_OBSERVER@@@std@@@std@@@std@@@2@@std@@QAEAAV?$list@PAUMESSAGE_OBSERVER@@V?$allocator@PAUMESSAGE_OBSERVER@@@std@@@1@ABK@Z 0040a080 f i CMessageManager.obj
 0001:00009180       ??1?$_Tree@V?$_Tmap_traits@KV?$list@PAUMESSAGE_OBSERVER@@V?$allocator@PAUMESSAGE_OBSERVER@@@std@@@std@@U?$less@K@2@V?$allocator@U?$pair@$$CBKV?$list@PAUMESSAGE_OBSERVER@@V?$allocator@PAUMESSAGE_OBSERVER@@@std@@@std@@@std@@@2@$0A@@std@@@std@@QAE@XZ 0040a180 f i CMessageManager.obj
 0001:000091a0       ?find@?$_Tree@V?$_Tmap_traits@KV?$list@PAUMESSAGE_OBSERVER@@V?$allocator@PAUMESSAGE_OBSERVER@@@std@@@std@@U?$less@K@2@V?$allocator@U?$pair@$$CBKV?$list@PAUMESSAGE_OBSERVER@@V?$allocator@PAUMESSAGE_OBSERVER@@@std@@@std@@@std@@@2@$0A@@std@@@std@@QAE?AViterator@12@ABK@Z 0040a1a0 f i CMessageManager.obj
 0001:00009230       ??0?$list@PAUMESSAGE_OBSERVER@@V?$allocator@PAUMESSAGE_OBSERVER@@@std@@@std@@QAE@XZ 0040a230 f i CMessageManager.obj
 0001:00009270       ??4?$list@PAUMESSAGE_OBSERVER@@V?$allocator@PAUMESSAGE_OBSERVER@@@std@@@std@@QAEAAV01@ABV01@@Z 0040a270 f i CMessageManager.obj
 0001:000092b0       ?push_back@?$list@PAUMESSAGE_OBSERVER@@V?$allocator@PAUMESSAGE_OBSERVER@@@std@@@std@@QAEXABQAUMESSAGE_OBSERVER@@@Z 0040a2b0 f i CMessageManager.obj
 0001:000092b0       ?push_back@?$list@PAVIMessageObserver@@V?$allocator@PAVIMessageObserver@@@std@@@std@@QAEXABQAVIMessageObserver@@@Z 0040a2b0 f i CMessageManager.obj
 0001:000092e0       ?insert@?$list@PAUMESSAGE_OBSERVER@@V?$allocator@PAUMESSAGE_OBSERVER@@@std@@@std@@QAE?AViterator@12@V312@ABQAUMESSAGE_OBSERVER@@@Z 0040a2e0 f i CMessageManager.obj
 0001:00009310       ??Eiterator@?$list@PAVAfxUserConfig_Observer@@V?$allocator@PAVAfxUserConfig_Observer@@@std@@@std@@QAE?AV012@H@Z 0040a310 f i AfxUserConfig.obj
 0001:00009310       ??Eiterator@?$list@PAUMESSAGE_OBSERVER@@V?$allocator@PAUMESSAGE_OBSERVER@@@std@@@std@@QAE?AV012@H@Z 0040a310 f i CMessageManager.obj
 0001:00009310       ??Eiterator@?$list@PAVIMessageObserver@@V?$allocator@PAVIMessageObserver@@@std@@@std@@QAE?AV012@H@Z 0040a310 f i PlayBoxDlg.obj
 0001:00009310       ??Eiterator@?$list@PAVCSkinButton@@V?$allocator@PAVCSkinButton@@@std@@@std@@QAE?AV012@H@Z 0040a310 f i SkinWnd.obj
 0001:00009310       ??Eiterator@?$list@PAVCSubLabel@@V?$allocator@PAVCSubLabel@@@std@@@std@@QAE?AV012@H@Z 0040a310 f i SubjectChildWnd.obj
 0001:00009340       ??1?$pair@$$CBKV?$list@PAUMESSAGE_OBSERVER@@V?$allocator@PAUMESSAGE_OBSERVER@@@std@@@std@@@std@@QAE@XZ 0040a340 f i CMessageManager.obj
 0001:00009360       ??0?$_Tree@V?$_Tmap_traits@KV?$list@PAUMESSAGE_OBSERVER@@V?$allocator@PAUMESSAGE_OBSERVER@@@std@@@std@@U?$less@K@2@V?$allocator@U?$pair@$$CBKV?$list@PAUMESSAGE_OBSERVER@@V?$allocator@PAUMESSAGE_OBSERVER@@@std@@@std@@@std@@@2@$0A@@std@@@std@@QAE@ABU?$less@K@1@ABV?$allocator@U?$pair@$$CBKV?$list@PAUMESSAGE_OBSERVER@@V?$allocator@PAUMESSAGE_OBSERVER@@@std@@@std@@@std@@@1@@Z 0040a360 f i CMessageManager.obj
 0001:000093a0       ?insert@?$_Tree@V?$_Tmap_traits@KV?$list@PAUMESSAGE_OBSERVER@@V?$allocator@PAUMESSAGE_OBSERVER@@@std@@@std@@U?$less@K@2@V?$allocator@U?$pair@$$CBKV?$list@PAUMESSAGE_OBSERVER@@V?$allocator@PAUMESSAGE_OBSERVER@@@std@@@std@@@std@@@2@$0A@@std@@@std@@QAE?AViterator@12@V312@ABU?$pair@$$CBKV?$list@PAUMESSAGE_OBSERVER@@V?$allocator@PAUMESSAGE_OBSERVER@@@std@@@std@@@2@@Z 0040a3a0 f i CMessageManager.obj
 0001:00009970       ?lower_bound@?$_Tree@V?$_Tmap_traits@KV?$list@PAUMESSAGE_OBSERVER@@V?$allocator@PAUMESSAGE_OBSERVER@@@std@@@std@@U?$less@K@2@V?$allocator@U?$pair@$$CBKV?$list@PAUMESSAGE_OBSERVER@@V?$allocator@PAUMESSAGE_OBSERVER@@@std@@@std@@@std@@@2@$0A@@std@@@std@@QAE?AViterator@12@ABK@Z 0040a970 f i CMessageManager.obj
 0001:000099a0       ?_Tidy@?$_Tree@V?$_Tmap_traits@KV?$list@PAUMESSAGE_OBSERVER@@V?$allocator@PAUMESSAGE_OBSERVER@@@std@@@std@@U?$less@K@2@V?$allocator@U?$pair@$$CBKV?$list@PAUMESSAGE_OBSERVER@@V?$allocator@PAUMESSAGE_OBSERVER@@@std@@@std@@@std@@@2@$0A@@std@@@std@@IAEXXZ 0040a9a0 f i CMessageManager.obj
 0001:00009a50       ?begin@?$list@PAVAfxUserConfig_Observer@@V?$allocator@PAVAfxUserConfig_Observer@@@std@@@std@@QBE?AVconst_iterator@12@XZ 0040aa50 f i AfxUserConfig.obj
 0001:00009a50       ?begin@?$list@PAUMESSAGE_OBSERVER@@V?$allocator@PAUMESSAGE_OBSERVER@@@std@@@std@@QBE?AVconst_iterator@12@XZ 0040aa50 f i CMessageManager.obj
 0001:00009a80       ?_Insert@?$list@PAUMESSAGE_OBSERVER@@V?$allocator@PAUMESSAGE_OBSERVER@@@std@@@std@@QAEXViterator@12@ABQAUMESSAGE_OBSERVER@@@Z 0040aa80 f i CMessageManager.obj
 0001:00009a80       ?_Insert@?$list@PAVIMessageObserver@@V?$allocator@PAVIMessageObserver@@@std@@@std@@QAEXViterator@12@ABQAVIMessageObserver@@@Z 0040aa80 f i CMessageManager.obj
 0001:00009b00       ?_Buynode@?$list@PAUMESSAGE_OBSERVER@@V?$allocator@PAUMESSAGE_OBSERVER@@@std@@@std@@IAEPAU_Node@?$_List_nod@PAUMESSAGE_OBSERVER@@V?$allocator@PAUMESSAGE_OBSERVER@@@std@@@2@XZ 0040ab00 f i CMessageManager.obj
 0001:00009be0       ??0?$_List_val@PAVCSubLabel@@V?$allocator@PAVCSubLabel@@@std@@@std@@IAE@V?$allocator@PAVCSubLabel@@@1@@Z 0040abe0 f i SubjectChildWnd.obj
 0001:00009be0       ??0?$_List_val@PAUMESSAGE_OBSERVER@@V?$allocator@PAUMESSAGE_OBSERVER@@@std@@@std@@IAE@V?$allocator@PAUMESSAGE_OBSERVER@@@1@@Z 0040abe0 f i CMessageManager.obj
 0001:00009be0       ??0?$_List_val@PAVCSkinButton@@V?$allocator@PAVCSkinButton@@@std@@@std@@IAE@V?$allocator@PAVCSkinButton@@@1@@Z 0040abe0 f i SkinWnd.obj
 0001:00009be0       ??0?$_List_val@PAVIMessageObserver@@V?$allocator@PAVIMessageObserver@@@std@@@std@@IAE@V?$allocator@PAVIMessageObserver@@@1@@Z 0040abe0 f i PlayBoxDlg.obj
 0001:00009be0       ??0?$_List_val@PAVAfxUserConfig_Observer@@V?$allocator@PAVAfxUserConfig_Observer@@@std@@@std@@IAE@V?$allocator@PAVAfxUserConfig_Observer@@@1@@Z 0040abe0 f i AfxUserConfig.obj
 0001:00009c20       ??0?$pair@$$CBKV?$list@PAUMESSAGE_OBSERVER@@V?$allocator@PAUMESSAGE_OBSERVER@@@std@@@std@@@std@@QAE@ABKABV?$list@PAUMESSAGE_OBSERVER@@V?$allocator@PAUMESSAGE_OBSERVER@@@std@@@1@@Z 0040ac20 f i CMessageManager.obj
 0001:00009c50       ?_Isnil@?$_Tree@V?$_Tmap_traits@KV?$list@PAUMESSAGE_OBSERVER@@V?$allocator@PAUMESSAGE_OBSERVER@@@std@@@std@@U?$less@K@2@V?$allocator@U?$pair@$$CBKV?$list@PAUMESSAGE_OBSERVER@@V?$allocator@PAUMESSAGE_OBSERVER@@@std@@@std@@@std@@@2@$0A@@std@@@std@@KAAADPAU_Node@?$_Tree_nod@V?$_Tmap_traits@KV?$list@PAUMESSAGE_OBSERVER@@V?$allocator@PAUMESSAGE_OBSERVER@@@std@@@std@@U?$less@K@2@V?$allocator@U?$pair@$$CBKV?$list@PAUMESSAGE_OBSERVER@@V?$allocator@PAUMESSAGE_OBSERVER@@@std@@@std@@@std@@@2@$0A@@std@@@2@@Z 0040ac50 f i CMessageManager.obj
 0001:00009c60       ?_Myval@?$_Tree@V?$_Tmap_traits@V?$CStringT@DV?$StrTraitMFC_DLL@DV?$ChTraitsCRT@D@ATL@@@@@ATL@@PAVCDibBitmap@@U?$less@V?$CStringT@DV?$StrTraitMFC_DLL@DV?$ChTraitsCRT@D@ATL@@@@@ATL@@@std@@V?$allocator@U?$pair@$$CBV?$CStringT@DV?$StrTraitMFC_DLL@DV?$ChTraitsCRT@D@ATL@@@@@ATL@@PAVCDibBitmap@@@std@@@5@$0A@@std@@@std@@KAAAU?$pair@$$CBV?$CStringT@DV?$StrTraitMFC_DLL@DV?$ChTraitsCRT@D@ATL@@@@@ATL@@PAVCDibBitmap@@@2@PAU_Node@?$_Tree_nod@V?$_Tmap_traits@V?$CStringT@DV?$StrTraitMFC_DLL@DV?$ChTraitsCRT@D@ATL@@@@@ATL@@PAVCDibBitmap@@U?$less@V?$CStringT@DV?$StrTraitMFC_DLL@DV?$ChTraitsCRT@D@ATL@@@@@ATL@@@std@@V?$allocator@U?$pair@$$CBV?$CStringT@DV?$StrTraitMFC_DLL@DV?$ChTraitsCRT@D@ATL@@@@@ATL@@PAVCDibBitmap@@@std@@@5@$0A@@std@@@2@@Z 0040ac60 f i SkinMgr.obj
 0001:00009c60       ?_Myval@?$_Tree@V?$_Tmap_traits@V?$basic_string@DU?$char_traits@D@std@@V?$allocator@D@2@@std@@V?$list@PAVAfxUserConfig_Observer@@V?$allocator@PAVAfxUserConfig_Observer@@@std@@@2@U?$less@V?$basic_string@DU?$char_traits@D@std@@V?$allocator@D@2@@std@@@2@V?$allocator@U?$pair@$$CBV?$basic_string@DU?$char_traits@D@std@@V?$allocator@D@2@@std@@V?$list@PAVAfxUserConfig_Observer@@V?$allocator@PAVAfxUserConfig_Observer@@@std@@@2@@std@@@2@$0A@@std@@@std@@KAAAU?$pair@$$CBV?$basic_string@DU?$char_traits@D@std@@V?$allocator@D@2@@std@@V?$list@PAVAfxUserConfig_Observer@@V?$allocator@PAVAfxUserConfig_Observer@@@std@@@2@@2@PAU_Node@?$_Tree_nod@V?$_Tmap_traits@V?$basic_string@DU?$char_traits@D@std@@V?$allocator@D@2@@std@@V?$list@PAVAfxUserConfig_Observer@@V?$allocator@PAVAfxUserConfig_Observer@@@std@@@2@U?$less@V?$basic_string@DU?$char_traits@D@std@@V?$allocator@D@2@@std@@@2@V?$allocator@U?$pair@$$CBV?$basic_string@DU?$char_traits@D@std@@V?$allocator@D@2@@std@@V?$list@PAVAfxUserConfig_Observer@@V?$allocator@PAVAfxUserConfig_Observer@@@std@@@2@@std@@@2@$0A@@std@@@2@@Z 0040ac60 f i AfxUserConfig.obj
 0001:00009c60       ?_Myval@?$_Tree@V?$_Tmap_traits@HUMYLIST_COLUMN_INFO@@U?$less@H@std@@V?$allocator@U?$pair@$$CBHUMYLIST_COLUMN_INFO@@@std@@@3@$0A@@std@@@std@@KAAAU?$pair@$$CBHUMYLIST_COLUMN_INFO@@@2@PAU_Node@?$_Tree_nod@V?$_Tmap_traits@HUMYLIST_COLUMN_INFO@@U?$less@H@std@@V?$allocator@U?$pair@$$CBHUMYLIST_COLUMN_INFO@@@std@@@3@$0A@@std@@@2@@Z 0040ac60 f i MyListCtrl.obj
 0001:00009c60       ?_Myval@?$_Tree@V?$_Tmap_traits@V?$basic_string@DU?$char_traits@D@std@@V?$allocator@D@2@@std@@PAVCConfigObject@@U?$less@V?$basic_string@DU?$char_traits@D@std@@V?$allocator@D@2@@std@@@2@V?$allocator@U?$pair@$$CBV?$basic_string@DU?$char_traits@D@std@@V?$allocator@D@2@@std@@PAVCConfigObject@@@std@@@2@$0A@@std@@@std@@KAAAU?$pair@$$CBV?$basic_string@DU?$char_traits@D@std@@V?$allocator@D@2@@std@@PAVCConfigObject@@@2@PAU_Node@?$_Tree_nod@V?$_Tmap_traits@V?$basic_string@DU?$char_traits@D@std@@V?$allocator@D@2@@std@@PAVCConfigObject@@U?$less@V?$basic_string@DU?$char_traits@D@std@@V?$allocator@D@2@@std@@@2@V?$allocator@U?$pair@$$CBV?$basic_string@DU?$char_traits@D@std@@V?$allocator@D@2@@std@@PAVCConfigObject@@@std@@@2@$0A@@std@@@2@@Z 0040ac60 f i AfxUserConfig.obj
 0001:00009c60       ?_Myval@?$_Tree@V?$_Tmap_traits@PAUHWND__@@UCWndData@@U?$less@PAUHWND__@@@std@@V?$allocator@U?$pair@QAUHWND__@@UCWndData@@@std@@@4@$0A@@std@@@std@@KAAAU?$pair@QAUHWND__@@UCWndData@@@2@PAU_Node@?$_Tree_nod@V?$_Tmap_traits@PAUHWND__@@UCWndData@@U?$less@PAUHWND__@@@std@@V?$allocator@U?$pair@QAUHWND__@@UCWndData@@@std@@@4@$0A@@std@@@2@@Z 0040ac60 f i HostWndMgr.obj
 0001:00009c60       ?_Myval@?$_Tree@V?$_Tmap_traits@KV?$list@PAUMESSAGE_OBSERVER@@V?$allocator@PAUMESSAGE_OBSERVER@@@std@@@std@@U?$less@K@2@V?$allocator@U?$pair@$$CBKV?$list@PAUMESSAGE_OBSERVER@@V?$allocator@PAUMESSAGE_OBSERVER@@@std@@@std@@@std@@@2@$0A@@std@@@std@@KAAAU?$pair@$$CBKV?$list@PAUMESSAGE_OBSERVER@@V?$allocator@PAUMESSAGE_OBSERVER@@@std@@@std@@@2@PAU_Node@?$_Tree_nod@V?$_Tmap_traits@KV?$list@PAUMESSAGE_OBSERVER@@V?$allocator@PAUMESSAGE_OBSERVER@@@std@@@std@@U?$less@K@2@V?$allocator@U?$pair@$$CBKV?$list@PAUMESSAGE_OBSERVER@@V?$allocator@PAUMESSAGE_OBSERVER@@@std@@@std@@@std@@@2@$0A@@std@@@2@@Z 0040ac60 f i CMessageManager.obj
 0001:00009c60       ?_Myval@?$_Tree@V?$_Tmap_traits@KPAVIData@@U?$less@K@std@@V?$allocator@U?$pair@$$CBKPAVIData@@@std@@@3@$0A@@std@@@std@@KAAAU?$pair@$$CBKPAVIData@@@2@PAU_Node@?$_Tree_nod@V?$_Tmap_traits@KPAVIData@@U?$less@K@std@@V?$allocator@U?$pair@$$CBKPAVIData@@@std@@@3@$0A@@std@@@2@@Z 0040ac60 f i CDataManager.obj
 0001:00009c60       ?_Myval@?$_Tree@V?$_Tmap_traits@V?$basic_string@DU?$char_traits@D@std@@V?$allocator@D@2@@std@@V12@U?$less@V?$basic_string@DU?$char_traits@D@std@@V?$allocator@D@2@@std@@@2@V?$allocator@U?$pair@$$CBV?$basic_string@DU?$char_traits@D@std@@V?$allocator@D@2@@std@@V12@@std@@@2@$0A@@std@@@std@@KAAAU?$pair@$$CBV?$basic_string@DU?$char_traits@D@std@@V?$allocator@D@2@@std@@V12@@2@PAU_Node@?$_Tree_nod@V?$_Tmap_traits@V?$basic_string@DU?$char_traits@D@std@@V?$allocator@D@2@@std@@V12@U?$less@V?$basic_string@DU?$char_traits@D@std@@V?$allocator@D@2@@std@@@2@V?$allocator@U?$pair@$$CBV?$basic_string@DU?$char_traits@D@std@@V?$allocator@D@2@@std@@V12@@std@@@2@$0A@@std@@@2@@Z 0040ac60 f i AfxUserConfig.obj
 0001:00009c60       ?_Myval@?$_Tree@V?$_Tmap_traits@PAUHWND__@@UWndMoveData@@U?$less@PAUHWND__@@@std@@V?$allocator@U?$pair@QAUHWND__@@UWndMoveData@@@std@@@4@$0A@@std@@@std@@KAAAU?$pair@QAUHWND__@@UWndMoveData@@@2@PAU_Node@?$_Tree_nod@V?$_Tmap_traits@PAUHWND__@@UWndMoveData@@U?$less@PAUHWND__@@@std@@V?$allocator@U?$pair@QAUHWND__@@UWndMoveData@@@std@@@4@$0A@@std@@@2@@Z 0040ac60 f i WindowsMover.obj
 0001:00009c60       ?_Myval@?$_Tree@V?$_Tmap_traits@V?$CStringT@DV?$StrTraitMFC_DLL@DV?$ChTraitsCRT@D@ATL@@@@@ATL@@KU?$less@V?$CStringT@DV?$StrTraitMFC_DLL@DV?$ChTraitsCRT@D@ATL@@@@@ATL@@@std@@V?$allocator@U?$pair@$$CBV?$CStringT@DV?$StrTraitMFC_DLL@DV?$ChTraitsCRT@D@ATL@@@@@ATL@@K@std@@@4@$0A@@std@@@std@@KAAAU?$pair@$$CBV?$CStringT@DV?$StrTraitMFC_DLL@DV?$ChTraitsCRT@D@ATL@@@@@ATL@@K@2@PAU_Node@?$_Tree_nod@V?$_Tmap_traits@V?$CStringT@DV?$StrTraitMFC_DLL@DV?$ChTraitsCRT@D@ATL@@@@@ATL@@KU?$less@V?$CStringT@DV?$StrTraitMFC_DLL@DV?$ChTraitsCRT@D@ATL@@@@@ATL@@@std@@V?$allocator@U?$pair@$$CBV?$CStringT@DV?$StrTraitMFC_DLL@DV?$ChTraitsCRT@D@ATL@@@@@ATL@@K@std@@@4@$0A@@std@@@2@@Z 0040ac60 f i SkinMgr.obj
 0001:00009c60       ?_Myval@?$_Tree@V?$_Tmap_traits@V?$basic_string@DU?$char_traits@D@std@@V?$allocator@D@2@@std@@PAVYL_CHTTPDownFile@@U?$less@V?$basic_string@DU?$char_traits@D@std@@V?$allocator@D@2@@std@@@2@V?$allocator@U?$pair@$$CBV?$basic_string@DU?$char_traits@D@std@@V?$allocator@D@2@@std@@PAVYL_CHTTPDownFile@@@std@@@2@$0A@@std@@@std@@KAAAU?$pair@$$CBV?$basic_string@DU?$char_traits@D@std@@V?$allocator@D@2@@std@@PAVYL_CHTTPDownFile@@@2@PAU_Node@?$_Tree_nod@V?$_Tmap_traits@V?$basic_string@DU?$char_traits@D@std@@V?$allocator@D@2@@std@@PAVYL_CHTTPDownFile@@U?$less@V?$basic_string@DU?$char_traits@D@std@@V?$allocator@D@2@@std@@@2@V?$allocator@U?$pair@$$CBV?$basic_string@DU?$char_traits@D@std@@V?$allocator@D@2@@std@@PAVYL_CHTTPDownFile@@@std@@@2@$0A@@std@@@2@@Z 0040ac60 f i HttpDownCtrl.obj
 0001:00009c60       ?_Myval@?$_Tree@V?$_Tmap_traits@HPAVBaseDialog@@U?$less@H@std@@V?$allocator@U?$pair@$$CBHPAVBaseDialog@@@std@@@3@$0A@@std@@@std@@KAAAU?$pair@$$CBHPAVBaseDialog@@@2@PAU_Node@?$_Tree_nod@V?$_Tmap_traits@HPAVBaseDialog@@U?$less@H@std@@V?$allocator@U?$pair@$$CBHPAVBaseDialog@@@std@@@3@$0A@@std@@@2@@Z 0040ac60 f i DlgConfig.obj
 0001:00009c60       ?_Myval@?$_Tree@V?$_Tmap_traits@V?$CStringT@DV?$StrTraitMFC_DLL@DV?$ChTraitsCRT@D@ATL@@@@@ATL@@PAVCSkinButton@@U?$less@V?$CStringT@DV?$StrTraitMFC_DLL@DV?$ChTraitsCRT@D@ATL@@@@@ATL@@@std@@V?$allocator@U?$pair@$$CBV?$CStringT@DV?$StrTraitMFC_DLL@DV?$ChTraitsCRT@D@ATL@@@@@ATL@@PAVCSkinButton@@@std@@@5@$0A@@std@@@std@@KAAAU?$pair@$$CBV?$CStringT@DV?$StrTraitMFC_DLL@DV?$ChTraitsCRT@D@ATL@@@@@ATL@@PAVCSkinButton@@@2@PAU_Node@?$_Tree_nod@V?$_Tmap_traits@V?$CStringT@DV?$StrTraitMFC_DLL@DV?$ChTraitsCRT@D@ATL@@@@@ATL@@PAVCSkinButton@@U?$less@V?$CStringT@DV?$StrTraitMFC_DLL@DV?$ChTraitsCRT@D@ATL@@@@@ATL@@@std@@V?$allocator@U?$pair@$$CBV?$CStringT@DV?$StrTraitMFC_DLL@DV?$ChTraitsCRT@D@ATL@@@@@ATL@@PAVCSkinButton@@@std@@@5@$0A@@std@@@2@@Z 0040ac60 f i SkinWnd.obj
 0001:00009c60       ?_Myval@?$_Tree@V?$_Tmap_traits@V?$basic_string@DU?$char_traits@D@std@@V?$allocator@D@2@@std@@HU?$less@V?$basic_string@DU?$char_traits@D@std@@V?$allocator@D@2@@std@@@2@V?$allocator@U?$pair@$$CBV?$basic_string@DU?$char_traits@D@std@@V?$allocator@D@2@@std@@H@std@@@2@$0A@@std@@@std@@KAAAU?$pair@$$CBV?$basic_string@DU?$char_traits@D@std@@V?$allocator@D@2@@std@@H@2@PAU_Node@?$_Tree_nod@V?$_Tmap_traits@V?$basic_string@DU?$char_traits@D@std@@V?$allocator@D@2@@std@@HU?$less@V?$basic_string@DU?$char_traits@D@std@@V?$allocator@D@2@@std@@@2@V?$allocator@U?$pair@$$CBV?$basic_string@DU?$char_traits@D@std@@V?$allocator@D@2@@std@@H@std@@@2@$0A@@std@@@2@@Z 0040ac60 f i MyTreeCtrl.obj
 0001:00009c60       ?_Myval@?$_Tree@V?$_Tmap_traits@V?$basic_string@DU?$char_traits@D@std@@V?$allocator@D@2@@std@@_NU?$less@V?$basic_string@DU?$char_traits@D@std@@V?$allocator@D@2@@std@@@2@V?$allocator@U?$pair@$$CBV?$basic_string@DU?$char_traits@D@std@@V?$allocator@D@2@@std@@_N@std@@@2@$0A@@std@@@std@@KAAAU?$pair@$$CBV?$basic_string@DU?$char_traits@D@std@@V?$allocator@D@2@@std@@_N@2@PAU_Node@?$_Tree_nod@V?$_Tmap_traits@V?$basic_string@DU?$char_traits@D@std@@V?$allocator@D@2@@std@@_NU?$less@V?$basic_string@DU?$char_traits@D@std@@V?$allocator@D@2@@std@@@2@V?$allocator@U?$pair@$$CBV?$basic_string@DU?$char_traits@D@std@@V?$allocator@D@2@@std@@_N@std@@@2@$0A@@std@@@2@@Z 0040ac60 f i AfxUserConfig.obj
 0001:00009c70       ?insert@?$_Tree@V?$_Tmap_traits@KV?$list@PAUMESSAGE_OBSERVER@@V?$allocator@PAUMESSAGE_OBSERVER@@@std@@@std@@U?$less@K@2@V?$allocator@U?$pair@$$CBKV?$list@PAUMESSAGE_OBSERVER@@V?$allocator@PAUMESSAGE_OBSERVER@@@std@@@std@@@std@@@2@$0A@@std@@@std@@QAE?AU?$pair@Viterator@?$_Tree@V?$_Tmap_traits@KV?$list@PAUMESSAGE_OBSERVER@@V?$allocator@PAUMESSAGE_OBSERVER@@@std@@@std@@U?$less@K@2@V?$allocator@U?$pair@$$CBKV?$list@PAUMESSAGE_OBSERVER@@V?$allocator@PAUMESSAGE_OBSERVER@@@std@@@std@@@std@@@2@$0A@@std@@@std@@_N@2@ABU?$pair@$$CBKV?$list@PAUMESSAGE_OBSERVER@@V?$allocator@PAUMESSAGE_OBSERVER@@@std@@@std@@@2@@Z 0040ac70 f i CMessageManager.obj
 0001:00009e20       ?erase@?$_Tree@V?$_Tmap_traits@KV?$list@PAUMESSAGE_OBSERVER@@V?$allocator@PAUMESSAGE_OBSERVER@@@std@@@std@@U?$less@K@2@V?$allocator@U?$pair@$$CBKV?$list@PAUMESSAGE_OBSERVER@@V?$allocator@PAUMESSAGE_OBSERVER@@@std@@@std@@@std@@@2@$0A@@std@@@std@@QAE?AViterator@12@V312@0@Z 0040ae20 f i CMessageManager.obj
 0001:00009ec0       ?_Init@?$_Tree@V?$_Tmap_traits@KV?$list@PAUMESSAGE_OBSERVER@@V?$allocator@PAUMESSAGE_OBSERVER@@@std@@@std@@U?$less@K@2@V?$allocator@U?$pair@$$CBKV?$list@PAUMESSAGE_OBSERVER@@V?$allocator@PAUMESSAGE_OBSERVER@@@std@@@std@@@std@@@2@$0A@@std@@@std@@IAEXXZ 0040aec0 f i CMessageManager.obj
 0001:00009f30       ?_Insert@?$_Tree@V?$_Tmap_traits@KV?$list@PAUMESSAGE_OBSERVER@@V?$allocator@PAUMESSAGE_OBSERVER@@@std@@@std@@U?$less@K@2@V?$allocator@U?$pair@$$CBKV?$list@PAUMESSAGE_OBSERVER@@V?$allocator@PAUMESSAGE_OBSERVER@@@std@@@std@@@std@@@2@$0A@@std@@@std@@IAE?AViterator@12@_NPAU_Node@?$_Tree_nod@V?$_Tmap_traits@KV?$list@PAUMESSAGE_OBSERVER@@V?$allocator@PAUMESSAGE_OBSERVER@@@std@@@std@@U?$less@K@2@V?$allocator@U?$pair@$$CBKV?$list@PAUMESSAGE_OBSERVER@@V?$allocator@PAUMESSAGE_OBSERVER@@@std@@@std@@@std@@@2@$0A@@std@@@2@ABU?$pair@$$CBKV?$list@PAUMESSAGE_OBSERVER@@V?$allocator@PAUMESSAGE_OBSERVER@@@std@@@std@@@2@@Z 0040af30 f i CMessageManager.obj
 0001:0000a390       ?_Lbound@?$_Tree@V?$_Tmap_traits@KV?$list@PAUMESSAGE_OBSERVER@@V?$allocator@PAUMESSAGE_OBSERVER@@@std@@@std@@U?$less@K@2@V?$allocator@U?$pair@$$CBKV?$list@PAUMESSAGE_OBSERVER@@V?$allocator@PAUMESSAGE_OBSERVER@@@std@@@std@@@std@@@2@$0A@@std@@@std@@IBEPAU_Node@?$_Tree_nod@V?$_Tmap_traits@KV?$list@PAUMESSAGE_OBSERVER@@V?$allocator@PAUMESSAGE_OBSERVER@@@std@@@std@@U?$less@K@2@V?$allocator@U?$pair@$$CBKV?$list@PAUMESSAGE_OBSERVER@@V?$allocator@PAUMESSAGE_OBSERVER@@@std@@@std@@@std@@@2@$0A@@std@@@2@ABK@Z 0040b390 f i CMessageManager.obj
 0001:0000a420       ??Eiterator@?$_Tree@V?$_Tmap_traits@KV?$list@PAUMESSAGE_OBSERVER@@V?$allocator@PAUMESSAGE_OBSERVER@@@std@@@std@@U?$less@K@2@V?$allocator@U?$pair@$$CBKV?$list@PAUMESSAGE_OBSERVER@@V?$allocator@PAUMESSAGE_OBSERVER@@@std@@@std@@@std@@@2@$0A@@std@@@std@@QAEAAV012@XZ 0040b420 f i CMessageManager.obj
 0001:0000a440       ??Fiterator@?$_Tree@V?$_Tmap_traits@KV?$list@PAUMESSAGE_OBSERVER@@V?$allocator@PAUMESSAGE_OBSERVER@@@std@@@std@@U?$less@K@2@V?$allocator@U?$pair@$$CBKV?$list@PAUMESSAGE_OBSERVER@@V?$allocator@PAUMESSAGE_OBSERVER@@@std@@@std@@@std@@@2@$0A@@std@@@std@@QAEAAV012@XZ 0040b440 f i CMessageManager.obj
 0001:0000a460       ??0?$list@PAUMESSAGE_OBSERVER@@V?$allocator@PAUMESSAGE_OBSERVER@@@std@@@std@@QAE@ABV01@@Z 0040b460 f i CMessageManager.obj
 0001:0000a540       ?_Buynode@?$list@PAUMESSAGE_OBSERVER@@V?$allocator@PAUMESSAGE_OBSERVER@@@std@@@std@@IAEPAU_Node@?$_List_nod@PAUMESSAGE_OBSERVER@@V?$allocator@PAUMESSAGE_OBSERVER@@@std@@@2@PAU342@0ABQAUMESSAGE_OBSERVER@@@Z 0040b540 f i CMessageManager.obj
 0001:0000a540       ?_Buynode@?$list@PAVIMessageObserver@@V?$allocator@PAVIMessageObserver@@@std@@@std@@IAEPAU_Node@?$_List_nod@PAVIMessageObserver@@V?$allocator@PAVIMessageObserver@@@std@@@2@PAU342@0ABQAVIMessageObserver@@@Z 0040b540 f i CMessageManager.obj
 0001:0000a600       ?_Incsize@?$list@PAUMESSAGE_OBSERVER@@V?$allocator@PAUMESSAGE_OBSERVER@@@std@@@std@@IAEXI@Z 0040b600 f i CMessageManager.obj
 0001:0000a600       ?_Incsize@?$list@PAVIMessageObserver@@V?$allocator@PAVIMessageObserver@@@std@@@std@@IAEXI@Z 0040b600 f i CMessageManager.obj
 0001:0000a680       ?_Color@?$_Tree@V?$_Tmap_traits@KV?$list@PAUMESSAGE_OBSERVER@@V?$allocator@PAUMESSAGE_OBSERVER@@@std@@@std@@U?$less@K@2@V?$allocator@U?$pair@$$CBKV?$list@PAUMESSAGE_OBSERVER@@V?$allocator@PAUMESSAGE_OBSERVER@@@std@@@std@@@std@@@2@$0A@@std@@@std@@KAAADPAU_Node@?$_Tree_nod@V?$_Tmap_traits@KV?$list@PAUMESSAGE_OBSERVER@@V?$allocator@PAUMESSAGE_OBSERVER@@@std@@@std@@U?$less@K@2@V?$allocator@U?$pair@$$CBKV?$list@PAUMESSAGE_OBSERVER@@V?$allocator@PAUMESSAGE_OBSERVER@@@std@@@std@@@std@@@2@$0A@@std@@@2@@Z 0040b680 f i CMessageManager.obj
 0001:0000a690       ?max_size@?$_Tree@V?$_Tmap_traits@KV?$list@PAUMESSAGE_OBSERVER@@V?$allocator@PAUMESSAGE_OBSERVER@@@std@@@std@@U?$less@K@2@V?$allocator@U?$pair@$$CBKV?$list@PAUMESSAGE_OBSERVER@@V?$allocator@PAUMESSAGE_OBSERVER@@@std@@@std@@@std@@@2@$0A@@std@@@std@@QBEIXZ 0040b690 f i CMessageManager.obj
 0001:0000a6b0       ?erase@?$_Tree@V?$_Tmap_traits@KV?$list@PAUMESSAGE_OBSERVER@@V?$allocator@PAUMESSAGE_OBSERVER@@@std@@@std@@U?$less@K@2@V?$allocator@U?$pair@$$CBKV?$list@PAUMESSAGE_OBSERVER@@V?$allocator@PAUMESSAGE_OBSERVER@@@std@@@std@@@std@@@2@$0A@@std@@@std@@QAE?AViterator@12@V312@@Z 0040b6b0 f i CMessageManager.obj
 0001:0000ae60       ?clear@?$_Tree@V?$_Tmap_traits@KV?$list@PAUMESSAGE_OBSERVER@@V?$allocator@PAUMESSAGE_OBSERVER@@@std@@@std@@U?$less@K@2@V?$allocator@U?$pair@$$CBKV?$list@PAUMESSAGE_OBSERVER@@V?$allocator@PAUMESSAGE_OBSERVER@@@std@@@std@@@std@@@2@$0A@@std@@@std@@QAEXXZ 0040be60 f i CMessageManager.obj
 0001:0000aec0       ?_Lrotate@?$_Tree@V?$_Tmap_traits@KV?$list@PAUMESSAGE_OBSERVER@@V?$allocator@PAUMESSAGE_OBSERVER@@@std@@@std@@U?$less@K@2@V?$allocator@U?$pair@$$CBKV?$list@PAUMESSAGE_OBSERVER@@V?$allocator@PAUMESSAGE_OBSERVER@@@std@@@std@@@std@@@2@$0A@@std@@@std@@IAEXPAU_Node@?$_Tree_nod@V?$_Tmap_traits@KV?$list@PAUMESSAGE_OBSERVER@@V?$allocator@PAUMESSAGE_OBSERVER@@@std@@@std@@U?$less@K@2@V?$allocator@U?$pair@$$CBKV?$list@PAUMESSAGE_OBSERVER@@V?$allocator@PAUMESSAGE_OBSERVER@@@std@@@std@@@std@@@2@$0A@@std@@@2@@Z 0040bec0 f i CMessageManager.obj
 0001:0000aff0       ?_Rrotate@?$_Tree@V?$_Tmap_traits@KV?$list@PAUMESSAGE_OBSERVER@@V?$allocator@PAUMESSAGE_OBSERVER@@@std@@@std@@U?$less@K@2@V?$allocator@U?$pair@$$CBKV?$list@PAUMESSAGE_OBSERVER@@V?$allocator@PAUMESSAGE_OBSERVER@@@std@@@std@@@std@@@2@$0A@@std@@@std@@IAEXPAU_Node@?$_Tree_nod@V?$_Tmap_traits@KV?$list@PAUMESSAGE_OBSERVER@@V?$allocator@PAUMESSAGE_OBSERVER@@@std@@@std@@U?$less@K@2@V?$allocator@U?$pair@$$CBKV?$list@PAUMESSAGE_OBSERVER@@V?$allocator@PAUMESSAGE_OBSERVER@@@std@@@std@@@std@@@2@$0A@@std@@@2@@Z 0040bff0 f i CMessageManager.obj
 0001:0000b120       ?_Buynode@?$_Tree@V?$_Tmap_traits@KV?$list@PAUMESSAGE_OBSERVER@@V?$allocator@PAUMESSAGE_OBSERVER@@@std@@@std@@U?$less@K@2@V?$allocator@U?$pair@$$CBKV?$list@PAUMESSAGE_OBSERVER@@V?$allocator@PAUMESSAGE_OBSERVER@@@std@@@std@@@std@@@2@$0A@@std@@@std@@IAEPAU_Node@?$_Tree_nod@V?$_Tmap_traits@KV?$list@PAUMESSAGE_OBSERVER@@V?$allocator@PAUMESSAGE_OBSERVER@@@std@@@std@@U?$less@K@2@V?$allocator@U?$pair@$$CBKV?$list@PAUMESSAGE_OBSERVER@@V?$allocator@PAUMESSAGE_OBSERVER@@@std@@@std@@@std@@@2@$0A@@std@@@2@XZ 0040c120 f i CMessageManager.obj
 0001:0000b290       ?_Buynode@?$_Tree@V?$_Tmap_traits@KV?$list@PAUMESSAGE_OBSERVER@@V?$allocator@PAUMESSAGE_OBSERVER@@@std@@@std@@U?$less@K@2@V?$allocator@U?$pair@$$CBKV?$list@PAUMESSAGE_OBSERVER@@V?$allocator@PAUMESSAGE_OBSERVER@@@std@@@std@@@std@@@2@$0A@@std@@@std@@IAEPAU_Node@?$_Tree_nod@V?$_Tmap_traits@KV?$list@PAUMESSAGE_OBSERVER@@V?$allocator@PAUMESSAGE_OBSERVER@@@std@@@std@@U?$less@K@2@V?$allocator@U?$pair@$$CBKV?$list@PAUMESSAGE_OBSERVER@@V?$allocator@PAUMESSAGE_OBSERVER@@@std@@@std@@@std@@@2@$0A@@std@@@2@PAU342@00ABU?$pair@$$CBKV?$list@PAUMESSAGE_OBSERVER@@V?$allocator@PAUMESSAGE_OBSERVER@@@std@@@std@@@2@D@Z 0040c290 f i CMessageManager.obj
 0001:0000b360       ??Eiterator@?$_Tree@V?$_Tmap_traits@KV?$list@PAUMESSAGE_OBSERVER@@V?$allocator@PAUMESSAGE_OBSERVER@@@std@@@std@@U?$less@K@2@V?$allocator@U?$pair@$$CBKV?$list@PAUMESSAGE_OBSERVER@@V?$allocator@PAUMESSAGE_OBSERVER@@@std@@@std@@@std@@@2@$0A@@std@@@std@@QAE?AV012@H@Z 0040c360 f i CMessageManager.obj
 0001:0000b390       ??Econst_iterator@?$_Tree@V?$_Tmap_traits@KV?$list@PAUMESSAGE_OBSERVER@@V?$allocator@PAUMESSAGE_OBSERVER@@@std@@@std@@U?$less@K@2@V?$allocator@U?$pair@$$CBKV?$list@PAUMESSAGE_OBSERVER@@V?$allocator@PAUMESSAGE_OBSERVER@@@std@@@std@@@std@@@2@$0A@@std@@@std@@QAEAAV012@XZ 0040c390 f i CMessageManager.obj
 0001:0000b3b0       ??Fconst_iterator@?$_Tree@V?$_Tmap_traits@KV?$list@PAUMESSAGE_OBSERVER@@V?$allocator@PAUMESSAGE_OBSERVER@@@std@@@std@@U?$less@K@2@V?$allocator@U?$pair@$$CBKV?$list@PAUMESSAGE_OBSERVER@@V?$allocator@PAUMESSAGE_OBSERVER@@@std@@@std@@@std@@@2@$0A@@std@@@std@@QAEAAV012@XZ 0040c3b0 f i CMessageManager.obj
 0001:0000b3d0       ?_Erase@?$_Tree@V?$_Tmap_traits@KV?$list@PAUMESSAGE_OBSERVER@@V?$allocator@PAUMESSAGE_OBSERVER@@@std@@@std@@U?$less@K@2@V?$allocator@U?$pair@$$CBKV?$list@PAUMESSAGE_OBSERVER@@V?$allocator@PAUMESSAGE_OBSERVER@@@std@@@std@@@std@@@2@$0A@@std@@@std@@IAEXPAU_Node@?$_Tree_nod@V?$_Tmap_traits@KV?$list@PAUMESSAGE_OBSERVER@@V?$allocator@PAUMESSAGE_OBSERVER@@@std@@@std@@U?$less@K@2@V?$allocator@U?$pair@$$CBKV?$list@PAUMESSAGE_OBSERVER@@V?$allocator@PAUMESSAGE_OBSERVER@@@std@@@std@@@std@@@2@$0A@@std@@@2@@Z 0040c3d0 f i CMessageManager.obj
 0001:0000b450       ?_Max@?$_Tree@V?$_Tmap_traits@KV?$list@PAUMESSAGE_OBSERVER@@V?$allocator@PAUMESSAGE_OBSERVER@@@std@@@std@@U?$less@K@2@V?$allocator@U?$pair@$$CBKV?$list@PAUMESSAGE_OBSERVER@@V?$allocator@PAUMESSAGE_OBSERVER@@@std@@@std@@@std@@@2@$0A@@std@@@std@@KAPAU_Node@?$_Tree_nod@V?$_Tmap_traits@KV?$list@PAUMESSAGE_OBSERVER@@V?$allocator@PAUMESSAGE_OBSERVER@@@std@@@std@@U?$less@K@2@V?$allocator@U?$pair@$$CBKV?$list@PAUMESSAGE_OBSERVER@@V?$allocator@PAUMESSAGE_OBSERVER@@@std@@@std@@@std@@@2@$0A@@std@@@2@PAU342@@Z 0040c450 f i CMessageManager.obj
 0001:0000b490       ?_Min@?$_Tree@V?$_Tmap_traits@KV?$list@PAUMESSAGE_OBSERVER@@V?$allocator@PAUMESSAGE_OBSERVER@@@std@@@std@@U?$less@K@2@V?$allocator@U?$pair@$$CBKV?$list@PAUMESSAGE_OBSERVER@@V?$allocator@PAUMESSAGE_OBSERVER@@@std@@@std@@@std@@@2@$0A@@std@@@std@@KAPAU_Node@?$_Tree_nod@V?$_Tmap_traits@KV?$list@PAUMESSAGE_OBSERVER@@V?$allocator@PAUMESSAGE_OBSERVER@@@std@@@std@@U?$less@K@2@V?$allocator@U?$pair@$$CBKV?$list@PAUMESSAGE_OBSERVER@@V?$allocator@PAUMESSAGE_OBSERVER@@@std@@@std@@@std@@@2@$0A@@std@@@2@PAU342@@Z 0040c490 f i CMessageManager.obj
 0001:0000b4d0       ?max_size@?$allocator@VCRect@@@std@@QBEIXZ 0040c4d0 f i TabBarWnd.obj
 0001:0000b4d0       ?max_size@?$allocator@U?$pair@$$CBKV?$list@PAUMESSAGE_OBSERVER@@V?$allocator@PAUMESSAGE_OBSERVER@@@std@@@std@@@std@@@std@@QBEIXZ 0040c4d0 f i CMessageManager.obj
 0001:0000b500       ?allocate@?$allocator@U_Node@?$_Tree_nod@V?$_Tmap_traits@KV?$list@PAUMESSAGE_OBSERVER@@V?$allocator@PAUMESSAGE_OBSERVER@@@std@@@std@@U?$less@K@2@V?$allocator@U?$pair@$$CBKV?$list@PAUMESSAGE_OBSERVER@@V?$allocator@PAUMESSAGE_OBSERVER@@@std@@@std@@@std@@@2@$0A@@std@@@std@@@std@@QAEPAU_Node@?$_Tree_nod@V?$_Tmap_traits@KV?$list@PAUMESSAGE_OBSERVER@@V?$allocator@PAUMESSAGE_OBSERVER@@@std@@@std@@U?$less@K@2@V?$allocator@U?$pair@$$CBKV?$list@PAUMESSAGE_OBSERVER@@V?$allocator@PAUMESSAGE_OBSERVER@@@std@@@std@@@std@@@2@$0A@@std@@@2@I@Z 0040c500 f i CMessageManager.obj
 0001:0000b520       ?destroy@?$allocator@U_Node@?$_Tree_nod@V?$_Tmap_traits@KV?$list@PAUMESSAGE_OBSERVER@@V?$allocator@PAUMESSAGE_OBSERVER@@@std@@@std@@U?$less@K@2@V?$allocator@U?$pair@$$CBKV?$list@PAUMESSAGE_OBSERVER@@V?$allocator@PAUMESSAGE_OBSERVER@@@std@@@std@@@std@@@2@$0A@@std@@@std@@@std@@QAEXPAU_Node@?$_Tree_nod@V?$_Tmap_traits@KV?$list@PAUMESSAGE_OBSERVER@@V?$allocator@PAUMESSAGE_OBSERVER@@@std@@@std@@U?$less@K@2@V?$allocator@U?$pair@$$CBKV?$list@PAUMESSAGE_OBSERVER@@V?$allocator@PAUMESSAGE_OBSERVER@@@std@@@std@@@std@@@2@$0A@@std@@@2@@Z 0040c520 f i CMessageManager.obj
 0001:0000b540       ?_Dec@const_iterator@?$_Tree@V?$_Tmap_traits@KV?$list@PAUMESSAGE_OBSERVER@@V?$allocator@PAUMESSAGE_OBSERVER@@@std@@@std@@U?$less@K@2@V?$allocator@U?$pair@$$CBKV?$list@PAUMESSAGE_OBSERVER@@V?$allocator@PAUMESSAGE_OBSERVER@@@std@@@std@@@std@@@2@$0A@@std@@@std@@QAEXXZ 0040c540 f i CMessageManager.obj
 0001:0000b620       ?_Inc@const_iterator@?$_Tree@V?$_Tmap_traits@KV?$list@PAUMESSAGE_OBSERVER@@V?$allocator@PAUMESSAGE_OBSERVER@@@std@@@std@@U?$less@K@2@V?$allocator@U?$pair@$$CBKV?$list@PAUMESSAGE_OBSERVER@@V?$allocator@PAUMESSAGE_OBSERVER@@@std@@@std@@@std@@@2@$0A@@std@@@std@@QAEXXZ 0040c620 f i CMessageManager.obj
 0001:0000b6e0       ?max_size@?$allocator@H@std@@QBEIXZ 0040c6e0 f i MyListCtrl.obj
 0001:0000b6e0       ?max_size@?$allocator@PAVCWnd@@@std@@QBEIXZ 0040c6e0 f i TabWndFactory.obj
 0001:0000b6e0       ?max_size@?$allocator@PAVIMessageObserver@@@std@@QBEIXZ 0040c6e0 f i CMessageManager.obj
 0001:0000b6e0       ?max_size@?$allocator@PAVAfxUserConfig_Observer@@@std@@QBEIXZ 0040c6e0 f i AfxUserConfig.obj
 0001:0000b6e0       ?max_size@?$allocator@PAVILyricPopupWndShowObserver@@@std@@QBEIXZ 0040c6e0 f i HostWndMgr.obj
 0001:0000b6e0       ?max_size@?$allocator@PAVIChangeSkinEventListener@@@std@@QBEIXZ 0040c6e0 f i IChangeColorMgr.obj
 0001:0000b6e0       ?max_size@?$allocator@K@std@@QBEIXZ 0040c6e0 f i CUIManager.obj
 0001:0000b6e0       ?max_size@?$allocator@PAVCHostWnd@@@std@@QBEIXZ 0040c6e0 f i HostWndMgr.obj
 0001:0000b6e0       ?max_size@?$allocator@PAUMESSAGE_OBSERVER@@@std@@QBEIXZ 0040c6e0 f i CMessageManager.obj
 0001:0000b6e0       ?max_size@?$allocator@PAVCBasicSkinWnd@@@std@@QBEIXZ 0040c6e0 f i SkinMgr.obj
 0001:0000b6e0       ?max_size@?$allocator@PAVCSubLabel@@@std@@QBEIXZ 0040c6e0 f i SubjectChildWnd.obj
 0001:0000b6e0       ?max_size@?$allocator@PAVCBitmap@@@std@@QBEIXZ 0040c6e0 f i MyTreeCtrl.obj
 0001:0000b6e0       ?max_size@?$allocator@PAVCSkinButton@@@std@@QBEIXZ 0040c6e0 f i SkinWnd.obj
 0001:0000b6e0       ?max_size@?$allocator@PAVCSkinButton2@@@std@@QBEIXZ 0040c6e0 f i MainSkinWnd.obj
 0001:0000b710       ??0_Node@?$_Tree_nod@V?$_Tmap_traits@KV?$list@PAUMESSAGE_OBSERVER@@V?$allocator@PAUMESSAGE_OBSERVER@@@std@@@std@@U?$less@K@2@V?$allocator@U?$pair@$$CBKV?$list@PAUMESSAGE_OBSERVER@@V?$allocator@PAUMESSAGE_OBSERVER@@@std@@@std@@@std@@@2@$0A@@std@@@std@@QAE@PAU012@00ABU?$pair@$$CBKV?$list@PAUMESSAGE_OBSERVER@@V?$allocator@PAUMESSAGE_OBSERVER@@@std@@@std@@@2@D@Z 0040c710 f i CMessageManager.obj
 0001:0000b760       ??0?$pair@$$CBKV?$list@PAUMESSAGE_OBSERVER@@V?$allocator@PAUMESSAGE_OBSERVER@@@std@@@std@@@std@@QAE@ABU01@@Z 0040c760 f i CMessageManager.obj
 0001:0000b790       ??$assign@Vconst_iterator@?$list@PAUMESSAGE_OBSERVER@@V?$allocator@PAUMESSAGE_OBSERVER@@@std@@@std@@@?$list@PAUMESSAGE_OBSERVER@@V?$allocator@PAUMESSAGE_OBSERVER@@@std@@@std@@QAEXVconst_iterator@01@0@Z 0040c790 f i CMessageManager.obj
 0001:0000b7d0       ??$insert@Vconst_iterator@?$list@PAUMESSAGE_OBSERVER@@V?$allocator@PAUMESSAGE_OBSERVER@@@std@@@std@@@?$list@PAUMESSAGE_OBSERVER@@V?$allocator@PAUMESSAGE_OBSERVER@@@std@@@std@@QAEXViterator@01@Vconst_iterator@01@1@Z 0040c7d0 f i CMessageManager.obj
 0001:0000b810       ??$_Allocate@U_Node@?$_List_nod@PAVCSkinButton@@V?$allocator@PAVCSkinButton@@@std@@@std@@@std@@YAPAU_Node@?$_List_nod@PAVCSkinButton@@V?$allocator@PAVCSkinButton@@@std@@@0@IPAU120@@Z 0040c810 f i SkinWnd.obj
 0001:0000b810       ??$_Allocate@U_Node@?$_List_nod@PAUMESSAGE_OBSERVER@@V?$allocator@PAUMESSAGE_OBSERVER@@@std@@@std@@@std@@YAPAU_Node@?$_List_nod@PAUMESSAGE_OBSERVER@@V?$allocator@PAUMESSAGE_OBSERVER@@@std@@@0@IPAU120@@Z 0040c810 f i CMessageManager.obj
 0001:0000b810       ??$_Allocate@U_Node@?$_List_nod@PAVIMessageObserver@@V?$allocator@PAVIMessageObserver@@@std@@@std@@@std@@YAPAU_Node@?$_List_nod@PAVIMessageObserver@@V?$allocator@PAVIMessageObserver@@@std@@@0@IPAU120@@Z 0040c810 f i PlayBoxDlg.obj
 0001:0000b810       ??$_Allocate@U_Node@?$_List_nod@PAVAfxUserConfig_Observer@@V?$allocator@PAVAfxUserConfig_Observer@@@std@@@std@@@std@@YAPAU_Node@?$_List_nod@PAVAfxUserConfig_Observer@@V?$allocator@PAVAfxUserConfig_Observer@@@std@@@0@IPAU120@@Z 0040c810 f i AfxUserConfig.obj
 0001:0000b810       ??$_Allocate@U_Node@?$_List_nod@PAVCSubLabel@@V?$allocator@PAVCSubLabel@@@std@@@std@@@std@@YAPAU_Node@?$_List_nod@PAVCSubLabel@@V?$allocator@PAVCSubLabel@@@std@@@0@IPAU120@@Z 0040c810 f i SubjectChildWnd.obj
 0001:0000b830       ??$_Allocate@U_Node@?$_Tree_nod@V?$_Tmap_traits@KV?$list@PAUMESSAGE_OBSERVER@@V?$allocator@PAUMESSAGE_OBSERVER@@@std@@@std@@U?$less@K@2@V?$allocator@U?$pair@$$CBKV?$list@PAUMESSAGE_OBSERVER@@V?$allocator@PAUMESSAGE_OBSERVER@@@std@@@std@@@std@@@2@$0A@@std@@@std@@@std@@YAPAU_Node@?$_Tree_nod@V?$_Tmap_traits@KV?$list@PAUMESSAGE_OBSERVER@@V?$allocator@PAUMESSAGE_OBSERVER@@@std@@@std@@U?$less@K@2@V?$allocator@U?$pair@$$CBKV?$list@PAUMESSAGE_OBSERVER@@V?$allocator@PAUMESSAGE_OBSERVER@@@std@@@std@@@std@@@2@$0A@@std@@@0@IPAU120@@Z 0040c830 f i CMessageManager.obj
 0001:0000b850       ??$_Destroy@U_Node@?$_Tree_nod@V?$_Tmap_traits@KV?$list@PAUMESSAGE_OBSERVER@@V?$allocator@PAUMESSAGE_OBSERVER@@@std@@@std@@U?$less@K@2@V?$allocator@U?$pair@$$CBKV?$list@PAUMESSAGE_OBSERVER@@V?$allocator@PAUMESSAGE_OBSERVER@@@std@@@std@@@std@@@2@$0A@@std@@@std@@@std@@YAXPAU_Node@?$_Tree_nod@V?$_Tmap_traits@KV?$list@PAUMESSAGE_OBSERVER@@V?$allocator@PAUMESSAGE_OBSERVER@@@std@@@std@@U?$less@K@2@V?$allocator@U?$pair@$$CBKV?$list@PAUMESSAGE_OBSERVER@@V?$allocator@PAUMESSAGE_OBSERVER@@@std@@@std@@@std@@@2@$0A@@std@@@0@@Z 0040c850 f i CMessageManager.obj
 0001:0000b860       ??_G_Node@?$_Tree_nod@V?$_Tmap_traits@KV?$list@PAUMESSAGE_OBSERVER@@V?$allocator@PAUMESSAGE_OBSERVER@@@std@@@std@@U?$less@K@2@V?$allocator@U?$pair@$$CBKV?$list@PAUMESSAGE_OBSERVER@@V?$allocator@PAUMESSAGE_OBSERVER@@@std@@@std@@@std@@@2@$0A@@std@@@std@@QAEPAXI@Z 0040c860 f i CMessageManager.obj
 0001:0000b890       ??1_Node@?$_Tree_nod@V?$_Tmap_traits@KV?$list@PAUMESSAGE_OBSERVER@@V?$allocator@PAUMESSAGE_OBSERVER@@@std@@@std@@U?$less@K@2@V?$allocator@U?$pair@$$CBKV?$list@PAUMESSAGE_OBSERVER@@V?$allocator@PAUMESSAGE_OBSERVER@@@std@@@std@@@std@@@2@$0A@@std@@@std@@QAE@XZ 0040c890 f i CMessageManager.obj
 0001:0000b8b0       ??$_Assign@Vconst_iterator@?$list@PAUMESSAGE_OBSERVER@@V?$allocator@PAUMESSAGE_OBSERVER@@@std@@@std@@@?$list@PAUMESSAGE_OBSERVER@@V?$allocator@PAUMESSAGE_OBSERVER@@@std@@@std@@QAEXVconst_iterator@01@0Uinput_iterator_tag@1@@Z 0040c8b0 f i CMessageManager.obj
 0001:0000b8f0       ??$_Insert@Vconst_iterator@?$list@PAUMESSAGE_OBSERVER@@V?$allocator@PAUMESSAGE_OBSERVER@@@std@@@std@@@?$list@PAUMESSAGE_OBSERVER@@V?$allocator@PAUMESSAGE_OBSERVER@@@std@@@std@@QAEXViterator@01@Vconst_iterator@01@1Uforward_iterator_tag@1@@Z 0040c8f0 f i CMessageManager.obj
 0001:0000b9d0       ??0CUIManager@@QAE@XZ      0040c9d0 f   CUIManager.obj
 0001:0000ba40       ??1CUIManager@@UAE@XZ      0040ca40 f   CUIManager.obj
 0001:0000bab0       ?UIManAppStart@CUIManager@@UAE_NXZ 0040cab0 f   CUIManager.obj
 0001:0000c8a0       ?UIManAppExit@CUIManager@@UAEXXZ 0040d8a0 f   CUIManager.obj
 0001:0000cf10       ?UIGetLayoutMgr@CUIManager@@UAEPAVILayoutMgr@@XZ 0040df10 f   CUIManager.obj
 0001:0000cf30       ?UIGetSkinMgr@CUIManager@@UAEPAVISkinMgr@@XZ 0040df30 f   CUIManager.obj
 0001:0000cf70       ?UIGetChangeColorMgr@CUIManager@@UAEPAVIChangeColorMgr@@XZ 0040df70 f   CUIManager.obj
 0001:0000cf90       ?UIOnPaint@CUIManager@@UAEXPAVCDC@@@Z 0040df90 f   CUIManager.obj
 0001:0000cfe0       ?UICanExit@CUIManager@@UAE_NXZ 0040dfe0 f   CUIManager.obj
 0001:0000d000       ?UIAddDialog@CUIManager@@UAEXPAVCDialog@@@Z 0040e000 f   CUIManager.obj
 0001:0000d020       ?UIRemoveDialog@CUIManager@@UAEXPAVCDialog@@@Z 0040e020 f   CUIManager.obj
 0001:0000d040       ?UIAddDialog@CUIManager@@UAEXK@Z 0040e040 f   CUIManager.obj
 0001:0000d0b0       ?UIRemoveDialog@CUIManager@@UAEXK@Z 0040e0b0 f   CUIManager.obj
 0001:0000d130       ?UIDlgSize@CUIManager@@UAEHXZ 0040e130 f   CUIManager.obj
 0001:0000d150       ?CreateUIWindow@CUIManager@@UAEXPBD@Z 0040e150 f   CUIManager.obj
 0001:0000dc30       ?UIOnMove@CUIManager@@UAEXHH@Z 0040ec30 f   CUIManager.obj
 0001:0000dc40       ??_ECUIManager@@UAEPAXI@Z  0040ec40 f i CUIManager.obj
 0001:0000dc40       ??_GCUIManager@@UAEPAXI@Z  0040ec40 f i CUIManager.obj
 0001:0000dc70       ??0IUIManager@@QAE@XZ      0040ec70 f i CUIManager.obj
 0001:0000dc90       ??0?$vector@KV?$allocator@K@std@@@std@@QAE@XZ 0040ec90 f i CUIManager.obj
 0001:0000dcc0       ??1?$vector@KV?$allocator@K@std@@@std@@QAE@XZ 0040ecc0 f i CUIManager.obj
 0001:0000dcc0       ??1?$vector@PAVCSkinButton2@@V?$allocator@PAVCSkinButton2@@@std@@@std@@QAE@XZ 0040ecc0 f i MainSkinWnd.obj
 0001:0000dcc0       ??1?$vector@PAVCBitmap@@V?$allocator@PAVCBitmap@@@std@@@std@@QAE@XZ 0040ecc0 f i MyTreeCtrl.obj
 0001:0000dcc0       ??1?$vector@PAVCBasicSkinWnd@@V?$allocator@PAVCBasicSkinWnd@@@std@@@std@@QAE@XZ 0040ecc0 f i SkinMgr.obj
 0001:0000dcc0       ?clear@?$vector@PAVCSkinButton2@@V?$allocator@PAVCSkinButton2@@@std@@@std@@QAEXXZ 0040ecc0 f i MainSkinWnd.obj
 0001:0000dcc0       ??1?$vector@PAVCWnd@@V?$allocator@PAVCWnd@@@std@@@std@@QAE@XZ 0040ecc0 f i TabWndFactory.obj
 0001:0000dcc0       ??1?$vector@PAVCHostWnd@@V?$allocator@PAVCHostWnd@@@std@@@std@@QAE@XZ 0040ecc0 f i HostWndMgr.obj
 0001:0000dcc0       ??1?$vector@HV?$allocator@H@std@@@std@@QAE@XZ 0040ecc0 f i MyListCtrl.obj
 0001:0000dcc0       ?clear@?$vector@PAVCHostWnd@@V?$allocator@PAVCHostWnd@@@std@@@std@@QAEXXZ 0040ecc0 f i HostWndMgr.obj
 0001:0000dcc0       ??1?$vector@PAVILyricPopupWndShowObserver@@V?$allocator@PAVILyricPopupWndShowObserver@@@std@@@std@@QAE@XZ 0040ecc0 f i HostWndMgr.obj
 0001:0000dcc0       ?clear@?$vector@PAVCBitmap@@V?$allocator@PAVCBitmap@@@std@@@std@@QAEXXZ 0040ecc0 f i MyTreeCtrl.obj
 0001:0000dcc0       ?clear@?$vector@HV?$allocator@H@std@@@std@@QAEXXZ 0040ecc0 f i MyListCtrl.obj
 0001:0000dcc0       ??1?$vector@PAVIChangeSkinEventListener@@V?$allocator@PAVIChangeSkinEventListener@@@std@@@std@@QAE@XZ 0040ecc0 f i IChangeColorMgr.obj
 0001:0000dce0       ?size@?$vector@KV?$allocator@K@std@@@std@@QBEIXZ 0040ece0 f i CUIManager.obj
 0001:0000dce0       ?size@?$vector@PAVCBasicSkinWnd@@V?$allocator@PAVCBasicSkinWnd@@@std@@@std@@QBEIXZ 0040ece0 f i SkinMgr.obj
 0001:0000dce0       ?size@?$vector@PAVIChangeSkinEventListener@@V?$allocator@PAVIChangeSkinEventListener@@@std@@@std@@QBEIXZ 0040ece0 f i IChangeColorMgr.obj
 0001:0000dce0       ?size@?$vector@HV?$allocator@H@std@@@std@@QBEIXZ 0040ece0 f i MyListCtrl.obj
 0001:0000dce0       ?size@?$vector@PAVCSkinButton2@@V?$allocator@PAVCSkinButton2@@@std@@@std@@QBEIXZ 0040ece0 f i MainSkinWnd.obj
 0001:0000dce0       ?size@?$vector@PAVCHostWnd@@V?$allocator@PAVCHostWnd@@@std@@@std@@QBEIXZ 0040ece0 f i HostWndMgr.obj
 0001:0000dd20       ?push_back@?$vector@KV?$allocator@K@std@@@std@@QAEXABK@Z 0040ed20 f i CUIManager.obj
 0001:0000dd90       ?insert@?$vector@KV?$allocator@K@std@@@std@@QAE?AViterator@12@V312@ABK@Z 0040ed90 f i CUIManager.obj
 0001:0000de10       ?_Buy@?$vector@KV?$allocator@K@std@@@std@@IAE_NI@Z 0040ee10 f i CUIManager.obj
 0001:0000de90       ?_Insert_n@?$vector@KV?$allocator@K@std@@@std@@IAEXViterator@12@IABK@Z 0040ee90 f i CUIManager.obj
 0001:0000e1b0       ?_Xlen@?$vector@KV?$allocator@K@std@@@std@@IBEXXZ 0040f1b0 f i CUIManager.obj
 0001:0000e210       ??$fill@PAHH@std@@YAXPAH0ABH@Z 0040f210 f i MyListCtrl.obj
 0001:0000e210       ??$fill@PAPAVIChangeSkinEventListener@@PAV1@@std@@YAXPAPAVIChangeSkinEventListener@@0ABQAV1@@Z 0040f210 f i IChangeColorMgr.obj
 0001:0000e210       ??$fill@PAPAVCBasicSkinWnd@@PAV1@@std@@YAXPAPAVCBasicSkinWnd@@0ABQAV1@@Z 0040f210 f i SkinMgr.obj
 0001:0000e210       ??$fill@PAKK@std@@YAXPAK0ABK@Z 0040f210 f i CUIManager.obj
 0001:0000e210       ??$fill@PAPAVCHostWnd@@PAV1@@std@@YAXPAPAVCHostWnd@@0ABQAV1@@Z 0040f210 f i HostWndMgr.obj
 0001:0000e210       ??$fill@PAPAVCSkinButton2@@PAV1@@std@@YAXPAPAVCSkinButton2@@0ABQAV1@@Z 0040f210 f i MainSkinWnd.obj
 0001:0000e240       ??$_Allocate@H@std@@YAPAHIPAH@Z 0040f240 f i MyListCtrl.obj
 0001:0000e240       ??$_Allocate@PAVCWnd@@@std@@YAPAPAVCWnd@@IPAPAV1@@Z 0040f240 f i TabWndFactory.obj
 0001:0000e240       ??$_Allocate@PAVCHostWnd@@@std@@YAPAPAVCHostWnd@@IPAPAV1@@Z 0040f240 f i HostWndMgr.obj
 0001:0000e240       ??$_Allocate@PAVILyricPopupWndShowObserver@@@std@@YAPAPAVILyricPopupWndShowObserver@@IPAPAV1@@Z 0040f240 f i HostWndMgr.obj
 0001:0000e240       ??$_Allocate@PAVCBasicSkinWnd@@@std@@YAPAPAVCBasicSkinWnd@@IPAPAV1@@Z 0040f240 f i SkinMgr.obj
 0001:0000e240       ??$_Allocate@PAVCBitmap@@@std@@YAPAPAVCBitmap@@IPAPAV1@@Z 0040f240 f i MyTreeCtrl.obj
 0001:0000e240       ??$_Allocate@PAVCPoint@@@std@@YAPAPAVCPoint@@IPAPAV1@@Z 0040f240 f i LocalMusicCoverList.obj
 0001:0000e240       ??$_Allocate@PAVCSkinButton2@@@std@@YAPAPAVCSkinButton2@@IPAPAV1@@Z 0040f240 f i MainSkinWnd.obj
 0001:0000e240       ??$_Allocate@K@std@@YAPAKIPAK@Z 0040f240 f i CUIManager.obj
 0001:0000e240       ??$_Allocate@PAVIChangeSkinEventListener@@@std@@YAPAPAVIChangeSkinEventListener@@IPAPAV1@@Z 0040f240 f i IChangeColorMgr.obj
 0001:0000e260       ??$_Copy_opt@PAPAVIChangeSkinEventListener@@PAPAV1@@std@@YAPAPAVIChangeSkinEventListener@@PAPAV1@00U_Scalar_ptr_iterator_tag@0@@Z 0040f260 f i IChangeColorMgr.obj
 0001:0000e260       ??$_Uninit_copy@PAVCHostWnd@@PAV1@@std@@YAPAPAVCHostWnd@@PAPAV1@00AAV?$allocator@PAVCHostWnd@@@0@U_Scalar_ptr_iterator_tag@0@@Z 0040f260 f i HostWndMgr.obj
 0001:0000e260       ??$_Uninit_copy@PAVCSkinButton2@@PAV1@@std@@YAPAPAVCSkinButton2@@PAPAV1@00AAV?$allocator@PAVCSkinButton2@@@0@U_Scalar_ptr_iterator_tag@0@@Z 0040f260 f i MainSkinWnd.obj
 0001:0000e260       ??$_Uninit_copy@PAVCBasicSkinWnd@@PAV1@@std@@YAPAPAVCBasicSkinWnd@@PAPAV1@00AAV?$allocator@PAVCBasicSkinWnd@@@0@U_Scalar_ptr_iterator_tag@0@@Z 0040f260 f i SkinMgr.obj
 0001:0000e260       ??$_Copy_opt@PAHPAH@std@@YAPAHPAH00U_Scalar_ptr_iterator_tag@0@@Z 0040f260 f i PlayedGameWnd.obj
 0001:0000e260       ??$_Uninit_copy@PAVCPoint@@PAV1@@std@@YAPAPAVCPoint@@PAPAV1@00AAV?$allocator@PAVCPoint@@@0@U_Scalar_ptr_iterator_tag@0@@Z 0040f260 f i LocalMusicCoverList.obj
 0001:0000e260       ??$_Uninit_copy@PAVIChangeSkinEventListener@@PAV1@@std@@YAPAPAVIChangeSkinEventListener@@PAPAV1@00AAV?$allocator@PAVIChangeSkinEventListener@@@0@U_Scalar_ptr_iterator_tag@0@@Z 0040f260 f i IChangeColorMgr.obj
 0001:0000e260       ??$_Uninit_copy@KK@std@@YAPAKPAK00AAV?$allocator@K@0@U_Scalar_ptr_iterator_tag@0@@Z 0040f260 f i CUIManager.obj
 0001:0000e260       ??$_Copy_opt@PAKPAK@std@@YAPAKPAK00U_Scalar_ptr_iterator_tag@0@@Z 0040f260 f i CUIManager.obj
 0001:0000e260       ??$_Uninit_copy@HH@std@@YAPAHPAH00AAV?$allocator@H@0@U_Scalar_ptr_iterator_tag@0@@Z 0040f260 f i MyListCtrl.obj
 0001:0000e260       ??$_Copy_opt@PAPAVCBasicSkinWnd@@PAPAV1@@std@@YAPAPAVCBasicSkinWnd@@PAPAV1@00U_Scalar_ptr_iterator_tag@0@@Z 0040f260 f i SkinMgr.obj
 0001:0000e260       ??$_Copy_opt@PAPAVCWnd@@PAPAV1@@std@@YAPAPAVCWnd@@PAPAV1@00U_Scalar_ptr_iterator_tag@0@@Z 0040f260 f i TabWndFactory.obj
 0001:0000e2a0       ??1IUIManager@@UAE@XZ      0040f2a0 f i CUIManager.obj
 0001:0000e2c0       ??_GIUIManager@@UAEPAXI@Z  0040f2c0 f i CUIManager.obj
 0001:0000e2c0       ??_EIUIManager@@UAEPAXI@Z  0040f2c0 f i CUIManager.obj
 0001:0000e2f0       ??0CreateControlFactory@@QAE@XZ 0040f2f0 f   CreateControlFactory.obj
 0001:0000e300       ??1CreateControlFactory@@QAE@XZ 0040f300 f   CreateControlFactory.obj
 0001:0000e310       ?CreateControl@CreateControlFactory@@SAXPAVCWnd@@PAVCMarkup@@PAVCSkinMgr@@PAVILayoutMgr@@@Z 0040f310 f   CreateControlFactory.obj
 0001:0000e540       ?CreateStatic@CreateControlFactory@@SAXPAVCWnd@@PAVCMarkup@@PAVCSkinMgr@@PAVILayoutMgr@@@Z 0040f540 f   CreateControlFactory.obj
 0001:0000e780       ?SetButtonSkin@CreateControlFactory@@SAXPAVCxSkinButton@@V?$CStringT@DV?$StrTraitMFC_DLL@DV?$ChTraitsCRT@D@ATL@@@@@ATL@@PAVISkinMgr@@@Z 0040f780 f   CreateControlFactory.obj
 0001:0000ea80       ?CreateButton2@CreateControlFactory@@SAXPAVCWnd@@PAVCMarkup@@PAVCSkinMgr@@PAVILayoutMgr@@@Z 0040fa80 f   CreateControlFactory.obj
 0001:0000ec10       ?CreateButton@CreateControlFactory@@SAXPAVCWnd@@PAVCMarkup@@PAVCSkinMgr@@PAVILayoutMgr@@@Z 0040fc10 f   CreateControlFactory.obj
 0001:0000f7a0       ?CreateSplitter@CreateControlFactory@@SAXPAVCWnd@@PAVCMarkup@@PAVCSkinMgr@@@Z 004107a0 f   CreateControlFactory.obj
 0001:0000fcb0       ?CreateBtnTree@CreateControlFactory@@SAXPAVCWnd@@PAVCMarkup@@PAVCSkinMgr@@PAVILayoutMgr@@@Z 00410cb0 f   CreateControlFactory.obj
 0001:000100b0       ?StringToRGB@CreateControlFactory@@SAKV?$CStringT@DV?$StrTraitMFC_DLL@DV?$ChTraitsCRT@D@ATL@@@@@ATL@@H@Z 004110b0 f   CreateControlFactory.obj
 0001:00010340       ?CreateList@CreateControlFactory@@SAXPAVCWnd@@PAVCMarkup@@PAVCSkinMgr@@PAVILayoutMgr@@@Z 00411340 f   CreateControlFactory.obj
 0001:00010560       ?CreateTree@CreateControlFactory@@SAXPAVCWnd@@PAVCMarkup@@PAVCSkinMgr@@PAVILayoutMgr@@@Z 00411560 f   CreateControlFactory.obj
 0001:00010670       ?GetAttrib@CMarkup@@QBE?AV?$CStringT@DV?$StrTraitMFC_DLL@DV?$ChTraitsCRT@D@ATL@@@@@ATL@@PBD@Z 00411670 f i CreateControlFactory.obj
 0001:000106b0       ?SetAttrib@CMarkup@@QAE_NPBD0@Z 004116b0 f i CreateControlFactory.obj
 0001:000106e0       ??HATL@@YA?AV?$CStringT@DV?$StrTraitMFC_DLL@DV?$ChTraitsCRT@D@ATL@@@@@0@ABV10@PBD@Z 004116e0 f i CreateControlFactory.obj
 0001:00010790       ??HATL@@YA?AV?$CStringT@DV?$StrTraitMFC_DLL@DV?$ChTraitsCRT@D@ATL@@@@@0@PBDABV10@@Z 00411790 f i CreateControlFactory.obj
 0001:00010840       ??8ATL@@YA_NABV?$CStringT@DV?$StrTraitMFC_DLL@DV?$ChTraitsCRT@D@ATL@@@@@0@PBD@Z 00411840 f i CreateControlFactory.obj
 0001:00010860       ?Layout@ETSLayoutMgr@@UAEXAAVCRect@@@Z 00411860 f   ETSLayout.obj
 0001:00010920       ?setPosition@PaneBase@ETSLayoutMgr@@QAEXV?$CStringT@DV?$StrTraitMFC_DLL@DV?$ChTraitsCRT@D@ATL@@@@@ATL@@00000W4layPositionMode@2@@Z 00411920 f   ETSLayout.obj
 0001:00010a10       ?pane@ETSLayoutMgr@@QAE?AVCPane@1@W4layOrientation@1@W4layResizeMode@1@HHH@Z 00411a10 f   ETSLayout.obj
 0001:00010b30       ?paneTab@ETSLayoutMgr@@QAE?AVCPane@1@PAVCTabCtrl@@W4layOrientation@1@W4layResizeMode@1@HHH@Z 00411b30 f   ETSLayout.obj
 0001:00010bf0       ?paneCtrl@ETSLayoutMgr@@QAE?AVCPane@1@PAVCWnd@@W4layOrientation@1@W4layResizeMode@1@HHHH@Z 00411bf0 f   ETSLayout.obj
 0001:00010cb0       ?paneCtrl@ETSLayoutMgr@@QAE?AVCPane@1@IW4layOrientation@1@W4layResizeMode@1@HHHH@Z 00411cb0 f   ETSLayout.obj
 0001:00010d70       ?item@ETSLayoutMgr@@QAE?AVCPaneBase@1@IW4layResizeMode@1@HHHH@Z 00411d70 f   ETSLayout.obj
 0001:00010e20       ?item@ETSLayoutMgr@@QAE?AVCPaneBase@1@PAVCWnd@@W4layResizeMode@1@HHHH@Z 00411e20 f   ETSLayout.obj
 0001:00010ed0       ?itemFixed@ETSLayoutMgr@@QAE?AVCPaneBase@1@W4layOrientation@1@H@Z 00411ed0 f   ETSLayout.obj
 0001:00010fa0       ?itemGrowing@ETSLayoutMgr@@QAE?AVCPaneBase@1@W4layOrientation@1@@Z 00411fa0 f   ETSLayout.obj
 0001:00011050       ?itemSpaceBetween@ETSLayoutMgr@@QAE?AVCPaneBase@1@W4layOrientation@1@PAVCWnd@@1@Z 00412050 f   ETSLayout.obj
 0001:00011200       ?itemSpaceBetween@ETSLayoutMgr@@QAE?AVCPaneBase@1@W4layOrientation@1@II@Z 00412200 f   ETSLayout.obj
 0001:00011270       ?itemSpaceLike@ETSLayoutMgr@@QAE?AVCPaneBase@1@W4layOrientation@1@PAVCWnd@@@Z 00412270 f   ETSLayout.obj
 0001:000113a0       ?itemSpaceLike@ETSLayoutMgr@@QAE?AVCPaneBase@1@W4layOrientation@1@I@Z 004123a0 f   ETSLayout.obj
 0001:000113f0       ??1ETSLayoutMgr@@UAE@XZ    004123f0 f   ETSLayout.obj
 0001:00011480       ?UpdateLayout@ETSLayoutMgr@@UAEXXZ 00412480 f   ETSLayout.obj
 0001:00011800       ?Save@ETSLayoutMgr@@QAE_NPBD@Z 00412800 f   ETSLayout.obj
 0001:00011870       ?Load@ETSLayoutMgr@@QAE_NPBD@Z 00412870 f   ETSLayout.obj
 0001:000118f0       ?EraseBkgnd@ETSLayoutMgr@@QAEXPAVCDC@@@Z 004128f0 f   ETSLayout.obj
 0001:00011cd0       ??0PaneItem@ETSLayoutMgr@@IAE@PAVCWnd@@PAV1@W4layResizeMode@1@HHHH@Z 00412cd0 f   ETSLayout.obj
 0001:00011ef0       ??0PaneItem@ETSLayoutMgr@@IAE@IPAV1@W4layResizeMode@1@HHHH@Z 00412ef0 f   ETSLayout.obj
 0001:000120c0       ?showPane@PaneItem@ETSLayoutMgr@@UAEX_N@Z 004130c0 f   ETSLayout.obj
 0001:00012160       ?getConstrainHorz@PaneItem@ETSLayoutMgr@@UAEHH@Z 00413160 f   ETSLayout.obj
 0001:000121e0       ?getConstrainVert@PaneItem@ETSLayoutMgr@@UAEHH@Z 004131e0 f   ETSLayout.obj
 0001:00012260       ?getMinConstrainHorz@PaneItem@ETSLayoutMgr@@UAEHXZ 00413260 f   ETSLayout.obj
 0001:00012290       ?getMinConstrainVert@PaneItem@ETSLayoutMgr@@UAEHXZ 00413290 f   ETSLayout.obj
 0001:000122c0       ?getMaxConstrainHorz@PaneItem@ETSLayoutMgr@@UAEHXZ 004132c0 f   ETSLayout.obj
 0001:000122f0       ?getMaxConstrainVert@PaneItem@ETSLayoutMgr@@UAEHXZ 004132f0 f   ETSLayout.obj
 0001:00012320       ?resizeTo@PaneItem@ETSLayoutMgr@@UAE_NAAVCRect@@_N1@Z 00413320 f   ETSLayout.obj
 0001:000127f0       ??0PaneTab@ETSLayoutMgr@@IAE@PAVCTabCtrl@@PAV1@W4layOrientation@1@HH@Z 004137f0 f   ETSLayout.obj
 0001:00012830       ?getConstrainHorz@PaneTab@ETSLayoutMgr@@UAEHH@Z 00413830 f   ETSLayout.obj
 0001:00012880       ?getConstrainVert@PaneTab@ETSLayoutMgr@@UAEHH@Z 00413880 f   ETSLayout.obj
 0001:000128f0       ?getMinConstrainHorz@PaneTab@ETSLayoutMgr@@UAEHXZ 004138f0 f   ETSLayout.obj
 0001:00012940       ?getMinConstrainVert@PaneTab@ETSLayoutMgr@@UAEHXZ 00413940 f   ETSLayout.obj
 0001:00012990       ?getMaxConstrainHorz@PaneTab@ETSLayoutMgr@@UAEHXZ 00413990 f   ETSLayout.obj
 0001:000129f0       ?getMaxConstrainVert@PaneTab@ETSLayoutMgr@@UAEHXZ 004139f0 f   ETSLayout.obj
 0001:00012a50       ?resizeTo@PaneTab@ETSLayoutMgr@@UAE_NAAVCRect@@_N1@Z 00413a50 f   ETSLayout.obj
 0001:00012ad0       ??0PaneCtrl@ETSLayoutMgr@@IAE@PAVCWnd@@PAV1@W4layOrientation@1@HHH@Z 00413ad0 f   ETSLayout.obj
 0001:00012b50       ??0PaneCtrl@ETSLayoutMgr@@IAE@IPAV1@W4layOrientation@1@HHH@Z 00413b50 f   ETSLayout.obj
 0001:00012be0       ?getConstrainHorz@PaneCtrl@ETSLayoutMgr@@UAEHH@Z 00413be0 f   ETSLayout.obj
 0001:00012c00       ?getConstrainVert@PaneCtrl@ETSLayoutMgr@@UAEHH@Z 00413c00 f   ETSLayout.obj
 0001:00012c20       ?getMinConstrainHorz@PaneCtrl@ETSLayoutMgr@@UAEHXZ 00413c20 f   ETSLayout.obj
 0001:00012c40       ?getMinConstrainVert@PaneCtrl@ETSLayoutMgr@@UAEHXZ 00413c40 f   ETSLayout.obj
 0001:00012c60       ?getMaxConstrainHorz@PaneCtrl@ETSLayoutMgr@@UAEHXZ 00413c60 f   ETSLayout.obj
 0001:00012c90       ?getMaxConstrainVert@PaneCtrl@ETSLayoutMgr@@UAEHXZ 00413c90 f   ETSLayout.obj
 0001:00012cd0       ?resizeTo@PaneCtrl@ETSLayoutMgr@@UAE_NAAVCRect@@_N1@Z 00413cd0 f   ETSLayout.obj
 0001:00012d80       ??0Pane@ETSLayoutMgr@@IAE@PAV1@W4layOrientation@1@HH@Z 00413d80 f   ETSLayout.obj
 0001:00012e10       ??1Pane@ETSLayoutMgr@@UAE@XZ 00413e10 f   ETSLayout.obj
 0001:00012e70       ?addItem@Pane@ETSLayoutMgr@@QAE_NPAVCWnd@@W4layResizeMode@2@HHHH@Z 00413e70 f   ETSLayout.obj
 0001:00012f50       ?GetSubPane@Pane@ETSLayoutMgr@@UAE?AVCPaneBase@2@V?$CStringT@DV?$StrTraitMFC_DLL@DV?$ChTraitsCRT@D@ATL@@@@@ATL@@@Z 00413f50 f   ETSLayout.obj
 0001:00013120       ?addItem@Pane@ETSLayoutMgr@@QAE_NIW4layResizeMode@2@HHHH@Z 00414120 f   ETSLayout.obj
 0001:00013200       ?addItemFixed@Pane@ETSLayoutMgr@@QAE_NH@Z 00414200 f   ETSLayout.obj
 0001:00013290       ?addItemGrowing@Pane@ETSLayoutMgr@@QAE_NXZ 00414290 f   ETSLayout.obj
 0001:00013320       ?addItemSpaceBetween@Pane@ETSLayoutMgr@@QAE_NPAVCWnd@@0@Z 00414320 f   ETSLayout.obj
 0001:000133b0       ?addItemSpaceBetween@Pane@ETSLayoutMgr@@QAE_NII@Z 004143b0 f   ETSLayout.obj
 0001:00013440       ?addItemSpaceLike@Pane@ETSLayoutMgr@@QAE_NPAVCWnd@@@Z 00414440 f   ETSLayout.obj
 0001:000134d0       ?addItemSpaceLike@Pane@ETSLayoutMgr@@QAE_NI@Z 004144d0 f   ETSLayout.obj
 0001:00013560       ?addPane@Pane@ETSLayoutMgr@@UAE_NVCPane@2@W4layResizeMode@2@H@Z 00414560 f   ETSLayout.obj
 0001:00013810       ?addPane@Pane@ETSLayoutMgr@@UAE_NVCPaneBase@2@@Z 00414810 f   ETSLayout.obj
 0001:00013930       ?showPane@Pane@ETSLayoutMgr@@UAEX_N@Z 00414930 f   ETSLayout.obj
 0001:000139e0       ?getConstrainHorz@Pane@ETSLayoutMgr@@UAEHH@Z 004149e0 f   ETSLayout.obj
 0001:00013a60       ?getConstrainVert@Pane@ETSLayoutMgr@@UAEHH@Z 00414a60 f   ETSLayout.obj
 0001:00013ae0       ?getMaxConstrainHorz@Pane@ETSLayoutMgr@@UAEHXZ 00414ae0 f   ETSLayout.obj
 0001:00013cf0       ?getMaxConstrainVert@Pane@ETSLayoutMgr@@UAEHXZ 00414cf0 f   ETSLayout.obj
 0001:00013f00       ?getMinConstrainHorz@Pane@ETSLayoutMgr@@UAEHXZ 00414f00 f   ETSLayout.obj
 0001:00014100       ?getMinConstrainVert@Pane@ETSLayoutMgr@@UAEHXZ 00415100 f   ETSLayout.obj
 0001:00014300       ?resizeToAbsolute@Pane@ETSLayoutMgr@@IAEHAAHAAV?$CArray@HH@@11@Z 00415300 f   ETSLayout.obj
 0001:00014580       ?resizeToRelative@Pane@ETSLayoutMgr@@IAE_NAAHAAV?$CArray@HH@@11@Z 00415580 f   ETSLayout.obj
 0001:00014a50       ?resizeToGreedy@Pane@ETSLayoutMgr@@IAE_NAAHHAAV?$CArray@HH@@11@Z 00415a50 f   ETSLayout.obj
 0001:000154d0       ?resizeTo@Pane@ETSLayoutMgr@@UAE_NAAVCRect@@_N1@Z 004164d0 f   ETSLayout.obj
 0001:00015cb0       ??0ETSLayoutDialog@@QAE@IPAVCWnd@@PBD_N@Z 00416cb0 f   ETSLayout.obj
 0001:00015d60       ?GetThisMessageMap@ETSLayoutDialog@@KGPBUAFX_MSGMAP@@XZ 00416d60 f   ETSLayout.obj
 0001:00015d70       ?GetMessageMap@ETSLayoutDialog@@MBEPBUAFX_MSGMAP@@XZ 00416d70 f   ETSLayout.obj
 0001:00015d80       ?OnEraseBkgnd@ETSLayoutDialog@@IAEHPAVCDC@@@Z 00416d80 f   ETSLayout.obj
 0001:00015db0       ?OnSize@ETSLayoutDialog@@IAEXIHH@Z 00416db0 f   ETSLayout.obj
 0001:00015e20       ?OnGetMinMaxInfo@ETSLayoutDialog@@IAEXPAUtagMINMAXINFO@@@Z 00416e20 f   ETSLayout.obj
 0001:00015fe0       ?GetRect@ETSLayoutDialog@@MAE?AVCRect@@XZ 00416fe0 f   ETSLayout.obj
 0001:00016080       ?OnInitDialog@ETSLayoutDialog@@MAEHXZ 00417080 f   ETSLayout.obj
 0001:000161e0       ?OnDestroy@ETSLayoutDialog@@IAEXXZ 004171e0 f   ETSLayout.obj
 0001:00016240       ??0ETSLayoutDialogBar@@QAE@XZ 00417240 f   ETSLayout.obj
 0001:000162d0       ?GetThisMessageMap@ETSLayoutDialogBar@@KGPBUAFX_MSGMAP@@XZ 004172d0 f   ETSLayout.obj
 0001:000162e0       ?GetMessageMap@ETSLayoutDialogBar@@MBEPBUAFX_MSGMAP@@XZ 004172e0 f   ETSLayout.obj
 0001:000162f0       ?OnInitDialog@ETSLayoutDialogBar@@IAEJIJ@Z 004172f0 f   ETSLayout.obj
 0001:00016320       ?UpdateLayout@ETSLayoutDialogBar@@UAEXXZ 00417320 f   ETSLayout.obj
 0001:000163b0       ?CalcDynamicLayout@ETSLayoutDialogBar@@UAE?AVCSize@@HK@Z 004173b0 f   ETSLayout.obj
 0001:00016590       ?OnEraseBkgnd@ETSLayoutDialogBar@@IAEHPAVCDC@@@Z 00417590 f   ETSLayout.obj
 0001:000165c0       ?OnSize@ETSLayoutDialogBar@@IAEXIHH@Z 004175c0 f   ETSLayout.obj
 0001:00016640       ?GetRect@ETSLayoutDialogBar@@MAE?AVCRect@@XZ 00417640 f   ETSLayout.obj
 0001:000166b0       ?OnDestroy@ETSLayoutDialogBar@@IAEXXZ 004176b0 f   ETSLayout.obj
 0001:000166d0       ?GetThisClass@ETSLayoutFormView@@SGPAUCRuntimeClass@@XZ 004176d0 f   ETSLayout.obj
 0001:000166e0       ?GetRuntimeClass@ETSLayoutFormView@@UBEPAUCRuntimeClass@@XZ 004176e0 f   ETSLayout.obj
 0001:000166f0       ??0ETSLayoutFormView@@QAE@IPBD@Z 004176f0 f   ETSLayout.obj
 0001:00016780       ?GetThisMessageMap@ETSLayoutFormView@@KGPBUAFX_MSGMAP@@XZ 00417780 f   ETSLayout.obj
 0001:00016790       ?GetMessageMap@ETSLayoutFormView@@MBEPBUAFX_MSGMAP@@XZ 00417790 f   ETSLayout.obj
 0001:000167a0       ?OnEraseBkgnd@ETSLayoutFormView@@IAEHPAVCDC@@@Z 004177a0 f   ETSLayout.obj
 0001:000167d0       ?OnSize@ETSLayoutFormView@@IAEXIHH@Z 004177d0 f   ETSLayout.obj
 0001:00016860       ?OnGetMinMaxInfo@ETSLayoutFormView@@IAEXPAUtagMINMAXINFO@@@Z 00417860 f   ETSLayout.obj
 0001:00016a20       ??1ETSLayoutFormView@@UAE@XZ 00417a20 f   ETSLayout.obj
 0001:00016aa0       ?CreateObject@ETSLayoutPropertyPage@@SGPAVCObject@@XZ 00417aa0 f   ETSLayout.obj
 0001:00016b10       ?GetThisClass@ETSLayoutPropertyPage@@SGPAUCRuntimeClass@@XZ 00417b10 f   ETSLayout.obj
 0001:00016b20       ?GetRuntimeClass@ETSLayoutPropertyPage@@UBEPAUCRuntimeClass@@XZ 00417b20 f   ETSLayout.obj
 0001:00016b30       ??0ETSLayoutPropertyPage@@QAE@XZ 00417b30 f   ETSLayout.obj
 0001:00016bb0       ??0ETSLayoutPropertyPage@@QAE@II@Z 00417bb0 f   ETSLayout.obj
 0001:00016c40       ??0ETSLayoutPropertyPage@@QAE@PBDI@Z 00417c40 f   ETSLayout.obj
 0001:00016cd0       ??1ETSLayoutPropertyPage@@UAE@XZ 00417cd0 f   ETSLayout.obj
 0001:00016d50       ?GetThisMessageMap@ETSLayoutPropertyPage@@KGPBUAFX_MSGMAP@@XZ 00417d50 f   ETSLayout.obj
 0001:00016d60       ?GetMessageMap@ETSLayoutPropertyPage@@MBEPBUAFX_MSGMAP@@XZ 00417d60 f   ETSLayout.obj
 0001:00016d70       ?OnWindowPosChanged@ETSLayoutPropertyPage@@IAEXPAUtagWINDOWPOS@@@Z 00417d70 f   ETSLayout.obj
 0001:00016f00       ?OnWindowPosChanging@ETSLayoutPropertyPage@@IAEXPAUtagWINDOWPOS@@@Z 00417f00 f   ETSLayout.obj
 0001:00016f40       ?OnEraseBkgnd@ETSLayoutPropertyPage@@IAEHPAVCDC@@@Z 00417f40 f   ETSLayout.obj
 0001:00016f70       ?OnDestroy@ETSLayoutPropertyPage@@IAEXXZ 00417f70 f   ETSLayout.obj
 0001:00016fa0       ?OnSize@ETSLayoutPropertyPage@@IAEXIHH@Z 00417fa0 f   ETSLayout.obj
 0001:00017000       ?OnGetMinMaxInfo@ETSLayoutPropertyPage@@IAEXPAUtagMINMAXINFO@@@Z 00418000 f   ETSLayout.obj
 0001:000171b0       ?GetRect@ETSLayoutPropertyPage@@MAE?AVCRect@@XZ 004181b0 f   ETSLayout.obj
 0001:00017200       ?OnInitDialog@ETSLayoutPropertyPage@@MAEHXZ 00418200 f   ETSLayout.obj
 0001:00017260       ?OnSetActive@ETSLayoutPropertyPage@@UAEHXZ 00418260 f   ETSLayout.obj
 0001:000172e0       ?GetThisClass@ETSLayoutPropertySheet@@SGPAUCRuntimeClass@@XZ 004182e0 f   ETSLayout.obj
 0001:000172f0       ?GetRuntimeClass@ETSLayoutPropertySheet@@UBEPAUCRuntimeClass@@XZ 004182f0 f   ETSLayout.obj
 0001:00017300       ??0ETSLayoutPropertySheet@@QAE@IPAVCWnd@@IPBD_N@Z 00418300 f   ETSLayout.obj
 0001:000173d0       ??0ETSLayoutPropertySheet@@QAE@PBDPAVCWnd@@I0_N@Z 004183d0 f   ETSLayout.obj
 0001:000174a0       ?Init@ETSLayoutPropertySheet@@IAEXPBD_N@Z 004184a0 f   ETSLayout.obj
 0001:000174f0       ??1ETSLayoutPropertySheet@@UAE@XZ 004184f0 f   ETSLayout.obj
 0001:00017590       ?GetThisMessageMap@ETSLayoutPropertySheet@@KGPBUAFX_MSGMAP@@XZ 00418590 f   ETSLayout.obj
 0001:000175a0       ?GetMessageMap@ETSLayoutPropertySheet@@MBEPBUAFX_MSGMAP@@XZ 004185a0 f   ETSLayout.obj
 0001:000175b0       ?OnEraseBkgnd@ETSLayoutPropertySheet@@IAEHPAVCDC@@@Z 004185b0 f   ETSLayout.obj
 0001:000175e0       ?OnCreate@ETSLayoutPropertySheet@@IAEHPAUtagCREATESTRUCTA@@@Z 004185e0 f   ETSLayout.obj
 0001:00017620       ?Resize@ETSLayoutPropertySheet@@IAEXHH@Z 00418620 f   ETSLayout.obj
 0001:00017860       ?OnSize@ETSLayoutPropertySheet@@IAEXIHH@Z 00418860 f   ETSLayout.obj
 0001:000178a0       ?AddMainArea@ETSLayoutPropertySheet@@UAEXVCPane@ETSLayoutMgr@@VCPaneBase@3@@Z 004188a0 f   ETSLayout.obj
 0001:00017910       ?AddButtons@ETSLayoutPropertySheet@@UAEXVCPane@ETSLayoutMgr@@@Z 00418910 f   ETSLayout.obj
 0001:00017aa0       ?OnInitDialog@ETSLayoutPropertySheet@@UAEHXZ 00418aa0 f   ETSLayout.obj
 0001:00017e30       ?OnGetMinMaxInfo@ETSLayoutPropertySheet@@IAEXPAUtagMINMAXINFO@@@Z 00418e30 f   ETSLayout.obj
 0001:00018220       ?OnDestroy@ETSLayoutPropertySheet@@IAEXXZ 00419220 f   ETSLayout.obj
 0001:00018280       ?PostNcDestroy@ETSLayoutPropertySheet@@UAEXXZ 00419280 f   ETSLayout.obj
 0001:00018340       ??0PaneHolder@ETSLayoutMgr@@QAE@PAVPaneBase@1@@Z 00419340 f   ETSLayout.obj
 0001:00018370       ??1PaneHolder@ETSLayoutMgr@@QAE@XZ 00419370 f   ETSLayout.obj
 0001:000183b0       ?AddRef@PaneHolder@ETSLayoutMgr@@QAEXXZ 004193b0 f   ETSLayout.obj
 0001:000183d0       ?Release@PaneHolder@ETSLayoutMgr@@QAEXXZ 004193d0 f   ETSLayout.obj
 0001:00018420       ??0CPaneBase@ETSLayoutMgr@@QAE@XZ 00419420 f   ETSLayout.obj
 0001:00018440       ??0CPaneBase@ETSLayoutMgr@@QAE@PAVPaneBase@1@@Z 00419440 f   ETSLayout.obj
 0001:00018470       ??0CPaneBase@ETSLayoutMgr@@QAE@ABV01@@Z 00419470 f   ETSLayout.obj
 0001:000184a0       ??1CPaneBase@ETSLayoutMgr@@QAE@XZ 004194a0 f   ETSLayout.obj
 0001:000184c0       ??4CPaneBase@ETSLayoutMgr@@QAEXPAVPaneBase@1@@Z 004194c0 f   ETSLayout.obj
 0001:00018560       ??4CPaneBase@ETSLayoutMgr@@QAEXABV01@@Z 00419560 f   ETSLayout.obj
 0001:000185a0       ??CCPaneBase@ETSLayoutMgr@@QBEPAVPaneBase@1@XZ 004195a0 f   ETSLayout.obj
 0001:000185c0       ??0CPane@ETSLayoutMgr@@QAE@XZ 004195c0 f   ETSLayout.obj
 0001:000185e0       ??0CPane@ETSLayoutMgr@@QAE@PAVPane@1@@Z 004195e0 f   ETSLayout.obj
 0001:00018600       ??0CPane@ETSLayoutMgr@@QAE@ABV01@@Z 00419600 f   ETSLayout.obj
 0001:00018660       ??1CPane@ETSLayoutMgr@@QAE@XZ 00419660 f   ETSLayout.obj
 0001:00018680       ??4CPane@ETSLayoutMgr@@QAEXPAVPane@1@@Z 00419680 f   ETSLayout.obj
 0001:000186a0       ??4CPane@ETSLayoutMgr@@QAEXABV01@@Z 004196a0 f   ETSLayout.obj
 0001:000186e0       ??CCPane@ETSLayoutMgr@@QBEPAVPane@1@XZ 004196e0 f   ETSLayout.obj
 0001:00018700       ?ConvertBase@CPane@ETSLayoutMgr@@QBE?AVCPaneBase@2@XZ 00419700 f   ETSLayout.obj
 0001:00018740       ??6CPane@ETSLayoutMgr@@QAEAAV01@V01@@Z 00419740 f   ETSLayout.obj
 0001:000187e0       ??6CPane@ETSLayoutMgr@@QAEAAV01@VCPaneBase@1@@Z 004197e0 f   ETSLayout.obj
 0001:00018870       ?IsValid@CPaneBase@ETSLayoutMgr@@QAE_NXZ 00419870 f i ETSLayout.obj
 0001:00018890       ?GetWnd@ETSLayoutMgr@@QAEPAVCWnd@@XZ 00419890 f i ETSLayout.obj
 0001:000188b0       ?GetRect@ETSLayoutMgr@@UAE?AVCRect@@XZ 004198b0 f i ETSLayout.obj
 0001:00018900       ?UpdateLayout@ETSLayoutMgr@@UAEXVCPane@1@@Z 00419900 f i ETSLayout.obj
 0001:00018980       ??_EETSLayoutMgr@@UAEPAXI@Z 00419980 f i ETSLayout.obj
 0001:00018980       ??_GETSLayoutMgr@@UAEPAXI@Z 00419980 f i ETSLayout.obj
 0001:000189b0       ??7CPaneBase@ETSLayoutMgr@@QAE_NXZ 004199b0 f i ETSLayout.obj
 0001:000189d0       __tcscmp                   004199d0 f i ETSLayout.obj
 0001:000189f0       ?GetSubPane@PaneBase@ETSLayoutMgr@@UAE?AVCPaneBase@2@V?$CStringT@DV?$StrTraitMFC_DLL@DV?$ChTraitsCRT@D@ATL@@@@@ATL@@@Z 004199f0 f i ETSLayout.obj
 0001:00018a60       ??0PaneBase@ETSLayoutMgr@@QAE@PAV1@@Z 00419a60 f i ETSLayout.obj
 0001:00018bd0       ??1PaneBase@ETSLayoutMgr@@UAE@XZ 00419bd0 f i ETSLayout.obj
 0001:00018c50       ??_EPaneBase@ETSLayoutMgr@@UAEPAXI@Z 00419c50 f i ETSLayout.obj
 0001:00018c50       ??_GPaneBase@ETSLayoutMgr@@UAEPAXI@Z 00419c50 f i ETSLayout.obj
 0001:00018c80       ??_GPaneItem@ETSLayoutMgr@@UAEPAXI@Z 00419c80 f i ETSLayout.obj
 0001:00018c80       ??_EPaneItem@ETSLayoutMgr@@UAEPAXI@Z 00419c80 f i ETSLayout.obj
 0001:00018cb0       ??1PaneItem@ETSLayoutMgr@@UAE@XZ 00419cb0 f i ETSLayout.obj
 0001:00018cd0       ?GetName@PaneBase@ETSLayoutMgr@@QAE?AV?$CStringT@DV?$StrTraitMFC_DLL@DV?$ChTraitsCRT@D@ATL@@@@@ATL@@XZ 00419cd0 f i ETSLayout.obj
 0001:00018d10       ??1PaneCtrl@ETSLayoutMgr@@UAE@XZ 00419d10 f i ETSLayout.obj
 0001:00018d10       ??1PaneTab@ETSLayoutMgr@@UAE@XZ 00419d10 f i ETSLayout.obj
 0001:00018d10       ??1PaneSplitter@ETSLayoutMgr@@UAE@XZ 00419d10 f i ETSLayoutEx.obj
 0001:00018d10       ??1PanePosition@ETSLayoutMgr@@UAE@XZ 00419d10 f i ETSLayoutEx.obj
 0001:00018d30       ??_GPaneTab@ETSLayoutMgr@@UAEPAXI@Z 00419d30 f i ETSLayout.obj
 0001:00018d30       ??_GPaneCtrl@ETSLayoutMgr@@UAEPAXI@Z 00419d30 f i ETSLayout.obj
 0001:00018d30       ??_EPaneSplitter@ETSLayoutMgr@@UAEPAXI@Z 00419d30 f i ETSLayoutEx.obj
 0001:00018d30       ??_EPaneTab@ETSLayoutMgr@@UAEPAXI@Z 00419d30 f i ETSLayout.obj
 0001:00018d30       ??_GPaneSplitter@ETSLayoutMgr@@UAEPAXI@Z 00419d30 f i ETSLayoutEx.obj
 0001:00018d30       ??_GPanePosition@ETSLayoutMgr@@UAEPAXI@Z 00419d30 f i ETSLayoutEx.obj
 0001:00018d30       ??_EPaneCtrl@ETSLayoutMgr@@UAEPAXI@Z 00419d30 f i ETSLayout.obj
 0001:00018d30       ??_EPanePosition@ETSLayoutMgr@@UAEPAXI@Z 00419d30 f i ETSLayoutEx.obj
 0001:00018d60       ??_EPane@ETSLayoutMgr@@UAEPAXI@Z 00419d60 f i ETSLayout.obj
 0001:00018d60       ??_GPane@ETSLayoutMgr@@UAEPAXI@Z 00419d60 f i ETSLayout.obj
 0001:00018d90       ?SetName@PaneBase@ETSLayoutMgr@@QAEXV?$CStringT@DV?$StrTraitMFC_DLL@DV?$ChTraitsCRT@D@ATL@@@@@ATL@@@Z 00419d90 f i ETSLayout.obj
 0001:00018df0       ?GetPaneBase@CPaneBase@ETSLayoutMgr@@QAEPAVPaneBase@2@XZ 00419df0 f i ETSLayout.obj
 0001:00018e10       ?getOrientation@Pane@ETSLayoutMgr@@QAE?AW4layOrientation@2@XZ 00419e10 f i ETSLayout.obj
 0001:00018e30       ?modeResize@PaneBase@ETSLayoutMgr@@QAEKXZ 00419e30 f i ETSLayout.obj
 0001:00018e50       ?getPaneRect@PaneBase@ETSLayoutMgr@@QAE?AVCRect@@XZ 00419e50 f i ETSLayout.obj
 0001:00018e80       ??0CSize@@QAE@HH@Z         00419e80 f i ETSLayout.obj
 0001:00018e80       ??0CPoint@@QAE@HH@Z        00419e80 f i ETSLayout.obj
 0001:00018e80       ??0PointF@Gdiplus@@QAE@MM@Z 00419e80 f i SkinBotton.obj
 0001:00018e80       ??0Point@Gdiplus@@QAE@HH@Z 00419e80 f i LocalMusicCoverList.obj
 0001:00018eb0       ?SetRect@CRect@@QAEXHHHH@Z 00419eb0 f i ETSLayout.obj
 0001:00018ee0       ?EqualRect@CRect@@QBEHPBUtagRECT@@@Z 00419ee0 f i ETSLayout.obj
 0001:00018ee0       ??8CRect@@QBEHABUtagRECT@@@Z 00419ee0 f i MyBtnTreeCtrl.obj
 0001:00018f00       ?OffsetRect@CRect@@QAEXHH@Z 00419f00 f i ETSLayout.obj
 0001:00018f20       ??ZCRect@@QAEXPBUtagRECT@@@Z 00419f20 f i ETSLayout.obj
 0001:00018f40       ??0ETSLayoutMgr@@QAE@PAVCWnd@@@Z 00419f40 f i ETSLayout.obj
 0001:00019050       ??_EETSLayoutDialog@@UAEPAXI@Z 0041a050 f i ETSLayout.obj
 0001:00019050       ??_GETSLayoutDialog@@UAEPAXI@Z 0041a050 f i ETSLayout.obj
 0001:00019080       ??1ETSLayoutDialog@@UAE@XZ 0041a080 f i ETSLayout.obj
 0001:00019100       ?DeflateRect@CRect@@QAEXPBUtagRECT@@@Z 0041a100 f i ETSLayout.obj
 0001:00019160       ?setRootBorders@ETSLayoutMgr@@QAEXHH@Z 0041a160 f i ETSLayout.obj
 0001:00019190       ?Initialize@ETSLayoutDialogBar@@UAEHXZ 0041a190 f i ETSLayout.obj
 0001:00019190       ?IsClickPng@CSkinButton@@UAEHXZ 0041a190 f i SkinBotton.obj
 0001:000191a0       ??_EETSLayoutDialogBar@@UAEPAXI@Z 0041a1a0 f i ETSLayout.obj
 0001:000191a0       ??_GETSLayoutDialogBar@@UAEPAXI@Z 0041a1a0 f i ETSLayout.obj
 0001:000191d0       ??1ETSLayoutDialogBar@@UAE@XZ 0041a1d0 f i ETSLayout.obj
 0001:00019240       ?DeflateRect@CRect@@QAEXHH@Z 0041a240 f i ETSLayout.obj
 0001:00019270       ??_EETSLayoutFormView@@UAEPAXI@Z 0041a270 f i ETSLayout.obj
 0001:00019270       ??_GETSLayoutFormView@@UAEPAXI@Z 0041a270 f i ETSLayout.obj
 0001:000192a0       ??1CFormView@@UAE@XZ       0041a2a0 f i ETSLayout.obj
 0001:000192c0       ??_GETSLayoutPropertyPage@@UAEPAXI@Z 0041a2c0 f i ETSLayout.obj
 0001:000192c0       ??_EETSLayoutPropertyPage@@UAEPAXI@Z 0041a2c0 f i ETSLayout.obj
 0001:000192f0       ??_GETSLayoutPropertySheet@@UAEPAXI@Z 0041a2f0 f i ETSLayout.obj
 0001:000192f0       ??_EETSLayoutPropertySheet@@UAEPAXI@Z 0041a2f0 f i ETSLayout.obj
 0001:00019320       ?CreateRoot@ETSLayoutMgr@@QAE?AVCPane@1@W4layOrientation@1@HH@Z 0041a320 f i ETSLayout.obj
 0001:00019450       ??_GPaneHolder@ETSLayoutMgr@@QAEPAXI@Z 0041a450 f i ETSLayout.obj
 0001:00019480       ?GetPane@CPane@ETSLayoutMgr@@QAEPAVPane@2@XZ 0041a480 f i ETSLayout.obj
 0001:000194a0       ??8ATL@@YA_NABV?$CStringT@DV?$StrTraitMFC_DLL@DV?$ChTraitsCRT@D@ATL@@@@@0@0@Z 0041a4a0 f i ETSLayout.obj
 0001:000194c0       ??0?$CArray@MM@@QAE@XZ     0041a4c0 f i ETSLayout.obj
 0001:00019510       ?RemoveAll@?$CArray@MM@@QAEXXZ 0041a510 f i ETSLayout.obj
 0001:00019530       ?ElementAt@?$CArray@HAAH@@QAEAAHH@Z 0041a530 f i BCMenu.obj
 0001:00019530       ?ElementAt@?$CArray@PAVBCMenu@@PAV1@@@QAEAAPAVBCMenu@@H@Z 0041a530 f i BCMenu.obj
 0001:00019530       ?GetAt@?$CArray@HH@@QAEAAHH@Z 0041a530 f i BCMenu.obj
 0001:00019530       ?GetAt@?$CArray@MM@@QAEAAMH@Z 0041a530 f i ETSLayout.obj
 0001:00019530       ?ElementAt@?$CArray@VCPaneBase@ETSLayoutMgr@@V12@@@QAEAAVCPaneBase@ETSLayoutMgr@@H@Z 0041a530 f i ETSLayout.obj
 0001:00019530       ?ElementAt@?$CArray@HH@@QAEAAHH@Z 0041a530 f i ETSLayout.obj
 0001:00019570       ??1?$CArray@MM@@UAE@XZ     0041a570 f i ETSLayout.obj
 0001:000195d0       ?IsStoring@CArchive@@QBEHXZ 0041a5d0 f i ETSLayout.obj
 0001:000195f0       ??0?$CArray@VCPaneBase@ETSLayoutMgr@@V12@@@QAE@XZ 0041a5f0 f i ETSLayout.obj
 0001:00019640       ?GetUpperBound@CPtrArray@@QBEHXZ 0041a640 f i BCMenu.obj
 0001:00019640       ?GetUpperBound@?$CArray@VCPaneBase@ETSLayoutMgr@@V12@@@QBEHXZ 0041a640 f i ETSLayout.obj
 0001:00019660       ?Add@?$CArray@VCPaneBase@ETSLayoutMgr@@V12@@@QAEHVCPaneBase@ETSLayoutMgr@@@Z 0041a660 f i ETSLayout.obj
 0001:000196e0       ??1?$CArray@VCPaneBase@ETSLayoutMgr@@V12@@@UAE@XZ 0041a6e0 f i ETSLayout.obj
 0001:00019780       ?Serialize@?$CArray@VCPaneBase@ETSLayoutMgr@@V12@@@UAEXAAVCArchive@@@Z 0041a780 f i ETSLayout.obj
 0001:000197f0       ??0?$CArray@HH@@QAE@XZ     0041a7f0 f i ETSLayout.obj
 0001:00019840       ??0CRgn@@QAE@XZ            0041a840 f i ETSLayout.obj
 0001:00019860       ??_GCRgn@@UAEPAXI@Z        0041a860 f i ETSLayout.obj
 0001:00019860       ??_ECRgn@@UAEPAXI@Z        0041a860 f i ETSLayout.obj
 0001:00019890       ??1CRgn@@UAE@XZ            0041a890 f i ETSLayout.obj
 0001:000198b0       ?CreateRectRgn@CRgn@@QAEHHHHH@Z 0041a8b0 f i ETSLayout.obj
 0001:000198e0       ?CreateRectRgnIndirect@CRgn@@QAEHPBUtagRECT@@@Z 0041a8e0 f i ETSLayout.obj
 0001:00019900       ?CreatePolygonRgn@CRgn@@QAEHPAUtagPOINT@@HH@Z 0041a900 f i ETSLayout.obj
 0001:00019930       ?SetRectRgn@CRgn@@QAEXPBUtagRECT@@@Z 0041a930 f i ETSLayout.obj
 0001:00019970       ?CombineRgn@CRgn@@QAEHPAV1@0H@Z 0041a970 f i ETSLayout.obj
 0001:000199a0       ??1?$CArray@HH@@UAE@XZ     0041a9a0 f i ETSLayout.obj
 0001:00019a00       ??_E?$CArray@MM@@UAEPAXI@Z 0041aa00 f i ETSLayout.obj
 0001:00019a00       ??_G?$CArray@MM@@UAEPAXI@Z 0041aa00 f i ETSLayout.obj
 0001:00019a30       ??_E?$CArray@VCPaneBase@ETSLayoutMgr@@V12@@@UAEPAXI@Z 0041aa30 f i ETSLayout.obj
 0001:00019a30       ??_G?$CArray@VCPaneBase@ETSLayoutMgr@@V12@@@UAEPAXI@Z 0041aa30 f i ETSLayout.obj
 0001:00019a60       ??_GCPaneBase@ETSLayoutMgr@@QAEPAXI@Z 0041aa60 f i ETSLayout.obj
 0001:00019a90       ??_G?$CArray@HH@@UAEPAXI@Z 0041aa90 f i ETSLayout.obj
 0001:00019a90       ??_E?$CArray@HH@@UAEPAXI@Z 0041aa90 f i ETSLayout.obj
 0001:00019ac0       ?SetSize@?$CArray@VCPaneBase@ETSLayoutMgr@@V12@@@QAEXHH@Z 0041aac0 f i ETSLayout.obj
 0001:00019ef0       ?FillRgn@CDC@@QAEHPAVCRgn@@PAVCBrush@@@Z 0041aef0 f i ETSLayout.obj
 0001:00019f20       ?SetAtGrow@?$CArray@VCPaneBase@ETSLayoutMgr@@V12@@@QAEXHVCPaneBase@ETSLayoutMgr@@@Z 0041af20 f i ETSLayout.obj
 0001:00019fa0       ??_EETSLayoutDialog@@WHE@AEPAXI@Z 0041afa0 f i ETSLayout.obj
 0001:00019fb0       ??_EETSLayoutDialogBar@@WKE@AEPAXI@Z 0041afb0 f i ETSLayout.obj
 0001:00019fc0       ??_EETSLayoutFormView@@WJI@AEPAXI@Z 0041afc0 f i ETSLayout.obj
 0001:00019fd0       ??_EETSLayoutPropertyPage@@WII@AEPAXI@Z 0041afd0 f i ETSLayout.obj
 0001:00019fe0       ??_EETSLayoutPropertySheet@@WKM@AEPAXI@Z 0041afe0 f i ETSLayout.obj
 0001:00019ff0       ?Invalidate@CWnd@@QAEXH@Z  0041aff0 f i ETSLayout.obj
 0001:0001a010       ?GetNextWindow@CWnd@@QBEPAV1@I@Z 0041b010 f i ETSLayout.obj
 0001:0001a040       ?GetNextWindow@@YAPAUHWND__@@PAU1@I@Z 0041b040 f i ETSLayout.obj
 0001:0001a060       ?GetWindow@CWnd@@QBEPAV1@I@Z 0041b060 f i ETSLayout.obj
 0001:0001a090       ?OnKillFocus@CWnd@@IAEXPAV1@@Z 0041b090 f i EditGlow.obj
 0001:0001a090       ?OnEraseBkgnd@CWnd@@IAEHPAVCDC@@@Z 0041b090 f i ETSSplitter.obj
 0001:0001a090       ?OnCreate@CWnd@@IAEHPAUtagCREATESTRUCTA@@@Z 0041b090 f i ETSLayout.obj
 0001:0001a090       ?OnWindowPosChanged@CWnd@@IAEXPAUtagWINDOWPOS@@@Z 0041b090 f i ETSLayout.obj
 0001:0001a090       ?OnWindowPosChanging@CWnd@@IAEXPAUtagWINDOWPOS@@@Z 0041b090 f i ETSLayout.obj
 0001:0001a090       ?OnTimer@CWnd@@IAEXI@Z     0041b090 f i PlayBoxDlg.obj
 0001:0001a090       ?OnGetMinMaxInfo@CWnd@@IAEXPAUtagMINMAXINFO@@@Z 0041b090 f i PlayBoxDlg.obj
 0001:0001a0b0       ?GetPage@CPropertySheet@@QBEPAVCPropertyPage@@H@Z 0041b0b0 f i ETSLayout.obj
 0001:0001a0d0       ?GetAt@CPtrArray@@QBEPAXH@Z 0041b0d0 f i ETSLayout.obj
 0001:0001a100       ?GetTabControl@CPropertySheet@@QBEPAVCTabCtrl@@XZ 0041b100 f i ETSLayout.obj
 0001:0001a130       ?IsWizard@CPropertySheet@@QBEHXZ 0041b130 f i ETSLayout.obj
 0001:0001a150       ?get_accChild@CFormView@@UAEJUtagVARIANT@@PAPAUIDispatch@@@Z 0041b150 f i ETSLayout.obj
 0001:0001a190       ?get_accChildCount@CFormView@@UAEJPAJ@Z 0041b190 f i ETSLayout.obj
 0001:0001a1b0       ?get_accName@CFormView@@UAEJUtagVARIANT@@PAPA_W@Z 0041b1b0 f i ETSLayout.obj
 0001:0001a1f0       ?accLocation@CFormView@@UAEJPAJ000UtagVARIANT@@@Z 0041b1f0 f i ETSLayout.obj
 0001:0001a240       ?accHitTest@CFormView@@UAEJJJPAUtagVARIANT@@@Z 0041b240 f i ETSLayout.obj
 0001:0001a270       ?Create@CDialogBar@@UAEHPAVCWnd@@III@Z 0041b270 f i ETSLayout.obj
 0001:0001a2a0       ?AdjustRect@CTabCtrl@@QAEXHPAUtagRECT@@@Z 0041b2a0 f i ETSLayout.obj
 0001:0001a2d0       ?paneSpl@ETSLayoutMgr@@QAE?AVCPane@1@PAVETSSplitter@@W4layOrientation@1@W4layResizeMode@1@HHHHHH@Z 0041b2d0 f   ETSLayoutEx.obj
 0001:0001a3f0       ??0PaneSplitter@ETSLayoutMgr@@QAE@PAVETSSplitter@@PAV1@W4layOrientation@1@@Z 0041b3f0 f   ETSLayoutEx.obj
 0001:0001a440       ?showPane@PaneSplitter@ETSLayoutMgr@@UAEX_N@Z 0041b440 f   ETSLayoutEx.obj
 0001:0001a490       ?getMinConstrainHorz@PaneSplitter@ETSLayoutMgr@@UAEHXZ 0041b490 f   ETSLayoutEx.obj
 0001:0001a4d0       ?getMinConstrainVert@PaneSplitter@ETSLayoutMgr@@UAEHXZ 0041b4d0 f   ETSLayoutEx.obj
 0001:0001a510       ?resizeTo@PaneSplitter@ETSLayoutMgr@@UAE_NAAVCRect@@_N1@Z 0041b510 f   ETSLayoutEx.obj
 0001:0001a810       ?setOpenConstrain@PaneSplitter@ETSLayoutMgr@@QAEXXZ 0041b810 f   ETSLayoutEx.obj
 0001:0001a8e0       ?getOpenConstrain@PaneSplitter@ETSLayoutMgr@@QAEHH@Z 0041b8e0 f   ETSLayoutEx.obj
 0001:0001a9e0       ?getCloseConstrain@PaneSplitter@ETSLayoutMgr@@QAEHH@Z 0041b9e0 f   ETSLayoutEx.obj
 0001:0001aae0       ?getOffsetConstrain@PaneSplitter@ETSLayoutMgr@@QAEHH@Z 0041bae0 f   ETSLayoutEx.obj
 0001:0001ac10       ?SetSplPosition@PaneSplitter@ETSLayoutMgr@@QAEXH@Z 0041bc10 f   ETSLayoutEx.obj
 0001:0001aed0       ?GetSplPosition@PaneSplitter@ETSLayoutMgr@@QAEHXZ 0041bed0 f   ETSLayoutEx.obj
 0001:0001afd0       ?GetOuterPaneMinPosition@PaneSplitter@ETSLayoutMgr@@QAEHXZ 0041bfd0 f   ETSLayoutEx.obj
 0001:0001b050       ?ForceResizeOuterPane@PaneSplitter@ETSLayoutMgr@@QAE_NH_N@Z 0041c050 f   ETSLayoutEx.obj
 0001:0001b160       ?resizeTo@PaneSplitter@ETSLayoutMgr@@QAE_NH_N0@Z 0041c160 f   ETSLayoutEx.obj
 0001:0001b330       ?getSecondSize@PaneSplitter@ETSLayoutMgr@@QAEHXZ 0041c330 f   ETSLayoutEx.obj
 0001:0001b3e0       ?IsClosed@PaneSplitter@ETSLayoutMgr@@QAEHXZ 0041c3e0 f   ETSLayoutEx.obj
 0001:0001b4f0       ?addPane@PaneSplitter@ETSLayoutMgr@@UAE_NVCPane@2@W4layResizeMode@2@H@Z 0041c4f0 f   ETSLayoutEx.obj
 0001:0001b620       ?addPane@PaneSplitter@ETSLayoutMgr@@UAE_NVCPaneBase@2@@Z 0041c620 f   ETSLayoutEx.obj
 0001:0001b740       ?ForceResizeTo@PaneSplitter@ETSLayoutMgr@@AAEXAAVCPaneBase@2@AAVCRect@@_N@Z 0041c740 f   ETSLayoutEx.obj
 0001:0001b7a0       ??CCPaneMulti@ETSLayoutMgr@@QBEPAVPaneMulti@1@XZ 0041c7a0 f   ETSLayoutEx.obj
 0001:0001b7c0       ??6CPaneMulti@ETSLayoutMgr@@QAEAAV01@VCPane@1@@Z 0041c7c0 f   ETSLayoutEx.obj
 0001:0001b860       ??6CPaneMulti@ETSLayoutMgr@@QAEAAV01@VCPaneBase@1@@Z 0041c860 f   ETSLayoutEx.obj
 0001:0001b8f0       ??0CPaneMulti@ETSLayoutMgr@@QAE@PAVPaneMulti@1@@Z 0041c8f0 f   ETSLayoutEx.obj
 0001:0001b910       ??0CPaneMulti@ETSLayoutMgr@@QAE@XZ 0041c910 f   ETSLayoutEx.obj
 0001:0001b930       ?paneMulti@ETSLayoutMgr@@QAE?AVCPaneMulti@1@W4layOrientation@1@W4layResizeMode@1@HHH@Z 0041c930 f   ETSLayoutEx.obj
 0001:0001b9f0       ?showPane@PaneMulti@ETSLayoutMgr@@UAEX_N@Z 0041c9f0 f   ETSLayoutEx.obj
 0001:0001bb80       ?GetSubPane@PaneMulti@ETSLayoutMgr@@UAE?AVCPaneBase@2@V?$CStringT@DV?$StrTraitMFC_DLL@DV?$ChTraitsCRT@D@ATL@@@@@ATL@@@Z 0041cb80 f   ETSLayoutEx.obj
 0001:0001bd00       ?addLayer@PaneMulti@ETSLayoutMgr@@UAEXV?$CStringT@DV?$StrTraitMFC_DLL@DV?$ChTraitsCRT@D@ATL@@@@@ATL@@VCPaneBase@2@@Z 0041cd00 f   ETSLayoutEx.obj
 0001:0001bda0       ?getCurrent@PaneMulti@ETSLayoutMgr@@QAE?AV?$CStringT@DV?$StrTraitMFC_DLL@DV?$ChTraitsCRT@D@ATL@@@@@ATL@@XZ 0041cda0 f   ETSLayoutEx.obj
 0001:0001bde0       ?setCurrent@PaneMulti@ETSLayoutMgr@@QAE_NV?$CStringT@DV?$StrTraitMFC_DLL@DV?$ChTraitsCRT@D@ATL@@@@@ATL@@_N@Z 0041cde0 f   ETSLayoutEx.obj
 0001:0001c070       ??CCPanePosition@ETSLayoutMgr@@QBEPAVPanePosition@1@XZ 0041d070 f   ETSLayoutEx.obj
 0001:0001c090       ??6CPanePosition@ETSLayoutMgr@@QAEAAV01@VCPane@1@@Z 0041d090 f   ETSLayoutEx.obj
 0001:0001c130       ??6CPanePosition@ETSLayoutMgr@@QAEAAV01@VCPaneBase@1@@Z 0041d130 f   ETSLayoutEx.obj
 0001:0001c1c0       ??0CPanePosition@ETSLayoutMgr@@QAE@PAVPanePosition@1@@Z 0041d1c0 f   ETSLayoutEx.obj
 0001:0001c1e0       ??0CPanePosition@ETSLayoutMgr@@QAE@XZ 0041d1e0 f   ETSLayoutEx.obj
 0001:0001c200       ?panePosition@ETSLayoutMgr@@QAE?AVCPanePosition@1@W4layOrientation@1@W4layResizeMode@1@HHH@Z 0041d200 f   ETSLayoutEx.obj
 0001:0001c2c0       ??0PanePosition@ETSLayoutMgr@@QAE@PAV1@W4layOrientation@1@HH@Z 0041d2c0 f   ETSLayoutEx.obj
 0001:0001c300       ?resizeTo@PanePosition@ETSLayoutMgr@@UAE_NAAVCRect@@_N1@Z 0041d300 f   ETSLayoutEx.obj
 0001:0001ca50       ?AddParameter@ETSLayoutMgr@@QAEXV?$CStringT@DV?$StrTraitMFC_DLL@DV?$ChTraitsCRT@D@ATL@@@@@ATL@@0@Z 0041da50 f   ETSLayoutEx.obj
 0001:0001cac0       ?GetValue@ETSLayoutMgr@@QAEHV?$CStringT@DV?$StrTraitMFC_DLL@DV?$ChTraitsCRT@D@ATL@@@@@ATL@@AAV23@@Z 0041dac0 f   ETSLayoutEx.obj
 0001:0001cb30       ?UpdateBkLayout@ETSLayoutMgr@@UAEXPAVCDC@@H@Z 0041db30 f   ETSLayoutEx.obj
 0001:0001cc40       ?isLayerExist@PaneMulti@ETSLayoutMgr@@QAE_NV?$CStringT@DV?$StrTraitMFC_DLL@DV?$ChTraitsCRT@D@ATL@@@@@ATL@@@Z 0041dc40 f   ETSLayoutEx.obj
 0001:0001ccf0       ??0CRect@@QAE@ABUtagRECT@@@Z 0041dcf0 f i ColorSlide.obj
 0001:0001ccf0       ??0CRect@@QAE@PBUtagRECT@@@Z 0041dcf0 f i ETSLayoutEx.obj
 0001:0001cd10       ?RemoveAll@?$CArray@VCPaneBase@ETSLayoutMgr@@V12@@@QAEXXZ 0041dd10 f i ETSLayoutEx.obj
 0001:0001cd30       ?Lookup@?$CMap@V?$CStringT@DV?$StrTraitMFC_DLL@DV?$ChTraitsCRT@D@ATL@@@@@ATL@@PBDVCPaneBase@ETSLayoutMgr@@V34@@@QBEHPBDAAVCPaneBase@ETSLayoutMgr@@@Z 0041dd30 f i ETSLayoutEx.obj
 0001:0001cd80       ?SetAt@?$CMap@V?$CStringT@DV?$StrTraitMFC_DLL@DV?$ChTraitsCRT@D@ATL@@@@@ATL@@PBDVCPaneBase@ETSLayoutMgr@@V34@@@QAEXPBDVCPaneBase@ETSLayoutMgr@@@Z 0041dd80 f i ETSLayoutEx.obj
 0001:0001cde0       ?GetNextAssoc@?$CMap@V?$CStringT@DV?$StrTraitMFC_DLL@DV?$ChTraitsCRT@D@ATL@@@@@ATL@@PBDVCPaneBase@ETSLayoutMgr@@V34@@@QBEXAAPAU__POSITION@@AAV?$CStringT@DV?$StrTraitMFC_DLL@DV?$ChTraitsCRT@D@ATL@@@@@ATL@@AAVCPaneBase@ETSLayoutMgr@@@Z 0041dde0 f i ETSLayoutEx.obj
 0001:0001ceb0       ?InflateRect@CRect@@QAEXHHHH@Z 0041deb0 f i ETSLayoutEx.obj
 0001:0001cf00       ??A?$CMap@V?$CStringT@DV?$StrTraitMFC_DLL@DV?$ChTraitsCRT@D@ATL@@@@@ATL@@PBDVCPaneBase@ETSLayoutMgr@@V34@@@QAEAAVCPaneBase@ETSLayoutMgr@@PBD@Z 0041df00 f i ETSLayoutEx.obj
 0001:0001cf90       ?GetAssocAt@?$CMap@V?$CStringT@DV?$StrTraitMFC_DLL@DV?$ChTraitsCRT@D@ATL@@@@@ATL@@PBDVCPaneBase@ETSLayoutMgr@@V34@@@IBEPAVCAssoc@1@PBDAAI1@Z 0041df90 f i ETSLayoutEx.obj
 0001:0001d020       ?InitHashTable@?$CMap@V?$CStringT@DV?$StrTraitMFC_DLL@DV?$ChTraitsCRT@D@ATL@@@@@ATL@@PBDVCPaneBase@ETSLayoutMgr@@V34@@@QAEXIH@Z 0041e020 f i ETSLayoutEx.obj
 0001:0001d020       ?InitHashTable@?$CMap@PAUHWND__@@PAU1@PAVETSLayoutMgr@@PAV2@@@QAEXIH@Z 0041e020 f i PanesMgr.obj
 0001:0001d0a0       ?NewAssoc@?$CMap@V?$CStringT@DV?$StrTraitMFC_DLL@DV?$ChTraitsCRT@D@ATL@@@@@ATL@@PBDVCPaneBase@ETSLayoutMgr@@V34@@@IAEPAVCAssoc@1@PBD@Z 0041e0a0 f i ETSLayoutEx.obj
 0001:0001d1e0       ??$CompareElements@V?$CStringT@DV?$StrTraitMFC_DLL@DV?$ChTraitsCRT@D@ATL@@@@@ATL@@PBD@@YGHPBV?$CStringT@DV?$StrTraitMFC_DLL@DV?$ChTraitsCRT@D@ATL@@@@@ATL@@PBQBD@Z 0041e1e0 f i ETSLayoutEx.obj
 0001:0001d200       ??0CAssoc@?$CMap@V?$CStringT@DV?$StrTraitMFC_DLL@DV?$ChTraitsCRT@D@ATL@@@@@ATL@@PBDVCPaneBase@ETSLayoutMgr@@V34@@@QAE@PBD@Z 0041e200 f i ETSLayoutEx.obj
 0001:0001d220       ??0CPair@?$CMap@V?$CStringT@DV?$StrTraitMFC_DLL@DV?$ChTraitsCRT@D@ATL@@@@@ATL@@PBDVCPaneBase@ETSLayoutMgr@@V34@@@IAE@PBD@Z 0041e220 f i ETSLayoutEx.obj
 0001:0001d280       ?SetAt@CMapStringToString@@QAEXPBD0@Z 0041e280 f i ETSLayoutEx.obj
 0001:0001d2b0       ??0CMemDC@@QAE@PAVCDC@@ABVCRect@@@Z 0041e2b0 f i ETSLayoutEx.obj
 0001:0001d3c0       ?CreateCompatibleBitmap@CBitmap@@QAEHPAVCDC@@HH@Z 0041e3c0 f i ETSLayoutEx.obj
 0001:0001d3f0       ?CreateCompatibleDC@CDC@@QAEHPAV1@@Z 0041e3f0 f i ETSLayoutEx.obj
 0001:0001d420       ?SelectObject@CDC@@QAEPAVCBitmap@@PAV2@@Z 0041e420 f i ETSLayoutEx.obj
 0001:0001d450       ?PtVisible@CDC@@UBEHHH@Z   0041e450 f i ETSLayoutEx.obj
 0001:0001d480       ?RectVisible@CDC@@UBEHPBUtagRECT@@@Z 0041e480 f i ETSLayoutEx.obj
 0001:0001d4a0       ?TextOutA@CDC@@UAEHHHPBDH@Z 0041e4a0 f i ETSLayoutEx.obj
 0001:0001d4d0       ?ExtTextOutA@CDC@@UAEHHHIPBUtagRECT@@PBDIPAH@Z 0041e4d0 f i ETSLayoutEx.obj
 0001:0001d510       ?TabbedTextOutA@CDC@@UAE?AVCSize@@HHPBDHHPAHH@Z 0041e510 f i ETSLayoutEx.obj
 0001:0001d560       ??0CSize@@QAE@K@Z          0041e560 f i ETSLayoutEx.obj
 0001:0001d560       ??0CPoint@@QAE@J@Z         0041e560 f i SubSkinButton.obj
 0001:0001d590       ?DrawTextA@CDC@@UAEHPBDHPAUtagRECT@@I@Z 0041e590 f i ETSLayoutEx.obj
 0001:0001d5c0       ?DrawTextExA@CDC@@UAEHPADHPAUtagRECT@@IPAUtagDRAWTEXTPARAMS@@@Z 0041e5c0 f i ETSLayoutEx.obj
 0001:0001d5f0       ?GrayStringA@CDC@@UAEHPAVCBrush@@P6GHPAUHDC__@@JH@ZJHHHHH@Z 0041e5f0 f i ETSLayoutEx.obj
 0001:0001d630       ?Escape@CDC@@UAEHHHPBDPAX@Z 0041e630 f i ETSLayoutEx.obj
 0001:0001d660       ??1CMemDC@@UAE@XZ          0041e660 f i ETSLayoutEx.obj
 0001:0001d750       ?BitBlt@CDC@@QAEHHHHHPAV1@HHK@Z 0041e750 f i ETSLayoutEx.obj
 0001:0001d790       ??_ECMemDC@@UAEPAXI@Z      0041e790 f i ETSLayoutEx.obj
 0001:0001d790       ??_GCMemDC@@UAEPAXI@Z      0041e790 f i ETSLayoutEx.obj
 0001:0001d7c0       ??0PaneMulti@ETSLayoutMgr@@QAE@PAV1@W4layOrientation@1@HH@Z 0041e7c0 f   ETSPaneMulti.obj
 0001:0001d860       ?getConstrainHorz@PaneMulti@ETSLayoutMgr@@UAEHH@Z 0041e860 f   ETSPaneMulti.obj
 0001:0001d890       ?getConstrainVert@PaneMulti@ETSLayoutMgr@@UAEHH@Z 0041e890 f   ETSPaneMulti.obj
 0001:0001d8c0       ?getMinConstrainHorz@PaneMulti@ETSLayoutMgr@@UAEHXZ 0041e8c0 f   ETSPaneMulti.obj
 0001:0001d8f0       ?getMinConstrainVert@PaneMulti@ETSLayoutMgr@@UAEHXZ 0041e8f0 f   ETSPaneMulti.obj
 0001:0001d920       ?getMaxConstrainHorz@PaneMulti@ETSLayoutMgr@@UAEHXZ 0041e920 f   ETSPaneMulti.obj
 0001:0001d950       ?getMaxConstrainVert@PaneMulti@ETSLayoutMgr@@UAEHXZ 0041e950 f   ETSPaneMulti.obj
 0001:0001d980       ?resizeTo@PaneMulti@ETSLayoutMgr@@UAE_NAAVCRect@@_N1@Z 0041e980 f   ETSPaneMulti.obj
 0001:0001d9e0       ??_EPaneMulti@ETSLayoutMgr@@UAEPAXI@Z 0041e9e0 f i ETSPaneMulti.obj
 0001:0001d9e0       ??_GPaneMulti@ETSLayoutMgr@@UAEPAXI@Z 0041e9e0 f i ETSPaneMulti.obj
 0001:0001da10       ??1PaneMulti@ETSLayoutMgr@@UAE@XZ 0041ea10 f i ETSPaneMulti.obj
 0001:0001da90       ??0?$CMap@V?$CStringT@DV?$StrTraitMFC_DLL@DV?$ChTraitsCRT@D@ATL@@@@@ATL@@PBDVCPaneBase@ETSLayoutMgr@@V34@@@QAE@H@Z 0041ea90 f i ETSPaneMulti.obj
 0001:0001daf0       ??1?$CMap@V?$CStringT@DV?$StrTraitMFC_DLL@DV?$ChTraitsCRT@D@ATL@@@@@ATL@@PBDVCPaneBase@ETSLayoutMgr@@V34@@@UAE@XZ 0041eaf0 f i ETSPaneMulti.obj
 0001:0001db50       ?Serialize@?$CMap@V?$CStringT@DV?$StrTraitMFC_DLL@DV?$ChTraitsCRT@D@ATL@@@@@ATL@@PBDVCPaneBase@ETSLayoutMgr@@V34@@@UAEXAAVCArchive@@@Z 0041eb50 f i ETSPaneMulti.obj
 0001:0001dd00       ??_G?$CMap@V?$CStringT@DV?$StrTraitMFC_DLL@DV?$ChTraitsCRT@D@ATL@@@@@ATL@@PBDVCPaneBase@ETSLayoutMgr@@V34@@@UAEPAXI@Z 0041ed00 f i ETSPaneMulti.obj
 0001:0001dd00       ??_E?$CMap@V?$CStringT@DV?$StrTraitMFC_DLL@DV?$ChTraitsCRT@D@ATL@@@@@ATL@@PBDVCPaneBase@ETSLayoutMgr@@V34@@@UAEPAXI@Z 0041ed00 f i ETSPaneMulti.obj
 0001:0001dd30       ?RemoveAll@?$CMap@V?$CStringT@DV?$StrTraitMFC_DLL@DV?$ChTraitsCRT@D@ATL@@@@@ATL@@PBDVCPaneBase@ETSLayoutMgr@@V34@@@QAEXXZ 0041ed30 f i ETSPaneMulti.obj
 0001:0001dde0       ??1CAssoc@?$CMap@V?$CStringT@DV?$StrTraitMFC_DLL@DV?$ChTraitsCRT@D@ATL@@@@@ATL@@PBDVCPaneBase@ETSLayoutMgr@@V34@@@QAE@XZ 0041ede0 f i ETSPaneMulti.obj
 0001:0001de00       ??1CPair@?$CMap@V?$CStringT@DV?$StrTraitMFC_DLL@DV?$ChTraitsCRT@D@ATL@@@@@ATL@@PBDVCPaneBase@ETSLayoutMgr@@V34@@@QAE@XZ 0041ee00 f i ETSPaneMulti.obj
 0001:0001de50       ?GetThisClass@ETSSplitter@@SGPAUCRuntimeClass@@XZ 0041ee50 f   ETSSplitter.obj
 0001:0001de60       ?GetRuntimeClass@ETSSplitter@@UBEPAUCRuntimeClass@@XZ 0041ee60 f   ETSSplitter.obj
 0001:0001de70       ??0ETSSplitter@@QAE@PBD@Z  0041ee70 f   ETSSplitter.obj
 0001:0001ded0       ?GetThisMessageMap@ETSSplitter@@KGPBUAFX_MSGMAP@@XZ 0041eed0 f   ETSSplitter.obj
 0001:0001dee0       ?GetMessageMap@ETSSplitter@@MBEPBUAFX_MSGMAP@@XZ 0041eee0 f   ETSSplitter.obj
 0001:0001def0       ?SetSlim@ETSSplitter@@QAEX_N@Z 0041eef0 f   ETSSplitter.obj
 0001:0001df10       ?SetBitmap@ETSSplitter@@QAEXPAVCDibBitmap@@000000000@Z 0041ef10 f   ETSSplitter.obj
 0001:0001dfc0       ?OnEraseBkgnd@ETSSplitter@@IAEHPAVCDC@@@Z 0041efc0 f   ETSSplitter.obj
 0001:0001dfe0       ?GetSplSize@ETSSplitter@@QAEHXZ 0041efe0 f   ETSSplitter.obj
 0001:0001e060       ?OnPaint@ETSSplitter@@IAEXXZ 0041f060 f   ETSSplitter.obj
 0001:0001e490       ??1ETSSplitter@@UAE@XZ     0041f490 f   ETSSplitter.obj
 0001:0001e4c0       ?IsMouseInCenterBar@ETSSplitter@@QAEHVCPoint@@@Z 0041f4c0 f   ETSSplitter.obj
 0001:0001e590       ?OnLButtonDown@ETSSplitter@@IAEXIVCPoint@@@Z 0041f590 f   ETSSplitter.obj
 0001:0001e680       ?IsClosed@ETSSplitter@@QAE_NXZ 0041f680 f   ETSSplitter.obj
 0001:0001e6c0       ?CloseSplitter@ETSSplitter@@UAEXXZ 0041f6c0 f   ETSSplitter.obj
 0001:0001e720       ?OnLButtonUp@ETSSplitter@@IAEXIVCPoint@@@Z 0041f720 f   ETSSplitter.obj
 0001:0001e840       ?OnTimer@ETSSplitter@@IAEXI@Z 0041f840 f   ETSSplitter.obj
 0001:0001ea00       ?ChangeBarBtn@ETSSplitter@@AAEXH@Z 0041fa00 f   ETSSplitter.obj
 0001:0001eac0       ?OnMouseMove@ETSSplitter@@IAEXIVCPoint@@@Z 0041fac0 f   ETSSplitter.obj
 0001:0001ecb0       ?DrawVertBar@ETSSplitter@@MAEXH@Z 0041fcb0 f   ETSSplitter.obj
 0001:0001edd0       ?DrawHorizBar@ETSSplitter@@MAEXH@Z 0041fdd0 f   ETSSplitter.obj
 0001:0001eef0       ?PreCreateWindow@ETSSplitter@@MAEHAAUtagCREATESTRUCTA@@@Z 0041fef0 f   ETSSplitter.obj
 0001:0001ef20       ?ConstrainOffset@ETSSplitter@@MAEXXZ 0041ff20 f   ETSSplitter.obj
 0001:0001ef50       ?OnMouseLeave@ETSSplitter@@IAEJIJ@Z 0041ff50 f   ETSSplitter.obj
 0001:0001ef80       ?CloseSplitter@ETSOuterSplitter@@UAEXXZ 0041ff80 f   ETSSplitter.obj
 0001:0001f210       ?ConstrainOffset@ETSOuterSplitter@@MAEXXZ 00420210 f   ETSSplitter.obj
 0001:0001f2b0       ?SetMainWndConstrain@ETSOuterSplitter@@QAEXAAH0PAUtagRECT@@_N@Z 004202b0 f   ETSSplitter.obj
 0001:0001f3d0       ?OnShowWindow@ETSSplitter@@IAEXHI@Z 004203d0 f   ETSSplitter.obj
 0001:0001f3f0       ??_GETSSplitter@@UAEPAXI@Z 004203f0 f i ETSSplitter.obj
 0001:0001f3f0       ??_EETSSplitter@@UAEPAXI@Z 004203f0 f i ETSSplitter.obj
 0001:0001f420       ?SetClosed@PaneBase@ETSLayoutMgr@@QAEXH@Z 00420420 f i ETSSplitter.obj
 0001:0001f440       ?CenterPoint@CRect@@QBE?AVCPoint@@XZ 00420440 f i ETSSplitter.obj
 0001:0001f480       ??ZCRect@@QAEXUtagPOINT@@@Z 00420480 f i ETSSplitter.obj
 0001:0001f4b0       ?SetRedraw@CWnd@@QAEXH@Z   004204b0 f i ETSSplitter.obj
 0001:0001f4e0       ?SetTimer@CWnd@@QAEIIIP6GXPAUHWND__@@IIK@Z@Z 004204e0 f i ETSSplitter.obj
 0001:0001f510       ?OnChar@CWnd@@IAEXIII@Z    00420510 f i TopPanelWnd.obj
 0001:0001f510       ?OnRButtonUp@CWnd@@IAEXIVCPoint@@@Z 00420510 f i xSkinButton.obj
 0001:0001f510       ?OnLButtonUp@CWnd@@IAEXIVCPoint@@@Z 00420510 f i ETSSplitter.obj
 0001:0001f510       ?OnLButtonDown@CWnd@@IAEXIVCPoint@@@Z 00420510 f i PlayBoxDlg.obj
 0001:0001f510       ?OnSize@CWnd@@IAEXIHH@Z    00420510 f i PlayBoxDlg.obj
 0001:0001f510       ?OnKeyDown@CWnd@@IAEXIII@Z 00420510 f i xSkinButton.obj
 0001:0001f510       ?OnRButtonDown@CWnd@@IAEXIVCPoint@@@Z 00420510 f i SubSkinButton.obj
 0001:0001f510       ?OnLButtonDblClk@CWnd@@IAEXIVCPoint@@@Z 00420510 f i xSkinComboBox.obj
 0001:0001f510       ?OnMouseMove@CWnd@@IAEXIVCPoint@@@Z 00420510 f i PlayBoxDlg.obj
 0001:0001f530       ??0CStatic@@QAE@XZ         00420530 f i ETSSplitter.obj
 0001:0001f550       ??_GCStatic@@UAEPAXI@Z     00420550 f i ETSSplitter.obj
 0001:0001f550       ??_ECStatic@@UAEPAXI@Z     00420550 f i ETSSplitter.obj
 0001:0001f580       ?LoadStandardCursor@CWinApp@@QBEPAUHICON__@@PBD@Z 00420580 f i ETSSplitter.obj
 0001:0001f5a0       ??0CPanesMgr@@QAE@XZ       004205a0 f   PanesMgr.obj
 0001:0001f720       ?SetXmlPath@CPanesMgr@@UAE_NV?$CStringT@DV?$StrTraitMFC_DLL@DV?$ChTraitsCRT@D@ATL@@@@@ATL@@@Z 00420720 f   PanesMgr.obj
 0001:0001f7e0       ?SetNodeValue@CPanesMgr@@QAEXV?$CStringT@DV?$StrTraitMFC_DLL@DV?$ChTraitsCRT@D@ATL@@@@@ATL@@000@Z 004207e0 f   PanesMgr.obj
 0001:0001f9a0       ?GetNodeValue@CPanesMgr@@UAEXV?$CStringT@DV?$StrTraitMFC_DLL@DV?$ChTraitsCRT@D@ATL@@@@@ATL@@00AAV23@@Z 004209a0 f   PanesMgr.obj
 0001:0001fb70       ?ClearBkLayoutMap@CPanesMgr@@AAEXXZ 00420b70 f   PanesMgr.obj
 0001:0001fbf0       ?ClearWndLayoutMap@CPanesMgr@@AAEXXZ 00420bf0 f   PanesMgr.obj
 0001:0001fc70       ??1CPanesMgr@@UAE@XZ       00420c70 f   PanesMgr.obj
 0001:0001fdc0       ?SavePanes@CPanesMgr@@AAEXXZ 00420dc0 f   PanesMgr.obj
 0001:0001feb0       ?AppExit@CPanesMgr@@UAEXXZ 00420eb0 f   PanesMgr.obj
 0001:0001fed0       ?FindNode@CPanesMgr@@AAEHV?$CStringT@DV?$StrTraitMFC_DLL@DV?$ChTraitsCRT@D@ATL@@@@@ATL@@0@Z 00420ed0 f   PanesMgr.obj
 0001:00020080       ?SaveWndPanel@CPanesMgr@@UAEXV?$CStringT@DV?$StrTraitMFC_DLL@DV?$ChTraitsCRT@D@ATL@@@@@ATL@@0@Z 00421080 f   PanesMgr.obj
 0001:00020490       ?SaveSplPane@CPanesMgr@@AAEXXZ 00421490 f   PanesMgr.obj
 0001:000205e0       ?RecursionSavePane@CPanesMgr@@AAEHV?$CStringT@DV?$StrTraitMFC_DLL@DV?$ChTraitsCRT@D@ATL@@@@@ATL@@@Z 004215e0 f   PanesMgr.obj
 0001:00020d20       ?CreatePaneItem@CPanesMgr@@AAE?AVCPaneBase@ETSLayoutMgr@@V?$CStringT@DV?$StrTraitMFC_DLL@DV?$ChTraitsCRT@D@ATL@@@@@ATL@@PAV3@@Z 00421d20 f   PanesMgr.obj
 0001:00021170       ?CreatePaneSpl@CPanesMgr@@AAE?AVCPane@ETSLayoutMgr@@V?$CStringT@DV?$StrTraitMFC_DLL@DV?$ChTraitsCRT@D@ATL@@@@@ATL@@PAV3@@Z 00422170 f   PanesMgr.obj
 0001:000213a0       ?CreatePane@CPanesMgr@@AAE?AVCPane@ETSLayoutMgr@@V?$CStringT@DV?$StrTraitMFC_DLL@DV?$ChTraitsCRT@D@ATL@@@@@ATL@@PAV3@@Z 004223a0 f   PanesMgr.obj
 0001:000214f0       ?AddPane@CPanesMgr@@AAEXV?$CStringT@DV?$StrTraitMFC_DLL@DV?$ChTraitsCRT@D@ATL@@@@@ATL@@VCPaneBase@ETSLayoutMgr@@@Z 004224f0 f   PanesMgr.obj
 0001:00021570       ?GetPane@CPanesMgr@@AAE_NV?$CStringT@DV?$StrTraitMFC_DLL@DV?$ChTraitsCRT@D@ATL@@@@@ATL@@AAVCPaneBase@ETSLayoutMgr@@@Z 00422570 f   PanesMgr.obj
 0001:00021600       ?CreatePaneMulti@CPanesMgr@@AAE?AVCPaneMulti@ETSLayoutMgr@@V?$CStringT@DV?$StrTraitMFC_DLL@DV?$ChTraitsCRT@D@ATL@@@@@ATL@@PAV3@0@Z 00422600 f   PanesMgr.obj
 0001:00021840       ?SetPositionParam@CPanesMgr@@AAEXPAVPaneBase@ETSLayoutMgr@@@Z 00422840 f   PanesMgr.obj
 0001:000220c0       ?SaveMultiLayer@CPanesMgr@@AAEHV?$CStringT@DV?$StrTraitMFC_DLL@DV?$ChTraitsCRT@D@ATL@@@@@ATL@@@Z 004230c0 f   PanesMgr.obj
 0001:00022630       ?CreateMultiLayer@CPanesMgr@@AAEHPAVCPaneMulti@ETSLayoutMgr@@PAV3@PAVCPane@3@V?$CStringT@DV?$StrTraitMFC_DLL@DV?$ChTraitsCRT@D@ATL@@@@@ATL@@@Z 00423630 f   PanesMgr.obj
 0001:00022df0       ?RecursionCreatePane@CPanesMgr@@AAEHPAVCPane@ETSLayoutMgr@@PAV3@0@Z 00423df0 f   PanesMgr.obj
 0001:000233b0       ?getItemType@CPanesMgr@@AAE?AW4itemType@ETSLayoutMgr@@XZ 004243b0 f   PanesMgr.obj
 0001:00023550       ?getModeSize@CPanesMgr@@AAE?AW4layResizeMode@ETSLayoutMgr@@XZ 00424550 f   PanesMgr.obj
 0001:00023830       ?AddPaneMulti@CPanesMgr@@AAEXV?$CStringT@DV?$StrTraitMFC_DLL@DV?$ChTraitsCRT@D@ATL@@@@@ATL@@PAVCPaneMulti@ETSLayoutMgr@@@Z 00424830 f   PanesMgr.obj
 0001:000238a0       ?GetPaneMulti@CPanesMgr@@AAEHV?$CStringT@DV?$StrTraitMFC_DLL@DV?$ChTraitsCRT@D@ATL@@@@@ATL@@AAVCPaneMulti@ETSLayoutMgr@@@Z 004248a0 f   PanesMgr.obj
 0001:00023960       ?AddWndLayoutMgr@CPanesMgr@@AAEXPAUHWND__@@PAVETSLayoutMgr@@@Z 00424960 f   PanesMgr.obj
 0001:00023990       ?AddBkLayoutMgr@CPanesMgr@@AAEXPAUHWND__@@PAVETSLayoutMgr@@@Z 00424990 f   PanesMgr.obj
 0001:000239c0       ?GetWndLayoutMgr@CPanesMgr@@QAEPAVETSLayoutMgr@@PAUHWND__@@@Z 004249c0 f   PanesMgr.obj
 0001:000239f0       ?GetBkLayoutMgr@CPanesMgr@@QAEPAVETSLayoutMgr@@PAUHWND__@@@Z 004249f0 f   PanesMgr.obj
 0001:00023a20       ?PaintBkGround@CPanesMgr@@UAEXPAUHWND__@@PAVCDC@@H@Z 00424a20 f   PanesMgr.obj
 0001:00023a60       ?RegisterWnd@CPanesMgr@@UAEXV?$CStringT@DV?$StrTraitMFC_DLL@DV?$ChTraitsCRT@D@ATL@@@@@ATL@@PAVCWnd@@@Z 00424a60 f   PanesMgr.obj
 0001:00023ad0       ?GetWnd@CPanesMgr@@UAEPAVCWnd@@V?$CStringT@DV?$StrTraitMFC_DLL@DV?$ChTraitsCRT@D@ATL@@@@@ATL@@@Z 00424ad0 f   PanesMgr.obj
 0001:00023d30       ?RegisterCtrl@CPanesMgr@@UAEXPAVCWnd@@V?$CStringT@DV?$StrTraitMFC_DLL@DV?$ChTraitsCRT@D@ATL@@@@@ATL@@0@Z 00424d30 f   PanesMgr.obj
 0001:00023d90       ?GetCtrl@CPanesMgr@@UAEPAVCWnd@@PAUHWND__@@V?$CStringT@DV?$StrTraitMFC_DLL@DV?$ChTraitsCRT@D@ATL@@@@@ATL@@@Z 00424d90 f   PanesMgr.obj
 0001:00023e00       ?SetLayoutBorder@CPanesMgr@@AAEXPAVETSLayoutMgr@@@Z 00424e00 f   PanesMgr.obj
 0001:00023fe0       ?ChangeWndColor@CPanesMgr@@AAEXPAVCWnd@@V?$CStringT@DV?$StrTraitMFC_DLL@DV?$ChTraitsCRT@D@ATL@@@@@ATL@@1@Z 00424fe0 f   PanesMgr.obj
 0001:00024250       ?CreateWndPane@CPanesMgr@@UAEXPAVCWnd@@V?$CStringT@DV?$StrTraitMFC_DLL@DV?$ChTraitsCRT@D@ATL@@@@@ATL@@_N@Z 00425250 f   PanesMgr.obj
 0001:00024430       ?CreateControlPane@CPanesMgr@@UAEXPAVCWnd@@V?$CStringT@DV?$StrTraitMFC_DLL@DV?$ChTraitsCRT@D@ATL@@@@@ATL@@1@Z 00425430 f   PanesMgr.obj
 0001:00024bf0       ?LoadChangeColorData@CPanesMgr@@UAEXXZ 00425bf0 f   PanesMgr.obj
 0001:00024fc0       ?DeleteSubjectData@CPanesMgr@@UAEXV?$CStringT@DV?$StrTraitMFC_DLL@DV?$ChTraitsCRT@D@ATL@@@@@ATL@@@Z 00425fc0 f   PanesMgr.obj
 0001:00025110       ?InsertSubjectData@CPanesMgr@@UAEXV?$CStringT@DV?$StrTraitMFC_DLL@DV?$ChTraitsCRT@D@ATL@@@@@ATL@@@Z 00426110 f   PanesMgr.obj
 0001:00025b00       ?CreateLoadSubjectTread@CPanesMgr@@QAEXXZ 00426b00 f   PanesMgr.obj
 0001:00025b60       ?LoadSubjectProc@CPanesMgr@@SAPAXPAX@Z 00426b60 f   PanesMgr.obj
 0001:00025b80       ?WaitforLoadSub@CPanesMgr@@UAEXXZ 00426b80 f   PanesMgr.obj
 0001:00025ba0       ?LoadChangeSubjectData@CPanesMgr@@UAEXXZ 00426ba0 f   PanesMgr.obj
 0001:00026b00       ?LoadColors@CPanesMgr@@UAEXXZ 00427b00 f   PanesMgr.obj
 0001:00026d40       ?SetWindowPos@CPanesMgr@@AAEXPAVCWnd@@@Z 00427d40 f   PanesMgr.obj
 0001:00026e10       ?CreateBmpPane@CPanesMgr@@UAEXPAVCWnd@@V?$CStringT@DV?$StrTraitMFC_DLL@DV?$ChTraitsCRT@D@ATL@@@@@ATL@@1@Z 00427e10 f   PanesMgr.obj
 0001:00027210       ?LocateNode@CPanesMgr@@AAE_NV?$CStringT@DV?$StrTraitMFC_DLL@DV?$ChTraitsCRT@D@ATL@@@@@ATL@@000@Z 00428210 f   PanesMgr.obj
 0001:00027580       ?ShowLayer@CPanesMgr@@UAEXV?$CStringT@DV?$StrTraitMFC_DLL@DV?$ChTraitsCRT@D@ATL@@@@@ATL@@0@Z 00428580 f   PanesMgr.obj
 0001:00027920       ?GetCurrentLayer@CPanesMgr@@UAE?AV?$CStringT@DV?$StrTraitMFC_DLL@DV?$ChTraitsCRT@D@ATL@@@@@ATL@@V23@@Z 00428920 f   PanesMgr.obj
 0001:00027a10       ?GetWndParameter@CPanesMgr@@UAE?AV?$CStringT@DV?$StrTraitMFC_DLL@DV?$ChTraitsCRT@D@ATL@@@@@ATL@@PAUHWND__@@V23@@Z 00428a10 f   PanesMgr.obj
 0001:00027af0       ?AddBkParameter@CPanesMgr@@UAEXPAUHWND__@@V?$CStringT@DV?$StrTraitMFC_DLL@DV?$ChTraitsCRT@D@ATL@@@@@ATL@@1@Z 00428af0 f   PanesMgr.obj
 0001:00027bc0       ?UpdateLayout@CPanesMgr@@UAEXPAUHWND__@@@Z 00428bc0 f   PanesMgr.obj
 0001:00027c00       ?AddLayer@CPanesMgr@@UAE_NPAVCWnd@@0V?$CStringT@DV?$StrTraitMFC_DLL@DV?$ChTraitsCRT@D@ATL@@@@@ATL@@1@Z 00428c00 f   PanesMgr.obj
 0001:00027e70       ?SetBkAttrib@CPanesMgr@@QAEHPAVCWnd@@V?$CStringT@DV?$StrTraitMFC_DLL@DV?$ChTraitsCRT@D@ATL@@@@@ATL@@11_N@Z 00428e70 f   PanesMgr.obj
 0001:000281d0       ?ShowPane@CPanesMgr@@EAEHPAVCWnd@@V?$CStringT@DV?$StrTraitMFC_DLL@DV?$ChTraitsCRT@D@ATL@@@@@ATL@@_N@Z 004291d0 f   PanesMgr.obj
 0001:00028300       ?SetPaneSize@CPanesMgr@@UAEHPAVCWnd@@V?$CStringT@DV?$StrTraitMFC_DLL@DV?$ChTraitsCRT@D@ATL@@@@@ATL@@VCRect@@_N@Z 00429300 f   PanesMgr.obj
 0001:000284d0       ?GetPaneItemRect@CPanesMgr@@UAEHPAVCWnd@@V?$CStringT@DV?$StrTraitMFC_DLL@DV?$ChTraitsCRT@D@ATL@@@@@ATL@@AAVCRect@@@Z 004294d0 f   PanesMgr.obj
 0001:000286f0       ?OnChangeSkinTemplate@CPanesMgr@@UAE_NV?$CStringT@DV?$StrTraitMFC_DLL@DV?$ChTraitsCRT@D@ATL@@@@@ATL@@0@Z 004296f0 f   PanesMgr.obj
 0001:000292f0       ?OnchangeColor@CPanesMgr@@UAEXKI_N@Z 0042a2f0 f   PanesMgr.obj
 0001:00029c30       ?OnChangeSubject@CPanesMgr@@UAEXV?$CStringT@DV?$StrTraitMFC_DLL@DV?$ChTraitsCRT@D@ATL@@@@@ATL@@@Z 0042ac30 f   PanesMgr.obj
 0001:0002a700       ?IsSplitterOpen@CPanesMgr@@UAEHV?$CStringT@DV?$StrTraitMFC_DLL@DV?$ChTraitsCRT@D@ATL@@@@@ATL@@@Z 0042b700 f   PanesMgr.obj
 0001:0002a7e0       ?SetSplitterStatus@CPanesMgr@@UAEXV?$CStringT@DV?$StrTraitMFC_DLL@DV?$ChTraitsCRT@D@ATL@@@@@ATL@@H@Z 0042b7e0 f   PanesMgr.obj
 0001:0002a890       ?NotifyLayerChanged@CPanesMgr@@AAEXV?$CStringT@DV?$StrTraitMFC_DLL@DV?$ChTraitsCRT@D@ATL@@@@@ATL@@00@Z 0042b890 f   PanesMgr.obj
 0001:0002aa00       ?NotifyColorChanging@CPanesMgr@@AAEXXZ 0042ba00 f   PanesMgr.obj
 0001:0002aad0       ?NotifyColorChanged@CPanesMgr@@AAEXXZ 0042bad0 f   PanesMgr.obj
 0001:0002aba0       ?NotifySkinChanged@CPanesMgr@@AAEXV?$CStringT@DV?$StrTraitMFC_DLL@DV?$ChTraitsCRT@D@ATL@@@@@ATL@@0@Z 0042bba0 f   PanesMgr.obj
 0001:0002ace0       ?NotifyUpdateLayout@CPanesMgr@@AAEXPAUHWND__@@@Z 0042bce0 f   PanesMgr.obj
 0001:0002adc0       ?IPanelChangeOb_OutFullScreen@CPanesMgr@@AAEXXZ 0042bdc0 f   PanesMgr.obj
 0001:0002ae70       ?NotifyLayoutInitFinished@CPanesMgr@@AAEXXZ 0042be70 f   PanesMgr.obj
 0001:0002af40       ?NotifhyLayoutInitBegin@CPanesMgr@@AAEXXZ 0042bf40 f   PanesMgr.obj
 0001:0002b010       ?GetDisplayMode@CPanesMgr@@EAE?AW4Displaymode@@XZ 0042c010 f   PanesMgr.obj
 0001:0002b030       ?GetWndPanelMode@CPanesMgr@@EAE?AV?$CStringT@DV?$StrTraitMFC_DLL@DV?$ChTraitsCRT@D@ATL@@@@@ATL@@PAVCWnd@@@Z 0042c030 f   PanesMgr.obj
 0001:0002b070       ?GetSkinColor@CPanesMgr@@UAEKXZ 0042c070 f   PanesMgr.obj
 0001:0002b090       ??0CMarkupArchive@@QAE@K@Z 0042c090 f i PanesMgr.obj
 0001:0002b140       ??0CMarkup@@QAE@XZ         0042c140 f i PanesMgr.obj
 0001:0002b1c0       ??1CMarkup@@UAE@XZ         0042c1c0 f i PanesMgr.obj
 0001:0002b230       ??_ECMarkup@@UAEPAXI@Z     0042c230 f i PanesMgr.obj
 0001:0002b230       ??_GCMarkup@@UAEPAXI@Z     0042c230 f i PanesMgr.obj
 0001:0002b260       ?AddElem@CMarkupArchive@@UAE_NPBD0@Z 0042c260 f i PanesMgr.obj
 0001:0002b310       ?AddElem@CMarkup@@QAE_NPBD0@Z 0042c310 f i PanesMgr.obj
 0001:0002b340       ?AddChildElem@CMarkupArchive@@UAE_NPBD0@Z 0042c340 f i PanesMgr.obj
 0001:0002b3f0       ?AddChildElem@CMarkup@@QAE_NPBD0@Z 0042c3f0 f i PanesMgr.obj
 0001:0002b420       ?FindElem@CMarkupArchive@@UAE_NPBD@Z 0042c420 f i PanesMgr.obj
 0001:0002b4d0       ?FindChildElem@CMarkupArchive@@UAE_NPBD@Z 0042c4d0 f i PanesMgr.obj
 0001:0002b580       ??_GCMarkupArchive@@UAEPAXI@Z 0042c580 f i PanesMgr.obj
 0001:0002b580       ??_ECMarkupArchive@@UAEPAXI@Z 0042c580 f i PanesMgr.obj
 0001:0002b5b0       ?SetSkin@CPanesMgr@@UAEXPAVCSkinMgr@@@Z 0042c5b0 f i PanesMgr.obj
 0001:0002b5d0       ?IsChangeColor@CPanesMgr@@UAE_NXZ 0042c5d0 f i PanesMgr.obj
 0001:0002b5f0       ??0ILayoutMgr@@QAE@XZ      0042c5f0 f i PanesMgr.obj
 0001:0002b610       ??0IChangeSkinEventListener@@QAE@XZ 0042c610 f i PanesMgr.obj
 0001:0002b630       ?ResetPos@CMarkup@@QAEXXZ  0042c630 f i PanesMgr.obj
 0001:0002b650       ?x_SetPos@CMarkup@@IAEXHHH@Z 0042c650 f i PanesMgr.obj
 0001:0002b690       ??1CPaneMulti@ETSLayoutMgr@@QAE@XZ 0042c690 f i PanesMgr.obj
 0001:0002b6b0       ?setItemType@PaneItem@ETSLayoutMgr@@QAEXW4itemType@2@@Z 0042c6b0 f i PanesMgr.obj
 0001:0002b6d0       ?getSizeX@CPanesMgr@@AAEHXZ 0042c6d0 f i PanesMgr.obj
 0001:0002b720       ?getSizeY@CPanesMgr@@AAEHXZ 0042c720 f i PanesMgr.obj
 0001:0002b770       ?getSizeXMin@CPanesMgr@@AAEHXZ 0042c770 f i PanesMgr.obj
 0001:0002b7e0       ?getSizeYMin@CPanesMgr@@AAEHXZ 0042c7e0 f i PanesMgr.obj
 0001:0002b850       ?getSplSecondSize@CPanesMgr@@AAEHXZ 0042c850 f i PanesMgr.obj
 0001:0002b8a0       ?getClosedPos@CPanesMgr@@AAEHXZ 0042c8a0 f i PanesMgr.obj
 0001:0002b8f0       ?getClosedOri@CPanesMgr@@AAEHXZ 0042c8f0 f i PanesMgr.obj
 0001:0002b940       ?getSplOpenSize@CPanesMgr@@AAEHXZ 0042c940 f i PanesMgr.obj
 0001:0002b990       ?getSplHideCloseBtn@CPanesMgr@@AAEHXZ 0042c990 f i PanesMgr.obj
 0001:0002b9e0       ?getSplSlimSign@CPanesMgr@@AAEHXZ 0042c9e0 f i PanesMgr.obj
 0001:0002ba30       ?getOrization@CPanesMgr@@AAE?AW4layOrientation@ETSLayoutMgr@@XZ 0042ca30 f i PanesMgr.obj
 0001:0002bab0       ?getSecondSize@CPanesMgr@@AAEHXZ 0042cab0 f i PanesMgr.obj
 0001:0002bb00       ??4CPaneMulti@ETSLayoutMgr@@QAEAAV01@ABV01@@Z 0042cb00 f i PanesMgr.obj
 0001:0002bb20       ??0CPaneMulti@ETSLayoutMgr@@QAE@ABV01@@Z 0042cb20 f i PanesMgr.obj
 0001:0002bb40       ??U@YA?AW4layResizeMode@ETSLayoutMgr@@W401@0@Z 0042cb40 f i PanesMgr.obj
 0001:0002bb50       ?setRootBorders@ETSLayoutMgr@@QAEXHHHH@Z 0042cb50 f i PanesMgr.obj
 0001:0002bb90       ?SetName@ETSLayoutMgr@@QAEXV?$CStringT@DV?$StrTraitMFC_DLL@DV?$ChTraitsCRT@D@ATL@@@@@ATL@@0@Z 0042cb90 f i PanesMgr.obj
 0001:0002bc00       ??0basecolor@@QAE@XZ       0042cc00 f i PanesMgr.obj
 0001:0002bc20       ??1basecolor@@QAE@XZ       0042cc20 f i PanesMgr.obj
 0001:0002bc20       ??1MYLIST_COLUMN_INFO@@QAE@XZ 0042cc20 f i MyListCtrl.obj
 0001:0002bc20       ??1?$pair@$$CBV?$basic_string@DU?$char_traits@D@std@@V?$allocator@D@2@@std@@PAVCConfigObject@@@std@@QAE@XZ 0042cc20 f i AfxUserConfig.obj
 0001:0002bc20       ??1?$pair@$$CBV?$basic_string@DU?$char_traits@D@std@@V?$allocator@D@2@@std@@_N@std@@QAE@XZ 0042cc20 f i AfxUserConfig.obj
 0001:0002bc20       ??1?$pair@$$CBV?$basic_string@DU?$char_traits@D@std@@V?$allocator@D@2@@std@@PAVYL_CHTTPDownFile@@@std@@QAE@XZ 0042cc20 f i HttpDownCtrl.obj
 0001:0002bc20       ??1?$pair@$$CBV?$basic_string@DU?$char_traits@D@std@@V?$allocator@D@2@@std@@H@std@@QAE@XZ 0042cc20 f i MyTreeCtrl.obj
 0001:0002bc40       ??0OneSubject@@QAE@ABU0@@Z 0042cc40 f i PanesMgr.obj
 0001:0002bd70       ??1OneSubject@@QAE@XZ      0042cd70 f i PanesMgr.obj
 0001:0002bdd0       ?SetAt@CMapStringToOb@@QAEXPBDPAVCObject@@@Z 0042cdd0 f i PanesMgr.obj
 0001:0002bdf0       ??0OneSubject@@QAE@XZ      0042cdf0 f i PanesMgr.obj
 0001:0002be50       ?setBackgroundColor@ETSLayoutMgr@@QAEXK@Z 0042ce50 f i PanesMgr.obj
 0001:0002be70       ?setOriBackGroundColor@ETSLayoutMgr@@QAEXK@Z 0042ce70 f i PanesMgr.obj
 0001:0002be90       ?GetFilePath@CMarkupArchive@@QAE?AV?$CStringT@DV?$StrTraitMFC_DLL@DV?$ChTraitsCRT@D@ATL@@@@@ATL@@XZ 0042ce90 f i PanesMgr.obj
 0001:0002bed0       ?getOriBackGroundColor@ETSLayoutMgr@@QAEKXZ 0042ced0 f i PanesMgr.obj
 0001:0002bef0       ??8ATL@@YA_NPBDABV?$CStringT@DV?$StrTraitMFC_DLL@DV?$ChTraitsCRT@D@ATL@@@@@0@@Z 0042cef0 f i PanesMgr.obj
 0001:0002bf10       ??9ATL@@YA_NABV?$CStringT@DV?$StrTraitMFC_DLL@DV?$ChTraitsCRT@D@ATL@@@@@0@0@Z 0042cf10 f i PanesMgr.obj
 0001:0002bf30       ?push_back@?$vector@Ubasecolor@@V?$allocator@Ubasecolor@@@std@@@std@@QAEXABUbasecolor@@@Z 0042cf30 f i PanesMgr.obj
 0001:0002bfa0       ??1?$vector@Ubasecolor@@V?$allocator@Ubasecolor@@@std@@@std@@QAE@XZ 0042cfa0 f i SkinMgr.obj
 0001:0002bfa0       ?clear@?$vector@Ubasecolor@@V?$allocator@Ubasecolor@@@std@@@std@@QAEXXZ 0042cfa0 f i PanesMgr.obj
 0001:0002bfc0       ??0?$vector@UOneSubject@@V?$allocator@UOneSubject@@@std@@@std@@QAE@XZ 0042cfc0 f i PanesMgr.obj
 0001:0002bff0       ?size@?$vector@UOneSubject@@V?$allocator@UOneSubject@@@std@@@std@@QBEIXZ 0042cff0 f i PanesMgr.obj
 0001:0002c030       ??A?$vector@UOneSubject@@V?$allocator@UOneSubject@@@std@@@std@@QAEAAUOneSubject@@I@Z 0042d030 f i PanesMgr.obj
 0001:0002c070       ?push_back@?$vector@UOneSubject@@V?$allocator@UOneSubject@@@std@@@std@@QAEXABUOneSubject@@@Z 0042d070 f i PanesMgr.obj
 0001:0002c0e0       ?insert@?$vector@UOneSubject@@V?$allocator@UOneSubject@@@std@@@std@@QAE?AViterator@12@V312@ABUOneSubject@@@Z 0042d0e0 f i PanesMgr.obj
 0001:0002c160       ?erase@?$vector@UOneSubject@@V?$allocator@UOneSubject@@@std@@@std@@QAE?AViterator@12@V312@@Z 0042d160 f i PanesMgr.obj
 0001:0002c1d0       ??1?$vector@UOneSubject@@V?$allocator@UOneSubject@@@std@@@std@@QAE@XZ 0042d1d0 f i PanesMgr.obj
 0001:0002c1d0       ?clear@?$vector@UOneSubject@@V?$allocator@UOneSubject@@@std@@@std@@QAEXXZ 0042d1d0 f i PanesMgr.obj
 0001:0002c1f0       ?clear@?$_Tree@V?$_Tmap_traits@V?$CStringT@DV?$StrTraitMFC_DLL@DV?$ChTraitsCRT@D@ATL@@@@@ATL@@KU?$less@V?$CStringT@DV?$StrTraitMFC_DLL@DV?$ChTraitsCRT@D@ATL@@@@@ATL@@@std@@V?$allocator@U?$pair@$$CBV?$CStringT@DV?$StrTraitMFC_DLL@DV?$ChTraitsCRT@D@ATL@@@@@ATL@@K@std@@@4@$0A@@std@@@std@@QAEXXZ 0042d1f0 f i PanesMgr.obj
 0001:0002c250       ??Eiterator@?$vector@UOneSubject@@V?$allocator@UOneSubject@@@std@@@std@@QAEAAV012@XZ 0042d250 f i PanesMgr.obj
 0001:0002c270       ??Eiterator@?$vector@UOneSubject@@V?$allocator@UOneSubject@@@std@@@std@@QAE?AV012@H@Z 0042d270 f i PanesMgr.obj
 0001:0002c2a0       ??0?$vector@V?$basic_string@DU?$char_traits@D@std@@V?$allocator@D@2@@std@@V?$allocator@V?$basic_string@DU?$char_traits@D@std@@V?$allocator@D@2@@std@@@2@@std@@QAE@XZ 0042d2a0 f i PanesMgr.obj
 0001:0002c2d0       ?size@?$vector@V?$basic_string@DU?$char_traits@D@std@@V?$allocator@D@2@@std@@V?$allocator@V?$basic_string@DU?$char_traits@D@std@@V?$allocator@D@2@@std@@@2@@std@@QBEIXZ 0042d2d0 f i PanesMgr.obj
 0001:0002c2d0       ?size@?$vector@UTFrame@CPictureEx@@V?$allocator@UTFrame@CPictureEx@@@std@@@std@@QBEIXZ 0042d2d0 f i PictureEx.obj
 0001:0002c310       ??A?$vector@UTFrame@CPictureEx@@V?$allocator@UTFrame@CPictureEx@@@std@@@std@@QAEAAUTFrame@CPictureEx@@I@Z 0042d310 f i PictureEx.obj
 0001:0002c310       ??A?$vector@V?$basic_string@DU?$char_traits@D@std@@V?$allocator@D@2@@std@@V?$allocator@V?$basic_string@DU?$char_traits@D@std@@V?$allocator@D@2@@std@@@2@@std@@QAEAAV?$basic_string@DU?$char_traits@D@std@@V?$allocator@D@2@@1@I@Z 0042d310 f i PanesMgr.obj
 0001:0002c350       ?capacity@?$vector@Ubasecolor@@V?$allocator@Ubasecolor@@@std@@@std@@QBEIXZ 0042d350 f i PanesMgr.obj
 0001:0002c390       ?size@?$vector@Ubasecolor@@V?$allocator@Ubasecolor@@@std@@@std@@QBEIXZ 0042d390 f i PanesMgr.obj
 0001:0002c3d0       ?insert@?$vector@Ubasecolor@@V?$allocator@Ubasecolor@@@std@@@std@@QAE?AViterator@12@V312@ABUbasecolor@@@Z 0042d3d0 f i PanesMgr.obj
 0001:0002c450       ?_Tidy@?$vector@Ubasecolor@@V?$allocator@Ubasecolor@@@std@@@std@@IAEXXZ 0042d450 f i PanesMgr.obj
 0001:0002c4c0       ?_Ufill@?$vector@Ubasecolor@@V?$allocator@Ubasecolor@@@std@@@std@@IAEPAUbasecolor@@PAU3@IABU3@@Z 0042d4c0 f i PanesMgr.obj
 0001:0002c4f0       ?capacity@?$vector@UOneSubject@@V?$allocator@UOneSubject@@@std@@@std@@QBEIXZ 0042d4f0 f i PanesMgr.obj
 0001:0002c530       ?_Buy@?$vector@UOneSubject@@V?$allocator@UOneSubject@@@std@@@std@@IAE_NI@Z 0042d530 f i PanesMgr.obj
 0001:0002c5c0       ?_Destroy@?$vector@UOneSubject@@V?$allocator@UOneSubject@@@std@@@std@@IAEXPAUOneSubject@@0@Z 0042d5c0 f i PanesMgr.obj
 0001:0002c5f0       ?_Tidy@?$vector@UOneSubject@@V?$allocator@UOneSubject@@@std@@@std@@IAEXXZ 0042d5f0 f i PanesMgr.obj
 0001:0002c660       ?_Insert_n@?$vector@UOneSubject@@V?$allocator@UOneSubject@@@std@@@std@@IAEXViterator@12@IABUOneSubject@@@Z 0042d660 f i PanesMgr.obj
 0001:0002cae0       ?_Ufill@?$vector@UOneSubject@@V?$allocator@UOneSubject@@@std@@@std@@IAEPAUOneSubject@@PAU3@IABU3@@Z 0042dae0 f i PanesMgr.obj
 0001:0002cb20       ?_Erase@?$_Tree@V?$_Tmap_traits@V?$CStringT@DV?$StrTraitMFC_DLL@DV?$ChTraitsCRT@D@ATL@@@@@ATL@@KU?$less@V?$CStringT@DV?$StrTraitMFC_DLL@DV?$ChTraitsCRT@D@ATL@@@@@ATL@@@std@@V?$allocator@U?$pair@$$CBV?$CStringT@DV?$StrTraitMFC_DLL@DV?$ChTraitsCRT@D@ATL@@@@@ATL@@K@std@@@4@$0A@@std@@@std@@IAEXPAU_Node@?$_Tree_nod@V?$_Tmap_traits@V?$CStringT@DV?$StrTraitMFC_DLL@DV?$ChTraitsCRT@D@ATL@@@@@ATL@@KU?$less@V?$CStringT@DV?$StrTraitMFC_DLL@DV?$ChTraitsCRT@D@ATL@@@@@ATL@@@std@@V?$allocator@U?$pair@$$CBV?$CStringT@DV?$StrTraitMFC_DLL@DV?$ChTraitsCRT@D@ATL@@@@@ATL@@K@std@@@4@$0A@@std@@@2@@Z 0042db20 f i PanesMgr.obj
 0001:0002cba0       ??Hiterator@?$vector@UOneSubject@@V?$allocator@UOneSubject@@@std@@@std@@QBE?AV012@H@Z 0042dba0 f i PanesMgr.obj
 0001:0002cbd0       ?SetParent@CWnd@@QAEPAV1@PAV1@@Z 0042dbd0 f i PanesMgr.obj
 0001:0002cc00       ??Giterator@?$vector@UOneSubject@@V?$allocator@UOneSubject@@@std@@@std@@QBEHABVconst_iterator@12@@Z 0042dc00 f i PanesMgr.obj
 0001:0002cc30       ?_Buy@?$vector@V?$basic_string@DU?$char_traits@D@std@@V?$allocator@D@2@@std@@V?$allocator@V?$basic_string@DU?$char_traits@D@std@@V?$allocator@D@2@@std@@@2@@std@@IAE_NI@Z 0042dc30 f i PanesMgr.obj
 0001:0002ccb0       ?_Tidy@?$vector@V?$basic_string@DU?$char_traits@D@std@@V?$allocator@D@2@@std@@V?$allocator@V?$basic_string@DU?$char_traits@D@std@@V?$allocator@D@2@@std@@@2@@std@@IAEXXZ 0042dcb0 f i PanesMgr.obj
 0001:0002cd20       ??Hiterator@?$vector@V?$basic_string@DU?$char_traits@D@std@@V?$allocator@D@2@@std@@V?$allocator@V?$basic_string@DU?$char_traits@D@std@@V?$allocator@D@2@@std@@@2@@std@@QBE?AV012@H@Z 0042dd20 f i PanesMgr.obj
 0001:0002cd20       ??Hconst_iterator@?$vector@V?$basic_string@DU?$char_traits@D@std@@V?$allocator@D@2@@std@@V?$allocator@V?$basic_string@DU?$char_traits@D@std@@V?$allocator@D@2@@std@@@2@@std@@QBE?AV012@H@Z 0042dd20 f i YL_DirInfo.obj
 0001:0002cd20       ??Hiterator@?$vector@UTFrame@CPictureEx@@V?$allocator@UTFrame@CPictureEx@@@std@@@std@@QBE?AV012@H@Z 0042dd20 f i PictureEx.obj
 0001:0002cd50       ?_Destroy@?$vector@Ubasecolor@@V?$allocator@Ubasecolor@@@std@@@std@@IAEXPAUbasecolor@@0@Z 0042dd50 f i PanesMgr.obj
 0001:0002cd80       ?_Insert_n@?$vector@Ubasecolor@@V?$allocator@Ubasecolor@@@std@@@std@@IAEXViterator@12@IABUbasecolor@@@Z 0042dd80 f i PanesMgr.obj
 0001:0002d0d0       ?max_size@?$vector@UOneSubject@@V?$allocator@UOneSubject@@@std@@@std@@QBEIXZ 0042e0d0 f i PanesMgr.obj
 0001:0002d0f0       ?allocate@?$allocator@UOneSubject@@@std@@QAEPAUOneSubject@@I@Z 0042e0f0 f i PanesMgr.obj
 0001:0002d110       ?allocate@?$allocator@V?$basic_string@DU?$char_traits@D@std@@V?$allocator@D@2@@std@@@std@@QAEPAV?$basic_string@DU?$char_traits@D@std@@V?$allocator@D@2@@2@I@Z 0042e110 f i PanesMgr.obj
 0001:0002d110       ?allocate@?$allocator@U_Node@?$_Tree_nod@V?$_Tmap_traits@PAUHWND__@@UCWndData@@U?$less@PAUHWND__@@@std@@V?$allocator@U?$pair@QAUHWND__@@UCWndData@@@std@@@4@$0A@@std@@@std@@@std@@QAEPAU_Node@?$_Tree_nod@V?$_Tmap_traits@PAUHWND__@@UCWndData@@U?$less@PAUHWND__@@@std@@V?$allocator@U?$pair@QAUHWND__@@UCWndData@@@std@@@4@$0A@@std@@@2@I@Z 0042e110 f i HostWndMgr.obj
 0001:0002d110       ?allocate@?$allocator@UTFrame@CPictureEx@@@std@@QAEPAUTFrame@CPictureEx@@I@Z 0042e110 f i PictureEx.obj
 0001:0002d130       ??Yiterator@?$vector@UOneSubject@@V?$allocator@UOneSubject@@@std@@@std@@QAEAAV012@H@Z 0042e130 f i PanesMgr.obj
 0001:0002d160       ??Gconst_iterator@?$vector@UOneSubject@@V?$allocator@UOneSubject@@@std@@@std@@QBEHABV012@@Z 0042e160 f i PanesMgr.obj
 0001:0002d180       ?_Destroy@?$vector@V?$basic_string@DU?$char_traits@D@std@@V?$allocator@D@2@@std@@V?$allocator@V?$basic_string@DU?$char_traits@D@std@@V?$allocator@D@2@@std@@@2@@std@@IAEXPAV?$basic_string@DU?$char_traits@D@std@@V?$allocator@D@2@@2@0@Z 0042e180 f i PanesMgr.obj
 0001:0002d1b0       ??Hiterator@?$vector@Ubasecolor@@V?$allocator@Ubasecolor@@@std@@@std@@QBE?AV012@H@Z 0042e1b0 f i PanesMgr.obj
 0001:0002d1e0       ??Giterator@?$vector@Ubasecolor@@V?$allocator@Ubasecolor@@@std@@@std@@QBEHABVconst_iterator@12@@Z 0042e1e0 f i PanesMgr.obj
 0001:0002d210       ??Yiterator@?$vector@UTFrame@CPictureEx@@V?$allocator@UTFrame@CPictureEx@@@std@@@std@@QAEAAV012@H@Z 0042e210 f i PictureEx.obj
 0001:0002d210       ??Yconst_iterator@?$vector@V?$basic_string@DU?$char_traits@D@std@@V?$allocator@D@2@@std@@V?$allocator@V?$basic_string@DU?$char_traits@D@std@@V?$allocator@D@2@@std@@@2@@std@@QAEAAV012@H@Z 0042e210 f i YL_DirInfo.obj
 0001:0002d210       ??Yiterator@?$vector@V?$basic_string@DU?$char_traits@D@std@@V?$allocator@D@2@@std@@V?$allocator@V?$basic_string@DU?$char_traits@D@std@@V?$allocator@D@2@@std@@@2@@std@@QAEAAV012@H@Z 0042e210 f i PanesMgr.obj
 0001:0002d230       ??0basecolor@@QAE@ABU0@@Z  0042e230 f i PanesMgr.obj
 0001:0002d280       ?max_size@?$vector@Ubasecolor@@V?$allocator@Ubasecolor@@@std@@@std@@QBEIXZ 0042e280 f i PanesMgr.obj
 0001:0002d2a0       ?_Xlen@?$vector@UOneSubject@@V?$allocator@UOneSubject@@@std@@@std@@IBEXXZ 0042e2a0 f i PanesMgr.obj
 0001:0002d2a0       ?_Xlen@?$vector@Ubasecolor@@V?$allocator@Ubasecolor@@@std@@@std@@IBEXXZ 0042e2a0 f i PanesMgr.obj
 0001:0002d2a0       ?_Xlen@?$vector@V?$basic_string@DU?$char_traits@D@std@@V?$allocator@D@2@@std@@V?$allocator@V?$basic_string@DU?$char_traits@D@std@@V?$allocator@D@2@@std@@@2@@std@@IBEXXZ 0042e2a0 f i PanesMgr.obj
 0001:0002d300       ?allocate@?$allocator@Ubasecolor@@@std@@QAEPAUbasecolor@@I@Z 0042e300 f i PanesMgr.obj
 0001:0002d320       ?max_size@?$allocator@UOneSubject@@@std@@QBEIXZ 0042e320 f i PanesMgr.obj
 0001:0002d350       ?max_size@?$allocator@V?$basic_string@DU?$char_traits@D@std@@V?$allocator@D@2@@std@@@std@@QBEIXZ 0042e350 f i PanesMgr.obj
 0001:0002d350       ?max_size@?$allocator@UTFrame@CPictureEx@@@std@@QBEIXZ 0042e350 f i PictureEx.obj
 0001:0002d380       ??Yiterator@?$vector@Ubasecolor@@V?$allocator@Ubasecolor@@@std@@@std@@QAEAAV012@H@Z 0042e380 f i PanesMgr.obj
 0001:0002d3a0       ??Gconst_iterator@?$vector@Ubasecolor@@V?$allocator@Ubasecolor@@@std@@@std@@QBEHABV012@@Z 0042e3a0 f i PanesMgr.obj
 0001:0002d3c0       ??0?$CArray@UElemPos@CMarkup@@AAU12@@@QAE@XZ 0042e3c0 f i PanesMgr.obj
 0001:0002d410       ??1?$CArray@UElemPos@CMarkup@@AAU12@@@UAE@XZ 0042e410 f i PanesMgr.obj
 0001:0002d470       ?Serialize@?$CArray@UElemPos@CMarkup@@AAU12@@@UAEXAAVCArchive@@@Z 0042e470 f i PanesMgr.obj
 0001:0002d4e0       ??0?$CMap@PAUHWND__@@PAU1@PAVETSLayoutMgr@@PAV2@@@QAE@H@Z 0042e4e0 f i PanesMgr.obj
 0001:0002d540       ?Lookup@?$CMap@PAUHWND__@@PAU1@PAVETSLayoutMgr@@PAV2@@@QBEHPAUHWND__@@AAPAVETSLayoutMgr@@@Z 0042e540 f i PanesMgr.obj
 0001:0002d580       ?SetAt@?$CMap@PAUHWND__@@PAU1@PAVETSLayoutMgr@@PAV2@@@QAEXPAUHWND__@@PAVETSLayoutMgr@@@Z 0042e580 f i PanesMgr.obj
 0001:0002d5a0       ?RemoveKey@?$CMap@PAUHWND__@@PAU1@PAVETSLayoutMgr@@PAV2@@@QAEHPAUHWND__@@@Z 0042e5a0 f i PanesMgr.obj
 0001:0002d650       ?RemoveAll@?$CMap@PAUHWND__@@PAU1@PAVETSLayoutMgr@@PAV2@@@QAEXXZ 0042e650 f i PanesMgr.obj
 0001:0002d6f0       ?GetStartPosition@?$CMap@V?$CStringT@DV?$StrTraitMFC_DLL@DV?$ChTraitsCRT@D@ATL@@@@@ATL@@PBDVCPaneBase@ETSLayoutMgr@@V34@@@QBEPAU__POSITION@@XZ 0042e6f0 f i ETSLayoutEx.obj
 0001:0002d6f0       ?GetStartPosition@?$CMap@PAUHWND__@@PAU1@PAVETSLayoutMgr@@PAV2@@@QBEPAU__POSITION@@XZ 0042e6f0 f i PanesMgr.obj
 0001:0002d710       ?GetNextAssoc@?$CMap@PAUHWND__@@PAU1@PAVETSLayoutMgr@@PAV2@@@QBEXAAPAU__POSITION@@AAPAUHWND__@@AAPAVETSLayoutMgr@@@Z 0042e710 f i PanesMgr.obj
 0001:0002d7e0       ??1?$CMap@PAUHWND__@@PAU1@PAVETSLayoutMgr@@PAV2@@@UAE@XZ 0042e7e0 f i PanesMgr.obj
 0001:0002d840       ?Serialize@?$CMap@PAUHWND__@@PAU1@PAVETSLayoutMgr@@PAV2@@@UAEXAAVCArchive@@@Z 0042e840 f i PanesMgr.obj
 0001:0002d950       ??$copy@PAUOneSubject@@PAU1@@std@@YAPAUOneSubject@@PAU1@00@Z 0042e950 f i PanesMgr.obj
 0001:0002d990       ??$_Uninitialized_fill_n@PAUbasecolor@@IU1@V?$allocator@Ubasecolor@@@std@@@std@@YAXPAUbasecolor@@IABU1@AAV?$allocator@Ubasecolor@@@0@@Z 0042e990 f i PanesMgr.obj
 0001:0002d9d0       ??$_Destroy_range@UOneSubject@@V?$allocator@UOneSubject@@@std@@@std@@YAXPAUOneSubject@@0AAV?$allocator@UOneSubject@@@0@@Z 0042e9d0 f i PanesMgr.obj
 0001:0002da10       ??$_Ucopy@PAUOneSubject@@@?$vector@UOneSubject@@V?$allocator@UOneSubject@@@std@@@std@@IAEPAUOneSubject@@PAU2@00@Z 0042ea10 f i PanesMgr.obj
 0001:0002da40       ??$fill@PAUOneSubject@@U1@@std@@YAXPAUOneSubject@@0ABU1@@Z 0042ea40 f i PanesMgr.obj
 0001:0002da70       ??$copy_backward@PAUOneSubject@@PAU1@@std@@YAPAUOneSubject@@PAU1@00@Z 0042ea70 f i PanesMgr.obj
 0001:0002dab0       ??$_Uninitialized_fill_n@PAUOneSubject@@IU1@V?$allocator@UOneSubject@@@std@@@std@@YAXPAUOneSubject@@IABU1@AAV?$allocator@UOneSubject@@@0@@Z 0042eab0 f i PanesMgr.obj
 0001:0002daf0       ??$_Destroy_range@Ubasecolor@@V?$allocator@Ubasecolor@@@std@@@std@@YAXPAUbasecolor@@0AAV?$allocator@Ubasecolor@@@0@@Z 0042eaf0 f i PanesMgr.obj
 0001:0002db30       ??$_Ucopy@PAUbasecolor@@@?$vector@Ubasecolor@@V?$allocator@Ubasecolor@@@std@@@std@@IAEPAUbasecolor@@PAU2@00@Z 0042eb30 f i PanesMgr.obj
 0001:0002db60       ??$fill@PAUbasecolor@@U1@@std@@YAXPAUbasecolor@@0ABU1@@Z 0042eb60 f i PanesMgr.obj
 0001:0002db90       ??$copy_backward@PAUbasecolor@@PAU1@@std@@YAPAUbasecolor@@PAU1@00@Z 0042eb90 f i PanesMgr.obj
 0001:0002dbd0       ??$_Allocate@UOneSubject@@@std@@YAPAUOneSubject@@IPAU1@@Z 0042ebd0 f i PanesMgr.obj
 0001:0002dbf0       ??$_Destroy@U_Node@?$_Tree_nod@V?$_Tmap_traits@V?$CStringT@DV?$StrTraitMFC_DLL@DV?$ChTraitsCRT@D@ATL@@@@@ATL@@PAVCSkinButton@@U?$less@V?$CStringT@DV?$StrTraitMFC_DLL@DV?$ChTraitsCRT@D@ATL@@@@@ATL@@@std@@V?$allocator@U?$pair@$$CBV?$CStringT@DV?$StrTraitMFC_DLL@DV?$ChTraitsCRT@D@ATL@@@@@ATL@@PAVCSkinButton@@@std@@@5@$0A@@std@@@std@@@std@@YAXPAU_Node@?$_Tree_nod@V?$_Tmap_traits@V?$CStringT@DV?$StrTraitMFC_DLL@DV?$ChTraitsCRT@D@ATL@@@@@ATL@@PAVCSkinButton@@U?$less@V?$CStringT@DV?$StrTraitMFC_DLL@DV?$ChTraitsCRT@D@ATL@@@@@ATL@@@std@@V?$allocator@U?$pair@$$CBV?$CStringT@DV?$StrTraitMFC_DLL@DV?$ChTraitsCRT@D@ATL@@@@@ATL@@PAVCSkinButton@@@std@@@5@$0A@@std@@@0@@Z 0042ebf0 f i SkinWnd.obj
 0001:0002dbf0       ??$_Destroy@U_Node@?$_Tree_nod@V?$_Tmap_traits@V?$CStringT@DV?$StrTraitMFC_DLL@DV?$ChTraitsCRT@D@ATL@@@@@ATL@@KU?$less@V?$CStringT@DV?$StrTraitMFC_DLL@DV?$ChTraitsCRT@D@ATL@@@@@ATL@@@std@@V?$allocator@U?$pair@$$CBV?$CStringT@DV?$StrTraitMFC_DLL@DV?$ChTraitsCRT@D@ATL@@@@@ATL@@K@std@@@4@$0A@@std@@@std@@@std@@YAXPAU_Node@?$_Tree_nod@V?$_Tmap_traits@V?$CStringT@DV?$StrTraitMFC_DLL@DV?$ChTraitsCRT@D@ATL@@@@@ATL@@KU?$less@V?$CStringT@DV?$StrTraitMFC_DLL@DV?$ChTraitsCRT@D@ATL@@@@@ATL@@@std@@V?$allocator@U?$pair@$$CBV?$CStringT@DV?$StrTraitMFC_DLL@DV?$ChTraitsCRT@D@ATL@@@@@ATL@@K@std@@@4@$0A@@std@@@0@@Z 0042ebf0 f i PanesMgr.obj
 0001:0002dbf0       ??$_Destroy@U_Node@?$_Tree_nod@V?$_Tmap_traits@V?$CStringT@DV?$StrTraitMFC_DLL@DV?$ChTraitsCRT@D@ATL@@@@@ATL@@PAVCDibBitmap@@U?$less@V?$CStringT@DV?$StrTraitMFC_DLL@DV?$ChTraitsCRT@D@ATL@@@@@ATL@@@std@@V?$allocator@U?$pair@$$CBV?$CStringT@DV?$StrTraitMFC_DLL@DV?$ChTraitsCRT@D@ATL@@@@@ATL@@PAVCDibBitmap@@@std@@@5@$0A@@std@@@std@@@std@@YAXPAU_Node@?$_Tree_nod@V?$_Tmap_traits@V?$CStringT@DV?$StrTraitMFC_DLL@DV?$ChTraitsCRT@D@ATL@@@@@ATL@@PAVCDibBitmap@@U?$less@V?$CStringT@DV?$StrTraitMFC_DLL@DV?$ChTraitsCRT@D@ATL@@@@@ATL@@@std@@V?$allocator@U?$pair@$$CBV?$CStringT@DV?$StrTraitMFC_DLL@DV?$ChTraitsCRT@D@ATL@@@@@ATL@@PAVCDibBitmap@@@std@@@5@$0A@@std@@@0@@Z 0042ebf0 f i SkinMgr.obj
 0001:0002dc00       ??$_Destroy_range@V?$basic_string@DU?$char_traits@D@std@@V?$allocator@D@2@@std@@V?$allocator@V?$basic_string@DU?$char_traits@D@std@@V?$allocator@D@2@@std@@@2@@std@@YAXPAV?$basic_string@DU?$char_traits@D@std@@V?$allocator@D@2@@0@0AAV?$allocator@V?$basic_string@DU?$char_traits@D@std@@V?$allocator@D@2@@std@@@0@@Z 0042ec00 f i PanesMgr.obj
 0001:0002dc40       ??$_Allocate@Ubasecolor@@@std@@YAPAUbasecolor@@IPAU1@@Z 0042ec40 f i PanesMgr.obj
 0001:0002dc60       ??_E?$CArray@UElemPos@CMarkup@@AAU12@@@UAEPAXI@Z 0042ec60 f i PanesMgr.obj
 0001:0002dc60       ??_G?$CArray@UElemPos@CMarkup@@AAU12@@@UAEPAXI@Z 0042ec60 f i PanesMgr.obj
 0001:0002dc90       ??_G?$CMap@PAUHWND__@@PAU1@PAVETSLayoutMgr@@PAV2@@@UAEPAXI@Z 0042ec90 f i PanesMgr.obj
 0001:0002dc90       ??_E?$CMap@PAUHWND__@@PAU1@PAVETSLayoutMgr@@PAV2@@@UAEPAXI@Z 0042ec90 f i PanesMgr.obj
 0001:0002dcc0       ??4OneSubject@@QAEAAU0@ABU0@@Z 0042ecc0 f i PanesMgr.obj
 0001:0002ddc0       ??4basecolor@@QAEAAU0@ABU0@@Z 0042edc0 f i PanesMgr.obj
 0001:0002de10       ??_G_Node@?$_Tree_nod@V?$_Tmap_traits@V?$CStringT@DV?$StrTraitMFC_DLL@DV?$ChTraitsCRT@D@ATL@@@@@ATL@@PAVCSkinButton@@U?$less@V?$CStringT@DV?$StrTraitMFC_DLL@DV?$ChTraitsCRT@D@ATL@@@@@ATL@@@std@@V?$allocator@U?$pair@$$CBV?$CStringT@DV?$StrTraitMFC_DLL@DV?$ChTraitsCRT@D@ATL@@@@@ATL@@PAVCSkinButton@@@std@@@5@$0A@@std@@@std@@QAEPAXI@Z 0042ee10 f i SkinWnd.obj
 0001:0002de10       ??_G_Node@?$_Tree_nod@V?$_Tmap_traits@V?$CStringT@DV?$StrTraitMFC_DLL@DV?$ChTraitsCRT@D@ATL@@@@@ATL@@KU?$less@V?$CStringT@DV?$StrTraitMFC_DLL@DV?$ChTraitsCRT@D@ATL@@@@@ATL@@@std@@V?$allocator@U?$pair@$$CBV?$CStringT@DV?$StrTraitMFC_DLL@DV?$ChTraitsCRT@D@ATL@@@@@ATL@@K@std@@@4@$0A@@std@@@std@@QAEPAXI@Z 0042ee10 f i PanesMgr.obj
 0001:0002de10       ??_G_Node@?$_Tree_nod@V?$_Tmap_traits@V?$CStringT@DV?$StrTraitMFC_DLL@DV?$ChTraitsCRT@D@ATL@@@@@ATL@@PAVCDibBitmap@@U?$less@V?$CStringT@DV?$StrTraitMFC_DLL@DV?$ChTraitsCRT@D@ATL@@@@@ATL@@@std@@V?$allocator@U?$pair@$$CBV?$CStringT@DV?$StrTraitMFC_DLL@DV?$ChTraitsCRT@D@ATL@@@@@ATL@@PAVCDibBitmap@@@std@@@5@$0A@@std@@@std@@QAEPAXI@Z 0042ee10 f i SkinMgr.obj
 0001:0002de40       ??0CWaitCursor@@QAE@XZ     0042ee40 f i PanesMgr.obj
 0001:0002de60       ??1CWaitCursor@@QAE@XZ     0042ee60 f i PanesMgr.obj
 0001:0002de80       ?Restore@CWaitCursor@@QAEXXZ 0042ee80 f i PanesMgr.obj
 0001:0002dea0       ?SetSize@?$CArray@UElemPos@CMarkup@@AAU12@@@QAEXHH@Z 0042eea0 f i PanesMgr.obj
 0001:0002e2b0       ??0ElemPos@CMarkup@@QAE@XZ 0042f2b0 f i PanesMgr.obj
 0001:0002e2d0       ?Clear@ElemPos@CMarkup@@QAEXXZ 0042f2d0 f i PanesMgr.obj
 0001:0002e330       ??$SerializeElements@UElemPos@CMarkup@@@@YGXAAVCArchive@@PAUElemPos@CMarkup@@H@Z 0042f330 f i PanesMgr.obj
 0001:0002e400       ??A?$CMap@PAUHWND__@@PAU1@PAVETSLayoutMgr@@PAV2@@@QAEAAPAVETSLayoutMgr@@PAUHWND__@@@Z 0042f400 f i PanesMgr.obj
 0001:0002e490       ?FreeAssoc@?$CMap@PAUHWND__@@PAU1@PAVETSLayoutMgr@@PAV2@@@IAEXPAVCAssoc@1@@Z 0042f490 f i PanesMgr.obj
 0001:0002e4e0       ?GetAssocAt@?$CMap@PAUHWND__@@PAU1@PAVETSLayoutMgr@@PAV2@@@IBEPAVCAssoc@1@PAUHWND__@@AAI1@Z 0042f4e0 f i PanesMgr.obj
 0001:0002e570       ??$HashKey@PAUHWND__@@@@YGIPAUHWND__@@@Z 0042f570 f i PanesMgr.obj
 0001:0002e580       ??$CompareElements@PAUHWND__@@PAU1@@@YGHPBQAUHWND__@@0@Z 0042f580 f i PanesMgr.obj
 0001:0002e5a0       ??$_Copy_opt@PAUOneSubject@@PAU1@@std@@YAPAUOneSubject@@PAU1@00U_Nonscalar_ptr_iterator_tag@0@@Z 0042f5a0 f i PanesMgr.obj
 0001:0002e5e0       ??$_Uninit_fill_n@PAUbasecolor@@IU1@V?$allocator@Ubasecolor@@@std@@@std@@YAXPAUbasecolor@@IABU1@AAV?$allocator@Ubasecolor@@@0@U_Nonscalar_ptr_iterator_tag@0@@Z 0042f5e0 f i PanesMgr.obj
 0001:0002e680       ??$_Destroy_range@UOneSubject@@V?$allocator@UOneSubject@@@std@@@std@@YAXPAUOneSubject@@0AAV?$allocator@UOneSubject@@@0@U_Nonscalar_ptr_iterator_tag@0@@Z 0042f680 f i PanesMgr.obj
 0001:0002e6b0       ??$_Uninitialized_copy@PAUOneSubject@@PAU1@V?$allocator@UOneSubject@@@std@@@std@@YAPAUOneSubject@@PAU1@00AAV?$allocator@UOneSubject@@@0@@Z 0042f6b0 f i PanesMgr.obj
 0001:0002e6f0       ??$_Copy_backward_opt@PAUOneSubject@@PAU1@@std@@YAPAUOneSubject@@PAU1@00U_Nonscalar_ptr_iterator_tag@0@@Z 0042f6f0 f i PanesMgr.obj
 0001:0002e730       ??$_Uninit_fill_n@PAUOneSubject@@IU1@V?$allocator@UOneSubject@@@std@@@std@@YAXPAUOneSubject@@IABU1@AAV?$allocator@UOneSubject@@@0@U_Nonscalar_ptr_iterator_tag@0@@Z 0042f730 f i PanesMgr.obj
 0001:0002e7e0       ??$_Destroy_range@Ubasecolor@@V?$allocator@Ubasecolor@@@std@@@std@@YAXPAUbasecolor@@0AAV?$allocator@Ubasecolor@@@0@U_Nonscalar_ptr_iterator_tag@0@@Z 0042f7e0 f i PanesMgr.obj
 0001:0002e810       ??$_Uninitialized_copy@PAUbasecolor@@PAU1@V?$allocator@Ubasecolor@@@std@@@std@@YAPAUbasecolor@@PAU1@00AAV?$allocator@Ubasecolor@@@0@@Z 0042f810 f i PanesMgr.obj
 0001:0002e850       ??$_Copy_backward_opt@PAUbasecolor@@PAU1@@std@@YAPAUbasecolor@@PAU1@00U_Nonscalar_ptr_iterator_tag@0@@Z 0042f850 f i PanesMgr.obj
 0001:0002e880       ??$_Destroy_range@V?$basic_string@DU?$char_traits@D@std@@V?$allocator@D@2@@std@@V?$allocator@V?$basic_string@DU?$char_traits@D@std@@V?$allocator@D@2@@std@@@2@@std@@YAXPAV?$basic_string@DU?$char_traits@D@std@@V?$allocator@D@2@@0@0AAV?$allocator@V?$basic_string@DU?$char_traits@D@std@@V?$allocator@D@2@@std@@@0@U_Nonscalar_ptr_iterator_tag@0@@Z 0042f880 f i PanesMgr.obj
 0001:0002e8b0       ?construct@?$allocator@Ubasecolor@@@std@@QAEXPAUbasecolor@@ABU3@@Z 0042f8b0 f i PanesMgr.obj
 0001:0002e8d0       ?destroy@?$allocator@Ubasecolor@@@std@@QAEXPAUbasecolor@@@Z 0042f8d0 f i PanesMgr.obj
 0001:0002e8f0       ?construct@?$allocator@UOneSubject@@@std@@QAEXPAUOneSubject@@ABU3@@Z 0042f8f0 f i PanesMgr.obj
 0001:0002e910       ?destroy@?$allocator@UOneSubject@@@std@@QAEXPAUOneSubject@@@Z 0042f910 f i PanesMgr.obj
 0001:0002e930       ?destroy@?$allocator@V?$basic_string@DU?$char_traits@D@std@@V?$allocator@D@2@@std@@@std@@QAEXPAV?$basic_string@DU?$char_traits@D@std@@V?$allocator@D@2@@2@@Z 0042f930 f i PanesMgr.obj
 0001:0002e950       ?NewAssoc@?$CMap@PAUHWND__@@PAU1@PAVETSLayoutMgr@@PAV2@@@IAEPAVCAssoc@1@PAUHWND__@@@Z 0042f950 f i PanesMgr.obj
 0001:0002ea90       ??$_Uninit_copy@PAUOneSubject@@PAU1@V?$allocator@UOneSubject@@@std@@@std@@YAPAUOneSubject@@PAU1@00AAV?$allocator@UOneSubject@@@0@U_Nonscalar_ptr_iterator_tag@0@@Z 0042fa90 f i PanesMgr.obj
 0001:0002eb40       ??$_Uninit_copy@PAUbasecolor@@PAU1@V?$allocator@Ubasecolor@@@std@@@std@@YAPAUbasecolor@@PAU1@00AAV?$allocator@Ubasecolor@@@0@U_Nonscalar_ptr_iterator_tag@0@@Z 0042fb40 f i PanesMgr.obj
 0001:0002ebf0       ??$_Construct@Ubasecolor@@U1@@std@@YAXPAUbasecolor@@ABU1@@Z 0042fbf0 f i PanesMgr.obj
 0001:0002ec60       ??$_Destroy@Ubasecolor@@@std@@YAXPAUbasecolor@@@Z 0042fc60 f i PanesMgr.obj
 0001:0002ec70       ??$_Construct@UOneSubject@@U1@@std@@YAXPAUOneSubject@@ABU1@@Z 0042fc70 f i PanesMgr.obj
 0001:0002ece0       ??$_Destroy@UOneSubject@@@std@@YAXPAUOneSubject@@@Z 0042fce0 f i PanesMgr.obj
 0001:0002ecf0       ??$_Destroy@V?$basic_string@DU?$char_traits@D@std@@V?$allocator@D@2@@std@@@std@@YAXPAV?$basic_string@DU?$char_traits@D@std@@V?$allocator@D@2@@0@@Z 0042fcf0 f i PanesMgr.obj
 0001:0002ed00       ??_Gbasecolor@@QAEPAXI@Z   0042fd00 f i PanesMgr.obj
 0001:0002ed30       ??_GOneSubject@@QAEPAXI@Z  0042fd30 f i PanesMgr.obj
 0001:0002ed60       ??_G?$basic_string@DU?$char_traits@D@std@@V?$allocator@D@2@@std@@QAEPAXI@Z 0042fd60 f i PanesMgr.obj
 0001:0002ed90       ??_ECPanesMgr@@W3AEPAXI@Z  0042fd90 f i PanesMgr.obj
 0001:0002eda0       ??_GCPanesMgr@@UAEPAXI@Z   0042fda0 f i PanesMgr.obj
 0001:0002eda0       ??_ECPanesMgr@@UAEPAXI@Z   0042fda0 f i PanesMgr.obj
 0001:0002edd0       ?OnChangeSkinTemplate@IChangeSkinEventListener@@UAE_NV?$CStringT@DV?$StrTraitMFC_DLL@DV?$ChTraitsCRT@D@ATL@@@@@ATL@@0@Z 0042fdd0 f i PanesMgr.obj
 0001:0002ee00       ??0CSkinMgr@@QAE@XZ        0042fe00 f   SkinMgr.obj
 0001:0002ef10       ??1CSkinMgr@@UAE@XZ        0042ff10 f   SkinMgr.obj
 0001:0002f040       ?LoadSkinFromPackage@CSkinMgr@@QAEHPBD@Z 00430040 f   SkinMgr.obj
 0001:0002f930       ?LoadPictures@CSkinMgr@@QAEXV?$CStringT@DV?$StrTraitMFC_DLL@DV?$ChTraitsCRT@D@ATL@@@@@ATL@@H@Z 00430930 f   SkinMgr.obj
 0001:00030110       ?LoadCommonSkin@CSkinMgr@@QAEXXZ 00431110 f   SkinMgr.obj
 0001:00030290       ?LoadSkinFromPath@CSkinMgr@@QAEXPBD@Z 00431290 f   SkinMgr.obj
 0001:00030360       ?SubjectToSkin@CSkinMgr@@UAE_NV?$basic_string@DU?$char_traits@D@std@@V?$allocator@D@2@@std@@@Z 00431360 f   SkinMgr.obj
 0001:00030580       ?ClearMap@CSkinMgr@@QAEX_N@Z 00431580 f   SkinMgr.obj
 0001:000306d0       ?PutDibBmp@CSkinMgr@@QAEXV?$CStringT@DV?$StrTraitMFC_DLL@DV?$ChTraitsCRT@D@ATL@@@@@ATL@@PAVCDibBitmap@@@Z 004316d0 f   SkinMgr.obj
 0001:00030770       ?PutDibBmp@CSkinMgr@@QAEPAVCDibBitmap@@V?$CStringT@DV?$StrTraitMFC_DLL@DV?$ChTraitsCRT@D@ATL@@@@@ATL@@0@Z 00431770 f   SkinMgr.obj
 0001:000308f0       ?GetDibBmp1@CSkinMgr@@AAEPAVCDibBitmap@@V?$CStringT@DV?$StrTraitMFC_DLL@DV?$ChTraitsCRT@D@ATL@@@@@ATL@@_N@Z 004318f0 f   SkinMgr.obj
 0001:000309a0       ?GetDibBmpSubject@CSkinMgr@@QAE_NPBDABV?$basic_string@DU?$char_traits@D@std@@V?$allocator@D@2@@std@@@Z 004319a0 f   SkinMgr.obj
 0001:00030c20       ?GetDibBmp@CSkinMgr@@UAEPAVCDibBitmap@@PBD_N@Z 00431c20 f   SkinMgr.obj
 0001:00030cb0       ?GetDibBmp@CSkinMgr@@UAEPAVCDibBitmap@@PBD@Z 00431cb0 f   SkinMgr.obj
 0001:00030d40       ?ChangeSkinColor@CSkinMgr@@UAEX_N@Z 00431d40 f   SkinMgr.obj
 0001:00030fa0       ?LoadWndsSkin@CSkinMgr@@UAEXXZ 00431fa0 f   SkinMgr.obj
 0001:00031010       ?AddSkinWnd@CSkinMgr@@UAEXPAVCBasicSkinWnd@@@Z 00432010 f   SkinMgr.obj
 0001:00031030       ?RemoveSkinWnd@CSkinMgr@@UAEXPAVCBasicSkinWnd@@@Z 00432030 f   SkinMgr.obj
 0001:000310b0       ?GetColor@CSkinMgr@@UAEKPBD@Z 004320b0 f   SkinMgr.obj
 0001:00031170       ?PutColor@CSkinMgr@@QAEXV?$CStringT@DV?$StrTraitMFC_DLL@DV?$ChTraitsCRT@D@ATL@@@@@ATL@@K@Z 00432170 f   SkinMgr.obj
 0001:00031200       ?SetChangeColorSign@CSkinMgr@@QAEXV?$CStringT@DV?$StrTraitMFC_DLL@DV?$ChTraitsCRT@D@ATL@@@@@ATL@@H@Z 00432200 f   SkinMgr.obj
 0001:00031280       ?GetFrameRGN@CSkinMgr@@UAEPAUHRGN__@@HHPAVCDC@@@Z 00432280 f   SkinMgr.obj
 0001:000316c0       ?IsToppanelBtnWhite@CSkinMgr@@UAE_NXZ 004326c0 f   SkinMgr.obj
 0001:00031740       ?GetCurSubject@CSkinMgr@@UAEPAUOneSubject@@XZ 00432740 f   SkinMgr.obj
 0001:000317c0       ?GetOneSubject@CSkinMgr@@UAEPAUOneSubject@@ABV?$CStringT@DV?$StrTraitMFC_DLL@DV?$ChTraitsCRT@D@ATL@@@@@ATL@@@Z 004327c0 f   SkinMgr.obj
 0001:00031840       ?GetSubjectColor@CSkinMgr@@UAEKABV?$CStringT@DV?$StrTraitMFC_DLL@DV?$ChTraitsCRT@D@ATL@@@@@ATL@@@Z 00432840 f   SkinMgr.obj
 0001:000318c0       ?IsNeedDownSub@CSkinMgr@@UAE_NABV?$CStringT@DV?$StrTraitMFC_DLL@DV?$ChTraitsCRT@D@ATL@@@@@ATL@@@Z 004328c0 f   SkinMgr.obj
 0001:00031940       ?SubDownloaded@CSkinMgr@@UAEXABV?$CStringT@DV?$StrTraitMFC_DLL@DV?$ChTraitsCRT@D@ATL@@@@@ATL@@@Z 00432940 f   SkinMgr.obj
 0001:000319c0       ?GetSkinNames@CSkinMgr@@UAEXAAV?$vector@V?$basic_string@DU?$char_traits@D@std@@V?$allocator@D@2@@std@@V?$allocator@V?$basic_string@DU?$char_traits@D@std@@V?$allocator@D@2@@std@@@2@@std@@_N@Z 004329c0 f   SkinMgr.obj
 0001:000319d0       ?IsSkinVersionValid@CSkinMgr@@UAE_NABV?$CStringT@DV?$StrTraitMFC_DLL@DV?$ChTraitsCRT@D@ATL@@@@@ATL@@@Z 004329d0 f   SkinMgr.obj
 0001:00032110       ?GetSkinPath@CSkinMgr@@UAE?AV?$CStringT@DV?$StrTraitMFC_DLL@DV?$ChTraitsCRT@D@ATL@@@@@ATL@@XZ 00433110 f i SkinMgr.obj
 0001:00032110       ?GetDoc@CMarkup@@QBE?AV?$CStringT@DV?$StrTraitMFC_DLL@DV?$ChTraitsCRT@D@ATL@@@@@ATL@@XZ 00433110 f i MarkupArchive.obj
 0001:00032150       ?SetSkinPath@CSkinMgr@@UAEXV?$CStringT@DV?$StrTraitMFC_DLL@DV?$ChTraitsCRT@D@ATL@@@@@ATL@@@Z 00433150 f i SkinMgr.obj
 0001:000321b0       ?GetBaseColors@CSkinMgr@@UAEPAU_ChangeColor@@XZ 004331b0 f i SkinMgr.obj
 0001:000321d0       ?GetSubject@CSkinMgr@@UAEPAUSubjectData@@XZ 004331d0 f i SkinMgr.obj
 0001:000321f0       ??_GCSkinMgr@@UAEPAXI@Z    004331f0 f i SkinMgr.obj
 0001:000321f0       ??_ECSkinMgr@@UAEPAXI@Z    004331f0 f i SkinMgr.obj
 0001:00032220       ??0ISkinMgr@@QAE@XZ        00433220 f i SkinMgr.obj
 0001:00032240       ??1?$map@V?$CStringT@DV?$StrTraitMFC_DLL@DV?$ChTraitsCRT@D@ATL@@@@@ATL@@PAVCDibBitmap@@U?$less@V?$CStringT@DV?$StrTraitMFC_DLL@DV?$ChTraitsCRT@D@ATL@@@@@ATL@@@std@@V?$allocator@U?$pair@$$CBV?$CStringT@DV?$StrTraitMFC_DLL@DV?$ChTraitsCRT@D@ATL@@@@@ATL@@PAVCDibBitmap@@@std@@@5@@std@@QAE@XZ 00433240 f i SkinMgr.obj
 0001:00032260       ??0_ChangeColor@@QAE@XZ    00433260 f i SkinMgr.obj
 0001:00032280       ??1_ChangeColor@@QAE@XZ    00433280 f i SkinMgr.obj
 0001:000322a0       ??0SubjectData@@QAE@XZ     004332a0 f i SkinMgr.obj
 0001:00032300       ??1SubjectData@@QAE@XZ     00433300 f i SkinMgr.obj
 0001:00032350       ??1?$map@V?$CStringT@DV?$StrTraitMFC_DLL@DV?$ChTraitsCRT@D@ATL@@@@@ATL@@KU?$less@V?$CStringT@DV?$StrTraitMFC_DLL@DV?$ChTraitsCRT@D@ATL@@@@@ATL@@@std@@V?$allocator@U?$pair@$$CBV?$CStringT@DV?$StrTraitMFC_DLL@DV?$ChTraitsCRT@D@ATL@@@@@ATL@@K@std@@@4@@std@@QAE@XZ 00433350 f i SkinMgr.obj
 0001:00032370       ??1?$pair@$$CBV?$CStringT@DV?$StrTraitMFC_DLL@DV?$ChTraitsCRT@D@ATL@@@@@ATL@@K@std@@QAE@XZ 00433370 f i PanesMgr.obj
 0001:00032370       ??1?$pair@$$CBV?$CStringT@DV?$StrTraitMFC_DLL@DV?$ChTraitsCRT@D@ATL@@@@@ATL@@PAVCSkinButton@@@std@@QAE@XZ 00433370 f i SkinWnd.obj
 0001:00032370       ??1?$pair@V?$CStringT@DV?$StrTraitMFC_DLL@DV?$ChTraitsCRT@D@ATL@@@@@ATL@@PAVCSkinButton@@@std@@QAE@XZ 00433370 f i SkinWnd.obj
 0001:00032370       ??1?$pair@$$CBV?$CStringT@DV?$StrTraitMFC_DLL@DV?$ChTraitsCRT@D@ATL@@@@@ATL@@PAVCDibBitmap@@@std@@QAE@XZ 00433370 f i SkinMgr.obj
 0001:00032390       ??0DIBINFO@@QAE@PAXIIGPAE@Z 00433390 f i SkinMgr.obj
 0001:000323e0       ??1DIBINFO@@UAE@XZ         004333e0 f i SkinMgr.obj
 0001:00032410       ??_EDIBINFO@@UAEPAXI@Z     00433410 f i SkinMgr.obj
 0001:00032410       ??_GDIBINFO@@UAEPAXI@Z     00433410 f i SkinMgr.obj
 0001:00032440       ??HATL@@YA?AV?$CStringT@DV?$StrTraitMFC_DLL@DV?$ChTraitsCRT@D@ATL@@@@@0@ABV10@0@Z 00433440 f i SkinMgr.obj
 0001:000324f0       ??0?$vector@Ubasecolor@@V?$allocator@Ubasecolor@@@std@@@std@@QAE@XZ 004334f0 f i SkinMgr.obj
 0001:00032520       ??0?$map@V?$CStringT@DV?$StrTraitMFC_DLL@DV?$ChTraitsCRT@D@ATL@@@@@ATL@@PAVCDibBitmap@@U?$less@V?$CStringT@DV?$StrTraitMFC_DLL@DV?$ChTraitsCRT@D@ATL@@@@@ATL@@@std@@V?$allocator@U?$pair@$$CBV?$CStringT@DV?$StrTraitMFC_DLL@DV?$ChTraitsCRT@D@ATL@@@@@ATL@@PAVCDibBitmap@@@std@@@5@@std@@QAE@XZ 00433520 f i SkinMgr.obj
 0001:00032550       ??1?$_Tree@V?$_Tmap_traits@V?$CStringT@DV?$StrTraitMFC_DLL@DV?$ChTraitsCRT@D@ATL@@@@@ATL@@PAVCDibBitmap@@U?$less@V?$CStringT@DV?$StrTraitMFC_DLL@DV?$ChTraitsCRT@D@ATL@@@@@ATL@@@std@@V?$allocator@U?$pair@$$CBV?$CStringT@DV?$StrTraitMFC_DLL@DV?$ChTraitsCRT@D@ATL@@@@@ATL@@PAVCDibBitmap@@@std@@@5@$0A@@std@@@std@@QAE@XZ 00433550 f i SkinMgr.obj
 0001:00032570       ?erase@?$_Tree@V?$_Tmap_traits@V?$CStringT@DV?$StrTraitMFC_DLL@DV?$ChTraitsCRT@D@ATL@@@@@ATL@@PAVCDibBitmap@@U?$less@V?$CStringT@DV?$StrTraitMFC_DLL@DV?$ChTraitsCRT@D@ATL@@@@@ATL@@@std@@V?$allocator@U?$pair@$$CBV?$CStringT@DV?$StrTraitMFC_DLL@DV?$ChTraitsCRT@D@ATL@@@@@ATL@@PAVCDibBitmap@@@std@@@5@$0A@@std@@@std@@QAE?AViterator@12@V312@@Z 00433570 f i SkinMgr.obj
 0001:00032570       ?erase@?$_Tree@V?$_Tmap_traits@V?$CStringT@DV?$StrTraitMFC_DLL@DV?$ChTraitsCRT@D@ATL@@@@@ATL@@KU?$less@V?$CStringT@DV?$StrTraitMFC_DLL@DV?$ChTraitsCRT@D@ATL@@@@@ATL@@@std@@V?$allocator@U?$pair@$$CBV?$CStringT@DV?$StrTraitMFC_DLL@DV?$ChTraitsCRT@D@ATL@@@@@ATL@@K@std@@@4@$0A@@std@@@std@@QAE?AViterator@12@V312@@Z 00433570 f i SkinMgr.obj
 0001:00032d20       ?clear@?$_Tree@V?$_Tmap_traits@V?$CStringT@DV?$StrTraitMFC_DLL@DV?$ChTraitsCRT@D@ATL@@@@@ATL@@PAVCDibBitmap@@U?$less@V?$CStringT@DV?$StrTraitMFC_DLL@DV?$ChTraitsCRT@D@ATL@@@@@ATL@@@std@@V?$allocator@U?$pair@$$CBV?$CStringT@DV?$StrTraitMFC_DLL@DV?$ChTraitsCRT@D@ATL@@@@@ATL@@PAVCDibBitmap@@@std@@@5@$0A@@std@@@std@@QAEXXZ 00433d20 f i SkinMgr.obj
 0001:00032d80       ??0?$map@V?$CStringT@DV?$StrTraitMFC_DLL@DV?$ChTraitsCRT@D@ATL@@@@@ATL@@KU?$less@V?$CStringT@DV?$StrTraitMFC_DLL@DV?$ChTraitsCRT@D@ATL@@@@@ATL@@@std@@V?$allocator@U?$pair@$$CBV?$CStringT@DV?$StrTraitMFC_DLL@DV?$ChTraitsCRT@D@ATL@@@@@ATL@@K@std@@@4@@std@@QAE@XZ 00433d80 f i SkinMgr.obj
 0001:00032db0       ??1?$_Tree@V?$_Tmap_traits@V?$CStringT@DV?$StrTraitMFC_DLL@DV?$ChTraitsCRT@D@ATL@@@@@ATL@@KU?$less@V?$CStringT@DV?$StrTraitMFC_DLL@DV?$ChTraitsCRT@D@ATL@@@@@ATL@@@std@@V?$allocator@U?$pair@$$CBV?$CStringT@DV?$StrTraitMFC_DLL@DV?$ChTraitsCRT@D@ATL@@@@@ATL@@K@std@@@4@$0A@@std@@@std@@QAE@XZ 00433db0 f i SkinMgr.obj
 0001:00032dd0       ?insert@?$_Tree@V?$_Tmap_traits@V?$CStringT@DV?$StrTraitMFC_DLL@DV?$ChTraitsCRT@D@ATL@@@@@ATL@@PAVCDibBitmap@@U?$less@V?$CStringT@DV?$StrTraitMFC_DLL@DV?$ChTraitsCRT@D@ATL@@@@@ATL@@@std@@V?$allocator@U?$pair@$$CBV?$CStringT@DV?$StrTraitMFC_DLL@DV?$ChTraitsCRT@D@ATL@@@@@ATL@@PAVCDibBitmap@@@std@@@5@$0A@@std@@@std@@QAE?AU?$pair@Viterator@?$_Tree@V?$_Tmap_traits@V?$CStringT@DV?$StrTraitMFC_DLL@DV?$ChTraitsCRT@D@ATL@@@@@ATL@@PAVCDibBitmap@@U?$less@V?$CStringT@DV?$StrTraitMFC_DLL@DV?$ChTraitsCRT@D@ATL@@@@@ATL@@@std@@V?$allocator@U?$pair@$$CBV?$CStringT@DV?$StrTraitMFC_DLL@DV?$ChTraitsCRT@D@ATL@@@@@ATL@@PAVCDibBitmap@@@std@@@5@$0A@@std@@@std@@_N@2@ABU?$pair@$$CBV?$CStringT@DV?$StrTraitMFC_DLL@DV?$ChTraitsCRT@D@ATL@@@@@ATL@@PAVCDibBitmap@@@2@@Z 00433dd0 f i SkinMgr.obj
 0001:00032dd0       ?insert@?$_Tree@V?$_Tmap_traits@V?$CStringT@DV?$StrTraitMFC_DLL@DV?$ChTraitsCRT@D@ATL@@@@@ATL@@KU?$less@V?$CStringT@DV?$StrTraitMFC_DLL@DV?$ChTraitsCRT@D@ATL@@@@@ATL@@@std@@V?$allocator@U?$pair@$$CBV?$CStringT@DV?$StrTraitMFC_DLL@DV?$ChTraitsCRT@D@ATL@@@@@ATL@@K@std@@@4@$0A@@std@@@std@@QAE?AU?$pair@Viterator@?$_Tree@V?$_Tmap_traits@V?$CStringT@DV?$StrTraitMFC_DLL@DV?$ChTraitsCRT@D@ATL@@@@@ATL@@KU?$less@V?$CStringT@DV?$StrTraitMFC_DLL@DV?$ChTraitsCRT@D@ATL@@@@@ATL@@@std@@V?$allocator@U?$pair@$$CBV?$CStringT@DV?$StrTraitMFC_DLL@DV?$ChTraitsCRT@D@ATL@@@@@ATL@@K@std@@@4@$0A@@std@@@std@@_N@2@ABU?$pair@$$CBV?$CStringT@DV?$StrTraitMFC_DLL@DV?$ChTraitsCRT@D@ATL@@@@@ATL@@K@2@@Z 00433dd0 f i SkinMgr.obj
 0001:00032f80       ?find@?$_Tree@V?$_Tmap_traits@V?$CStringT@DV?$StrTraitMFC_DLL@DV?$ChTraitsCRT@D@ATL@@@@@ATL@@KU?$less@V?$CStringT@DV?$StrTraitMFC_DLL@DV?$ChTraitsCRT@D@ATL@@@@@ATL@@@std@@V?$allocator@U?$pair@$$CBV?$CStringT@DV?$StrTraitMFC_DLL@DV?$ChTraitsCRT@D@ATL@@@@@ATL@@K@std@@@4@$0A@@std@@@std@@QAE?AViterator@12@ABV?$CStringT@DV?$StrTraitMFC_DLL@DV?$ChTraitsCRT@D@ATL@@@@@ATL@@@Z 00433f80 f i SkinMgr.obj
 0001:00032f80       ?find@?$_Tree@V?$_Tmap_traits@V?$CStringT@DV?$StrTraitMFC_DLL@DV?$ChTraitsCRT@D@ATL@@@@@ATL@@PAVCSkinButton@@U?$less@V?$CStringT@DV?$StrTraitMFC_DLL@DV?$ChTraitsCRT@D@ATL@@@@@ATL@@@std@@V?$allocator@U?$pair@$$CBV?$CStringT@DV?$StrTraitMFC_DLL@DV?$ChTraitsCRT@D@ATL@@@@@ATL@@PAVCSkinButton@@@std@@@5@$0A@@std@@@std@@QAE?AViterator@12@ABV?$CStringT@DV?$StrTraitMFC_DLL@DV?$ChTraitsCRT@D@ATL@@@@@ATL@@@Z 00433f80 f i SkinWnd.obj
 0001:00032f80       ?find@?$_Tree@V?$_Tmap_traits@V?$CStringT@DV?$StrTraitMFC_DLL@DV?$ChTraitsCRT@D@ATL@@@@@ATL@@PAVCDibBitmap@@U?$less@V?$CStringT@DV?$StrTraitMFC_DLL@DV?$ChTraitsCRT@D@ATL@@@@@ATL@@@std@@V?$allocator@U?$pair@$$CBV?$CStringT@DV?$StrTraitMFC_DLL@DV?$ChTraitsCRT@D@ATL@@@@@ATL@@PAVCDibBitmap@@@std@@@5@$0A@@std@@@std@@QAE?AViterator@12@ABV?$CStringT@DV?$StrTraitMFC_DLL@DV?$ChTraitsCRT@D@ATL@@@@@ATL@@@Z 00433f80 f i SkinMgr.obj
 0001:00033010       ??0?$vector@PAVCBasicSkinWnd@@V?$allocator@PAVCBasicSkinWnd@@@std@@@std@@QAE@XZ 00434010 f i SkinMgr.obj
 0001:00033040       ?push_back@?$vector@PAVCBasicSkinWnd@@V?$allocator@PAVCBasicSkinWnd@@@std@@@std@@QAEXABQAVCBasicSkinWnd@@@Z 00434040 f i SkinMgr.obj
 0001:000330b0       ?erase@?$vector@PAVCBasicSkinWnd@@V?$allocator@PAVCBasicSkinWnd@@@std@@@std@@QAE?AViterator@12@V312@0@Z 004340b0 f i SkinMgr.obj
 0001:00033120       ?push_back@?$vector@V?$basic_string@DU?$char_traits@D@std@@V?$allocator@D@2@@std@@V?$allocator@V?$basic_string@DU?$char_traits@D@std@@V?$allocator@D@2@@std@@@2@@std@@QAEXABV?$basic_string@DU?$char_traits@D@std@@V?$allocator@D@2@@2@@Z 00434120 f i SkinMgr.obj
 0001:00033190       ??0?$pair@$$CBV?$CStringT@DV?$StrTraitMFC_DLL@DV?$ChTraitsCRT@D@ATL@@@@@ATL@@K@std@@QAE@ABV?$CStringT@DV?$StrTraitMFC_DLL@DV?$ChTraitsCRT@D@ATL@@@@@ATL@@ABK@Z 00434190 f i SkinMgr.obj
 0001:00033190       ??0?$pair@$$CBV?$CStringT@DV?$StrTraitMFC_DLL@DV?$ChTraitsCRT@D@ATL@@@@@ATL@@PAVCDibBitmap@@@std@@QAE@ABV?$CStringT@DV?$StrTraitMFC_DLL@DV?$ChTraitsCRT@D@ATL@@@@@ATL@@ABQAVCDibBitmap@@@Z 00434190 f i SkinMgr.obj
 0001:000331c0       ?_Buy@?$vector@Ubasecolor@@V?$allocator@Ubasecolor@@@std@@@std@@IAE_NI@Z 004341c0 f i SkinMgr.obj
 0001:00033240       ?_Color@?$_Tree@V?$_Tmap_traits@V?$CStringT@DV?$StrTraitMFC_DLL@DV?$ChTraitsCRT@D@ATL@@@@@ATL@@KU?$less@V?$CStringT@DV?$StrTraitMFC_DLL@DV?$ChTraitsCRT@D@ATL@@@@@ATL@@@std@@V?$allocator@U?$pair@$$CBV?$CStringT@DV?$StrTraitMFC_DLL@DV?$ChTraitsCRT@D@ATL@@@@@ATL@@K@std@@@4@$0A@@std@@@std@@KAAADPAU_Node@?$_Tree_nod@V?$_Tmap_traits@V?$CStringT@DV?$StrTraitMFC_DLL@DV?$ChTraitsCRT@D@ATL@@@@@ATL@@KU?$less@V?$CStringT@DV?$StrTraitMFC_DLL@DV?$ChTraitsCRT@D@ATL@@@@@ATL@@@std@@V?$allocator@U?$pair@$$CBV?$CStringT@DV?$StrTraitMFC_DLL@DV?$ChTraitsCRT@D@ATL@@@@@ATL@@K@std@@@4@$0A@@std@@@2@@Z 00434240 f i SkinMgr.obj
 0001:00033240       ?_Color@?$_Tree@V?$_Tmap_traits@HPAVBaseDialog@@U?$less@H@std@@V?$allocator@U?$pair@$$CBHPAVBaseDialog@@@std@@@3@$0A@@std@@@std@@KAAADPAU_Node@?$_Tree_nod@V?$_Tmap_traits@HPAVBaseDialog@@U?$less@H@std@@V?$allocator@U?$pair@$$CBHPAVBaseDialog@@@std@@@3@$0A@@std@@@2@@Z 00434240 f i DlgConfig.obj
 0001:00033240       ?_Color@?$_Tree@V?$_Tmap_traits@V?$CStringT@DV?$StrTraitMFC_DLL@DV?$ChTraitsCRT@D@ATL@@@@@ATL@@PAVCDibBitmap@@U?$less@V?$CStringT@DV?$StrTraitMFC_DLL@DV?$ChTraitsCRT@D@ATL@@@@@ATL@@@std@@V?$allocator@U?$pair@$$CBV?$CStringT@DV?$StrTraitMFC_DLL@DV?$ChTraitsCRT@D@ATL@@@@@ATL@@PAVCDibBitmap@@@std@@@5@$0A@@std@@@std@@KAAADPAU_Node@?$_Tree_nod@V?$_Tmap_traits@V?$CStringT@DV?$StrTraitMFC_DLL@DV?$ChTraitsCRT@D@ATL@@@@@ATL@@PAVCDibBitmap@@U?$less@V?$CStringT@DV?$StrTraitMFC_DLL@DV?$ChTraitsCRT@D@ATL@@@@@ATL@@@std@@V?$allocator@U?$pair@$$CBV?$CStringT@DV?$StrTraitMFC_DLL@DV?$ChTraitsCRT@D@ATL@@@@@ATL@@PAVCDibBitmap@@@std@@@5@$0A@@std@@@2@@Z 00434240 f i SkinMgr.obj
 0001:00033240       ?_Color@?$_Tree@V?$_Tmap_traits@V?$CStringT@DV?$StrTraitMFC_DLL@DV?$ChTraitsCRT@D@ATL@@@@@ATL@@PAVCSkinButton@@U?$less@V?$CStringT@DV?$StrTraitMFC_DLL@DV?$ChTraitsCRT@D@ATL@@@@@ATL@@@std@@V?$allocator@U?$pair@$$CBV?$CStringT@DV?$StrTraitMFC_DLL@DV?$ChTraitsCRT@D@ATL@@@@@ATL@@PAVCSkinButton@@@std@@@5@$0A@@std@@@std@@KAAADPAU_Node@?$_Tree_nod@V?$_Tmap_traits@V?$CStringT@DV?$StrTraitMFC_DLL@DV?$ChTraitsCRT@D@ATL@@@@@ATL@@PAVCSkinButton@@U?$less@V?$CStringT@DV?$StrTraitMFC_DLL@DV?$ChTraitsCRT@D@ATL@@@@@ATL@@@std@@V?$allocator@U?$pair@$$CBV?$CStringT@DV?$StrTraitMFC_DLL@DV?$ChTraitsCRT@D@ATL@@@@@ATL@@PAVCSkinButton@@@std@@@5@$0A@@std@@@2@@Z 00434240 f i SkinWnd.obj
 0001:00033240       ?_Color@?$_Tree@V?$_Tmap_traits@KPAVIData@@U?$less@K@std@@V?$allocator@U?$pair@$$CBKPAVIData@@@std@@@3@$0A@@std@@@std@@KAAADPAU_Node@?$_Tree_nod@V?$_Tmap_traits@KPAVIData@@U?$less@K@std@@V?$allocator@U?$pair@$$CBKPAVIData@@@std@@@3@$0A@@std@@@2@@Z 00434240 f i CDataManager.obj
 0001:00033250       ?_Isnil@?$_Tree@V?$_Tmap_traits@V?$CStringT@DV?$StrTraitMFC_DLL@DV?$ChTraitsCRT@D@ATL@@@@@ATL@@PAVCSkinButton@@U?$less@V?$CStringT@DV?$StrTraitMFC_DLL@DV?$ChTraitsCRT@D@ATL@@@@@ATL@@@std@@V?$allocator@U?$pair@$$CBV?$CStringT@DV?$StrTraitMFC_DLL@DV?$ChTraitsCRT@D@ATL@@@@@ATL@@PAVCSkinButton@@@std@@@5@$0A@@std@@@std@@KAAADPAU_Node@?$_Tree_nod@V?$_Tmap_traits@V?$CStringT@DV?$StrTraitMFC_DLL@DV?$ChTraitsCRT@D@ATL@@@@@ATL@@PAVCSkinButton@@U?$less@V?$CStringT@DV?$StrTraitMFC_DLL@DV?$ChTraitsCRT@D@ATL@@@@@ATL@@@std@@V?$allocator@U?$pair@$$CBV?$CStringT@DV?$StrTraitMFC_DLL@DV?$ChTraitsCRT@D@ATL@@@@@ATL@@PAVCSkinButton@@@std@@@5@$0A@@std@@@2@@Z 00434250 f i SkinWnd.obj
 0001:00033250       ?_Isnil@?$_Tree@V?$_Tmap_traits@V?$CStringT@DV?$StrTraitMFC_DLL@DV?$ChTraitsCRT@D@ATL@@@@@ATL@@KU?$less@V?$CStringT@DV?$StrTraitMFC_DLL@DV?$ChTraitsCRT@D@ATL@@@@@ATL@@@std@@V?$allocator@U?$pair@$$CBV?$CStringT@DV?$StrTraitMFC_DLL@DV?$ChTraitsCRT@D@ATL@@@@@ATL@@K@std@@@4@$0A@@std@@@std@@KAAADPAU_Node@?$_Tree_nod@V?$_Tmap_traits@V?$CStringT@DV?$StrTraitMFC_DLL@DV?$ChTraitsCRT@D@ATL@@@@@ATL@@KU?$less@V?$CStringT@DV?$StrTraitMFC_DLL@DV?$ChTraitsCRT@D@ATL@@@@@ATL@@@std@@V?$allocator@U?$pair@$$CBV?$CStringT@DV?$StrTraitMFC_DLL@DV?$ChTraitsCRT@D@ATL@@@@@ATL@@K@std@@@4@$0A@@std@@@2@@Z 00434250 f i PanesMgr.obj
 0001:00033250       ?_Isnil@?$_Tree@V?$_Tmap_traits@V?$CStringT@DV?$StrTraitMFC_DLL@DV?$ChTraitsCRT@D@ATL@@@@@ATL@@PAVCDibBitmap@@U?$less@V?$CStringT@DV?$StrTraitMFC_DLL@DV?$ChTraitsCRT@D@ATL@@@@@ATL@@@std@@V?$allocator@U?$pair@$$CBV?$CStringT@DV?$StrTraitMFC_DLL@DV?$ChTraitsCRT@D@ATL@@@@@ATL@@PAVCDibBitmap@@@std@@@5@$0A@@std@@@std@@KAAADPAU_Node@?$_Tree_nod@V?$_Tmap_traits@V?$CStringT@DV?$StrTraitMFC_DLL@DV?$ChTraitsCRT@D@ATL@@@@@ATL@@PAVCDibBitmap@@U?$less@V?$CStringT@DV?$StrTraitMFC_DLL@DV?$ChTraitsCRT@D@ATL@@@@@ATL@@@std@@V?$allocator@U?$pair@$$CBV?$CStringT@DV?$StrTraitMFC_DLL@DV?$ChTraitsCRT@D@ATL@@@@@ATL@@PAVCDibBitmap@@@std@@@5@$0A@@std@@@2@@Z 00434250 f i SkinMgr.obj
 0001:00033250       ?_Isnil@?$_Tree@V?$_Tmap_traits@KPAVIData@@U?$less@K@std@@V?$allocator@U?$pair@$$CBKPAVIData@@@std@@@3@$0A@@std@@@std@@KAAADPAU_Node@?$_Tree_nod@V?$_Tmap_traits@KPAVIData@@U?$less@K@std@@V?$allocator@U?$pair@$$CBKPAVIData@@@std@@@3@$0A@@std@@@2@@Z 00434250 f i CDataManager.obj
 0001:00033250       ?_Isnil@?$_Tree@V?$_Tmap_traits@HPAVBaseDialog@@U?$less@H@std@@V?$allocator@U?$pair@$$CBHPAVBaseDialog@@@std@@@3@$0A@@std@@@std@@KAAADPAU_Node@?$_Tree_nod@V?$_Tmap_traits@HPAVBaseDialog@@U?$less@H@std@@V?$allocator@U?$pair@$$CBHPAVBaseDialog@@@std@@@3@$0A@@std@@@2@@Z 00434250 f i DlgConfig.obj
 0001:00033260       ?_Key@?$_Tree@V?$_Tmap_traits@V?$CStringT@DV?$StrTraitMFC_DLL@DV?$ChTraitsCRT@D@ATL@@@@@ATL@@PAVCDibBitmap@@U?$less@V?$CStringT@DV?$StrTraitMFC_DLL@DV?$ChTraitsCRT@D@ATL@@@@@ATL@@@std@@V?$allocator@U?$pair@$$CBV?$CStringT@DV?$StrTraitMFC_DLL@DV?$ChTraitsCRT@D@ATL@@@@@ATL@@PAVCDibBitmap@@@std@@@5@$0A@@std@@@std@@KAABV?$CStringT@DV?$StrTraitMFC_DLL@DV?$ChTraitsCRT@D@ATL@@@@@ATL@@PAU_Node@?$_Tree_nod@V?$_Tmap_traits@V?$CStringT@DV?$StrTraitMFC_DLL@DV?$ChTraitsCRT@D@ATL@@@@@ATL@@PAVCDibBitmap@@U?$less@V?$CStringT@DV?$StrTraitMFC_DLL@DV?$ChTraitsCRT@D@ATL@@@@@ATL@@@std@@V?$allocator@U?$pair@$$CBV?$CStringT@DV?$StrTraitMFC_DLL@DV?$ChTraitsCRT@D@ATL@@@@@ATL@@PAVCDibBitmap@@@std@@@5@$0A@@std@@@2@@Z 00434260 f i SkinMgr.obj
 0001:00033260       ?_Key@?$_Tree@V?$_Tmap_traits@V?$basic_string@DU?$char_traits@D@std@@V?$allocator@D@2@@std@@HU?$less@V?$basic_string@DU?$char_traits@D@std@@V?$allocator@D@2@@std@@@2@V?$allocator@U?$pair@$$CBV?$basic_string@DU?$char_traits@D@std@@V?$allocator@D@2@@std@@H@std@@@2@$0A@@std@@@std@@KAABV?$basic_string@DU?$char_traits@D@std@@V?$allocator@D@2@@2@PAU_Node@?$_Tree_nod@V?$_Tmap_traits@V?$basic_string@DU?$char_traits@D@std@@V?$allocator@D@2@@std@@HU?$less@V?$basic_string@DU?$char_traits@D@std@@V?$allocator@D@2@@std@@@2@V?$allocator@U?$pair@$$CBV?$basic_string@DU?$char_traits@D@std@@V?$allocator@D@2@@std@@H@std@@@2@$0A@@std@@@2@@Z 00434260 f i MyTreeCtrl.obj
 0001:00033260       ?_Key@?$_Tree@V?$_Tmap_traits@V?$basic_string@DU?$char_traits@D@std@@V?$allocator@D@2@@std@@PAVCConfigObject@@U?$less@V?$basic_string@DU?$char_traits@D@std@@V?$allocator@D@2@@std@@@2@V?$allocator@U?$pair@$$CBV?$basic_string@DU?$char_traits@D@std@@V?$allocator@D@2@@std@@PAVCConfigObject@@@std@@@2@$0A@@std@@@std@@KAABV?$basic_string@DU?$char_traits@D@std@@V?$allocator@D@2@@2@PAU_Node@?$_Tree_nod@V?$_Tmap_traits@V?$basic_string@DU?$char_traits@D@std@@V?$allocator@D@2@@std@@PAVCConfigObject@@U?$less@V?$basic_string@DU?$char_traits@D@std@@V?$allocator@D@2@@std@@@2@V?$allocator@U?$pair@$$CBV?$basic_string@DU?$char_traits@D@std@@V?$allocator@D@2@@std@@PAVCConfigObject@@@std@@@2@$0A@@std@@@2@@Z 00434260 f i AfxUserConfig.obj
 0001:00033260       ?_Key@?$_Tree@V?$_Tmap_traits@V?$basic_string@DU?$char_traits@D@std@@V?$allocator@D@2@@std@@_NU?$less@V?$basic_string@DU?$char_traits@D@std@@V?$allocator@D@2@@std@@@2@V?$allocator@U?$pair@$$CBV?$basic_string@DU?$char_traits@D@std@@V?$allocator@D@2@@std@@_N@std@@@2@$0A@@std@@@std@@KAABV?$basic_string@DU?$char_traits@D@std@@V?$allocator@D@2@@2@PAU_Node@?$_Tree_nod@V?$_Tmap_traits@V?$basic_string@DU?$char_traits@D@std@@V?$allocator@D@2@@std@@_NU?$less@V?$basic_string@DU?$char_traits@D@std@@V?$allocator@D@2@@std@@@2@V?$allocator@U?$pair@$$CBV?$basic_string@DU?$char_traits@D@std@@V?$allocator@D@2@@std@@_N@std@@@2@$0A@@std@@@2@@Z 00434260 f i AfxUserConfig.obj
 0001:00033260       ?_Key@?$_Tree@V?$_Tmap_traits@KPAVIData@@U?$less@K@std@@V?$allocator@U?$pair@$$CBKPAVIData@@@std@@@3@$0A@@std@@@std@@KAABKPAU_Node@?$_Tree_nod@V?$_Tmap_traits@KPAVIData@@U?$less@K@std@@V?$allocator@U?$pair@$$CBKPAVIData@@@std@@@3@$0A@@std@@@2@@Z 00434260 f i CDataManager.obj
 0001:00033260       ?_Key@?$_Tree@V?$_Tmap_traits@PAUHWND__@@UWndMoveData@@U?$less@PAUHWND__@@@std@@V?$allocator@U?$pair@QAUHWND__@@UWndMoveData@@@std@@@4@$0A@@std@@@std@@KAABQAUHWND__@@PAU_Node@?$_Tree_nod@V?$_Tmap_traits@PAUHWND__@@UWndMoveData@@U?$less@PAUHWND__@@@std@@V?$allocator@U?$pair@QAUHWND__@@UWndMoveData@@@std@@@4@$0A@@std@@@2@@Z 00434260 f i WindowsMover.obj
 0001:00033260       ?_Key@?$_Tree@V?$_Tmap_traits@V?$CStringT@DV?$StrTraitMFC_DLL@DV?$ChTraitsCRT@D@ATL@@@@@ATL@@PAVCSkinButton@@U?$less@V?$CStringT@DV?$StrTraitMFC_DLL@DV?$ChTraitsCRT@D@ATL@@@@@ATL@@@std@@V?$allocator@U?$pair@$$CBV?$CStringT@DV?$StrTraitMFC_DLL@DV?$ChTraitsCRT@D@ATL@@@@@ATL@@PAVCSkinButton@@@std@@@5@$0A@@std@@@std@@KAABV?$CStringT@DV?$StrTraitMFC_DLL@DV?$ChTraitsCRT@D@ATL@@@@@ATL@@PAU_Node@?$_Tree_nod@V?$_Tmap_traits@V?$CStringT@DV?$StrTraitMFC_DLL@DV?$ChTraitsCRT@D@ATL@@@@@ATL@@PAVCSkinButton@@U?$less@V?$CStringT@DV?$StrTraitMFC_DLL@DV?$ChTraitsCRT@D@ATL@@@@@ATL@@@std@@V?$allocator@U?$pair@$$CBV?$CStringT@DV?$StrTraitMFC_DLL@DV?$ChTraitsCRT@D@ATL@@@@@ATL@@PAVCSkinButton@@@std@@@5@$0A@@std@@@2@@Z 00434260 f i SkinWnd.obj
 0001:00033260       ?_Key@?$_Tree@V?$_Tmap_traits@PAUHWND__@@UCWndData@@U?$less@PAUHWND__@@@std@@V?$allocator@U?$pair@QAUHWND__@@UCWndData@@@std@@@4@$0A@@std@@@std@@KAABQAUHWND__@@PAU_Node@?$_Tree_nod@V?$_Tmap_traits@PAUHWND__@@UCWndData@@U?$less@PAUHWND__@@@std@@V?$allocator@U?$pair@QAUHWND__@@UCWndData@@@std@@@4@$0A@@std@@@2@@Z 00434260 f i HostWndMgr.obj
 0001:00033260       ?_Key@?$_Tree@V?$_Tmap_traits@KV?$list@PAUMESSAGE_OBSERVER@@V?$allocator@PAUMESSAGE_OBSERVER@@@std@@@std@@U?$less@K@2@V?$allocator@U?$pair@$$CBKV?$list@PAUMESSAGE_OBSERVER@@V?$allocator@PAUMESSAGE_OBSERVER@@@std@@@std@@@std@@@2@$0A@@std@@@std@@KAABKPAU_Node@?$_Tree_nod@V?$_Tmap_traits@KV?$list@PAUMESSAGE_OBSERVER@@V?$allocator@PAUMESSAGE_OBSERVER@@@std@@@std@@U?$less@K@2@V?$allocator@U?$pair@$$CBKV?$list@PAUMESSAGE_OBSERVER@@V?$allocator@PAUMESSAGE_OBSERVER@@@std@@@std@@@std@@@2@$0A@@std@@@2@@Z 00434260 f i CMessageManager.obj
 0001:00033260       ?_Key@?$_Tree@V?$_Tmap_traits@HPAVBaseDialog@@U?$less@H@std@@V?$allocator@U?$pair@$$CBHPAVBaseDialog@@@std@@@3@$0A@@std@@@std@@KAABHPAU_Node@?$_Tree_nod@V?$_Tmap_traits@HPAVBaseDialog@@U?$less@H@std@@V?$allocator@U?$pair@$$CBHPAVBaseDialog@@@std@@@3@$0A@@std@@@2@@Z 00434260 f i DlgConfig.obj
 0001:00033260       ?_Key@?$_Tree@V?$_Tmap_traits@V?$basic_string@DU?$char_traits@D@std@@V?$allocator@D@2@@std@@V12@U?$less@V?$basic_string@DU?$char_traits@D@std@@V?$allocator@D@2@@std@@@2@V?$allocator@U?$pair@$$CBV?$basic_string@DU?$char_traits@D@std@@V?$allocator@D@2@@std@@V12@@std@@@2@$0A@@std@@@std@@KAABV?$basic_string@DU?$char_traits@D@std@@V?$allocator@D@2@@2@PAU_Node@?$_Tree_nod@V?$_Tmap_traits@V?$basic_string@DU?$char_traits@D@std@@V?$allocator@D@2@@std@@V12@U?$less@V?$basic_string@DU?$char_traits@D@std@@V?$allocator@D@2@@std@@@2@V?$allocator@U?$pair@$$CBV?$basic_string@DU?$char_traits@D@std@@V?$allocator@D@2@@std@@V12@@std@@@2@$0A@@std@@@2@@Z 00434260 f i AfxUserConfig.obj
 0001:00033260       ?_Key@?$_Tree@V?$_Tmap_traits@V?$CStringT@DV?$StrTraitMFC_DLL@DV?$ChTraitsCRT@D@ATL@@@@@ATL@@KU?$less@V?$CStringT@DV?$StrTraitMFC_DLL@DV?$ChTraitsCRT@D@ATL@@@@@ATL@@@std@@V?$allocator@U?$pair@$$CBV?$CStringT@DV?$StrTraitMFC_DLL@DV?$ChTraitsCRT@D@ATL@@@@@ATL@@K@std@@@4@$0A@@std@@@std@@KAABV?$CStringT@DV?$StrTraitMFC_DLL@DV?$ChTraitsCRT@D@ATL@@@@@ATL@@PAU_Node@?$_Tree_nod@V?$_Tmap_traits@V?$CStringT@DV?$StrTraitMFC_DLL@DV?$ChTraitsCRT@D@ATL@@@@@ATL@@KU?$less@V?$CStringT@DV?$StrTraitMFC_DLL@DV?$ChTraitsCRT@D@ATL@@@@@ATL@@@std@@V?$allocator@U?$pair@$$CBV?$CStringT@DV?$StrTraitMFC_DLL@DV?$ChTraitsCRT@D@ATL@@@@@ATL@@K@std@@@4@$0A@@std@@@2@@Z 00434260 f i SkinMgr.obj
 0001:00033260       ?_Key@?$_Tree@V?$_Tmap_traits@V?$basic_string@DU?$char_traits@D@std@@V?$allocator@D@2@@std@@PAVYL_CHTTPDownFile@@U?$less@V?$basic_string@DU?$char_traits@D@std@@V?$allocator@D@2@@std@@@2@V?$allocator@U?$pair@$$CBV?$basic_string@DU?$char_traits@D@std@@V?$allocator@D@2@@std@@PAVYL_CHTTPDownFile@@@std@@@2@$0A@@std@@@std@@KAABV?$basic_string@DU?$char_traits@D@std@@V?$allocator@D@2@@2@PAU_Node@?$_Tree_nod@V?$_Tmap_traits@V?$basic_string@DU?$char_traits@D@std@@V?$allocator@D@2@@std@@PAVYL_CHTTPDownFile@@U?$less@V?$basic_string@DU?$char_traits@D@std@@V?$allocator@D@2@@std@@@2@V?$allocator@U?$pair@$$CBV?$basic_string@DU?$char_traits@D@std@@V?$allocator@D@2@@std@@PAVYL_CHTTPDownFile@@@std@@@2@$0A@@std@@@2@@Z 00434260 f i HttpDownCtrl.obj
 0001:00033260       ?_Key@?$_Tree@V?$_Tmap_traits@V?$basic_string@DU?$char_traits@D@std@@V?$allocator@D@2@@std@@V?$list@PAVAfxUserConfig_Observer@@V?$allocator@PAVAfxUserConfig_Observer@@@std@@@2@U?$less@V?$basic_string@DU?$char_traits@D@std@@V?$allocator@D@2@@std@@@2@V?$allocator@U?$pair@$$CBV?$basic_string@DU?$char_traits@D@std@@V?$allocator@D@2@@std@@V?$list@PAVAfxUserConfig_Observer@@V?$allocator@PAVAfxUserConfig_Observer@@@std@@@2@@std@@@2@$0A@@std@@@std@@KAABV?$basic_string@DU?$char_traits@D@std@@V?$allocator@D@2@@2@PAU_Node@?$_Tree_nod@V?$_Tmap_traits@V?$basic_string@DU?$char_traits@D@std@@V?$allocator@D@2@@std@@V?$list@PAVAfxUserConfig_Observer@@V?$allocator@PAVAfxUserConfig_Observer@@@std@@@2@U?$less@V?$basic_string@DU?$char_traits@D@std@@V?$allocator@D@2@@std@@@2@V?$allocator@U?$pair@$$CBV?$basic_string@DU?$char_traits@D@std@@V?$allocator@D@2@@std@@V?$list@PAVAfxUserConfig_Observer@@V?$allocator@PAVAfxUserConfig_Observer@@@std@@@2@@std@@@2@$0A@@std@@@2@@Z 00434260 f i AfxUserConfig.obj
 0001:00033260       ?_Key@?$_Tree@V?$_Tmap_traits@HUMYLIST_COLUMN_INFO@@U?$less@H@std@@V?$allocator@U?$pair@$$CBHUMYLIST_COLUMN_INFO@@@std@@@3@$0A@@std@@@std@@KAABHPAU_Node@?$_Tree_nod@V?$_Tmap_traits@HUMYLIST_COLUMN_INFO@@U?$less@H@std@@V?$allocator@U?$pair@$$CBHUMYLIST_COLUMN_INFO@@@std@@@3@$0A@@std@@@2@@Z 00434260 f i MyListCtrl.obj
 0001:00033280       ?_Erase@?$_Tree@V?$_Tmap_traits@V?$CStringT@DV?$StrTraitMFC_DLL@DV?$ChTraitsCRT@D@ATL@@@@@ATL@@PAVCDibBitmap@@U?$less@V?$CStringT@DV?$StrTraitMFC_DLL@DV?$ChTraitsCRT@D@ATL@@@@@ATL@@@std@@V?$allocator@U?$pair@$$CBV?$CStringT@DV?$StrTraitMFC_DLL@DV?$ChTraitsCRT@D@ATL@@@@@ATL@@PAVCDibBitmap@@@std@@@5@$0A@@std@@@std@@IAEXPAU_Node@?$_Tree_nod@V?$_Tmap_traits@V?$CStringT@DV?$StrTraitMFC_DLL@DV?$ChTraitsCRT@D@ATL@@@@@ATL@@PAVCDibBitmap@@U?$less@V?$CStringT@DV?$StrTraitMFC_DLL@DV?$ChTraitsCRT@D@ATL@@@@@ATL@@@std@@V?$allocator@U?$pair@$$CBV?$CStringT@DV?$StrTraitMFC_DLL@DV?$ChTraitsCRT@D@ATL@@@@@ATL@@PAVCDibBitmap@@@std@@@5@$0A@@std@@@2@@Z 00434280 f i SkinMgr.obj
 0001:00033300       ?_Max@?$_Tree@V?$_Tmap_traits@V?$CStringT@DV?$StrTraitMFC_DLL@DV?$ChTraitsCRT@D@ATL@@@@@ATL@@PAVCDibBitmap@@U?$less@V?$CStringT@DV?$StrTraitMFC_DLL@DV?$ChTraitsCRT@D@ATL@@@@@ATL@@@std@@V?$allocator@U?$pair@$$CBV?$CStringT@DV?$StrTraitMFC_DLL@DV?$ChTraitsCRT@D@ATL@@@@@ATL@@PAVCDibBitmap@@@std@@@5@$0A@@std@@@std@@KAPAU_Node@?$_Tree_nod@V?$_Tmap_traits@V?$CStringT@DV?$StrTraitMFC_DLL@DV?$ChTraitsCRT@D@ATL@@@@@ATL@@PAVCDibBitmap@@U?$less@V?$CStringT@DV?$StrTraitMFC_DLL@DV?$ChTraitsCRT@D@ATL@@@@@ATL@@@std@@V?$allocator@U?$pair@$$CBV?$CStringT@DV?$StrTraitMFC_DLL@DV?$ChTraitsCRT@D@ATL@@@@@ATL@@PAVCDibBitmap@@@std@@@5@$0A@@std@@@2@PAU342@@Z 00434300 f i SkinMgr.obj
 0001:00033300       ?_Max@?$_Tree@V?$_Tmap_traits@HPAVBaseDialog@@U?$less@H@std@@V?$allocator@U?$pair@$$CBHPAVBaseDialog@@@std@@@3@$0A@@std@@@std@@KAPAU_Node@?$_Tree_nod@V?$_Tmap_traits@HPAVBaseDialog@@U?$less@H@std@@V?$allocator@U?$pair@$$CBHPAVBaseDialog@@@std@@@3@$0A@@std@@@2@PAU342@@Z 00434300 f i DlgConfig.obj
 0001:00033300       ?_Max@?$_Tree@V?$_Tmap_traits@KPAVIData@@U?$less@K@std@@V?$allocator@U?$pair@$$CBKPAVIData@@@std@@@3@$0A@@std@@@std@@KAPAU_Node@?$_Tree_nod@V?$_Tmap_traits@KPAVIData@@U?$less@K@std@@V?$allocator@U?$pair@$$CBKPAVIData@@@std@@@3@$0A@@std@@@2@PAU342@@Z 00434300 f i CDataManager.obj
 0001:00033300       ?_Max@?$_Tree@V?$_Tmap_traits@V?$CStringT@DV?$StrTraitMFC_DLL@DV?$ChTraitsCRT@D@ATL@@@@@ATL@@PAVCSkinButton@@U?$less@V?$CStringT@DV?$StrTraitMFC_DLL@DV?$ChTraitsCRT@D@ATL@@@@@ATL@@@std@@V?$allocator@U?$pair@$$CBV?$CStringT@DV?$StrTraitMFC_DLL@DV?$ChTraitsCRT@D@ATL@@@@@ATL@@PAVCSkinButton@@@std@@@5@$0A@@std@@@std@@KAPAU_Node@?$_Tree_nod@V?$_Tmap_traits@V?$CStringT@DV?$StrTraitMFC_DLL@DV?$ChTraitsCRT@D@ATL@@@@@ATL@@PAVCSkinButton@@U?$less@V?$CStringT@DV?$StrTraitMFC_DLL@DV?$ChTraitsCRT@D@ATL@@@@@ATL@@@std@@V?$allocator@U?$pair@$$CBV?$CStringT@DV?$StrTraitMFC_DLL@DV?$ChTraitsCRT@D@ATL@@@@@ATL@@PAVCSkinButton@@@std@@@5@$0A@@std@@@2@PAU342@@Z 00434300 f i SkinWnd.obj
 0001:00033300       ?_Max@?$_Tree@V?$_Tmap_traits@V?$CStringT@DV?$StrTraitMFC_DLL@DV?$ChTraitsCRT@D@ATL@@@@@ATL@@KU?$less@V?$CStringT@DV?$StrTraitMFC_DLL@DV?$ChTraitsCRT@D@ATL@@@@@ATL@@@std@@V?$allocator@U?$pair@$$CBV?$CStringT@DV?$StrTraitMFC_DLL@DV?$ChTraitsCRT@D@ATL@@@@@ATL@@K@std@@@4@$0A@@std@@@std@@KAPAU_Node@?$_Tree_nod@V?$_Tmap_traits@V?$CStringT@DV?$StrTraitMFC_DLL@DV?$ChTraitsCRT@D@ATL@@@@@ATL@@KU?$less@V?$CStringT@DV?$StrTraitMFC_DLL@DV?$ChTraitsCRT@D@ATL@@@@@ATL@@@std@@V?$allocator@U?$pair@$$CBV?$CStringT@DV?$StrTraitMFC_DLL@DV?$ChTraitsCRT@D@ATL@@@@@ATL@@K@std@@@4@$0A@@std@@@2@PAU342@@Z 00434300 f i SkinMgr.obj
 0001:00033340       ?_Tidy@?$_Tree@V?$_Tmap_traits@V?$CStringT@DV?$StrTraitMFC_DLL@DV?$ChTraitsCRT@D@ATL@@@@@ATL@@PAVCDibBitmap@@U?$less@V?$CStringT@DV?$StrTraitMFC_DLL@DV?$ChTraitsCRT@D@ATL@@@@@ATL@@@std@@V?$allocator@U?$pair@$$CBV?$CStringT@DV?$StrTraitMFC_DLL@DV?$ChTraitsCRT@D@ATL@@@@@ATL@@PAVCDibBitmap@@@std@@@5@$0A@@std@@@std@@IAEXXZ 00434340 f i SkinMgr.obj
 0001:000333f0       ??R?$less@V?$CStringT@DV?$StrTraitMFC_DLL@DV?$ChTraitsCRT@D@ATL@@@@@ATL@@@std@@QBE_NABV?$CStringT@DV?$StrTraitMFC_DLL@DV?$ChTraitsCRT@D@ATL@@@@@ATL@@0@Z 004343f0 f i SkinMgr.obj
 0001:00033410       ??0?$_Tree@V?$_Tmap_traits@V?$CStringT@DV?$StrTraitMFC_DLL@DV?$ChTraitsCRT@D@ATL@@@@@ATL@@PAVCDibBitmap@@U?$less@V?$CStringT@DV?$StrTraitMFC_DLL@DV?$ChTraitsCRT@D@ATL@@@@@ATL@@@std@@V?$allocator@U?$pair@$$CBV?$CStringT@DV?$StrTraitMFC_DLL@DV?$ChTraitsCRT@D@ATL@@@@@ATL@@PAVCDibBitmap@@@std@@@5@$0A@@std@@@std@@QAE@ABU?$less@V?$CStringT@DV?$StrTraitMFC_DLL@DV?$ChTraitsCRT@D@ATL@@@@@ATL@@@1@ABV?$allocator@U?$pair@$$CBV?$CStringT@DV?$StrTraitMFC_DLL@DV?$ChTraitsCRT@D@ATL@@@@@ATL@@PAVCDibBitmap@@@std@@@1@@Z 00434410 f i SkinMgr.obj
 0001:00033410       ??0?$_Tree@V?$_Tmap_traits@V?$CStringT@DV?$StrTraitMFC_DLL@DV?$ChTraitsCRT@D@ATL@@@@@ATL@@KU?$less@V?$CStringT@DV?$StrTraitMFC_DLL@DV?$ChTraitsCRT@D@ATL@@@@@ATL@@@std@@V?$allocator@U?$pair@$$CBV?$CStringT@DV?$StrTraitMFC_DLL@DV?$ChTraitsCRT@D@ATL@@@@@ATL@@K@std@@@4@$0A@@std@@@std@@QAE@ABU?$less@V?$CStringT@DV?$StrTraitMFC_DLL@DV?$ChTraitsCRT@D@ATL@@@@@ATL@@@1@ABV?$allocator@U?$pair@$$CBV?$CStringT@DV?$StrTraitMFC_DLL@DV?$ChTraitsCRT@D@ATL@@@@@ATL@@K@std@@@1@@Z 00434410 f i SkinMgr.obj
 0001:00033450       ?lower_bound@?$_Tree@V?$_Tmap_traits@V?$CStringT@DV?$StrTraitMFC_DLL@DV?$ChTraitsCRT@D@ATL@@@@@ATL@@KU?$less@V?$CStringT@DV?$StrTraitMFC_DLL@DV?$ChTraitsCRT@D@ATL@@@@@ATL@@@std@@V?$allocator@U?$pair@$$CBV?$CStringT@DV?$StrTraitMFC_DLL@DV?$ChTraitsCRT@D@ATL@@@@@ATL@@K@std@@@4@$0A@@std@@@std@@QAE?AViterator@12@ABV?$CStringT@DV?$StrTraitMFC_DLL@DV?$ChTraitsCRT@D@ATL@@@@@ATL@@@Z 00434450 f i SkinMgr.obj
 0001:00033450       ?lower_bound@?$_Tree@V?$_Tmap_traits@V?$CStringT@DV?$StrTraitMFC_DLL@DV?$ChTraitsCRT@D@ATL@@@@@ATL@@PAVCDibBitmap@@U?$less@V?$CStringT@DV?$StrTraitMFC_DLL@DV?$ChTraitsCRT@D@ATL@@@@@ATL@@@std@@V?$allocator@U?$pair@$$CBV?$CStringT@DV?$StrTraitMFC_DLL@DV?$ChTraitsCRT@D@ATL@@@@@ATL@@PAVCDibBitmap@@@std@@@5@$0A@@std@@@std@@QAE?AViterator@12@ABV?$CStringT@DV?$StrTraitMFC_DLL@DV?$ChTraitsCRT@D@ATL@@@@@ATL@@@Z 00434450 f i SkinMgr.obj
 0001:00033450       ?lower_bound@?$_Tree@V?$_Tmap_traits@V?$CStringT@DV?$StrTraitMFC_DLL@DV?$ChTraitsCRT@D@ATL@@@@@ATL@@PAVCSkinButton@@U?$less@V?$CStringT@DV?$StrTraitMFC_DLL@DV?$ChTraitsCRT@D@ATL@@@@@ATL@@@std@@V?$allocator@U?$pair@$$CBV?$CStringT@DV?$StrTraitMFC_DLL@DV?$ChTraitsCRT@D@ATL@@@@@ATL@@PAVCSkinButton@@@std@@@5@$0A@@std@@@std@@QAE?AViterator@12@ABV?$CStringT@DV?$StrTraitMFC_DLL@DV?$ChTraitsCRT@D@ATL@@@@@ATL@@@Z 00434450 f i SkinWnd.obj
 0001:00033480       ?_Insert@?$_Tree@V?$_Tmap_traits@V?$CStringT@DV?$StrTraitMFC_DLL@DV?$ChTraitsCRT@D@ATL@@@@@ATL@@PAVCDibBitmap@@U?$less@V?$CStringT@DV?$StrTraitMFC_DLL@DV?$ChTraitsCRT@D@ATL@@@@@ATL@@@std@@V?$allocator@U?$pair@$$CBV?$CStringT@DV?$StrTraitMFC_DLL@DV?$ChTraitsCRT@D@ATL@@@@@ATL@@PAVCDibBitmap@@@std@@@5@$0A@@std@@@std@@IAE?AViterator@12@_NPAU_Node@?$_Tree_nod@V?$_Tmap_traits@V?$CStringT@DV?$StrTraitMFC_DLL@DV?$ChTraitsCRT@D@ATL@@@@@ATL@@PAVCDibBitmap@@U?$less@V?$CStringT@DV?$StrTraitMFC_DLL@DV?$ChTraitsCRT@D@ATL@@@@@ATL@@@std@@V?$allocator@U?$pair@$$CBV?$CStringT@DV?$StrTraitMFC_DLL@DV?$ChTraitsCRT@D@ATL@@@@@ATL@@PAVCDibBitmap@@@std@@@5@$0A@@std@@@2@ABU?$pair@$$CBV?$CStringT@DV?$StrTraitMFC_DLL@DV?$ChTraitsCRT@D@ATL@@@@@ATL@@PAVCDibBitmap@@@2@@Z 00434480 f i SkinMgr.obj
 0001:00033480       ?_Insert@?$_Tree@V?$_Tmap_traits@V?$CStringT@DV?$StrTraitMFC_DLL@DV?$ChTraitsCRT@D@ATL@@@@@ATL@@KU?$less@V?$CStringT@DV?$StrTraitMFC_DLL@DV?$ChTraitsCRT@D@ATL@@@@@ATL@@@std@@V?$allocator@U?$pair@$$CBV?$CStringT@DV?$StrTraitMFC_DLL@DV?$ChTraitsCRT@D@ATL@@@@@ATL@@K@std@@@4@$0A@@std@@@std@@IAE?AViterator@12@_NPAU_Node@?$_Tree_nod@V?$_Tmap_traits@V?$CStringT@DV?$StrTraitMFC_DLL@DV?$ChTraitsCRT@D@ATL@@@@@ATL@@KU?$less@V?$CStringT@DV?$StrTraitMFC_DLL@DV?$ChTraitsCRT@D@ATL@@@@@ATL@@@std@@V?$allocator@U?$pair@$$CBV?$CStringT@DV?$StrTraitMFC_DLL@DV?$ChTraitsCRT@D@ATL@@@@@ATL@@K@std@@@4@$0A@@std@@@2@ABU?$pair@$$CBV?$CStringT@DV?$StrTraitMFC_DLL@DV?$ChTraitsCRT@D@ATL@@@@@ATL@@K@2@@Z 00434480 f i SkinMgr.obj
 0001:000338e0       ?_Tidy@?$_Tree@V?$_Tmap_traits@V?$CStringT@DV?$StrTraitMFC_DLL@DV?$ChTraitsCRT@D@ATL@@@@@ATL@@KU?$less@V?$CStringT@DV?$StrTraitMFC_DLL@DV?$ChTraitsCRT@D@ATL@@@@@ATL@@@std@@V?$allocator@U?$pair@$$CBV?$CStringT@DV?$StrTraitMFC_DLL@DV?$ChTraitsCRT@D@ATL@@@@@ATL@@K@std@@@4@$0A@@std@@@std@@IAEXXZ 004348e0 f i SkinMgr.obj
 0001:00033990       ?insert@?$vector@PAVCBasicSkinWnd@@V?$allocator@PAVCBasicSkinWnd@@@std@@@std@@QAE?AViterator@12@V312@ABQAVCBasicSkinWnd@@@Z 00434990 f i SkinMgr.obj
 0001:00033a10       ?_Buy@?$vector@PAVCBasicSkinWnd@@V?$allocator@PAVCBasicSkinWnd@@@std@@@std@@IAE_NI@Z 00434a10 f i SkinMgr.obj
 0001:00033a90       ?capacity@?$vector@UTFrame@CPictureEx@@V?$allocator@UTFrame@CPictureEx@@@std@@@std@@QBEIXZ 00434a90 f i PictureEx.obj
 0001:00033a90       ?capacity@?$vector@V?$basic_string@DU?$char_traits@D@std@@V?$allocator@D@2@@std@@V?$allocator@V?$basic_string@DU?$char_traits@D@std@@V?$allocator@D@2@@std@@@2@@std@@QBEIXZ 00434a90 f i SkinMgr.obj
 0001:00033ad0       ?insert@?$vector@V?$basic_string@DU?$char_traits@D@std@@V?$allocator@D@2@@std@@V?$allocator@V?$basic_string@DU?$char_traits@D@std@@V?$allocator@D@2@@std@@@2@@std@@QAE?AViterator@12@V312@ABV?$basic_string@DU?$char_traits@D@std@@V?$allocator@D@2@@2@@Z 00434ad0 f i SkinMgr.obj
 0001:00033b50       ?_Ufill@?$vector@V?$basic_string@DU?$char_traits@D@std@@V?$allocator@D@2@@std@@V?$allocator@V?$basic_string@DU?$char_traits@D@std@@V?$allocator@D@2@@std@@@2@@std@@IAEPAV?$basic_string@DU?$char_traits@D@std@@V?$allocator@D@2@@2@PAV32@IABV32@@Z 00434b50 f i SkinMgr.obj
 0001:00033b80       ??Diterator@?$vector@PAVCWnd@@V?$allocator@PAVCWnd@@@std@@@std@@QBEAAPAVCWnd@@XZ 00434b80 f i TabWndFactory.obj
 0001:00033b80       ??Diterator@?$vector@PAVCSkinButton2@@V?$allocator@PAVCSkinButton2@@@std@@@std@@QBEAAPAVCSkinButton2@@XZ 00434b80 f i MainSkinWnd.obj
 0001:00033b80       ??Diterator@?$vector@UAD_STRUCT@@V?$allocator@UAD_STRUCT@@@std@@@std@@QBEAAUAD_STRUCT@@XZ 00434b80 f i DownAD.obj
 0001:00033b80       ??Diterator@?$vector@PAVIChangeSkinEventListener@@V?$allocator@PAVIChangeSkinEventListener@@@std@@@std@@QBEAAPAVIChangeSkinEventListener@@XZ 00434b80 f i IChangeColorMgr.obj
 0001:00033b80       ??Diterator@?$vector@UTFrame@CPictureEx@@V?$allocator@UTFrame@CPictureEx@@@std@@@std@@QBEAAUTFrame@CPictureEx@@XZ 00434b80 f i PictureEx.obj
 0001:00033b80       ??Diterator@?$vector@V?$basic_string@DU?$char_traits@D@std@@V?$allocator@D@2@@std@@V?$allocator@V?$basic_string@DU?$char_traits@D@std@@V?$allocator@D@2@@std@@@2@@std@@QBEAAV?$basic_string@DU?$char_traits@D@std@@V?$allocator@D@2@@2@XZ 00434b80 f i PanesMgr.obj
 0001:00033b80       ??Diterator@?$vector@U_tagLMCItemInfo@@V?$allocator@U_tagLMCItemInfo@@@std@@@std@@QBEAAU_tagLMCItemInfo@@XZ 00434b80 f i LMCDataMgr.obj
 0001:00033b80       ??Diterator@?$vector@UOneLocalGame@@V?$allocator@UOneLocalGame@@@std@@@std@@QBEAAUOneLocalGame@@XZ 00434b80 f i LocalGameData.obj
 0001:00033b80       ??Diterator@?$vector@PAVCBasicSkinWnd@@V?$allocator@PAVCBasicSkinWnd@@@std@@@std@@QBEAAPAVCBasicSkinWnd@@XZ 00434b80 f i SkinMgr.obj
 0001:00033b80       ??Diterator@?$vector@KV?$allocator@K@std@@@std@@QBEAAKXZ 00434b80 f i CUIManager.obj
 0001:00033b80       ??Diterator@?$vector@VCRect@@V?$allocator@VCRect@@@std@@@std@@QBEAAVCRect@@XZ 00434b80 f i TabBarWnd.obj
 0001:00033b80       ??Diterator@?$vector@UOneSubject@@V?$allocator@UOneSubject@@@std@@@std@@QBEAAUOneSubject@@XZ 00434b80 f i PanesMgr.obj
 0001:00033b80       ??Diterator@?$vector@UTAB_ITEM@@V?$allocator@UTAB_ITEM@@@std@@@std@@QBEAAUTAB_ITEM@@XZ 00434b80 f i TabBarData.obj
 0001:00033b80       ??Diterator@?$vector@PAVCBitmap@@V?$allocator@PAVCBitmap@@@std@@@std@@QBEAAPAVCBitmap@@XZ 00434b80 f i MyTreeCtrl.obj
 0001:00033b80       ??Diterator@?$vector@U?$pair@UTAB_ITEM@@PAVCWnd@@@std@@V?$allocator@U?$pair@UTAB_ITEM@@PAVCWnd@@@std@@@2@@std@@QBEAAU?$pair@UTAB_ITEM@@PAVCWnd@@@2@XZ 00434b80 f i TabPageControl.obj
 0001:00033b80       ??Diterator@?$vector@USepWindowData@@V?$allocator@USepWindowData@@@std@@@std@@QBEAAUSepWindowData@@XZ 00434b80 f i HostWndMgr.obj
 0001:00033b80       ??Diterator@?$vector@HV?$allocator@H@std@@@std@@QBEAAHXZ 00434b80 f i MyListCtrl.obj
 0001:00033b80       ??Diterator@?$basic_string@_WU?$char_traits@_W@std@@V?$allocator@_W@2@@std@@QBEAA_WXZ 00434b80 f i xStaticText.obj
 0001:00033b80       ??Diterator@?$vector@PAVCHostWnd@@V?$allocator@PAVCHostWnd@@@std@@@std@@QBEAAPAVCHostWnd@@XZ 00434b80 f i HostWndMgr.obj
 0001:00033ba0       ??Hiterator@?$vector@PAVCHostWnd@@V?$allocator@PAVCHostWnd@@@std@@@std@@QBE?AV012@H@Z 00434ba0 f i HostWndMgr.obj
 0001:00033ba0       ??Hiterator@?$vector@PAVCSkinButton2@@V?$allocator@PAVCSkinButton2@@@std@@@std@@QBE?AV012@H@Z 00434ba0 f i MainSkinWnd.obj
 0001:00033ba0       ??Hiterator@?$vector@PAVIChangeSkinEventListener@@V?$allocator@PAVIChangeSkinEventListener@@@std@@@std@@QBE?AV012@H@Z 00434ba0 f i IChangeColorMgr.obj
 0001:00033ba0       ??Hiterator@?$vector@HV?$allocator@H@std@@@std@@QBE?AV012@H@Z 00434ba0 f i MyListCtrl.obj
 0001:00033ba0       ??Hiterator@?$vector@KV?$allocator@K@std@@@std@@QBE?AV012@H@Z 00434ba0 f i CUIManager.obj
 0001:00033ba0       ??Hiterator@?$vector@PAVCBasicSkinWnd@@V?$allocator@PAVCBasicSkinWnd@@@std@@@std@@QBE?AV012@H@Z 00434ba0 f i SkinMgr.obj
 0001:00033bd0       ??Diterator@?$_Tree@V?$_Tmap_traits@V?$basic_string@DU?$char_traits@D@std@@V?$allocator@D@2@@std@@HU?$less@V?$basic_string@DU?$char_traits@D@std@@V?$allocator@D@2@@std@@@2@V?$allocator@U?$pair@$$CBV?$basic_string@DU?$char_traits@D@std@@V?$allocator@D@2@@std@@H@std@@@2@$0A@@std@@@std@@QBEAAU?$pair@$$CBV?$basic_string@DU?$char_traits@D@std@@V?$allocator@D@2@@std@@H@2@XZ 00434bd0 f i MyTreeCtrl.obj
 0001:00033bd0       ??Diterator@?$_Tree@V?$_Tmap_traits@PAUHWND__@@UWndMoveData@@U?$less@PAUHWND__@@@std@@V?$allocator@U?$pair@QAUHWND__@@UWndMoveData@@@std@@@4@$0A@@std@@@std@@QBEAAU?$pair@QAUHWND__@@UWndMoveData@@@2@XZ 00434bd0 f i WindowsMover.obj
 0001:00033bd0       ??Diterator@?$_Tree@V?$_Tmap_traits@V?$CStringT@DV?$StrTraitMFC_DLL@DV?$ChTraitsCRT@D@ATL@@@@@ATL@@PAVCDibBitmap@@U?$less@V?$CStringT@DV?$StrTraitMFC_DLL@DV?$ChTraitsCRT@D@ATL@@@@@ATL@@@std@@V?$allocator@U?$pair@$$CBV?$CStringT@DV?$StrTraitMFC_DLL@DV?$ChTraitsCRT@D@ATL@@@@@ATL@@PAVCDibBitmap@@@std@@@5@$0A@@std@@@std@@QBEAAU?$pair@$$CBV?$CStringT@DV?$StrTraitMFC_DLL@DV?$ChTraitsCRT@D@ATL@@@@@ATL@@PAVCDibBitmap@@@2@XZ 00434bd0 f i SkinMgr.obj
 0001:00033bd0       ??Diterator@?$_Tree@V?$_Tmap_traits@HPAVBaseDialog@@U?$less@H@std@@V?$allocator@U?$pair@$$CBHPAVBaseDialog@@@std@@@3@$0A@@std@@@std@@QBEAAU?$pair@$$CBHPAVBaseDialog@@@2@XZ 00434bd0 f i DlgConfig.obj
 0001:00033bd0       ??Diterator@?$_Tree@V?$_Tmap_traits@V?$basic_string@DU?$char_traits@D@std@@V?$allocator@D@2@@std@@PAVYL_CHTTPDownFile@@U?$less@V?$basic_string@DU?$char_traits@D@std@@V?$allocator@D@2@@std@@@2@V?$allocator@U?$pair@$$CBV?$basic_string@DU?$char_traits@D@std@@V?$allocator@D@2@@std@@PAVYL_CHTTPDownFile@@@std@@@2@$0A@@std@@@std@@QBEAAU?$pair@$$CBV?$basic_string@DU?$char_traits@D@std@@V?$allocator@D@2@@std@@PAVYL_CHTTPDownFile@@@2@XZ 00434bd0 f i HttpDownCtrl.obj
 0001:00033bd0       ??Diterator@?$_Tree@V?$_Tmap_traits@KV?$list@PAUMESSAGE_OBSERVER@@V?$allocator@PAUMESSAGE_OBSERVER@@@std@@@std@@U?$less@K@2@V?$allocator@U?$pair@$$CBKV?$list@PAUMESSAGE_OBSERVER@@V?$allocator@PAUMESSAGE_OBSERVER@@@std@@@std@@@std@@@2@$0A@@std@@@std@@QBEAAU?$pair@$$CBKV?$list@PAUMESSAGE_OBSERVER@@V?$allocator@PAUMESSAGE_OBSERVER@@@std@@@std@@@2@XZ 00434bd0 f i CMessageManager.obj
 0001:00033bd0       ??Diterator@?$_Tree@V?$_Tmap_traits@V?$basic_string@DU?$char_traits@D@std@@V?$allocator@D@2@@std@@V?$list@PAVAfxUserConfig_Observer@@V?$allocator@PAVAfxUserConfig_Observer@@@std@@@2@U?$less@V?$basic_string@DU?$char_traits@D@std@@V?$allocator@D@2@@std@@@2@V?$allocator@U?$pair@$$CBV?$basic_string@DU?$char_traits@D@std@@V?$allocator@D@2@@std@@V?$list@PAVAfxUserConfig_Observer@@V?$allocator@PAVAfxUserConfig_Observer@@@std@@@2@@std@@@2@$0A@@std@@@std@@QBEAAU?$pair@$$CBV?$basic_string@DU?$char_traits@D@std@@V?$allocator@D@2@@std@@V?$list@PAVAfxUserConfig_Observer@@V?$allocator@PAVAfxUserConfig_Observer@@@std@@@2@@2@XZ 00434bd0 f i AfxUserConfig.obj
 0001:00033bd0       ??Diterator@?$_Tree@V?$_Tmap_traits@KPAVIData@@U?$less@K@std@@V?$allocator@U?$pair@$$CBKPAVIData@@@std@@@3@$0A@@std@@@std@@QBEAAU?$pair@$$CBKPAVIData@@@2@XZ 00434bd0 f i CDataManager.obj
 0001:00033bd0       ??Diterator@?$_Tree@V?$_Tmap_traits@V?$basic_string@DU?$char_traits@D@std@@V?$allocator@D@2@@std@@V12@U?$less@V?$basic_string@DU?$char_traits@D@std@@V?$allocator@D@2@@std@@@2@V?$allocator@U?$pair@$$CBV?$basic_string@DU?$char_traits@D@std@@V?$allocator@D@2@@std@@V12@@std@@@2@$0A@@std@@@std@@QBEAAU?$pair@$$CBV?$basic_string@DU?$char_traits@D@std@@V?$allocator@D@2@@std@@V12@@2@XZ 00434bd0 f i AfxUserConfig.obj
 0001:00033bd0       ??Diterator@?$_Tree@V?$_Tmap_traits@V?$CStringT@DV?$StrTraitMFC_DLL@DV?$ChTraitsCRT@D@ATL@@@@@ATL@@PAVCSkinButton@@U?$less@V?$CStringT@DV?$StrTraitMFC_DLL@DV?$ChTraitsCRT@D@ATL@@@@@ATL@@@std@@V?$allocator@U?$pair@$$CBV?$CStringT@DV?$StrTraitMFC_DLL@DV?$ChTraitsCRT@D@ATL@@@@@ATL@@PAVCSkinButton@@@std@@@5@$0A@@std@@@std@@QBEAAU?$pair@$$CBV?$CStringT@DV?$StrTraitMFC_DLL@DV?$ChTraitsCRT@D@ATL@@@@@ATL@@PAVCSkinButton@@@2@XZ 00434bd0 f i SkinWnd.obj
 0001:00033bd0       ??Diterator@?$_Tree@V?$_Tmap_traits@V?$basic_string@DU?$char_traits@D@std@@V?$allocator@D@2@@std@@PAVCConfigObject@@U?$less@V?$basic_string@DU?$char_traits@D@std@@V?$allocator@D@2@@std@@@2@V?$allocator@U?$pair@$$CBV?$basic_string@DU?$char_traits@D@std@@V?$allocator@D@2@@std@@PAVCConfigObject@@@std@@@2@$0A@@std@@@std@@QBEAAU?$pair@$$CBV?$basic_string@DU?$char_traits@D@std@@V?$allocator@D@2@@std@@PAVCConfigObject@@@2@XZ 00434bd0 f i AfxUserConfig.obj
 0001:00033bd0       ??Diterator@?$_Tree@V?$_Tmap_traits@PAUHWND__@@UCWndData@@U?$less@PAUHWND__@@@std@@V?$allocator@U?$pair@QAUHWND__@@UCWndData@@@std@@@4@$0A@@std@@@std@@QBEAAU?$pair@QAUHWND__@@UCWndData@@@2@XZ 00434bd0 f i HostWndMgr.obj
 0001:00033bd0       ??Diterator@?$_Tree@V?$_Tmap_traits@V?$basic_string@DU?$char_traits@D@std@@V?$allocator@D@2@@std@@_NU?$less@V?$basic_string@DU?$char_traits@D@std@@V?$allocator@D@2@@std@@@2@V?$allocator@U?$pair@$$CBV?$basic_string@DU?$char_traits@D@std@@V?$allocator@D@2@@std@@_N@std@@@2@$0A@@std@@@std@@QBEAAU?$pair@$$CBV?$basic_string@DU?$char_traits@D@std@@V?$allocator@D@2@@std@@_N@2@XZ 00434bd0 f i AfxUserConfig.obj
 0001:00033bd0       ??Diterator@?$_Tree@V?$_Tmap_traits@V?$CStringT@DV?$StrTraitMFC_DLL@DV?$ChTraitsCRT@D@ATL@@@@@ATL@@KU?$less@V?$CStringT@DV?$StrTraitMFC_DLL@DV?$ChTraitsCRT@D@ATL@@@@@ATL@@@std@@V?$allocator@U?$pair@$$CBV?$CStringT@DV?$StrTraitMFC_DLL@DV?$ChTraitsCRT@D@ATL@@@@@ATL@@K@std@@@4@$0A@@std@@@std@@QBEAAU?$pair@$$CBV?$CStringT@DV?$StrTraitMFC_DLL@DV?$ChTraitsCRT@D@ATL@@@@@ATL@@K@2@XZ 00434bd0 f i SkinMgr.obj
 0001:00033bd0       ??Diterator@?$_Tree@V?$_Tmap_traits@HUMYLIST_COLUMN_INFO@@U?$less@H@std@@V?$allocator@U?$pair@$$CBHUMYLIST_COLUMN_INFO@@@std@@@3@$0A@@std@@@std@@QBEAAU?$pair@$$CBHUMYLIST_COLUMN_INFO@@@2@XZ 00434bd0 f i MyListCtrl.obj
 0001:00033bf0       ??MATL@@YA_NABV?$CStringT@DV?$StrTraitMFC_DLL@DV?$ChTraitsCRT@D@ATL@@@@@0@0@Z 00434bf0 f i SkinMgr.obj
 0001:00033c20       ?erase@?$_Tree@V?$_Tmap_traits@V?$CStringT@DV?$StrTraitMFC_DLL@DV?$ChTraitsCRT@D@ATL@@@@@ATL@@PAVCDibBitmap@@U?$less@V?$CStringT@DV?$StrTraitMFC_DLL@DV?$ChTraitsCRT@D@ATL@@@@@ATL@@@std@@V?$allocator@U?$pair@$$CBV?$CStringT@DV?$StrTraitMFC_DLL@DV?$ChTraitsCRT@D@ATL@@@@@ATL@@PAVCDibBitmap@@@std@@@5@$0A@@std@@@std@@QAE?AViterator@12@V312@0@Z 00434c20 f i SkinMgr.obj
 0001:00033cc0       ?_Buynode@?$_Tree@V?$_Tmap_traits@V?$CStringT@DV?$StrTraitMFC_DLL@DV?$ChTraitsCRT@D@ATL@@@@@ATL@@PAVCDibBitmap@@U?$less@V?$CStringT@DV?$StrTraitMFC_DLL@DV?$ChTraitsCRT@D@ATL@@@@@ATL@@@std@@V?$allocator@U?$pair@$$CBV?$CStringT@DV?$StrTraitMFC_DLL@DV?$ChTraitsCRT@D@ATL@@@@@ATL@@PAVCDibBitmap@@@std@@@5@$0A@@std@@@std@@IAEPAU_Node@?$_Tree_nod@V?$_Tmap_traits@V?$CStringT@DV?$StrTraitMFC_DLL@DV?$ChTraitsCRT@D@ATL@@@@@ATL@@PAVCDibBitmap@@U?$less@V?$CStringT@DV?$StrTraitMFC_DLL@DV?$ChTraitsCRT@D@ATL@@@@@ATL@@@std@@V?$allocator@U?$pair@$$CBV?$CStringT@DV?$StrTraitMFC_DLL@DV?$ChTraitsCRT@D@ATL@@@@@ATL@@PAVCDibBitmap@@@std@@@5@$0A@@std@@@2@PAU342@00ABU?$pair@$$CBV?$CStringT@DV?$StrTraitMFC_DLL@DV?$ChTraitsCRT@D@ATL@@@@@ATL@@PAVCDibBitmap@@@2@D@Z 00434cc0 f i SkinMgr.obj
 0001:00033cc0       ?_Buynode@?$_Tree@V?$_Tmap_traits@V?$CStringT@DV?$StrTraitMFC_DLL@DV?$ChTraitsCRT@D@ATL@@@@@ATL@@KU?$less@V?$CStringT@DV?$StrTraitMFC_DLL@DV?$ChTraitsCRT@D@ATL@@@@@ATL@@@std@@V?$allocator@U?$pair@$$CBV?$CStringT@DV?$StrTraitMFC_DLL@DV?$ChTraitsCRT@D@ATL@@@@@ATL@@K@std@@@4@$0A@@std@@@std@@IAEPAU_Node@?$_Tree_nod@V?$_Tmap_traits@V?$CStringT@DV?$StrTraitMFC_DLL@DV?$ChTraitsCRT@D@ATL@@@@@ATL@@KU?$less@V?$CStringT@DV?$StrTraitMFC_DLL@DV?$ChTraitsCRT@D@ATL@@@@@ATL@@@std@@V?$allocator@U?$pair@$$CBV?$CStringT@DV?$StrTraitMFC_DLL@DV?$ChTraitsCRT@D@ATL@@@@@ATL@@K@std@@@4@$0A@@std@@@2@PAU342@00ABU?$pair@$$CBV?$CStringT@DV?$StrTraitMFC_DLL@DV?$ChTraitsCRT@D@ATL@@@@@ATL@@K@2@D@Z 00434cc0 f i SkinMgr.obj
 0001:00033d90       ?erase@?$_Tree@V?$_Tmap_traits@V?$CStringT@DV?$StrTraitMFC_DLL@DV?$ChTraitsCRT@D@ATL@@@@@ATL@@KU?$less@V?$CStringT@DV?$StrTraitMFC_DLL@DV?$ChTraitsCRT@D@ATL@@@@@ATL@@@std@@V?$allocator@U?$pair@$$CBV?$CStringT@DV?$StrTraitMFC_DLL@DV?$ChTraitsCRT@D@ATL@@@@@ATL@@K@std@@@4@$0A@@std@@@std@@QAE?AViterator@12@V312@0@Z 00434d90 f i SkinMgr.obj
 0001:00033e30       ?_Init@?$_Tree@V?$_Tmap_traits@V?$CStringT@DV?$StrTraitMFC_DLL@DV?$ChTraitsCRT@D@ATL@@@@@ATL@@KU?$less@V?$CStringT@DV?$StrTraitMFC_DLL@DV?$ChTraitsCRT@D@ATL@@@@@ATL@@@std@@V?$allocator@U?$pair@$$CBV?$CStringT@DV?$StrTraitMFC_DLL@DV?$ChTraitsCRT@D@ATL@@@@@ATL@@K@std@@@4@$0A@@std@@@std@@IAEXXZ 00434e30 f i SkinMgr.obj
 0001:00033e30       ?_Init@?$_Tree@V?$_Tmap_traits@V?$CStringT@DV?$StrTraitMFC_DLL@DV?$ChTraitsCRT@D@ATL@@@@@ATL@@PAVCDibBitmap@@U?$less@V?$CStringT@DV?$StrTraitMFC_DLL@DV?$ChTraitsCRT@D@ATL@@@@@ATL@@@std@@V?$allocator@U?$pair@$$CBV?$CStringT@DV?$StrTraitMFC_DLL@DV?$ChTraitsCRT@D@ATL@@@@@ATL@@PAVCDibBitmap@@@std@@@5@$0A@@std@@@std@@IAEXXZ 00434e30 f i SkinMgr.obj
 0001:00033ea0       ?_Lbound@?$_Tree@V?$_Tmap_traits@V?$CStringT@DV?$StrTraitMFC_DLL@DV?$ChTraitsCRT@D@ATL@@@@@ATL@@KU?$less@V?$CStringT@DV?$StrTraitMFC_DLL@DV?$ChTraitsCRT@D@ATL@@@@@ATL@@@std@@V?$allocator@U?$pair@$$CBV?$CStringT@DV?$StrTraitMFC_DLL@DV?$ChTraitsCRT@D@ATL@@@@@ATL@@K@std@@@4@$0A@@std@@@std@@IBEPAU_Node@?$_Tree_nod@V?$_Tmap_traits@V?$CStringT@DV?$StrTraitMFC_DLL@DV?$ChTraitsCRT@D@ATL@@@@@ATL@@KU?$less@V?$CStringT@DV?$StrTraitMFC_DLL@DV?$ChTraitsCRT@D@ATL@@@@@ATL@@@std@@V?$allocator@U?$pair@$$CBV?$CStringT@DV?$StrTraitMFC_DLL@DV?$ChTraitsCRT@D@ATL@@@@@ATL@@K@std@@@4@$0A@@std@@@2@ABV?$CStringT@DV?$StrTraitMFC_DLL@DV?$ChTraitsCRT@D@ATL@@@@@ATL@@@Z 00434ea0 f i SkinMgr.obj
 0001:00033ea0       ?_Lbound@?$_Tree@V?$_Tmap_traits@V?$CStringT@DV?$StrTraitMFC_DLL@DV?$ChTraitsCRT@D@ATL@@@@@ATL@@PAVCDibBitmap@@U?$less@V?$CStringT@DV?$StrTraitMFC_DLL@DV?$ChTraitsCRT@D@ATL@@@@@ATL@@@std@@V?$allocator@U?$pair@$$CBV?$CStringT@DV?$StrTraitMFC_DLL@DV?$ChTraitsCRT@D@ATL@@@@@ATL@@PAVCDibBitmap@@@std@@@5@$0A@@std@@@std@@IBEPAU_Node@?$_Tree_nod@V?$_Tmap_traits@V?$CStringT@DV?$StrTraitMFC_DLL@DV?$ChTraitsCRT@D@ATL@@@@@ATL@@PAVCDibBitmap@@U?$less@V?$CStringT@DV?$StrTraitMFC_DLL@DV?$ChTraitsCRT@D@ATL@@@@@ATL@@@std@@V?$allocator@U?$pair@$$CBV?$CStringT@DV?$StrTraitMFC_DLL@DV?$ChTraitsCRT@D@ATL@@@@@ATL@@PAVCDibBitmap@@@std@@@5@$0A@@std@@@2@ABV?$CStringT@DV?$StrTraitMFC_DLL@DV?$ChTraitsCRT@D@ATL@@@@@ATL@@@Z 00434ea0 f i SkinMgr.obj
 0001:00033ea0       ?_Lbound@?$_Tree@V?$_Tmap_traits@V?$CStringT@DV?$StrTraitMFC_DLL@DV?$ChTraitsCRT@D@ATL@@@@@ATL@@PAVCSkinButton@@U?$less@V?$CStringT@DV?$StrTraitMFC_DLL@DV?$ChTraitsCRT@D@ATL@@@@@ATL@@@std@@V?$allocator@U?$pair@$$CBV?$CStringT@DV?$StrTraitMFC_DLL@DV?$ChTraitsCRT@D@ATL@@@@@ATL@@PAVCSkinButton@@@std@@@5@$0A@@std@@@std@@IBEPAU_Node@?$_Tree_nod@V?$_Tmap_traits@V?$CStringT@DV?$StrTraitMFC_DLL@DV?$ChTraitsCRT@D@ATL@@@@@ATL@@PAVCSkinButton@@U?$less@V?$CStringT@DV?$StrTraitMFC_DLL@DV?$ChTraitsCRT@D@ATL@@@@@ATL@@@std@@V?$allocator@U?$pair@$$CBV?$CStringT@DV?$StrTraitMFC_DLL@DV?$ChTraitsCRT@D@ATL@@@@@ATL@@PAVCSkinButton@@@std@@@5@$0A@@std@@@2@ABV?$CStringT@DV?$StrTraitMFC_DLL@DV?$ChTraitsCRT@D@ATL@@@@@ATL@@@Z 00434ea0 f i SkinWnd.obj
 0001:00033f30       ?_Insert_n@?$vector@PAVCBasicSkinWnd@@V?$allocator@PAVCBasicSkinWnd@@@std@@@std@@IAEXViterator@12@IABQAVCBasicSkinWnd@@@Z 00434f30 f i SkinMgr.obj
 0001:00034250       ?_Xlen@?$vector@PAVCBasicSkinWnd@@V?$allocator@PAVCBasicSkinWnd@@@std@@@std@@IBEXXZ 00435250 f i SkinMgr.obj
 0001:000342b0       ?_Insert_n@?$vector@V?$basic_string@DU?$char_traits@D@std@@V?$allocator@D@2@@std@@V?$allocator@V?$basic_string@DU?$char_traits@D@std@@V?$allocator@D@2@@std@@@2@@std@@IAEXViterator@12@IABV?$basic_string@DU?$char_traits@D@std@@V?$allocator@D@2@@2@@Z 004352b0 f i SkinMgr.obj
 0001:00034610       ??Fconst_iterator@?$_Tree@V?$_Tmap_traits@HPAVBaseDialog@@U?$less@H@std@@V?$allocator@U?$pair@$$CBHPAVBaseDialog@@@std@@@3@$0A@@std@@@std@@QAEAAV012@XZ 00435610 f i DlgConfig.obj
 0001:00034610       ??Fconst_iterator@?$_Tree@V?$_Tmap_traits@V?$CStringT@DV?$StrTraitMFC_DLL@DV?$ChTraitsCRT@D@ATL@@@@@ATL@@PAVCDibBitmap@@U?$less@V?$CStringT@DV?$StrTraitMFC_DLL@DV?$ChTraitsCRT@D@ATL@@@@@ATL@@@std@@V?$allocator@U?$pair@$$CBV?$CStringT@DV?$StrTraitMFC_DLL@DV?$ChTraitsCRT@D@ATL@@@@@ATL@@PAVCDibBitmap@@@std@@@5@$0A@@std@@@std@@QAEAAV012@XZ 00435610 f i SkinMgr.obj
 0001:00034610       ??Fconst_iterator@?$_Tree@V?$_Tmap_traits@KPAVIData@@U?$less@K@std@@V?$allocator@U?$pair@$$CBKPAVIData@@@std@@@3@$0A@@std@@@std@@QAEAAV012@XZ 00435610 f i CDataManager.obj
 0001:00034610       ??Fconst_iterator@?$_Tree@V?$_Tmap_traits@V?$CStringT@DV?$StrTraitMFC_DLL@DV?$ChTraitsCRT@D@ATL@@@@@ATL@@KU?$less@V?$CStringT@DV?$StrTraitMFC_DLL@DV?$ChTraitsCRT@D@ATL@@@@@ATL@@@std@@V?$allocator@U?$pair@$$CBV?$CStringT@DV?$StrTraitMFC_DLL@DV?$ChTraitsCRT@D@ATL@@@@@ATL@@K@std@@@4@$0A@@std@@@std@@QAEAAV012@XZ 00435610 f i SkinMgr.obj
 0001:00034610       ??Fconst_iterator@?$_Tree@V?$_Tmap_traits@V?$CStringT@DV?$StrTraitMFC_DLL@DV?$ChTraitsCRT@D@ATL@@@@@ATL@@PAVCSkinButton@@U?$less@V?$CStringT@DV?$StrTraitMFC_DLL@DV?$ChTraitsCRT@D@ATL@@@@@ATL@@@std@@V?$allocator@U?$pair@$$CBV?$CStringT@DV?$StrTraitMFC_DLL@DV?$ChTraitsCRT@D@ATL@@@@@ATL@@PAVCSkinButton@@@std@@@5@$0A@@std@@@std@@QAEAAV012@XZ 00435610 f i SkinWnd.obj
 0001:00034630       ??Giterator@?$vector@V?$basic_string@DU?$char_traits@D@std@@V?$allocator@D@2@@std@@V?$allocator@V?$basic_string@DU?$char_traits@D@std@@V?$allocator@D@2@@std@@@2@@std@@QBEHABVconst_iterator@12@@Z 00435630 f i SkinMgr.obj
 0001:00034630       ??Giterator@?$vector@UTFrame@CPictureEx@@V?$allocator@UTFrame@CPictureEx@@@std@@@std@@QBEHABVconst_iterator@12@@Z 00435630 f i PictureEx.obj
 0001:00034660       ?_Buynode@?$_Tree@V?$_Tmap_traits@V?$CStringT@DV?$StrTraitMFC_DLL@DV?$ChTraitsCRT@D@ATL@@@@@ATL@@KU?$less@V?$CStringT@DV?$StrTraitMFC_DLL@DV?$ChTraitsCRT@D@ATL@@@@@ATL@@@std@@V?$allocator@U?$pair@$$CBV?$CStringT@DV?$StrTraitMFC_DLL@DV?$ChTraitsCRT@D@ATL@@@@@ATL@@K@std@@@4@$0A@@std@@@std@@IAEPAU_Node@?$_Tree_nod@V?$_Tmap_traits@V?$CStringT@DV?$StrTraitMFC_DLL@DV?$ChTraitsCRT@D@ATL@@@@@ATL@@KU?$less@V?$CStringT@DV?$StrTraitMFC_DLL@DV?$ChTraitsCRT@D@ATL@@@@@ATL@@@std@@V?$allocator@U?$pair@$$CBV?$CStringT@DV?$StrTraitMFC_DLL@DV?$ChTraitsCRT@D@ATL@@@@@ATL@@K@std@@@4@$0A@@std@@@2@XZ 00435660 f i SkinMgr.obj
 0001:00034660       ?_Buynode@?$_Tree@V?$_Tmap_traits@V?$CStringT@DV?$StrTraitMFC_DLL@DV?$ChTraitsCRT@D@ATL@@@@@ATL@@PAVCDibBitmap@@U?$less@V?$CStringT@DV?$StrTraitMFC_DLL@DV?$ChTraitsCRT@D@ATL@@@@@ATL@@@std@@V?$allocator@U?$pair@$$CBV?$CStringT@DV?$StrTraitMFC_DLL@DV?$ChTraitsCRT@D@ATL@@@@@ATL@@PAVCDibBitmap@@@std@@@5@$0A@@std@@@std@@IAEPAU_Node@?$_Tree_nod@V?$_Tmap_traits@V?$CStringT@DV?$StrTraitMFC_DLL@DV?$ChTraitsCRT@D@ATL@@@@@ATL@@PAVCDibBitmap@@U?$less@V?$CStringT@DV?$StrTraitMFC_DLL@DV?$ChTraitsCRT@D@ATL@@@@@ATL@@@std@@V?$allocator@U?$pair@$$CBV?$CStringT@DV?$StrTraitMFC_DLL@DV?$ChTraitsCRT@D@ATL@@@@@ATL@@PAVCDibBitmap@@@std@@@5@$0A@@std@@@2@XZ 00435660 f i SkinMgr.obj
 0001:000347d0       ??Gconst_iterator@?$vector@PAVIChangeSkinEventListener@@V?$allocator@PAVIChangeSkinEventListener@@@std@@@std@@QBEHABV012@@Z 004357d0 f i IChangeColorMgr.obj
 0001:000347d0       ??Gconst_iterator@?$vector@PAVCSkinButton2@@V?$allocator@PAVCSkinButton2@@@std@@@std@@QBEHABV012@@Z 004357d0 f i MainSkinWnd.obj
 0001:000347d0       ??Gconst_iterator@?$vector@PAVCBasicSkinWnd@@V?$allocator@PAVCBasicSkinWnd@@@std@@@std@@QBEHABV012@@Z 004357d0 f i SkinMgr.obj
 0001:000347d0       ??Gconst_iterator@?$vector@PAVCHostWnd@@V?$allocator@PAVCHostWnd@@@std@@@std@@QBEHABV012@@Z 004357d0 f i HostWndMgr.obj
 0001:000347d0       ??Gconst_iterator@?$vector@KV?$allocator@K@std@@@std@@QBEHABV012@@Z 004357d0 f i CUIManager.obj
 0001:000347d0       ??Gconst_iterator@?$vector@HV?$allocator@H@std@@@std@@QBEHABV012@@Z 004357d0 f i MyListCtrl.obj
 0001:000347f0       ??Gconst_iterator@?$vector@UTFrame@CPictureEx@@V?$allocator@UTFrame@CPictureEx@@@std@@@std@@QBEHABV012@@Z 004357f0 f i PictureEx.obj
 0001:000347f0       ??Gconst_iterator@?$vector@V?$basic_string@DU?$char_traits@D@std@@V?$allocator@D@2@@std@@V?$allocator@V?$basic_string@DU?$char_traits@D@std@@V?$allocator@D@2@@std@@@2@@std@@QBEHABV012@@Z 004357f0 f i SkinMgr.obj
 0001:00034810       ??0_Node@?$_Tree_nod@V?$_Tmap_traits@V?$CStringT@DV?$StrTraitMFC_DLL@DV?$ChTraitsCRT@D@ATL@@@@@ATL@@KU?$less@V?$CStringT@DV?$StrTraitMFC_DLL@DV?$ChTraitsCRT@D@ATL@@@@@ATL@@@std@@V?$allocator@U?$pair@$$CBV?$CStringT@DV?$StrTraitMFC_DLL@DV?$ChTraitsCRT@D@ATL@@@@@ATL@@K@std@@@4@$0A@@std@@@std@@QAE@PAU012@00ABU?$pair@$$CBV?$CStringT@DV?$StrTraitMFC_DLL@DV?$ChTraitsCRT@D@ATL@@@@@ATL@@K@2@D@Z 00435810 f i SkinMgr.obj
 0001:00034810       ??0_Node@?$_Tree_nod@V?$_Tmap_traits@V?$CStringT@DV?$StrTraitMFC_DLL@DV?$ChTraitsCRT@D@ATL@@@@@ATL@@PAVCDibBitmap@@U?$less@V?$CStringT@DV?$StrTraitMFC_DLL@DV?$ChTraitsCRT@D@ATL@@@@@ATL@@@std@@V?$allocator@U?$pair@$$CBV?$CStringT@DV?$StrTraitMFC_DLL@DV?$ChTraitsCRT@D@ATL@@@@@ATL@@PAVCDibBitmap@@@std@@@5@$0A@@std@@@std@@QAE@PAU012@00ABU?$pair@$$CBV?$CStringT@DV?$StrTraitMFC_DLL@DV?$ChTraitsCRT@D@ATL@@@@@ATL@@PAVCDibBitmap@@@2@D@Z 00435810 f i SkinMgr.obj
 0001:00034810       ??0_Node@?$_Tree_nod@V?$_Tmap_traits@V?$CStringT@DV?$StrTraitMFC_DLL@DV?$ChTraitsCRT@D@ATL@@@@@ATL@@PAVCSkinButton@@U?$less@V?$CStringT@DV?$StrTraitMFC_DLL@DV?$ChTraitsCRT@D@ATL@@@@@ATL@@@std@@V?$allocator@U?$pair@$$CBV?$CStringT@DV?$StrTraitMFC_DLL@DV?$ChTraitsCRT@D@ATL@@@@@ATL@@PAVCSkinButton@@@std@@@5@$0A@@std@@@std@@QAE@PAU012@00ABU?$pair@$$CBV?$CStringT@DV?$StrTraitMFC_DLL@DV?$ChTraitsCRT@D@ATL@@@@@ATL@@PAVCSkinButton@@@2@D@Z 00435810 f i SkinWnd.obj
 0001:00034860       ??$?0V?$CStringT@DV?$StrTraitMFC_DLL@DV?$ChTraitsCRT@D@ATL@@@@@ATL@@PAVCSkinButton@@@?$pair@$$CBV?$CStringT@DV?$StrTraitMFC_DLL@DV?$ChTraitsCRT@D@ATL@@@@@ATL@@PAVCSkinButton@@@std@@QAE@ABU?$pair@V?$CStringT@DV?$StrTraitMFC_DLL@DV?$ChTraitsCRT@D@ATL@@@@@ATL@@PAVCSkinButton@@@1@@Z 00435860 f i SkinWnd.obj
 0001:00034860       ??0?$pair@$$CBV?$CStringT@DV?$StrTraitMFC_DLL@DV?$ChTraitsCRT@D@ATL@@@@@ATL@@PAVCDibBitmap@@@std@@QAE@ABU01@@Z 00435860 f i SkinMgr.obj
 0001:00034860       ??0?$pair@$$CBV?$CStringT@DV?$StrTraitMFC_DLL@DV?$ChTraitsCRT@D@ATL@@@@@ATL@@PAVCSkinButton@@@std@@QAE@ABU01@@Z 00435860 f i SkinWnd.obj
 0001:00034860       ??0?$pair@$$CBV?$CStringT@DV?$StrTraitMFC_DLL@DV?$ChTraitsCRT@D@ATL@@@@@ATL@@K@std@@QAE@ABU01@@Z 00435860 f i SkinMgr.obj
 0001:00034890       ?_Min@?$_Tree@V?$_Tmap_traits@KPAVIData@@U?$less@K@std@@V?$allocator@U?$pair@$$CBKPAVIData@@@std@@@3@$0A@@std@@@std@@KAPAU_Node@?$_Tree_nod@V?$_Tmap_traits@KPAVIData@@U?$less@K@std@@V?$allocator@U?$pair@$$CBKPAVIData@@@std@@@3@$0A@@std@@@2@PAU342@@Z 00435890 f i CDataManager.obj
 0001:00034890       ?_Min@?$_Tree@V?$_Tmap_traits@HPAVBaseDialog@@U?$less@H@std@@V?$allocator@U?$pair@$$CBHPAVBaseDialog@@@std@@@3@$0A@@std@@@std@@KAPAU_Node@?$_Tree_nod@V?$_Tmap_traits@HPAVBaseDialog@@U?$less@H@std@@V?$allocator@U?$pair@$$CBHPAVBaseDialog@@@std@@@3@$0A@@std@@@2@PAU342@@Z 00435890 f i DlgConfig.obj
 0001:00034890       ?_Min@?$_Tree@V?$_Tmap_traits@V?$CStringT@DV?$StrTraitMFC_DLL@DV?$ChTraitsCRT@D@ATL@@@@@ATL@@KU?$less@V?$CStringT@DV?$StrTraitMFC_DLL@DV?$ChTraitsCRT@D@ATL@@@@@ATL@@@std@@V?$allocator@U?$pair@$$CBV?$CStringT@DV?$StrTraitMFC_DLL@DV?$ChTraitsCRT@D@ATL@@@@@ATL@@K@std@@@4@$0A@@std@@@std@@KAPAU_Node@?$_Tree_nod@V?$_Tmap_traits@V?$CStringT@DV?$StrTraitMFC_DLL@DV?$ChTraitsCRT@D@ATL@@@@@ATL@@KU?$less@V?$CStringT@DV?$StrTraitMFC_DLL@DV?$ChTraitsCRT@D@ATL@@@@@ATL@@@std@@V?$allocator@U?$pair@$$CBV?$CStringT@DV?$StrTraitMFC_DLL@DV?$ChTraitsCRT@D@ATL@@@@@ATL@@K@std@@@4@$0A@@std@@@2@PAU342@@Z 00435890 f i SkinMgr.obj
 0001:00034890       ?_Min@?$_Tree@V?$_Tmap_traits@V?$CStringT@DV?$StrTraitMFC_DLL@DV?$ChTraitsCRT@D@ATL@@@@@ATL@@PAVCDibBitmap@@U?$less@V?$CStringT@DV?$StrTraitMFC_DLL@DV?$ChTraitsCRT@D@ATL@@@@@ATL@@@std@@V?$allocator@U?$pair@$$CBV?$CStringT@DV?$StrTraitMFC_DLL@DV?$ChTraitsCRT@D@ATL@@@@@ATL@@PAVCDibBitmap@@@std@@@5@$0A@@std@@@std@@KAPAU_Node@?$_Tree_nod@V?$_Tmap_traits@V?$CStringT@DV?$StrTraitMFC_DLL@DV?$ChTraitsCRT@D@ATL@@@@@ATL@@PAVCDibBitmap@@U?$less@V?$CStringT@DV?$StrTraitMFC_DLL@DV?$ChTraitsCRT@D@ATL@@@@@ATL@@@std@@V?$allocator@U?$pair@$$CBV?$CStringT@DV?$StrTraitMFC_DLL@DV?$ChTraitsCRT@D@ATL@@@@@ATL@@PAVCDibBitmap@@@std@@@5@$0A@@std@@@2@PAU342@@Z 00435890 f i SkinMgr.obj
 0001:00034890       ?_Min@?$_Tree@V?$_Tmap_traits@V?$CStringT@DV?$StrTraitMFC_DLL@DV?$ChTraitsCRT@D@ATL@@@@@ATL@@PAVCSkinButton@@U?$less@V?$CStringT@DV?$StrTraitMFC_DLL@DV?$ChTraitsCRT@D@ATL@@@@@ATL@@@std@@V?$allocator@U?$pair@$$CBV?$CStringT@DV?$StrTraitMFC_DLL@DV?$ChTraitsCRT@D@ATL@@@@@ATL@@PAVCSkinButton@@@std@@@5@$0A@@std@@@std@@KAPAU_Node@?$_Tree_nod@V?$_Tmap_traits@V?$CStringT@DV?$StrTraitMFC_DLL@DV?$ChTraitsCRT@D@ATL@@@@@ATL@@PAVCSkinButton@@U?$less@V?$CStringT@DV?$StrTraitMFC_DLL@DV?$ChTraitsCRT@D@ATL@@@@@ATL@@@std@@V?$allocator@U?$pair@$$CBV?$CStringT@DV?$StrTraitMFC_DLL@DV?$ChTraitsCRT@D@ATL@@@@@ATL@@PAVCSkinButton@@@std@@@5@$0A@@std@@@2@PAU342@@Z 00435890 f i SkinWnd.obj
 0001:000348d0       ??Econst_iterator@?$_Tree@V?$_Tmap_traits@V?$CStringT@DV?$StrTraitMFC_DLL@DV?$ChTraitsCRT@D@ATL@@@@@ATL@@PAVCSkinButton@@U?$less@V?$CStringT@DV?$StrTraitMFC_DLL@DV?$ChTraitsCRT@D@ATL@@@@@ATL@@@std@@V?$allocator@U?$pair@$$CBV?$CStringT@DV?$StrTraitMFC_DLL@DV?$ChTraitsCRT@D@ATL@@@@@ATL@@PAVCSkinButton@@@std@@@5@$0A@@std@@@std@@QAEAAV012@XZ 004358d0 f i SkinWnd.obj
 0001:000348d0       ??Econst_iterator@?$_Tree@V?$_Tmap_traits@V?$CStringT@DV?$StrTraitMFC_DLL@DV?$ChTraitsCRT@D@ATL@@@@@ATL@@PAVCDibBitmap@@U?$less@V?$CStringT@DV?$StrTraitMFC_DLL@DV?$ChTraitsCRT@D@ATL@@@@@ATL@@@std@@V?$allocator@U?$pair@$$CBV?$CStringT@DV?$StrTraitMFC_DLL@DV?$ChTraitsCRT@D@ATL@@@@@ATL@@PAVCDibBitmap@@@std@@@5@$0A@@std@@@std@@QAEAAV012@XZ 004358d0 f i SkinMgr.obj
 0001:000348d0       ??Econst_iterator@?$_Tree@V?$_Tmap_traits@KPAVIData@@U?$less@K@std@@V?$allocator@U?$pair@$$CBKPAVIData@@@std@@@3@$0A@@std@@@std@@QAEAAV012@XZ 004358d0 f i CDataManager.obj
 0001:000348d0       ??Econst_iterator@?$_Tree@V?$_Tmap_traits@HPAVBaseDialog@@U?$less@H@std@@V?$allocator@U?$pair@$$CBHPAVBaseDialog@@@std@@@3@$0A@@std@@@std@@QAEAAV012@XZ 004358d0 f i DlgConfig.obj
 0001:000348d0       ??Econst_iterator@?$_Tree@V?$_Tmap_traits@V?$CStringT@DV?$StrTraitMFC_DLL@DV?$ChTraitsCRT@D@ATL@@@@@ATL@@KU?$less@V?$CStringT@DV?$StrTraitMFC_DLL@DV?$ChTraitsCRT@D@ATL@@@@@ATL@@@std@@V?$allocator@U?$pair@$$CBV?$CStringT@DV?$StrTraitMFC_DLL@DV?$ChTraitsCRT@D@ATL@@@@@ATL@@K@std@@@4@$0A@@std@@@std@@QAEAAV012@XZ 004358d0 f i SkinMgr.obj
 0001:000348f0       ??$remove@Viterator@?$vector@PAVCBasicSkinWnd@@V?$allocator@PAVCBasicSkinWnd@@@std@@@std@@PAVCBasicSkinWnd@@@std@@YA?AViterator@?$vector@PAVCBasicSkinWnd@@V?$allocator@PAVCBasicSkinWnd@@@std@@@0@V120@0ABQAVCBasicSkinWnd@@@Z 004358f0 f i SkinMgr.obj
 0001:00034970       ??$_Uninitialized_fill_n@PAPAVCBasicSkinWnd@@IPAV1@V?$allocator@PAVCBasicSkinWnd@@@std@@@std@@YAXPAPAVCBasicSkinWnd@@IABQAV1@AAV?$allocator@PAVCBasicSkinWnd@@@0@@Z 00435970 f i SkinMgr.obj
 0001:00034970       ??$_Uninitialized_fill_n@PAHIHV?$allocator@H@std@@@std@@YAXPAHIABHAAV?$allocator@H@0@@Z 00435970 f i MyListCtrl.obj
 0001:00034970       ??$_Uninitialized_fill_n@PAKIKV?$allocator@K@std@@@std@@YAXPAKIABKAAV?$allocator@K@0@@Z 00435970 f i CUIManager.obj
 0001:00034970       ??$_Uninitialized_fill_n@PAPAVIChangeSkinEventListener@@IPAV1@V?$allocator@PAVIChangeSkinEventListener@@@std@@@std@@YAXPAPAVIChangeSkinEventListener@@IABQAV1@AAV?$allocator@PAVIChangeSkinEventListener@@@0@@Z 00435970 f i IChangeColorMgr.obj
 0001:00034970       ??$_Uninitialized_fill_n@PAPAVCHostWnd@@IPAV1@V?$allocator@PAVCHostWnd@@@std@@@std@@YAXPAPAVCHostWnd@@IABQAV1@AAV?$allocator@PAVCHostWnd@@@0@@Z 00435970 f i HostWndMgr.obj
 0001:00034970       ??$_Uninitialized_fill_n@PAPAVCSkinButton2@@IPAV1@V?$allocator@PAVCSkinButton2@@@std@@@std@@YAXPAPAVCSkinButton2@@IABQAV1@AAV?$allocator@PAVCSkinButton2@@@0@@Z 00435970 f i MainSkinWnd.obj
 0001:00034970       ??$_Uninitialized_fill_n@PAPAVCPoint@@IPAV1@V?$allocator@PAVCPoint@@@std@@@std@@YAXPAPAVCPoint@@IABQAV1@AAV?$allocator@PAVCPoint@@@0@@Z 00435970 f i LocalMusicCoverList.obj
 0001:000349b0       ??$_Uninitialized_fill_n@PAV?$basic_string@DU?$char_traits@D@std@@V?$allocator@D@2@@std@@IV12@V?$allocator@V?$basic_string@DU?$char_traits@D@std@@V?$allocator@D@2@@std@@@2@@std@@YAXPAV?$basic_string@DU?$char_traits@D@std@@V?$allocator@D@2@@0@IABV10@AAV?$allocator@V?$basic_string@DU?$char_traits@D@std@@V?$allocator@D@2@@std@@@0@@Z 004359b0 f i SkinMgr.obj
 0001:000349f0       ??$_Ucopy@PAV?$basic_string@DU?$char_traits@D@std@@V?$allocator@D@2@@std@@@?$vector@V?$basic_string@DU?$char_traits@D@std@@V?$allocator@D@2@@std@@V?$allocator@V?$basic_string@DU?$char_traits@D@std@@V?$allocator@D@2@@std@@@2@@std@@IAEPAV?$basic_string@DU?$char_traits@D@std@@V?$allocator@D@2@@1@PAV21@00@Z 004359f0 f i SkinMgr.obj
 0001:00034a20       ??$fill@PAV?$basic_string@DU?$char_traits@D@std@@V?$allocator@D@2@@std@@V12@@std@@YAXPAV?$basic_string@DU?$char_traits@D@std@@V?$allocator@D@2@@0@0ABV10@@Z 00435a20 f i SkinMgr.obj
 0001:00034a50       ??$copy_backward@PAV?$basic_string@DU?$char_traits@D@std@@V?$allocator@D@2@@std@@PAV12@@std@@YAPAV?$basic_string@DU?$char_traits@D@std@@V?$allocator@D@2@@0@PAV10@00@Z 00435a50 f i SkinMgr.obj
 0001:00034a90       ??$_Allocate@U_Node@?$_Tree_nod@V?$_Tmap_traits@KPAVIData@@U?$less@K@std@@V?$allocator@U?$pair@$$CBKPAVIData@@@std@@@3@$0A@@std@@@std@@@std@@YAPAU_Node@?$_Tree_nod@V?$_Tmap_traits@KPAVIData@@U?$less@K@std@@V?$allocator@U?$pair@$$CBKPAVIData@@@std@@@3@$0A@@std@@@0@IPAU120@@Z 00435a90 f i CDataManager.obj
 0001:00034a90       ??$_Allocate@U_Node@?$_Tree_nod@V?$_Tmap_traits@V?$CStringT@DV?$StrTraitMFC_DLL@DV?$ChTraitsCRT@D@ATL@@@@@ATL@@PAVCDibBitmap@@U?$less@V?$CStringT@DV?$StrTraitMFC_DLL@DV?$ChTraitsCRT@D@ATL@@@@@ATL@@@std@@V?$allocator@U?$pair@$$CBV?$CStringT@DV?$StrTraitMFC_DLL@DV?$ChTraitsCRT@D@ATL@@@@@ATL@@PAVCDibBitmap@@@std@@@5@$0A@@std@@@std@@@std@@YAPAU_Node@?$_Tree_nod@V?$_Tmap_traits@V?$CStringT@DV?$StrTraitMFC_DLL@DV?$ChTraitsCRT@D@ATL@@@@@ATL@@PAVCDibBitmap@@U?$less@V?$CStringT@DV?$StrTraitMFC_DLL@DV?$ChTraitsCRT@D@ATL@@@@@ATL@@@std@@V?$allocator@U?$pair@$$CBV?$CStringT@DV?$StrTraitMFC_DLL@DV?$ChTraitsCRT@D@ATL@@@@@ATL@@PAVCDibBitmap@@@std@@@5@$0A@@std@@@0@IPAU120@@Z 00435a90 f i SkinMgr.obj
 0001:00034a90       ??$_Allocate@U_Node@?$_Tree_nod@V?$_Tmap_traits@V?$CStringT@DV?$StrTraitMFC_DLL@DV?$ChTraitsCRT@D@ATL@@@@@ATL@@KU?$less@V?$CStringT@DV?$StrTraitMFC_DLL@DV?$ChTraitsCRT@D@ATL@@@@@ATL@@@std@@V?$allocator@U?$pair@$$CBV?$CStringT@DV?$StrTraitMFC_DLL@DV?$ChTraitsCRT@D@ATL@@@@@ATL@@K@std@@@4@$0A@@std@@@std@@@std@@YAPAU_Node@?$_Tree_nod@V?$_Tmap_traits@V?$CStringT@DV?$StrTraitMFC_DLL@DV?$ChTraitsCRT@D@ATL@@@@@ATL@@KU?$less@V?$CStringT@DV?$StrTraitMFC_DLL@DV?$ChTraitsCRT@D@ATL@@@@@ATL@@@std@@V?$allocator@U?$pair@$$CBV?$CStringT@DV?$StrTraitMFC_DLL@DV?$ChTraitsCRT@D@ATL@@@@@ATL@@K@std@@@4@$0A@@std@@@0@IPAU120@@Z 00435a90 f i SkinMgr.obj
 0001:00034a90       ??$_Allocate@U_Node@?$_Tree_nod@V?$_Tmap_traits@HPAVBaseDialog@@U?$less@H@std@@V?$allocator@U?$pair@$$CBHPAVBaseDialog@@@std@@@3@$0A@@std@@@std@@@std@@YAPAU_Node@?$_Tree_nod@V?$_Tmap_traits@HPAVBaseDialog@@U?$less@H@std@@V?$allocator@U?$pair@$$CBHPAVBaseDialog@@@std@@@3@$0A@@std@@@0@IPAU120@@Z 00435a90 f i DlgConfig.obj
 0001:00034a90       ??$_Allocate@U_Node@?$_Tree_nod@V?$_Tmap_traits@V?$CStringT@DV?$StrTraitMFC_DLL@DV?$ChTraitsCRT@D@ATL@@@@@ATL@@PAVCSkinButton@@U?$less@V?$CStringT@DV?$StrTraitMFC_DLL@DV?$ChTraitsCRT@D@ATL@@@@@ATL@@@std@@V?$allocator@U?$pair@$$CBV?$CStringT@DV?$StrTraitMFC_DLL@DV?$ChTraitsCRT@D@ATL@@@@@ATL@@PAVCSkinButton@@@std@@@5@$0A@@std@@@std@@@std@@YAPAU_Node@?$_Tree_nod@V?$_Tmap_traits@V?$CStringT@DV?$StrTraitMFC_DLL@DV?$ChTraitsCRT@D@ATL@@@@@ATL@@PAVCSkinButton@@U?$less@V?$CStringT@DV?$StrTraitMFC_DLL@DV?$ChTraitsCRT@D@ATL@@@@@ATL@@@std@@V?$allocator@U?$pair@$$CBV?$CStringT@DV?$StrTraitMFC_DLL@DV?$ChTraitsCRT@D@ATL@@@@@ATL@@PAVCSkinButton@@@std@@@5@$0A@@std@@@0@IPAU120@@Z 00435a90 f i SkinWnd.obj
 0001:00034ab0       ??1_Node@?$_Tree_nod@V?$_Tmap_traits@V?$CStringT@DV?$StrTraitMFC_DLL@DV?$ChTraitsCRT@D@ATL@@@@@ATL@@PAVCSkinButton@@U?$less@V?$CStringT@DV?$StrTraitMFC_DLL@DV?$ChTraitsCRT@D@ATL@@@@@ATL@@@std@@V?$allocator@U?$pair@$$CBV?$CStringT@DV?$StrTraitMFC_DLL@DV?$ChTraitsCRT@D@ATL@@@@@ATL@@PAVCSkinButton@@@std@@@5@$0A@@std@@@std@@QAE@XZ 00435ab0 f i SkinWnd.obj
 0001:00034ab0       ??1_Node@?$_Tree_nod@V?$_Tmap_traits@V?$CStringT@DV?$StrTraitMFC_DLL@DV?$ChTraitsCRT@D@ATL@@@@@ATL@@PAVCDibBitmap@@U?$less@V?$CStringT@DV?$StrTraitMFC_DLL@DV?$ChTraitsCRT@D@ATL@@@@@ATL@@@std@@V?$allocator@U?$pair@$$CBV?$CStringT@DV?$StrTraitMFC_DLL@DV?$ChTraitsCRT@D@ATL@@@@@ATL@@PAVCDibBitmap@@@std@@@5@$0A@@std@@@std@@QAE@XZ 00435ab0 f i SkinMgr.obj
 0001:00034ab0       ??1_Node@?$_Tree_nod@V?$_Tmap_traits@V?$CStringT@DV?$StrTraitMFC_DLL@DV?$ChTraitsCRT@D@ATL@@@@@ATL@@KU?$less@V?$CStringT@DV?$StrTraitMFC_DLL@DV?$ChTraitsCRT@D@ATL@@@@@ATL@@@std@@V?$allocator@U?$pair@$$CBV?$CStringT@DV?$StrTraitMFC_DLL@DV?$ChTraitsCRT@D@ATL@@@@@ATL@@K@std@@@4@$0A@@std@@@std@@QAE@XZ 00435ab0 f i PanesMgr.obj
 0001:00034ad0       ??$find@Viterator@?$vector@HV?$allocator@H@std@@@std@@H@std@@YA?AViterator@?$vector@HV?$allocator@H@std@@@0@V120@0ABH@Z 00435ad0 f i MyListCtrl.obj
 0001:00034ad0       ??$find@Viterator@?$vector@PAVCBasicSkinWnd@@V?$allocator@PAVCBasicSkinWnd@@@std@@@std@@PAVCBasicSkinWnd@@@std@@YA?AViterator@?$vector@PAVCBasicSkinWnd@@V?$allocator@PAVCBasicSkinWnd@@@std@@@0@V120@0ABQAVCBasicSkinWnd@@@Z 00435ad0 f i SkinMgr.obj
 0001:00034b20       ??$remove_copy@Viterator@?$vector@PAVCBasicSkinWnd@@V?$allocator@PAVCBasicSkinWnd@@@std@@@std@@V123@PAVCBasicSkinWnd@@@std@@YA?AViterator@?$vector@PAVCBasicSkinWnd@@V?$allocator@PAVCBasicSkinWnd@@@std@@@0@V120@00ABQAVCBasicSkinWnd@@@Z 00435b20 f i SkinMgr.obj
 0001:00034b90       ??$_Uninit_fill_n@PAV?$basic_string@DU?$char_traits@D@std@@V?$allocator@D@2@@std@@IV12@V?$allocator@V?$basic_string@DU?$char_traits@D@std@@V?$allocator@D@2@@std@@@2@@std@@YAXPAV?$basic_string@DU?$char_traits@D@std@@V?$allocator@D@2@@0@IABV10@AAV?$allocator@V?$basic_string@DU?$char_traits@D@std@@V?$allocator@D@2@@std@@@0@U_Nonscalar_ptr_iterator_tag@0@@Z 00435b90 f i SkinMgr.obj
 0001:00034c30       ??$_Uninitialized_copy@PAKPAKV?$allocator@K@std@@@std@@YAPAKPAK00AAV?$allocator@K@0@@Z 00435c30 f i CUIManager.obj
 0001:00034c30       ??$_Uninitialized_copy@PAPAVIChangeSkinEventListener@@PAPAV1@V?$allocator@PAVIChangeSkinEventListener@@@std@@@std@@YAPAPAVIChangeSkinEventListener@@PAPAV1@00AAV?$allocator@PAVIChangeSkinEventListener@@@0@@Z 00435c30 f i IChangeColorMgr.obj
 0001:00034c30       ??$_Uninitialized_copy@PAPAVCPoint@@PAPAV1@V?$allocator@PAVCPoint@@@std@@@std@@YAPAPAVCPoint@@PAPAV1@00AAV?$allocator@PAVCPoint@@@0@@Z 00435c30 f i LocalMusicCoverList.obj
 0001:00034c30       ??$_Uninitialized_copy@PAPAVCSkinButton2@@PAPAV1@V?$allocator@PAVCSkinButton2@@@std@@@std@@YAPAPAVCSkinButton2@@PAPAV1@00AAV?$allocator@PAVCSkinButton2@@@0@@Z 00435c30 f i MainSkinWnd.obj
 0001:00034c30       ??$_Uninitialized_copy@PAHPAHV?$allocator@H@std@@@std@@YAPAHPAH00AAV?$allocator@H@0@@Z 00435c30 f i MyListCtrl.obj
 0001:00034c30       ??$_Uninitialized_copy@PAPAVCBasicSkinWnd@@PAPAV1@V?$allocator@PAVCBasicSkinWnd@@@std@@@std@@YAPAPAVCBasicSkinWnd@@PAPAV1@00AAV?$allocator@PAVCBasicSkinWnd@@@0@@Z 00435c30 f i SkinMgr.obj
 0001:00034c30       ??$_Uninitialized_copy@PAPAVCHostWnd@@PAPAV1@V?$allocator@PAVCHostWnd@@@std@@@std@@YAPAPAVCHostWnd@@PAPAV1@00AAV?$allocator@PAVCHostWnd@@@0@@Z 00435c30 f i HostWndMgr.obj
 0001:00034c70       ??$_Uninitialized_copy@PAV?$basic_string@DU?$char_traits@D@std@@V?$allocator@D@2@@std@@PAV12@V?$allocator@V?$basic_string@DU?$char_traits@D@std@@V?$allocator@D@2@@std@@@2@@std@@YAPAV?$basic_string@DU?$char_traits@D@std@@V?$allocator@D@2@@0@PAV10@00AAV?$allocator@V?$basic_string@DU?$char_traits@D@std@@V?$allocator@D@2@@std@@@0@@Z 00435c70 f i SkinMgr.obj
 0001:00034cb0       ??$_Copy_backward_opt@PAV?$basic_string@DU?$char_traits@D@std@@V?$allocator@D@2@@std@@PAV12@@std@@YAPAV?$basic_string@DU?$char_traits@D@std@@V?$allocator@D@2@@0@PAV10@00U_Nonscalar_ptr_iterator_tag@0@@Z 00435cb0 f i SkinMgr.obj
 0001:00034cf0       ?construct@?$allocator@V?$basic_string@DU?$char_traits@D@std@@V?$allocator@D@2@@std@@@std@@QAEXPAV?$basic_string@DU?$char_traits@D@std@@V?$allocator@D@2@@2@ABV32@@Z 00435cf0 f i SkinMgr.obj
 0001:00034d10       ??$_Uninit_copy@PAV?$basic_string@DU?$char_traits@D@std@@V?$allocator@D@2@@std@@PAV12@V?$allocator@V?$basic_string@DU?$char_traits@D@std@@V?$allocator@D@2@@std@@@2@@std@@YAPAV?$basic_string@DU?$char_traits@D@std@@V?$allocator@D@2@@0@PAV10@00AAV?$allocator@V?$basic_string@DU?$char_traits@D@std@@V?$allocator@D@2@@std@@@0@U_Nonscalar_ptr_iterator_tag@0@@Z 00435d10 f i SkinMgr.obj
 0001:00034dc0       ??$_Construct@V?$basic_string@DU?$char_traits@D@std@@V?$allocator@D@2@@std@@V12@@std@@YAXPAV?$basic_string@DU?$char_traits@D@std@@V?$allocator@D@2@@0@ABV10@@Z 00435dc0 f i SkinMgr.obj
 0001:00034e30       ??0CutRect@CDib@@QAE@XZ    00435e30 f i SkinMgr.obj
 0001:00034e60       ??0CHostWnd@@QAE@PAVCWnd@@@Z 00435e60 f   HostWnd.obj
 0001:00035000       ??1CHostWnd@@UAE@XZ        00436000 f   HostWnd.obj
 0001:000350c0       ?GetThisMessageMap@CHostWnd@@KGPBUAFX_MSGMAP@@XZ 004360c0 f   HostWnd.obj
 0001:000350d0       ?GetMessageMap@CHostWnd@@MBEPBUAFX_MSGMAP@@XZ 004360d0 f   HostWnd.obj
 0001:000350e0       ?OnInitDialog@CHostWnd@@MAEHXZ 004360e0 f   HostWnd.obj
 0001:00035430       ?OnLButtonDown@CHostWnd@@IAEXIVCPoint@@@Z 00436430 f   HostWnd.obj
 0001:00035540       ?OnLButtonUp@CHostWnd@@IAEXIVCPoint@@@Z 00436540 f   HostWnd.obj
 0001:00035690       ?OnMouseMove@CHostWnd@@IAEXIVCPoint@@@Z 00436690 f   HostWnd.obj
 0001:00035aa0       ?OnPaint@CHostWnd@@IAEXXZ  00436aa0 f   HostWnd.obj
 0001:00035b50       ?OnSize@CHostWnd@@IAEXIHH@Z 00436b50 f   HostWnd.obj
 0001:00035c80       ?OnBnClickedOk@CHostWnd@@IAEXXZ 00436c80 f   HostWnd.obj
 0001:00035ca0       ?OnEraseBkgnd@CHostWnd@@IAEHPAVCDC@@@Z 00436ca0 f   HostWnd.obj
 0001:00035cc0       ?MoveContentWindow@CHostWnd@@IAEXXZ 00436cc0 f   HostWnd.obj
 0001:00035d60       ?HostWindow@CHostWnd@@QAEXPAVCWnd@@_N@Z 00436d60 f   HostWnd.obj
 0001:00035de0       ?DetachWindow@CHostWnd@@QAEXXZ 00436de0 f   HostWnd.obj
 0001:00035e20       ?_needChangeCursor@CHostWnd@@MAE_NABVCPoint@@@Z 00436e20 f   HostWnd.obj
 0001:00036140       ?DrawMoveFrame@CHostWnd@@IAEXVCRect@@@Z 00437140 f   HostWnd.obj
 0001:00036280       ?OnBnClickedClose@CHostWnd@@IAEXXZ 00437280 f   HostWnd.obj
 0001:000362e0       ?OnOK@CHostWnd@@MAEXXZ     004372e0 f   HostWnd.obj
 0001:000362f0       ?OnCancel@CHostWnd@@MAEXXZ 004372f0 f   HostWnd.obj
 0001:00036300       ?PreTranslateMessage@CHostWnd@@UAEHPAUtagMSG@@@Z 00437300 f   HostWnd.obj
 0001:00036320       ?OnWindowPosChanged@CHostWnd@@QAEXPAUtagWINDOWPOS@@@Z 00437320 f   HostWnd.obj
 0001:00036370       ??_ECHostWnd@@UAEPAXI@Z    00437370 f i HostWnd.obj
 0001:00036370       ??_GCHostWnd@@UAEPAXI@Z    00437370 f i HostWnd.obj
 0001:000363a0       ?GetInstance@CHostWndMgr@@SAPAV1@XZ 004373a0 f   HostWndMgr.obj
 0001:00036420       ?DelInstance@CHostWndMgr@@SAXXZ 00437420 f   HostWndMgr.obj
 0001:00036460       ??0CHostWndMgr@@AAE@XZ     00437460 f   HostWndMgr.obj
 0001:000364e0       ??1CHostWndMgr@@AAE@XZ     004374e0 f   HostWndMgr.obj
 0001:00036550       ?KeepOriParent@CHostWndMgr@@QAEXPAVCWnd@@@Z 00437550 f   HostWndMgr.obj
 0001:00036590       ?AttachMovingWnds@CHostWndMgr@@QAEXAAV?$vector@USepWindowData@@V?$allocator@USepWindowData@@@std@@@std@@@Z 00437590 f   HostWndMgr.obj
 0001:000365f0       ?AttachMovingWnd@CHostWndMgr@@QAEXUSepWindowData@@@Z 004375f0 f   HostWndMgr.obj
 0001:00036840       ?GetHostWnds@CHostWndMgr@@QAEPAV?$vector@PAVCHostWnd@@V?$allocator@PAVCHostWnd@@@std@@@std@@XZ 00437840 f   HostWndMgr.obj
 0001:00036860       ?DetachAllMovingWnd@CHostWndMgr@@QAEXXZ 00437860 f   HostWndMgr.obj
 0001:00036c20       ?MoveMainWindow@CHostWndMgr@@QAEXVCRect@@@Z 00437c20 f   HostWndMgr.obj
 0001:00036c30       ?test@CHostWndMgr@@QAEXXZ  00437c30 f   HostWndMgr.obj
 0001:00036da0       ?GetHostWnd@CHostWndMgr@@QAEPAVCHostWnd@@V?$basic_string@DU?$char_traits@D@std@@V?$allocator@D@2@@std@@@Z 00437da0 f   HostWndMgr.obj
 0001:00036e90       ?GetHostWnd@CHostWndMgr@@QAEPAVCHostWnd@@PAVCWnd@@@Z 00437e90 f   HostWndMgr.obj
 0001:00036ef0       ?ShowHostWindows@CHostWndMgr@@QAEXH@Z 00437ef0 f   HostWndMgr.obj
 0001:00037120       ?ShowPopupWndsBeforeMainChange@CHostWndMgr@@QAEXH@Z 00438120 f   HostWndMgr.obj
 0001:00037130       ?ShowPopupWndsAfterMainChange@CHostWndMgr@@QAEXH@Z 00438130 f   HostWndMgr.obj
 0001:00037140       ?PopupWndsChangeTo1x@CHostWndMgr@@QAEXXZ 00438140 f   HostWndMgr.obj
 0001:00037150       ?PopupWndsChangeTo2x@CHostWndMgr@@QAEXXZ 00438150 f   HostWndMgr.obj
 0001:00037160       ??_GCHostWndMgr@@AAEPAXI@Z 00438160 f i HostWndMgr.obj
 0001:00037190       ??1?$map@PAUHWND__@@UCWndData@@U?$less@PAUHWND__@@@std@@V?$allocator@U?$pair@QAUHWND__@@UCWndData@@@std@@@4@@std@@QAE@XZ 00438190 f i HostWndMgr.obj
 0001:000371b0       ??0SepWindowData@@QAE@ABU0@@Z 004381b0 f i HostWndMgr.obj
 0001:00037280       ?SetMinConstrant@CHostWnd@@QAEXHH@Z 00438280 f i HostWndMgr.obj
 0001:000372b0       ?SetMainWnd@CHostWnd@@QAEXH@Z 004382b0 f i HostWndMgr.obj
 0001:000372d0       ?SetName@CHostWnd@@QAEXV?$basic_string@DU?$char_traits@D@std@@V?$allocator@D@2@@std@@@Z 004382d0 f i HostWndMgr.obj
 0001:00037330       ?SetResizable@CHostWnd@@QAEX_N@Z 00438330 f i HostWndMgr.obj
 0001:00037350       ?SetContent@CHostWnd@@QAEXV?$CStringT@DV?$StrTraitMFC_DLL@DV?$ChTraitsCRT@D@ATL@@@@@ATL@@@Z 00438350 f i HostWndMgr.obj
 0001:000373b0       ??1SepWindowData@@QAE@XZ   004383b0 f i HostWndMgr.obj
 0001:000373e0       ?GetName@CHostWnd@@QAE?AV?$basic_string@DU?$char_traits@D@std@@V?$allocator@D@2@@std@@XZ 004383e0 f i HostWndMgr.obj
 0001:00037420       ?GetContentWnd@CHostWnd@@QAEPAVCWnd@@XZ 00438420 f i HostWndMgr.obj
 0001:00037440       ??0?$map@PAUHWND__@@UCWndData@@U?$less@PAUHWND__@@@std@@V?$allocator@U?$pair@QAUHWND__@@UCWndData@@@std@@@4@@std@@QAE@XZ 00438440 f i HostWndMgr.obj
 0001:00037470       ??A?$map@PAUHWND__@@UCWndData@@U?$less@PAUHWND__@@@std@@V?$allocator@U?$pair@QAUHWND__@@UCWndData@@@std@@@4@@std@@QAEAAUCWndData@@ABQAUHWND__@@@Z 00438470 f i HostWndMgr.obj
 0001:00037510       ??1?$_Tree@V?$_Tmap_traits@PAUHWND__@@UCWndData@@U?$less@PAUHWND__@@@std@@V?$allocator@U?$pair@QAUHWND__@@UCWndData@@@std@@@4@$0A@@std@@@std@@QAE@XZ 00438510 f i HostWndMgr.obj
 0001:00037530       ??0?$vector@PAVILyricPopupWndShowObserver@@V?$allocator@PAVILyricPopupWndShowObserver@@@std@@@std@@QAE@XZ 00438530 f i HostWndMgr.obj
 0001:00037530       ??0?$vector@PAVCHostWnd@@V?$allocator@PAVCHostWnd@@@std@@@std@@QAE@XZ 00438530 f i HostWndMgr.obj
 0001:00037560       ??A?$vector@PAVCSkinButton2@@V?$allocator@PAVCSkinButton2@@@std@@@std@@QAEAAPAVCSkinButton2@@I@Z 00438560 f i MainSkinWnd.obj
 0001:00037560       ??A?$vector@KV?$allocator@K@std@@@std@@QAEAAKI@Z 00438560 f i CUIManager.obj
 0001:00037560       ??A?$vector@PAVCBasicSkinWnd@@V?$allocator@PAVCBasicSkinWnd@@@std@@@std@@QAEAAPAVCBasicSkinWnd@@I@Z 00438560 f i SkinMgr.obj
 0001:00037560       ??A?$vector@PAVIChangeSkinEventListener@@V?$allocator@PAVIChangeSkinEventListener@@@std@@@std@@QAEAAPAVIChangeSkinEventListener@@I@Z 00438560 f i IChangeColorMgr.obj
 0001:00037560       ??A?$vector@PAVCHostWnd@@V?$allocator@PAVCHostWnd@@@std@@@std@@QAEAAPAVCHostWnd@@I@Z 00438560 f i HostWndMgr.obj
 0001:00037560       ??A?$vector@HV?$allocator@H@std@@@std@@QAEAAHI@Z 00438560 f i LocalMusicCoverList.obj
 0001:000375a0       ?push_back@?$vector@PAVCHostWnd@@V?$allocator@PAVCHostWnd@@@std@@@std@@QAEXABQAVCHostWnd@@@Z 004385a0 f i HostWndMgr.obj
 0001:00037610       ?size@?$vector@USepWindowData@@V?$allocator@USepWindowData@@@std@@@std@@QBEIXZ 00438610 f i HostWndMgr.obj
 0001:00037650       ??A?$vector@USepWindowData@@V?$allocator@USepWindowData@@@std@@@std@@QAEAAUSepWindowData@@I@Z 00438650 f i HostWndMgr.obj
 0001:00037690       ??Eiterator@?$_Tree@V?$_Tmap_traits@PAUHWND__@@UCWndData@@U?$less@PAUHWND__@@@std@@V?$allocator@U?$pair@QAUHWND__@@UCWndData@@@std@@@4@$0A@@std@@@std@@QAE?AV012@H@Z 00438690 f i HostWndMgr.obj
 0001:000376c0       ??9const_iterator@?$_Tree@V?$_Tmap_traits@V?$basic_string@DU?$char_traits@D@std@@V?$allocator@D@2@@std@@PAVYL_CHTTPDownFile@@U?$less@V?$basic_string@DU?$char_traits@D@std@@V?$allocator@D@2@@std@@@2@V?$allocator@U?$pair@$$CBV?$basic_string@DU?$char_traits@D@std@@V?$allocator@D@2@@std@@PAVYL_CHTTPDownFile@@@std@@@2@$0A@@std@@@std@@QBE_NABV012@@Z 004386c0 f i HttpDownCtrl.obj
 0001:000376c0       ??9const_iterator@?$_Tree@V?$_Tmap_traits@V?$CStringT@DV?$StrTraitMFC_DLL@DV?$ChTraitsCRT@D@ATL@@@@@ATL@@PAVCDibBitmap@@U?$less@V?$CStringT@DV?$StrTraitMFC_DLL@DV?$ChTraitsCRT@D@ATL@@@@@ATL@@@std@@V?$allocator@U?$pair@$$CBV?$CStringT@DV?$StrTraitMFC_DLL@DV?$ChTraitsCRT@D@ATL@@@@@ATL@@PAVCDibBitmap@@@std@@@5@$0A@@std@@@std@@QBE_NABV012@@Z 004386c0 f i SkinMgr.obj
 0001:000376c0       ??9const_iterator@?$_Tree@V?$_Tmap_traits@V?$CStringT@DV?$StrTraitMFC_DLL@DV?$ChTraitsCRT@D@ATL@@@@@ATL@@PAVCSkinButton@@U?$less@V?$CStringT@DV?$StrTraitMFC_DLL@DV?$ChTraitsCRT@D@ATL@@@@@ATL@@@std@@V?$allocator@U?$pair@$$CBV?$CStringT@DV?$StrTraitMFC_DLL@DV?$ChTraitsCRT@D@ATL@@@@@ATL@@PAVCSkinButton@@@std@@@5@$0A@@std@@@std@@QBE_NABV012@@Z 004386c0 f i SkinWnd.obj
 0001:000376c0       ??9const_iterator@?$vector@PAVCSkinButton2@@V?$allocator@PAVCSkinButton2@@@std@@@std@@QBE_NABV012@@Z 004386c0 f i MainSkinWnd.obj
 0001:000376c0       ??9const_iterator@?$_Tree@V?$_Tmap_traits@PAUHWND__@@UWndMoveData@@U?$less@PAUHWND__@@@std@@V?$allocator@U?$pair@QAUHWND__@@UWndMoveData@@@std@@@4@$0A@@std@@@std@@QBE_NABV012@@Z 004386c0 f i WindowsMover.obj
 0001:000376c0       ??9const_iterator@?$vector@PAVCWnd@@V?$allocator@PAVCWnd@@@std@@@std@@QBE_NABV012@@Z 004386c0 f i TabWndFactory.obj
 0001:000376c0       ??9const_iterator@?$list@PAVAfxUserConfig_Observer@@V?$allocator@PAVAfxUserConfig_Observer@@@std@@@std@@QBE_NABV012@@Z 004386c0 f i AfxUserConfig.obj
 0001:000376c0       ??9const_iterator@?$_Tree@V?$_Tmap_traits@KV?$list@PAUMESSAGE_OBSERVER@@V?$allocator@PAUMESSAGE_OBSERVER@@@std@@@std@@U?$less@K@2@V?$allocator@U?$pair@$$CBKV?$list@PAUMESSAGE_OBSERVER@@V?$allocator@PAUMESSAGE_OBSERVER@@@std@@@std@@@std@@@2@$0A@@std@@@std@@QBE_NABV012@@Z 004386c0 f i CMessageManager.obj
 0001:000376c0       ??9const_iterator@?$_Tree@V?$_Tmap_traits@HUMYLIST_COLUMN_INFO@@U?$less@H@std@@V?$allocator@U?$pair@$$CBHUMYLIST_COLUMN_INFO@@@std@@@3@$0A@@std@@@std@@QBE_NABV012@@Z 004386c0 f i MyListCtrl.obj
 0001:000376c0       ??9const_iterator@?$vector@UTAB_ITEM@@V?$allocator@UTAB_ITEM@@@std@@@std@@QBE_NABV012@@Z 004386c0 f i TabBarData.obj
 0001:000376c0       ??9const_iterator@?$_Tree@V?$_Tmap_traits@V?$basic_string@DU?$char_traits@D@std@@V?$allocator@D@2@@std@@HU?$less@V?$basic_string@DU?$char_traits@D@std@@V?$allocator@D@2@@std@@@2@V?$allocator@U?$pair@$$CBV?$basic_string@DU?$char_traits@D@std@@V?$allocator@D@2@@std@@H@std@@@2@$0A@@std@@@std@@QBE_NABV012@@Z 004386c0 f i MyTreeCtrl.obj
 0001:000376c0       ??9const_iterator@?$_Tree@V?$_Tmap_traits@PAUHWND__@@UCWndData@@U?$less@PAUHWND__@@@std@@V?$allocator@U?$pair@QAUHWND__@@UCWndData@@@std@@@4@$0A@@std@@@std@@QBE_NABV012@@Z 004386c0 f i HostWndMgr.obj
 0001:000376c0       ??9const_iterator@?$vector@PAVCBitmap@@V?$allocator@PAVCBitmap@@@std@@@std@@QBE_NABV012@@Z 004386c0 f i MyTreeCtrl.obj
 0001:000376c0       ??9const_iterator@?$vector@KV?$allocator@K@std@@@std@@QBE_NABV012@@Z 004386c0 f i CUIManager.obj
 0001:000376c0       ??9const_iterator@?$vector@PAVIChangeSkinEventListener@@V?$allocator@PAVIChangeSkinEventListener@@@std@@@std@@QBE_NABV012@@Z 004386c0 f i IChangeColorMgr.obj
 0001:000376c0       ??9const_iterator@?$vector@U?$pair@UTAB_ITEM@@PAVCWnd@@@std@@V?$allocator@U?$pair@UTAB_ITEM@@PAVCWnd@@@std@@@2@@std@@QBE_NABV012@@Z 004386c0 f i TabPageControl.obj
 0001:000376c0       ??9const_iterator@?$_Tree@V?$_Tmap_traits@V?$basic_string@DU?$char_traits@D@std@@V?$allocator@D@2@@std@@_NU?$less@V?$basic_string@DU?$char_traits@D@std@@V?$allocator@D@2@@std@@@2@V?$allocator@U?$pair@$$CBV?$basic_string@DU?$char_traits@D@std@@V?$allocator@D@2@@std@@_N@std@@@2@$0A@@std@@@std@@QBE_NABV012@@Z 004386c0 f i AfxUserConfig.obj
 0001:000376c0       ??9const_iterator@?$_Tree@V?$_Tmap_traits@V?$basic_string@DU?$char_traits@D@std@@V?$allocator@D@2@@std@@PAVCConfigObject@@U?$less@V?$basic_string@DU?$char_traits@D@std@@V?$allocator@D@2@@std@@@2@V?$allocator@U?$pair@$$CBV?$basic_string@DU?$char_traits@D@std@@V?$allocator@D@2@@std@@PAVCConfigObject@@@std@@@2@$0A@@std@@@std@@QBE_NABV012@@Z 004386c0 f i AfxUserConfig.obj
 0001:000376c0       ??9const_iterator@?$_Tree@V?$_Tmap_traits@V?$CStringT@DV?$StrTraitMFC_DLL@DV?$ChTraitsCRT@D@ATL@@@@@ATL@@KU?$less@V?$CStringT@DV?$StrTraitMFC_DLL@DV?$ChTraitsCRT@D@ATL@@@@@ATL@@@std@@V?$allocator@U?$pair@$$CBV?$CStringT@DV?$StrTraitMFC_DLL@DV?$ChTraitsCRT@D@ATL@@@@@ATL@@K@std@@@4@$0A@@std@@@std@@QBE_NABV012@@Z 004386c0 f i SkinMgr.obj
 0001:000376c0       ??9const_iterator@?$vector@UOneSubject@@V?$allocator@UOneSubject@@@std@@@std@@QBE_NABV012@@Z 004386c0 f i PanesMgr.obj
 0001:000376c0       ??9const_iterator@?$_Tree@V?$_Tmap_traits@V?$basic_string@DU?$char_traits@D@std@@V?$allocator@D@2@@std@@V?$list@PAVAfxUserConfig_Observer@@V?$allocator@PAVAfxUserConfig_Observer@@@std@@@2@U?$less@V?$basic_string@DU?$char_traits@D@std@@V?$allocator@D@2@@std@@@2@V?$allocator@U?$pair@$$CBV?$basic_string@DU?$char_traits@D@std@@V?$allocator@D@2@@std@@V?$list@PAVAfxUserConfig_Observer@@V?$allocator@PAVAfxUserConfig_Observer@@@std@@@2@@std@@@2@$0A@@std@@@std@@QBE_NABV012@@Z 004386c0 f i AfxUserConfig.obj
 0001:000376c0       ??9const_iterator@?$list@PAUMESSAGE_OBSERVER@@V?$allocator@PAUMESSAGE_OBSERVER@@@std@@@std@@QBE_NABV012@@Z 004386c0 f i CMessageManager.obj
 0001:000376c0       ??9const_iterator@?$_Tree@V?$_Tmap_traits@KPAVIData@@U?$less@K@std@@V?$allocator@U?$pair@$$CBKPAVIData@@@std@@@3@$0A@@std@@@std@@QBE_NABV012@@Z 004386c0 f i CDataManager.obj
 0001:000376c0       ??9const_iterator@?$list@PAVIMessageObserver@@V?$allocator@PAVIMessageObserver@@@std@@@std@@QBE_NABV012@@Z 004386c0 f i PlayBoxDlg.obj
 0001:000376c0       ??9const_iterator@?$_Tree@V?$_Tmap_traits@V?$basic_string@DU?$char_traits@D@std@@V?$allocator@D@2@@std@@V12@U?$less@V?$basic_string@DU?$char_traits@D@std@@V?$allocator@D@2@@std@@@2@V?$allocator@U?$pair@$$CBV?$basic_string@DU?$char_traits@D@std@@V?$allocator@D@2@@std@@V12@@std@@@2@$0A@@std@@@std@@QBE_NABV012@@Z 004386c0 f i AfxUserConfig.obj
 0001:000376c0       ??9const_iterator@?$_Tree@V?$_Tmap_traits@HPAVBaseDialog@@U?$less@H@std@@V?$allocator@U?$pair@$$CBHPAVBaseDialog@@@std@@@3@$0A@@std@@@std@@QBE_NABV012@@Z 004386c0 f i DlgConfig.obj
 0001:000376c0       ??9const_iterator@?$vector@PAVCBasicSkinWnd@@V?$allocator@PAVCBasicSkinWnd@@@std@@@std@@QBE_NABV012@@Z 004386c0 f i SkinMgr.obj
 0001:000376c0       ??9const_iterator@?$list@PAVCSkinButton@@V?$allocator@PAVCSkinButton@@@std@@@std@@QBE_NABV012@@Z 004386c0 f i SkinWnd.obj
 0001:000376c0       ??9const_iterator@?$vector@U_tagLMCItemInfo@@V?$allocator@U_tagLMCItemInfo@@@std@@@std@@QBE_NABV012@@Z 004386c0 f i LMCDataMgr.obj
 0001:000376c0       ??9const_iterator@?$vector@V?$basic_string@DU?$char_traits@D@std@@V?$allocator@D@2@@std@@V?$allocator@V?$basic_string@DU?$char_traits@D@std@@V?$allocator@D@2@@std@@@2@@std@@QBE_NABV012@@Z 004386c0 f i tools.obj
 0001:000376c0       ??9const_iterator@?$vector@UOneLocalGame@@V?$allocator@UOneLocalGame@@@std@@@std@@QBE_NABV012@@Z 004386c0 f i LocalGameData.obj
 0001:000376c0       ??9const_iterator@?$vector@HV?$allocator@H@std@@@std@@QBE_NABV012@@Z 004386c0 f i MyListCtrl.obj
 0001:000376f0       ??0?$_Tree@V?$_Tmap_traits@PAUHWND__@@UCWndData@@U?$less@PAUHWND__@@@std@@V?$allocator@U?$pair@QAUHWND__@@UCWndData@@@std@@@4@$0A@@std@@@std@@QAE@ABU?$less@PAUHWND__@@@1@ABV?$allocator@U?$pair@QAUHWND__@@UCWndData@@@std@@@1@@Z 004386f0 f i HostWndMgr.obj
 0001:00037730       ?insert@?$_Tree@V?$_Tmap_traits@PAUHWND__@@UCWndData@@U?$less@PAUHWND__@@@std@@V?$allocator@U?$pair@QAUHWND__@@UCWndData@@@std@@@4@$0A@@std@@@std@@QAE?AViterator@12@V312@ABU?$pair@QAUHWND__@@UCWndData@@@2@@Z 00438730 f i HostWndMgr.obj
 0001:00037d00       ?lower_bound@?$_Tree@V?$_Tmap_traits@PAUHWND__@@UCWndData@@U?$less@PAUHWND__@@@std@@V?$allocator@U?$pair@QAUHWND__@@UCWndData@@@std@@@4@$0A@@std@@@std@@QAE?AViterator@12@ABQAUHWND__@@@Z 00438d00 f i HostWndMgr.obj
 0001:00037d30       ?_Tidy@?$_Tree@V?$_Tmap_traits@PAUHWND__@@UCWndData@@U?$less@PAUHWND__@@@std@@V?$allocator@U?$pair@QAUHWND__@@UCWndData@@@std@@@4@$0A@@std@@@std@@IAEXXZ 00438d30 f i HostWndMgr.obj
 0001:00037de0       ??R?$less@PAUHWND__@@@std@@QBE_NABQAUHWND__@@0@Z 00438de0 f i HostWndMgr.obj
 0001:00037de0       ??R?$less@K@std@@QBE_NABK0@Z 00438de0 f i CDataManager.obj
 0001:00037e00       ?capacity@?$vector@PAVIChangeSkinEventListener@@V?$allocator@PAVIChangeSkinEventListener@@@std@@@std@@QBEIXZ 00438e00 f i IChangeColorMgr.obj
 0001:00037e00       ?capacity@?$vector@PAVCHostWnd@@V?$allocator@PAVCHostWnd@@@std@@@std@@QBEIXZ 00438e00 f i HostWndMgr.obj
 0001:00037e00       ?capacity@?$vector@PAVCSkinButton2@@V?$allocator@PAVCSkinButton2@@@std@@@std@@QBEIXZ 00438e00 f i MainSkinWnd.obj
 0001:00037e00       ?capacity@?$vector@PAVCBasicSkinWnd@@V?$allocator@PAVCBasicSkinWnd@@@std@@@std@@QBEIXZ 00438e00 f i SkinMgr.obj
 0001:00037e00       ?capacity@?$vector@KV?$allocator@K@std@@@std@@QBEIXZ 00438e00 f i CUIManager.obj
 0001:00037e00       ?capacity@?$vector@HV?$allocator@H@std@@@std@@QBEIXZ 00438e00 f i MyListCtrl.obj
 0001:00037e40       ?insert@?$vector@PAVCHostWnd@@V?$allocator@PAVCHostWnd@@@std@@@std@@QAE?AViterator@12@V312@ABQAVCHostWnd@@@Z 00438e40 f i HostWndMgr.obj
 0001:00037ec0       ?_Buy@?$vector@PAVCHostWnd@@V?$allocator@PAVCHostWnd@@@std@@@std@@IAE_NI@Z 00438ec0 f i HostWndMgr.obj
 0001:00037ec0       ?_Buy@?$vector@PAVILyricPopupWndShowObserver@@V?$allocator@PAVILyricPopupWndShowObserver@@@std@@@std@@IAE_NI@Z 00438ec0 f i HostWndMgr.obj
 0001:00037f40       ??Eiterator@?$_Tree@V?$_Tmap_traits@PAUHWND__@@UCWndData@@U?$less@PAUHWND__@@@std@@V?$allocator@U?$pair@QAUHWND__@@UCWndData@@@std@@@4@$0A@@std@@@std@@QAEAAV012@XZ 00438f40 f i HostWndMgr.obj
 0001:00037f60       ??0?$pair@QAUHWND__@@UCWndData@@@std@@QAE@ABQAUHWND__@@ABUCWndData@@@Z 00438f60 f i HostWndMgr.obj
 0001:00037f90       ??Hiterator@?$vector@USepWindowData@@V?$allocator@USepWindowData@@@std@@@std@@QBE?AV012@H@Z 00438f90 f i HostWndMgr.obj
 0001:00037fc0       ?_Isnil@?$_Tree@V?$_Tmap_traits@PAUHWND__@@UCWndData@@U?$less@PAUHWND__@@@std@@V?$allocator@U?$pair@QAUHWND__@@UCWndData@@@std@@@4@$0A@@std@@@std@@KAAADPAU_Node@?$_Tree_nod@V?$_Tmap_traits@PAUHWND__@@UCWndData@@U?$less@PAUHWND__@@@std@@V?$allocator@U?$pair@QAUHWND__@@UCWndData@@@std@@@4@$0A@@std@@@2@@Z 00438fc0 f i HostWndMgr.obj
 0001:00037fd0       ?insert@?$_Tree@V?$_Tmap_traits@PAUHWND__@@UCWndData@@U?$less@PAUHWND__@@@std@@V?$allocator@U?$pair@QAUHWND__@@UCWndData@@@std@@@4@$0A@@std@@@std@@QAE?AU?$pair@Viterator@?$_Tree@V?$_Tmap_traits@PAUHWND__@@UCWndData@@U?$less@PAUHWND__@@@std@@V?$allocator@U?$pair@QAUHWND__@@UCWndData@@@std@@@4@$0A@@std@@@std@@_N@2@ABU?$pair@QAUHWND__@@UCWndData@@@2@@Z 00438fd0 f i HostWndMgr.obj
 0001:00038180       ?erase@?$_Tree@V?$_Tmap_traits@PAUHWND__@@UCWndData@@U?$less@PAUHWND__@@@std@@V?$allocator@U?$pair@QAUHWND__@@UCWndData@@@std@@@4@$0A@@std@@@std@@QAE?AViterator@12@V312@0@Z 00439180 f i HostWndMgr.obj
 0001:00038220       ?_Init@?$_Tree@V?$_Tmap_traits@PAUHWND__@@UCWndData@@U?$less@PAUHWND__@@@std@@V?$allocator@U?$pair@QAUHWND__@@UCWndData@@@std@@@4@$0A@@std@@@std@@IAEXXZ 00439220 f i HostWndMgr.obj
 0001:00038290       ?_Insert@?$_Tree@V?$_Tmap_traits@PAUHWND__@@UCWndData@@U?$less@PAUHWND__@@@std@@V?$allocator@U?$pair@QAUHWND__@@UCWndData@@@std@@@4@$0A@@std@@@std@@IAE?AViterator@12@_NPAU_Node@?$_Tree_nod@V?$_Tmap_traits@PAUHWND__@@UCWndData@@U?$less@PAUHWND__@@@std@@V?$allocator@U?$pair@QAUHWND__@@UCWndData@@@std@@@4@$0A@@std@@@2@ABU?$pair@QAUHWND__@@UCWndData@@@2@@Z 00439290 f i HostWndMgr.obj
 0001:000386f0       ?_Lbound@?$_Tree@V?$_Tmap_traits@PAUHWND__@@UCWndData@@U?$less@PAUHWND__@@@std@@V?$allocator@U?$pair@QAUHWND__@@UCWndData@@@std@@@4@$0A@@std@@@std@@IBEPAU_Node@?$_Tree_nod@V?$_Tmap_traits@PAUHWND__@@UCWndData@@U?$less@PAUHWND__@@@std@@V?$allocator@U?$pair@QAUHWND__@@UCWndData@@@std@@@4@$0A@@std@@@2@ABQAUHWND__@@@Z 004396f0 f i HostWndMgr.obj
 0001:00038780       ??0?$_Tree_val@V?$_Tmap_traits@PAUHWND__@@UWndMoveData@@U?$less@PAUHWND__@@@std@@V?$allocator@U?$pair@QAUHWND__@@UWndMoveData@@@std@@@4@$0A@@std@@@std@@IAE@ABU?$less@PAUHWND__@@@1@V?$allocator@U?$pair@QAUHWND__@@UWndMoveData@@@std@@@1@@Z 00439780 f i WindowsMover.obj
 0001:00038780       ??0?$_Tree_val@V?$_Tmap_traits@PAUHWND__@@UCWndData@@U?$less@PAUHWND__@@@std@@V?$allocator@U?$pair@QAUHWND__@@UCWndData@@@std@@@4@$0A@@std@@@std@@IAE@ABU?$less@PAUHWND__@@@1@V?$allocator@U?$pair@QAUHWND__@@UCWndData@@@std@@@1@@Z 00439780 f i HostWndMgr.obj
 0001:00038780       ??0?$_Tree_val@V?$_Tmap_traits@HPAVBaseDialog@@U?$less@H@std@@V?$allocator@U?$pair@$$CBHPAVBaseDialog@@@std@@@3@$0A@@std@@@std@@IAE@ABU?$less@H@1@V?$allocator@U?$pair@$$CBHPAVBaseDialog@@@std@@@1@@Z 00439780 f i DlgConfig.obj
 0001:00038780       ??0?$_Tree_val@V?$_Tmap_traits@V?$basic_string@DU?$char_traits@D@std@@V?$allocator@D@2@@std@@PAVCConfigObject@@U?$less@V?$basic_string@DU?$char_traits@D@std@@V?$allocator@D@2@@std@@@2@V?$allocator@U?$pair@$$CBV?$basic_string@DU?$char_traits@D@std@@V?$allocator@D@2@@std@@PAVCConfigObject@@@std@@@2@$0A@@std@@@std@@IAE@ABU?$less@V?$basic_string@DU?$char_traits@D@std@@V?$allocator@D@2@@std@@@1@V?$allocator@U?$pair@$$CBV?$basic_string@DU?$char_traits@D@std@@V?$allocator@D@2@@std@@PAVCConfigObject@@@std@@@1@@Z 00439780 f i AfxUserConfig.obj
 0001:00038780       ??0?$_Tree_val@V?$_Tmap_traits@V?$basic_string@DU?$char_traits@D@std@@V?$allocator@D@2@@std@@HU?$less@V?$basic_string@DU?$char_traits@D@std@@V?$allocator@D@2@@std@@@2@V?$allocator@U?$pair@$$CBV?$basic_string@DU?$char_traits@D@std@@V?$allocator@D@2@@std@@H@std@@@2@$0A@@std@@@std@@IAE@ABU?$less@V?$basic_string@DU?$char_traits@D@std@@V?$allocator@D@2@@std@@@1@V?$allocator@U?$pair@$$CBV?$basic_string@DU?$char_traits@D@std@@V?$allocator@D@2@@std@@H@std@@@1@@Z 00439780 f i MyTreeCtrl.obj
 0001:00038780       ??0?$_Tree_val@V?$_Tmap_traits@HUMYLIST_COLUMN_INFO@@U?$less@H@std@@V?$allocator@U?$pair@$$CBHUMYLIST_COLUMN_INFO@@@std@@@3@$0A@@std@@@std@@IAE@ABU?$less@H@1@V?$allocator@U?$pair@$$CBHUMYLIST_COLUMN_INFO@@@std@@@1@@Z 00439780 f i MyListCtrl.obj
 0001:00038780       ??0?$_Tree_val@V?$_Tmap_traits@V?$basic_string@DU?$char_traits@D@std@@V?$allocator@D@2@@std@@_NU?$less@V?$basic_string@DU?$char_traits@D@std@@V?$allocator@D@2@@std@@@2@V?$allocator@U?$pair@$$CBV?$basic_string@DU?$char_traits@D@std@@V?$allocator@D@2@@std@@_N@std@@@2@$0A@@std@@@std@@IAE@ABU?$less@V?$basic_string@DU?$char_traits@D@std@@V?$allocator@D@2@@std@@@1@V?$allocator@U?$pair@$$CBV?$basic_string@DU?$char_traits@D@std@@V?$allocator@D@2@@std@@_N@std@@@1@@Z 00439780 f i AfxUserConfig.obj
 0001:00038780       ??0?$_Tree_val@V?$_Tmap_traits@V?$CStringT@DV?$StrTraitMFC_DLL@DV?$ChTraitsCRT@D@ATL@@@@@ATL@@PAVCSkinButton@@U?$less@V?$CStringT@DV?$StrTraitMFC_DLL@DV?$ChTraitsCRT@D@ATL@@@@@ATL@@@std@@V?$allocator@U?$pair@$$CBV?$CStringT@DV?$StrTraitMFC_DLL@DV?$ChTraitsCRT@D@ATL@@@@@ATL@@PAVCSkinButton@@@std@@@5@$0A@@std@@@std@@IAE@ABU?$less@V?$CStringT@DV?$StrTraitMFC_DLL@DV?$ChTraitsCRT@D@ATL@@@@@ATL@@@1@V?$allocator@U?$pair@$$CBV?$CStringT@DV?$StrTraitMFC_DLL@DV?$ChTraitsCRT@D@ATL@@@@@ATL@@PAVCSkinButton@@@std@@@1@@Z 00439780 f i SkinWnd.obj
 0001:00038780       ??0?$_Tree_val@V?$_Tmap_traits@V?$basic_string@DU?$char_traits@D@std@@V?$allocator@D@2@@std@@V12@U?$less@V?$basic_string@DU?$char_traits@D@std@@V?$allocator@D@2@@std@@@2@V?$allocator@U?$pair@$$CBV?$basic_string@DU?$char_traits@D@std@@V?$allocator@D@2@@std@@V12@@std@@@2@$0A@@std@@@std@@IAE@ABU?$less@V?$basic_string@DU?$char_traits@D@std@@V?$allocator@D@2@@std@@@1@V?$allocator@U?$pair@$$CBV?$basic_string@DU?$char_traits@D@std@@V?$allocator@D@2@@std@@V12@@std@@@1@@Z 00439780 f i AfxUserConfig.obj
 0001:00038780       ??0?$_Tree_val@V?$_Tmap_traits@V?$basic_string@DU?$char_traits@D@std@@V?$allocator@D@2@@std@@V?$list@PAVAfxUserConfig_Observer@@V?$allocator@PAVAfxUserConfig_Observer@@@std@@@2@U?$less@V?$basic_string@DU?$char_traits@D@std@@V?$allocator@D@2@@std@@@2@V?$allocator@U?$pair@$$CBV?$basic_string@DU?$char_traits@D@std@@V?$allocator@D@2@@std@@V?$list@PAVAfxUserConfig_Observer@@V?$allocator@PAVAfxUserConfig_Observer@@@std@@@2@@std@@@2@$0A@@std@@@std@@IAE@ABU?$less@V?$basic_string@DU?$char_traits@D@std@@V?$allocator@D@2@@std@@@1@V?$allocator@U?$pair@$$CBV?$basic_string@DU?$char_traits@D@std@@V?$allocator@D@2@@std@@V?$list@PAVAfxUserConfig_Observer@@V?$allocator@PAVAfxUserConfig_Observer@@@std@@@2@@std@@@1@@Z 00439780 f i AfxUserConfig.obj
 0001:00038780       ??0?$_Tree_val@V?$_Tmap_traits@V?$CStringT@DV?$StrTraitMFC_DLL@DV?$ChTraitsCRT@D@ATL@@@@@ATL@@PAVCDibBitmap@@U?$less@V?$CStringT@DV?$StrTraitMFC_DLL@DV?$ChTraitsCRT@D@ATL@@@@@ATL@@@std@@V?$allocator@U?$pair@$$CBV?$CStringT@DV?$StrTraitMFC_DLL@DV?$ChTraitsCRT@D@ATL@@@@@ATL@@PAVCDibBitmap@@@std@@@5@$0A@@std@@@std@@IAE@ABU?$less@V?$CStringT@DV?$StrTraitMFC_DLL@DV?$ChTraitsCRT@D@ATL@@@@@ATL@@@1@V?$allocator@U?$pair@$$CBV?$CStringT@DV?$StrTraitMFC_DLL@DV?$ChTraitsCRT@D@ATL@@@@@ATL@@PAVCDibBitmap@@@std@@@1@@Z 00439780 f i SkinMgr.obj
 0001:00038780       ??0?$_Tree_val@V?$_Tmap_traits@V?$CStringT@DV?$StrTraitMFC_DLL@DV?$ChTraitsCRT@D@ATL@@@@@ATL@@KU?$less@V?$CStringT@DV?$StrTraitMFC_DLL@DV?$ChTraitsCRT@D@ATL@@@@@ATL@@@std@@V?$allocator@U?$pair@$$CBV?$CStringT@DV?$StrTraitMFC_DLL@DV?$ChTraitsCRT@D@ATL@@@@@ATL@@K@std@@@4@$0A@@std@@@std@@IAE@ABU?$less@V?$CStringT@DV?$StrTraitMFC_DLL@DV?$ChTraitsCRT@D@ATL@@@@@ATL@@@1@V?$allocator@U?$pair@$$CBV?$CStringT@DV?$StrTraitMFC_DLL@DV?$ChTraitsCRT@D@ATL@@@@@ATL@@K@std@@@1@@Z 00439780 f i SkinMgr.obj
 0001:00038780       ??0?$_Tree_val@V?$_Tmap_traits@KV?$list@PAUMESSAGE_OBSERVER@@V?$allocator@PAUMESSAGE_OBSERVER@@@std@@@std@@U?$less@K@2@V?$allocator@U?$pair@$$CBKV?$list@PAUMESSAGE_OBSERVER@@V?$allocator@PAUMESSAGE_OBSERVER@@@std@@@std@@@std@@@2@$0A@@std@@@std@@IAE@ABU?$less@K@1@V?$allocator@U?$pair@$$CBKV?$list@PAUMESSAGE_OBSERVER@@V?$allocator@PAUMESSAGE_OBSERVER@@@std@@@std@@@std@@@1@@Z 00439780 f i CMessageManager.obj
 0001:00038780       ??0?$_Tree_val@V?$_Tmap_traits@V?$basic_string@DU?$char_traits@D@std@@V?$allocator@D@2@@std@@PAVYL_CHTTPDownFile@@U?$less@V?$basic_string@DU?$char_traits@D@std@@V?$allocator@D@2@@std@@@2@V?$allocator@U?$pair@$$CBV?$basic_string@DU?$char_traits@D@std@@V?$allocator@D@2@@std@@PAVYL_CHTTPDownFile@@@std@@@2@$0A@@std@@@std@@IAE@ABU?$less@V?$basic_string@DU?$char_traits@D@std@@V?$allocator@D@2@@std@@@1@V?$allocator@U?$pair@$$CBV?$basic_string@DU?$char_traits@D@std@@V?$allocator@D@2@@std@@PAVYL_CHTTPDownFile@@@std@@@1@@Z 00439780 f i HttpDownCtrl.obj
 0001:00038780       ??0?$_Tree_val@V?$_Tmap_traits@KPAVIData@@U?$less@K@std@@V?$allocator@U?$pair@$$CBKPAVIData@@@std@@@3@$0A@@std@@@std@@IAE@ABU?$less@K@1@V?$allocator@U?$pair@$$CBKPAVIData@@@std@@@1@@Z 00439780 f i CDataManager.obj
 0001:000387c0       ?_Insert_n@?$vector@PAVCHostWnd@@V?$allocator@PAVCHostWnd@@@std@@@std@@IAEXViterator@12@IABQAVCHostWnd@@@Z 004397c0 f i HostWndMgr.obj
 0001:00038ae0       ?_Xlen@?$vector@PAVILyricPopupWndShowObserver@@V?$allocator@PAVILyricPopupWndShowObserver@@@std@@@std@@IBEXXZ 00439ae0 f i HostWndMgr.obj
 0001:00038ae0       ?_Xlen@?$vector@PAVCHostWnd@@V?$allocator@PAVCHostWnd@@@std@@@std@@IBEXXZ 00439ae0 f i HostWndMgr.obj
 0001:00038b40       ??Fiterator@?$_Tree@V?$_Tmap_traits@PAUHWND__@@UCWndData@@U?$less@PAUHWND__@@@std@@V?$allocator@U?$pair@QAUHWND__@@UCWndData@@@std@@@4@$0A@@std@@@std@@QAEAAV012@XZ 00439b40 f i HostWndMgr.obj
 0001:00038b60       ??Econst_iterator@?$_Tree@V?$_Tmap_traits@PAUHWND__@@UCWndData@@U?$less@PAUHWND__@@@std@@V?$allocator@U?$pair@QAUHWND__@@UCWndData@@@std@@@4@$0A@@std@@@std@@QAEAAV012@XZ 00439b60 f i HostWndMgr.obj
 0001:00038b80       ??Yiterator@?$vector@PAVCHostWnd@@V?$allocator@PAVCHostWnd@@@std@@@std@@QAEAAV012@H@Z 00439b80 f i HostWndMgr.obj
 0001:00038b80       ??Yiterator@?$vector@PAVCSkinButton2@@V?$allocator@PAVCSkinButton2@@@std@@@std@@QAEAAV012@H@Z 00439b80 f i MainSkinWnd.obj
 0001:00038b80       ??Yiterator@?$vector@PAVCBasicSkinWnd@@V?$allocator@PAVCBasicSkinWnd@@@std@@@std@@QAEAAV012@H@Z 00439b80 f i SkinMgr.obj
 0001:00038b80       ??Yiterator@?$vector@KV?$allocator@K@std@@@std@@QAEAAV012@H@Z 00439b80 f i CUIManager.obj
 0001:00038b80       ??Yiterator@?$vector@PAVIChangeSkinEventListener@@V?$allocator@PAVIChangeSkinEventListener@@@std@@@std@@QAEAAV012@H@Z 00439b80 f i IChangeColorMgr.obj
 0001:00038b80       ??Yiterator@?$vector@HV?$allocator@H@std@@@std@@QAEAAV012@H@Z 00439b80 f i MyListCtrl.obj
 0001:00038ba0       ??0iterator@?$vector@HV?$allocator@H@std@@@std@@QAE@PAH@Z 00439ba0 f i MyListCtrl.obj
 0001:00038ba0       ??0iterator@?$vector@Ubasecolor@@V?$allocator@Ubasecolor@@@std@@@std@@QAE@PAUbasecolor@@@Z 00439ba0 f i PanesMgr.obj
 0001:00038ba0       ??0iterator@?$_Tree@V?$_Tmap_traits@V?$basic_string@DU?$char_traits@D@std@@V?$allocator@D@2@@std@@V?$list@PAVAfxUserConfig_Observer@@V?$allocator@PAVAfxUserConfig_Observer@@@std@@@2@U?$less@V?$basic_string@DU?$char_traits@D@std@@V?$allocator@D@2@@std@@@2@V?$allocator@U?$pair@$$CBV?$basic_string@DU?$char_traits@D@std@@V?$allocator@D@2@@std@@V?$list@PAVAfxUserConfig_Observer@@V?$allocator@PAVAfxUserConfig_Observer@@@std@@@2@@std@@@2@$0A@@std@@@std@@QAE@PAU_Node@?$_Tree_nod@V?$_Tmap_traits@V?$basic_string@DU?$char_traits@D@std@@V?$allocator@D@2@@std@@V?$list@PAVAfxUserConfig_Observer@@V?$allocator@PAVAfxUserConfig_Observer@@@std@@@2@U?$less@V?$basic_string@DU?$char_traits@D@std@@V?$allocator@D@2@@std@@@2@V?$allocator@U?$pair@$$CBV?$basic_string@DU?$char_traits@D@std@@V?$allocator@D@2@@std@@V?$list@PAVAfxUserConfig_Observer@@V?$allocator@PAVAfxUserConfig_Observer@@@std@@@2@@std@@@2@$0A@@std@@@2@@Z 00439ba0 f i AfxUserConfig.obj
 0001:00038ba0       ??0iterator@?$_Tree@V?$_Tmap_traits@V?$basic_string@DU?$char_traits@D@std@@V?$allocator@D@2@@std@@PAVYL_CHTTPDownFile@@U?$less@V?$basic_string@DU?$char_traits@D@std@@V?$allocator@D@2@@std@@@2@V?$allocator@U?$pair@$$CBV?$basic_string@DU?$char_traits@D@std@@V?$allocator@D@2@@std@@PAVYL_CHTTPDownFile@@@std@@@2@$0A@@std@@@std@@QAE@PAU_Node@?$_Tree_nod@V?$_Tmap_traits@V?$basic_string@DU?$char_traits@D@std@@V?$allocator@D@2@@std@@PAVYL_CHTTPDownFile@@U?$less@V?$basic_string@DU?$char_traits@D@std@@V?$allocator@D@2@@std@@@2@V?$allocator@U?$pair@$$CBV?$basic_string@DU?$char_traits@D@std@@V?$allocator@D@2@@std@@PAVYL_CHTTPDownFile@@@std@@@2@$0A@@std@@@2@@Z 00439ba0 f i HttpDownCtrl.obj
 0001:00038ba0       ??0iterator@?$vector@UTFrame@CPictureEx@@V?$allocator@UTFrame@CPictureEx@@@std@@@std@@QAE@PAUTFrame@CPictureEx@@@Z 00439ba0 f i PictureEx.obj
 0001:00038ba0       ??0iterator@?$list@PAVCSubLabel@@V?$allocator@PAVCSubLabel@@@std@@@std@@QAE@PAU_Node@?$_List_nod@PAVCSubLabel@@V?$allocator@PAVCSubLabel@@@std@@@2@@Z 00439ba0 f i SubjectChildWnd.obj
 0001:00038ba0       ??0iterator@?$vector@U?$pair@UTAB_ITEM@@PAVCWnd@@@std@@V?$allocator@U?$pair@UTAB_ITEM@@PAVCWnd@@@std@@@2@@std@@QAE@PAU?$pair@UTAB_ITEM@@PAVCWnd@@@2@@Z 00439ba0 f i TabPageControl.obj
 0001:00038ba0       ??0CAssoc@?$CMap@PAUHWND__@@PAU1@PAVETSLayoutMgr@@PAV2@@@QAE@PAUHWND__@@@Z 00439ba0 f i PanesMgr.obj
 0001:00038ba0       ??0iterator@?$_Tree@V?$_Tmap_traits@V?$basic_string@DU?$char_traits@D@std@@V?$allocator@D@2@@std@@PAVCConfigObject@@U?$less@V?$basic_string@DU?$char_traits@D@std@@V?$allocator@D@2@@std@@@2@V?$allocator@U?$pair@$$CBV?$basic_string@DU?$char_traits@D@std@@V?$allocator@D@2@@std@@PAVCConfigObject@@@std@@@2@$0A@@std@@@std@@QAE@PAU_Node@?$_Tree_nod@V?$_Tmap_traits@V?$basic_string@DU?$char_traits@D@std@@V?$allocator@D@2@@std@@PAVCConfigObject@@U?$less@V?$basic_string@DU?$char_traits@D@std@@V?$allocator@D@2@@std@@@2@V?$allocator@U?$pair@$$CBV?$basic_string@DU?$char_traits@D@std@@V?$allocator@D@2@@std@@PAVCConfigObject@@@std@@@2@$0A@@std@@@2@@Z 00439ba0 f i AfxUserConfig.obj
 0001:00038ba0       ??0iterator@?$vector@KV?$allocator@K@std@@@std@@QAE@PAK@Z 00439ba0 f i CUIManager.obj
 0001:00038ba0       ??0iterator@?$vector@UOneLocalGame@@V?$allocator@UOneLocalGame@@@std@@@std@@QAE@PAUOneLocalGame@@@Z 00439ba0 f i LocalGameData.obj
 0001:00038ba0       ??0iterator@?$vector@VCRect@@V?$allocator@VCRect@@@std@@@std@@QAE@PAVCRect@@@Z 00439ba0 f i TabBarWnd.obj
 0001:00038ba0       ??0iterator@?$vector@UAD_STRUCT@@V?$allocator@UAD_STRUCT@@@std@@@std@@QAE@PAUAD_STRUCT@@@Z 00439ba0 f i DownAD.obj
 0001:00038ba0       ??0iterator@?$_Tree@V?$_Tmap_traits@PAUHWND__@@UCWndData@@U?$less@PAUHWND__@@@std@@V?$allocator@U?$pair@QAUHWND__@@UCWndData@@@std@@@4@$0A@@std@@@std@@QAE@PAU_Node@?$_Tree_nod@V?$_Tmap_traits@PAUHWND__@@UCWndData@@U?$less@PAUHWND__@@@std@@V?$allocator@U?$pair@QAUHWND__@@UCWndData@@@std@@@4@$0A@@std@@@2@@Z 00439ba0 f i HostWndMgr.obj
 0001:00038ba0       ??0iterator@?$list@PAVIMessageObserver@@V?$allocator@PAVIMessageObserver@@@std@@@std@@QAE@PAU_Node@?$_List_nod@PAVIMessageObserver@@V?$allocator@PAVIMessageObserver@@@std@@@2@@Z 00439ba0 f i PlayBoxDlg.obj
 0001:00038ba0       ??0iterator@?$vector@U_tagLMCItemInfo@@V?$allocator@U_tagLMCItemInfo@@@std@@@std@@QAE@PAU_tagLMCItemInfo@@@Z 00439ba0 f i LMCDataMgr.obj
 0001:00038ba0       ??0iterator@?$_Tree@V?$_Tmap_traits@V?$CStringT@DV?$StrTraitMFC_DLL@DV?$ChTraitsCRT@D@ATL@@@@@ATL@@KU?$less@V?$CStringT@DV?$StrTraitMFC_DLL@DV?$ChTraitsCRT@D@ATL@@@@@ATL@@@std@@V?$allocator@U?$pair@$$CBV?$CStringT@DV?$StrTraitMFC_DLL@DV?$ChTraitsCRT@D@ATL@@@@@ATL@@K@std@@@4@$0A@@std@@@std@@QAE@PAU_Node@?$_Tree_nod@V?$_Tmap_traits@V?$CStringT@DV?$StrTraitMFC_DLL@DV?$ChTraitsCRT@D@ATL@@@@@ATL@@KU?$less@V?$CStringT@DV?$StrTraitMFC_DLL@DV?$ChTraitsCRT@D@ATL@@@@@ATL@@@std@@V?$allocator@U?$pair@$$CBV?$CStringT@DV?$StrTraitMFC_DLL@DV?$ChTraitsCRT@D@ATL@@@@@ATL@@K@std@@@4@$0A@@std@@@2@@Z 00439ba0 f i SkinMgr.obj
 0001:00038ba0       ??0iterator@?$vector@USepWindowData@@V?$allocator@USepWindowData@@@std@@@std@@QAE@PAUSepWindowData@@@Z 00439ba0 f i HostWndMgr.obj
 0001:00038ba0       ??0iterator@?$vector@V?$basic_string@DU?$char_traits@D@std@@V?$allocator@D@2@@std@@V?$allocator@V?$basic_string@DU?$char_traits@D@std@@V?$allocator@D@2@@std@@@2@@std@@QAE@PAV?$basic_string@DU?$char_traits@D@std@@V?$allocator@D@2@@2@@Z 00439ba0 f i PanesMgr.obj
 0001:00038ba0       ??0iterator@?$vector@UOneSubject@@V?$allocator@UOneSubject@@@std@@@std@@QAE@PAUOneSubject@@@Z 00439ba0 f i PanesMgr.obj
 0001:00038ba0       ??0iterator@?$list@PAUMESSAGE_OBSERVER@@V?$allocator@PAUMESSAGE_OBSERVER@@@std@@@std@@QAE@PAU_Node@?$_List_nod@PAUMESSAGE_OBSERVER@@V?$allocator@PAUMESSAGE_OBSERVER@@@std@@@2@@Z 00439ba0 f i CMessageManager.obj
 0001:00038ba0       ??0iterator@?$vector@PAVCHostWnd@@V?$allocator@PAVCHostWnd@@@std@@@std@@QAE@PAPAVCHostWnd@@@Z 00439ba0 f i HostWndMgr.obj
 0001:00038ba0       ??0iterator@?$_Tree@V?$_Tmap_traits@HUMYLIST_COLUMN_INFO@@U?$less@H@std@@V?$allocator@U?$pair@$$CBHUMYLIST_COLUMN_INFO@@@std@@@3@$0A@@std@@@std@@QAE@PAU_Node@?$_Tree_nod@V?$_Tmap_traits@HUMYLIST_COLUMN_INFO@@U?$less@H@std@@V?$allocator@U?$pair@$$CBHUMYLIST_COLUMN_INFO@@@std@@@3@$0A@@std@@@2@@Z 00439ba0 f i MyListCtrl.obj
 0001:00038ba0       ??0iterator@?$vector@PAVCBitmap@@V?$allocator@PAVCBitmap@@@std@@@std@@QAE@PAPAVCBitmap@@@Z 00439ba0 f i MyTreeCtrl.obj
 0001:00038ba0       ??0iterator@?$_Tree@V?$_Tmap_traits@KV?$list@PAUMESSAGE_OBSERVER@@V?$allocator@PAUMESSAGE_OBSERVER@@@std@@@std@@U?$less@K@2@V?$allocator@U?$pair@$$CBKV?$list@PAUMESSAGE_OBSERVER@@V?$allocator@PAUMESSAGE_OBSERVER@@@std@@@std@@@std@@@2@$0A@@std@@@std@@QAE@PAU_Node@?$_Tree_nod@V?$_Tmap_traits@KV?$list@PAUMESSAGE_OBSERVER@@V?$allocator@PAUMESSAGE_OBSERVER@@@std@@@std@@U?$less@K@2@V?$allocator@U?$pair@$$CBKV?$list@PAUMESSAGE_OBSERVER@@V?$allocator@PAUMESSAGE_OBSERVER@@@std@@@std@@@std@@@2@$0A@@std@@@2@@Z 00439ba0 f i CMessageManager.obj
 0001:00038ba0       ??0iterator@?$_Tree@V?$_Tmap_traits@KPAVIData@@U?$less@K@std@@V?$allocator@U?$pair@$$CBKPAVIData@@@std@@@3@$0A@@std@@@std@@QAE@PAU_Node@?$_Tree_nod@V?$_Tmap_traits@KPAVIData@@U?$less@K@std@@V?$allocator@U?$pair@$$CBKPAVIData@@@std@@@3@$0A@@std@@@2@@Z 00439ba0 f i CDataManager.obj
 0001:00038ba0       ??0iterator@?$_Tree@V?$_Tmap_traits@V?$basic_string@DU?$char_traits@D@std@@V?$allocator@D@2@@std@@V12@U?$less@V?$basic_string@DU?$char_traits@D@std@@V?$allocator@D@2@@std@@@2@V?$allocator@U?$pair@$$CBV?$basic_string@DU?$char_traits@D@std@@V?$allocator@D@2@@std@@V12@@std@@@2@$0A@@std@@@std@@QAE@PAU_Node@?$_Tree_nod@V?$_Tmap_traits@V?$basic_string@DU?$char_traits@D@std@@V?$allocator@D@2@@std@@V12@U?$less@V?$basic_string@DU?$char_traits@D@std@@V?$allocator@D@2@@std@@@2@V?$allocator@U?$pair@$$CBV?$basic_string@DU?$char_traits@D@std@@V?$allocator@D@2@@std@@V12@@std@@@2@$0A@@std@@@2@@Z 00439ba0 f i AfxUserConfig.obj
 0001:00038ba0       ??0iterator@?$_Tree@V?$_Tmap_traits@HPAVBaseDialog@@U?$less@H@std@@V?$allocator@U?$pair@$$CBHPAVBaseDialog@@@std@@@3@$0A@@std@@@std@@QAE@PAU_Node@?$_Tree_nod@V?$_Tmap_traits@HPAVBaseDialog@@U?$less@H@std@@V?$allocator@U?$pair@$$CBHPAVBaseDialog@@@std@@@3@$0A@@std@@@2@@Z 00439ba0 f i DlgConfig.obj
 0001:00038ba0       ??0iterator@?$_Tree@V?$_Tmap_traits@PAUHWND__@@UWndMoveData@@U?$less@PAUHWND__@@@std@@V?$allocator@U?$pair@QAUHWND__@@UWndMoveData@@@std@@@4@$0A@@std@@@std@@QAE@PAU_Node@?$_Tree_nod@V?$_Tmap_traits@PAUHWND__@@UWndMoveData@@U?$less@PAUHWND__@@@std@@V?$allocator@U?$pair@QAUHWND__@@UWndMoveData@@@std@@@4@$0A@@std@@@2@@Z 00439ba0 f i WindowsMover.obj
 0001:00038ba0       ??0iterator@?$_Tree@V?$_Tmap_traits@V?$basic_string@DU?$char_traits@D@std@@V?$allocator@D@2@@std@@HU?$less@V?$basic_string@DU?$char_traits@D@std@@V?$allocator@D@2@@std@@@2@V?$allocator@U?$pair@$$CBV?$basic_string@DU?$char_traits@D@std@@V?$allocator@D@2@@std@@H@std@@@2@$0A@@std@@@std@@QAE@PAU_Node@?$_Tree_nod@V?$_Tmap_traits@V?$basic_string@DU?$char_traits@D@std@@V?$allocator@D@2@@std@@HU?$less@V?$basic_string@DU?$char_traits@D@std@@V?$allocator@D@2@@std@@@2@V?$allocator@U?$pair@$$CBV?$basic_string@DU?$char_traits@D@std@@V?$allocator@D@2@@std@@H@std@@@2@$0A@@std@@@2@@Z 00439ba0 f i MyTreeCtrl.obj
 0001:00038ba0       ??0iterator@?$_Tree@V?$_Tmap_traits@V?$CStringT@DV?$StrTraitMFC_DLL@DV?$ChTraitsCRT@D@ATL@@@@@ATL@@PAVCSkinButton@@U?$less@V?$CStringT@DV?$StrTraitMFC_DLL@DV?$ChTraitsCRT@D@ATL@@@@@ATL@@@std@@V?$allocator@U?$pair@$$CBV?$CStringT@DV?$StrTraitMFC_DLL@DV?$ChTraitsCRT@D@ATL@@@@@ATL@@PAVCSkinButton@@@std@@@5@$0A@@std@@@std@@QAE@PAU_Node@?$_Tree_nod@V?$_Tmap_traits@V?$CStringT@DV?$StrTraitMFC_DLL@DV?$ChTraitsCRT@D@ATL@@@@@ATL@@PAVCSkinButton@@U?$less@V?$CStringT@DV?$StrTraitMFC_DLL@DV?$ChTraitsCRT@D@ATL@@@@@ATL@@@std@@V?$allocator@U?$pair@$$CBV?$CStringT@DV?$StrTraitMFC_DLL@DV?$ChTraitsCRT@D@ATL@@@@@ATL@@PAVCSkinButton@@@std@@@5@$0A@@std@@@2@@Z 00439ba0 f i SkinWnd.obj
 0001:00038ba0       ??0iterator@?$_Tree@V?$_Tmap_traits@V?$CStringT@DV?$StrTraitMFC_DLL@DV?$ChTraitsCRT@D@ATL@@@@@ATL@@PAVCDibBitmap@@U?$less@V?$CStringT@DV?$StrTraitMFC_DLL@DV?$ChTraitsCRT@D@ATL@@@@@ATL@@@std@@V?$allocator@U?$pair@$$CBV?$CStringT@DV?$StrTraitMFC_DLL@DV?$ChTraitsCRT@D@ATL@@@@@ATL@@PAVCDibBitmap@@@std@@@5@$0A@@std@@@std@@QAE@PAU_Node@?$_Tree_nod@V?$_Tmap_traits@V?$CStringT@DV?$StrTraitMFC_DLL@DV?$ChTraitsCRT@D@ATL@@@@@ATL@@PAVCDibBitmap@@U?$less@V?$CStringT@DV?$StrTraitMFC_DLL@DV?$ChTraitsCRT@D@ATL@@@@@ATL@@@std@@V?$allocator@U?$pair@$$CBV?$CStringT@DV?$StrTraitMFC_DLL@DV?$ChTraitsCRT@D@ATL@@@@@ATL@@PAVCDibBitmap@@@std@@@5@$0A@@std@@@2@@Z 00439ba0 f i SkinMgr.obj
 0001:00038ba0       ??0iterator@?$vector@PAVCWnd@@V?$allocator@PAVCWnd@@@std@@@std@@QAE@PAPAVCWnd@@@Z 00439ba0 f i TabWndFactory.obj
 0001:00038ba0       ??0iterator@?$vector@PAVCSkinButton2@@V?$allocator@PAVCSkinButton2@@@std@@@std@@QAE@PAPAVCSkinButton2@@@Z 00439ba0 f i MainSkinWnd.obj
 0001:00038ba0       ??0iterator@?$vector@PAVCBasicSkinWnd@@V?$allocator@PAVCBasicSkinWnd@@@std@@@std@@QAE@PAPAVCBasicSkinWnd@@@Z 00439ba0 f i SkinMgr.obj
 0001:00038ba0       ??0iterator@?$list@PAVCSkinButton@@V?$allocator@PAVCSkinButton@@@std@@@std@@QAE@PAU_Node@?$_List_nod@PAVCSkinButton@@V?$allocator@PAVCSkinButton@@@std@@@2@@Z 00439ba0 f i SkinWnd.obj
 0001:00038ba0       ??0iterator@?$vector@UTAB_ITEM@@V?$allocator@UTAB_ITEM@@@std@@@std@@QAE@PAUTAB_ITEM@@@Z 00439ba0 f i TabBarData.obj
 0001:00038ba0       ??0iterator@?$vector@PAVIChangeSkinEventListener@@V?$allocator@PAVIChangeSkinEventListener@@@std@@@std@@QAE@PAPAVIChangeSkinEventListener@@@Z 00439ba0 f i IChangeColorMgr.obj
 0001:00038ba0       ??0iterator@?$list@PAVAfxUserConfig_Observer@@V?$allocator@PAVAfxUserConfig_Observer@@@std@@@std@@QAE@PAU_Node@?$_List_nod@PAVAfxUserConfig_Observer@@V?$allocator@PAVAfxUserConfig_Observer@@@std@@@2@@Z 00439ba0 f i AfxUserConfig.obj
 0001:00038ba0       ??0iterator@?$_Tree@V?$_Tmap_traits@V?$basic_string@DU?$char_traits@D@std@@V?$allocator@D@2@@std@@_NU?$less@V?$basic_string@DU?$char_traits@D@std@@V?$allocator@D@2@@std@@@2@V?$allocator@U?$pair@$$CBV?$basic_string@DU?$char_traits@D@std@@V?$allocator@D@2@@std@@_N@std@@@2@$0A@@std@@@std@@QAE@PAU_Node@?$_Tree_nod@V?$_Tmap_traits@V?$basic_string@DU?$char_traits@D@std@@V?$allocator@D@2@@std@@_NU?$less@V?$basic_string@DU?$char_traits@D@std@@V?$allocator@D@2@@std@@@2@V?$allocator@U?$pair@$$CBV?$basic_string@DU?$char_traits@D@std@@V?$allocator@D@2@@std@@_N@std@@@2@$0A@@std@@@2@@Z 00439ba0 f i AfxUserConfig.obj
 0001:00038bc0       ??Yiterator@?$vector@USepWindowData@@V?$allocator@USepWindowData@@@std@@@std@@QAEAAV012@H@Z 00439bc0 f i HostWndMgr.obj
 0001:00038be0       ?_Color@?$_Tree@V?$_Tmap_traits@PAUHWND__@@UCWndData@@U?$less@PAUHWND__@@@std@@V?$allocator@U?$pair@QAUHWND__@@UCWndData@@@std@@@4@$0A@@std@@@std@@KAAADPAU_Node@?$_Tree_nod@V?$_Tmap_traits@PAUHWND__@@UCWndData@@U?$less@PAUHWND__@@@std@@V?$allocator@U?$pair@QAUHWND__@@UCWndData@@@std@@@4@$0A@@std@@@2@@Z 00439be0 f i HostWndMgr.obj
 0001:00038bf0       ?max_size@?$_Tree@V?$_Tmap_traits@PAUHWND__@@UCWndData@@U?$less@PAUHWND__@@@std@@V?$allocator@U?$pair@QAUHWND__@@UCWndData@@@std@@@4@$0A@@std@@@std@@QBEIXZ 00439bf0 f i HostWndMgr.obj
 0001:00038c10       ?erase@?$_Tree@V?$_Tmap_traits@PAUHWND__@@UCWndData@@U?$less@PAUHWND__@@@std@@V?$allocator@U?$pair@QAUHWND__@@UCWndData@@@std@@@4@$0A@@std@@@std@@QAE?AViterator@12@V312@@Z 00439c10 f i HostWndMgr.obj
 0001:000393c0       ?clear@?$_Tree@V?$_Tmap_traits@PAUHWND__@@UCWndData@@U?$less@PAUHWND__@@@std@@V?$allocator@U?$pair@QAUHWND__@@UCWndData@@@std@@@4@$0A@@std@@@std@@QAEXXZ 0043a3c0 f i HostWndMgr.obj
 0001:00039420       ?_Lrotate@?$_Tree@V?$_Tmap_traits@PAUHWND__@@UCWndData@@U?$less@PAUHWND__@@@std@@V?$allocator@U?$pair@QAUHWND__@@UCWndData@@@std@@@4@$0A@@std@@@std@@IAEXPAU_Node@?$_Tree_nod@V?$_Tmap_traits@PAUHWND__@@UCWndData@@U?$less@PAUHWND__@@@std@@V?$allocator@U?$pair@QAUHWND__@@UCWndData@@@std@@@4@$0A@@std@@@2@@Z 0043a420 f i HostWndMgr.obj
 0001:00039550       ?_Rrotate@?$_Tree@V?$_Tmap_traits@PAUHWND__@@UCWndData@@U?$less@PAUHWND__@@@std@@V?$allocator@U?$pair@QAUHWND__@@UCWndData@@@std@@@4@$0A@@std@@@std@@IAEXPAU_Node@?$_Tree_nod@V?$_Tmap_traits@PAUHWND__@@UCWndData@@U?$less@PAUHWND__@@@std@@V?$allocator@U?$pair@QAUHWND__@@UCWndData@@@std@@@4@$0A@@std@@@2@@Z 0043a550 f i HostWndMgr.obj
 0001:00039680       ?_Buynode@?$_Tree@V?$_Tmap_traits@PAUHWND__@@UCWndData@@U?$less@PAUHWND__@@@std@@V?$allocator@U?$pair@QAUHWND__@@UCWndData@@@std@@@4@$0A@@std@@@std@@IAEPAU_Node@?$_Tree_nod@V?$_Tmap_traits@PAUHWND__@@UCWndData@@U?$less@PAUHWND__@@@std@@V?$allocator@U?$pair@QAUHWND__@@UCWndData@@@std@@@4@$0A@@std@@@2@XZ 0043a680 f i HostWndMgr.obj
 0001:000397f0       ?_Buynode@?$_Tree@V?$_Tmap_traits@PAUHWND__@@UCWndData@@U?$less@PAUHWND__@@@std@@V?$allocator@U?$pair@QAUHWND__@@UCWndData@@@std@@@4@$0A@@std@@@std@@IAEPAU_Node@?$_Tree_nod@V?$_Tmap_traits@PAUHWND__@@UCWndData@@U?$less@PAUHWND__@@@std@@V?$allocator@U?$pair@QAUHWND__@@UCWndData@@@std@@@4@$0A@@std@@@2@PAU342@00ABU?$pair@QAUHWND__@@UCWndData@@@2@D@Z 0043a7f0 f i HostWndMgr.obj
 0001:000398c0       ??Fconst_iterator@?$_Tree@V?$_Tmap_traits@PAUHWND__@@UCWndData@@U?$less@PAUHWND__@@@std@@V?$allocator@U?$pair@QAUHWND__@@UCWndData@@@std@@@4@$0A@@std@@@std@@QAEAAV012@XZ 0043a8c0 f i HostWndMgr.obj
 0001:000398e0       ?_Inc@const_iterator@?$_Tree@V?$_Tmap_traits@PAUHWND__@@UCWndData@@U?$less@PAUHWND__@@@std@@V?$allocator@U?$pair@QAUHWND__@@UCWndData@@@std@@@4@$0A@@std@@@std@@QAEXXZ 0043a8e0 f i HostWndMgr.obj
 0001:000399a0       ?_Erase@?$_Tree@V?$_Tmap_traits@PAUHWND__@@UCWndData@@U?$less@PAUHWND__@@@std@@V?$allocator@U?$pair@QAUHWND__@@UCWndData@@@std@@@4@$0A@@std@@@std@@IAEXPAU_Node@?$_Tree_nod@V?$_Tmap_traits@PAUHWND__@@UCWndData@@U?$less@PAUHWND__@@@std@@V?$allocator@U?$pair@QAUHWND__@@UCWndData@@@std@@@4@$0A@@std@@@2@@Z 0043a9a0 f i HostWndMgr.obj
 0001:00039a20       ?_Max@?$_Tree@V?$_Tmap_traits@PAUHWND__@@UCWndData@@U?$less@PAUHWND__@@@std@@V?$allocator@U?$pair@QAUHWND__@@UCWndData@@@std@@@4@$0A@@std@@@std@@KAPAU_Node@?$_Tree_nod@V?$_Tmap_traits@PAUHWND__@@UCWndData@@U?$less@PAUHWND__@@@std@@V?$allocator@U?$pair@QAUHWND__@@UCWndData@@@std@@@4@$0A@@std@@@2@PAU342@@Z 0043aa20 f i HostWndMgr.obj
 0001:00039a60       ?_Min@?$_Tree@V?$_Tmap_traits@PAUHWND__@@UCWndData@@U?$less@PAUHWND__@@@std@@V?$allocator@U?$pair@QAUHWND__@@UCWndData@@@std@@@4@$0A@@std@@@std@@KAPAU_Node@?$_Tree_nod@V?$_Tmap_traits@PAUHWND__@@UCWndData@@U?$less@PAUHWND__@@@std@@V?$allocator@U?$pair@QAUHWND__@@UCWndData@@@std@@@4@$0A@@std@@@2@PAU342@@Z 0043aa60 f i HostWndMgr.obj
 0001:00039aa0       ?max_size@?$allocator@U?$pair@QAUHWND__@@UCWndData@@@std@@@std@@QBEIXZ 0043aaa0 f i HostWndMgr.obj
 0001:00039ad0       ?_Dec@const_iterator@?$_Tree@V?$_Tmap_traits@PAUHWND__@@UCWndData@@U?$less@PAUHWND__@@@std@@V?$allocator@U?$pair@QAUHWND__@@UCWndData@@@std@@@4@$0A@@std@@@std@@QAEXXZ 0043aad0 f i HostWndMgr.obj
 0001:00039bb0       ??0_Node@?$_Tree_nod@V?$_Tmap_traits@PAUHWND__@@UCWndData@@U?$less@PAUHWND__@@@std@@V?$allocator@U?$pair@QAUHWND__@@UCWndData@@@std@@@4@$0A@@std@@@std@@QAE@PAU012@00ABU?$pair@QAUHWND__@@UCWndData@@@2@D@Z 0043abb0 f i HostWndMgr.obj
 0001:00039c10       ??$_Copy_backward_opt@PAKPAK@std@@YAPAKPAK00U_Scalar_ptr_iterator_tag@0@@Z 0043ac10 f i CUIManager.obj
 0001:00039c10       ??$_Copy_backward_opt@PAPAVIChangeSkinEventListener@@PAPAV1@@std@@YAPAPAVIChangeSkinEventListener@@PAPAV1@00U_Scalar_ptr_iterator_tag@0@@Z 0043ac10 f i IChangeColorMgr.obj
 0001:00039c10       ??$_Copy_backward_opt@PAPAVCSkinButton2@@PAPAV1@@std@@YAPAPAVCSkinButton2@@PAPAV1@00U_Scalar_ptr_iterator_tag@0@@Z 0043ac10 f i MainSkinWnd.obj
 0001:00039c10       ??$_Copy_backward_opt@PAHPAH@std@@YAPAHPAH00U_Scalar_ptr_iterator_tag@0@@Z 0043ac10 f i MyListCtrl.obj
 0001:00039c10       ??$_Copy_backward_opt@PAPAVCBasicSkinWnd@@PAPAV1@@std@@YAPAPAVCBasicSkinWnd@@PAPAV1@00U_Scalar_ptr_iterator_tag@0@@Z 0043ac10 f i SkinMgr.obj
 0001:00039c10       ??$_Copy_backward_opt@PAPAVCHostWnd@@PAPAV1@@std@@YAPAPAVCHostWnd@@PAPAV1@00U_Scalar_ptr_iterator_tag@0@@Z 0043ac10 f i HostWndMgr.obj
 0001:00039c50       ??0CMainHostWnd@@QAE@PAVCWnd@@@Z 0043ac50 f   MainHostWnd.obj
 0001:00039df0       ??1CMainHostWnd@@UAE@XZ    0043adf0 f   MainHostWnd.obj
 0001:00039e40       ?GetThisMessageMap@CMainHostWnd@@KGPBUAFX_MSGMAP@@XZ 0043ae40 f   MainHostWnd.obj
 0001:00039e50       ?GetMessageMap@CMainHostWnd@@MBEPBUAFX_MSGMAP@@XZ 0043ae50 f   MainHostWnd.obj
 0001:00039e60       ?OnInitDialog@CMainHostWnd@@MAEHXZ 0043ae60 f   MainHostWnd.obj
 0001:00039ed0       ?OnLButtonDown@CMainHostWnd@@IAEXIVCPoint@@@Z 0043aed0 f   MainHostWnd.obj
 0001:00039f00       ?OnLButtonUp@CMainHostWnd@@IAEXIVCPoint@@@Z 0043af00 f   MainHostWnd.obj
 0001:00039f30       ?OnMouseMove@CMainHostWnd@@IAEXIVCPoint@@@Z 0043af30 f   MainHostWnd.obj
 0001:00039f60       ?OnSize@CMainHostWnd@@IAEXIHH@Z 0043af60 f   MainHostWnd.obj
 0001:0003a080       ?CalResizingByMVRatio@CMainHostWnd@@QAEXAAVCRect@@0@Z 0043b080 f   MainHostWnd.obj
 0001:0003a240       ?MoveContent@CMainHostWnd@@AAEXXZ 0043b240 f   MainHostWnd.obj
 0001:0003a510       ?ChangeWatchMode@CMainHostWnd@@QAEXXZ 0043b510 f   MainHostWnd.obj
 0001:0003ab50       ?ChangePlaylistMode@CMainHostWnd@@QAEXXZ 0043bb50 f   MainHostWnd.obj
 0001:0003acb0       ?_needChangeCursor@CMainHostWnd@@UAE_NABVCPoint@@@Z 0043bcb0 f   MainHostWnd.obj
 0001:0003ad60       ?SetTo1x@CMainHostWnd@@QAEXXZ 0043bd60 f   MainHostWnd.obj
 0001:0003ae20       ?MoveMvSize@CMainHostWnd@@QAEXHH@Z 0043be20 f   MainHostWnd.obj
 0001:0003af60       ?SetTo2x@CMainHostWnd@@QAEXXZ 0043bf60 f   MainHostWnd.obj
 0001:0003af90       ?SetMinSize@CMainHostWnd@@QAEXXZ 0043bf90 f   MainHostWnd.obj
 0001:0003b010       ??_ECMainHostWnd@@UAEPAXI@Z 0043c010 f i MainHostWnd.obj
 0001:0003b010       ??_GCMainHostWnd@@UAEPAXI@Z 0043c010 f i MainHostWnd.obj
 0001:0003b040       ?DeflateRect@CRect@@QAEXHHHH@Z 0043c040 f i MainHostWnd.obj
 0001:0003b090       ?GetInstance@CWindowsMover@@SAPAV1@XZ 0043c090 f   WindowsMover.obj
 0001:0003b110       ?DelInstance@CWindowsMover@@SAXXZ 0043c110 f   WindowsMover.obj
 0001:0003b150       ??0CWindowsMover@@AAE@XZ   0043c150 f   WindowsMover.obj
 0001:0003b1a0       ??1CWindowsMover@@AAE@XZ   0043c1a0 f   WindowsMover.obj
 0001:0003b1c0       ?AddWndindow@CWindowsMover@@QAEXPAVCWnd@@_N@Z 0043c1c0 f   WindowsMover.obj
 0001:0003b210       ?Clear@CWindowsMover@@QAEXXZ 0043c210 f   WindowsMover.obj
 0001:0003b230       ?GetAllWindowsRect@CWindowsMover@@AAEXXZ 0043c230 f   WindowsMover.obj
 0001:0003b240       ?CalMovingWndNewPos@CWindowsMover@@AAEXXZ 0043c240 f   WindowsMover.obj
 0001:0003b2d0       ?DoMouseDown@CWindowsMover@@QAEXPAUHWND__@@VCPoint@@@Z 0043c2d0 f   WindowsMover.obj
 0001:0003b5e0       ?IsTwoWndStucked@CWindowsMover@@AAEHVCRect@@00@Z 0043c5e0 f   WindowsMover.obj
 0001:0003b7f0       ?DoMouseUp@CWindowsMover@@QAEXPAUHWND__@@VCPoint@@@Z 0043c7f0 f   WindowsMover.obj
 0001:0003b8c0       ?DoMouseMove@CWindowsMover@@QAEXPAUHWND__@@IVCPoint@@@Z 0043c8c0 f   WindowsMover.obj
 0001:0003ba70       ?DoMouseResizingFinished@CWindowsMover@@QAEXPAUHWND__@@IVCPoint@@H@Z 0043ca70 f   WindowsMover.obj
 0001:0003bbb0       ?MovingAllWindows@CWindowsMover@@AAEXXZ 0043cbb0 f   WindowsMover.obj
 0001:0003bc80       ?IsRectValid@CWindowsMover@@AAEHVCRect@@@Z 0043cc80 f   WindowsMover.obj
 0001:0003bcf0       ?ModifyMovingWndPosAndSize@CWindowsMover@@AAEXHHH@Z 0043ccf0 f   WindowsMover.obj
 0001:0003be40       ?ModifyMovingWndPos@CWindowsMover@@AAEXHH@Z 0043ce40 f   WindowsMover.obj
 0001:0003bf20       ?CalMinDistanceBetweenTwoWindows@CWindowsMover@@AAEXAAUWndMoveData@@0AAH1@Z 0043cf20 f   WindowsMover.obj
 0001:0003c0f0       ?CalMinDistance@CWindowsMover@@AAEXAAH0@Z 0043d0f0 f   WindowsMover.obj
 0001:0003c1e0       ?DrawMoveFrame@CWindowsMover@@QAEXVCRect@@@Z 0043d1e0 f   WindowsMover.obj
 0001:0003c320       ??_GCWindowsMover@@AAEPAXI@Z 0043d320 f i WindowsMover.obj
 0001:0003c350       ??1?$map@PAUHWND__@@UWndMoveData@@U?$less@PAUHWND__@@@std@@V?$allocator@U?$pair@QAUHWND__@@UWndMoveData@@@std@@@4@@std@@QAE@XZ 0043d350 f i WindowsMover.obj
 0001:0003c370       ??0WndMoveData@@QAE@XZ     0043d370 f i WindowsMover.obj
 0001:0003c390       ??0?$map@PAUHWND__@@UWndMoveData@@U?$less@PAUHWND__@@@std@@V?$allocator@U?$pair@QAUHWND__@@UWndMoveData@@@std@@@4@@std@@QAE@XZ 0043d390 f i WindowsMover.obj
 0001:0003c3c0       ??A?$map@PAUHWND__@@UWndMoveData@@U?$less@PAUHWND__@@@std@@V?$allocator@U?$pair@QAUHWND__@@UWndMoveData@@@std@@@4@@std@@QAEAAUWndMoveData@@ABQAUHWND__@@@Z 0043d3c0 f i WindowsMover.obj
 0001:0003c460       ??1?$_Tree@V?$_Tmap_traits@PAUHWND__@@UWndMoveData@@U?$less@PAUHWND__@@@std@@V?$allocator@U?$pair@QAUHWND__@@UWndMoveData@@@std@@@4@$0A@@std@@@std@@QAE@XZ 0043d460 f i WindowsMover.obj
 0001:0003c480       ?clear@?$_Tree@V?$_Tmap_traits@PAUHWND__@@UWndMoveData@@U?$less@PAUHWND__@@@std@@V?$allocator@U?$pair@QAUHWND__@@UWndMoveData@@@std@@@4@$0A@@std@@@std@@QAEXXZ 0043d480 f i WindowsMover.obj
 0001:0003c4e0       ??0?$_Tree@V?$_Tmap_traits@PAUHWND__@@UWndMoveData@@U?$less@PAUHWND__@@@std@@V?$allocator@U?$pair@QAUHWND__@@UWndMoveData@@@std@@@4@$0A@@std@@@std@@QAE@ABU?$less@PAUHWND__@@@1@ABV?$allocator@U?$pair@QAUHWND__@@UWndMoveData@@@std@@@1@@Z 0043d4e0 f i WindowsMover.obj
 0001:0003c520       ?insert@?$_Tree@V?$_Tmap_traits@PAUHWND__@@UWndMoveData@@U?$less@PAUHWND__@@@std@@V?$allocator@U?$pair@QAUHWND__@@UWndMoveData@@@std@@@4@$0A@@std@@@std@@QAE?AViterator@12@V312@ABU?$pair@QAUHWND__@@UWndMoveData@@@2@@Z 0043d520 f i WindowsMover.obj
 0001:0003caf0       ?lower_bound@?$_Tree@V?$_Tmap_traits@PAUHWND__@@UWndMoveData@@U?$less@PAUHWND__@@@std@@V?$allocator@U?$pair@QAUHWND__@@UWndMoveData@@@std@@@4@$0A@@std@@@std@@QAE?AViterator@12@ABQAUHWND__@@@Z 0043daf0 f i WindowsMover.obj
 0001:0003cb20       ?_Erase@?$_Tree@V?$_Tmap_traits@PAUHWND__@@UWndMoveData@@U?$less@PAUHWND__@@@std@@V?$allocator@U?$pair@QAUHWND__@@UWndMoveData@@@std@@@4@$0A@@std@@@std@@IAEXPAU_Node@?$_Tree_nod@V?$_Tmap_traits@PAUHWND__@@UWndMoveData@@U?$less@PAUHWND__@@@std@@V?$allocator@U?$pair@QAUHWND__@@UWndMoveData@@@std@@@4@$0A@@std@@@2@@Z 0043db20 f i WindowsMover.obj
 0001:0003cba0       ?_Tidy@?$_Tree@V?$_Tmap_traits@PAUHWND__@@UWndMoveData@@U?$less@PAUHWND__@@@std@@V?$allocator@U?$pair@QAUHWND__@@UWndMoveData@@@std@@@4@$0A@@std@@@std@@IAEXXZ 0043dba0 f i WindowsMover.obj
 0001:0003cc50       ??Eiterator@?$_Tree@V?$_Tmap_traits@V?$basic_string@DU?$char_traits@D@std@@V?$allocator@D@2@@std@@_NU?$less@V?$basic_string@DU?$char_traits@D@std@@V?$allocator@D@2@@std@@@2@V?$allocator@U?$pair@$$CBV?$basic_string@DU?$char_traits@D@std@@V?$allocator@D@2@@std@@_N@std@@@2@$0A@@std@@@std@@QAEAAV012@XZ 0043dc50 f i AfxUserConfig.obj
 0001:0003cc50       ??Eiterator@?$_Tree@V?$_Tmap_traits@PAUHWND__@@UWndMoveData@@U?$less@PAUHWND__@@@std@@V?$allocator@U?$pair@QAUHWND__@@UWndMoveData@@@std@@@4@$0A@@std@@@std@@QAEAAV012@XZ 0043dc50 f i WindowsMover.obj
 0001:0003cc50       ??Eiterator@?$_Tree@V?$_Tmap_traits@V?$basic_string@DU?$char_traits@D@std@@V?$allocator@D@2@@std@@PAVYL_CHTTPDownFile@@U?$less@V?$basic_string@DU?$char_traits@D@std@@V?$allocator@D@2@@std@@@2@V?$allocator@U?$pair@$$CBV?$basic_string@DU?$char_traits@D@std@@V?$allocator@D@2@@std@@PAVYL_CHTTPDownFile@@@std@@@2@$0A@@std@@@std@@QAEAAV012@XZ 0043dc50 f i HttpDownCtrl.obj
 0001:0003cc50       ??Eiterator@?$_Tree@V?$_Tmap_traits@V?$basic_string@DU?$char_traits@D@std@@V?$allocator@D@2@@std@@HU?$less@V?$basic_string@DU?$char_traits@D@std@@V?$allocator@D@2@@std@@@2@V?$allocator@U?$pair@$$CBV?$basic_string@DU?$char_traits@D@std@@V?$allocator@D@2@@std@@H@std@@@2@$0A@@std@@@std@@QAEAAV012@XZ 0043dc50 f i MyTreeCtrl.obj
 0001:0003cc50       ??Eiterator@?$_Tree@V?$_Tmap_traits@V?$basic_string@DU?$char_traits@D@std@@V?$allocator@D@2@@std@@PAVCConfigObject@@U?$less@V?$basic_string@DU?$char_traits@D@std@@V?$allocator@D@2@@std@@@2@V?$allocator@U?$pair@$$CBV?$basic_string@DU?$char_traits@D@std@@V?$allocator@D@2@@std@@PAVCConfigObject@@@std@@@2@$0A@@std@@@std@@QAEAAV012@XZ 0043dc50 f i AfxUserConfig.obj
 0001:0003cc70       ??0?$pair@QAUHWND__@@UWndMoveData@@@std@@QAE@ABQAUHWND__@@ABUWndMoveData@@@Z 0043dc70 f i WindowsMover.obj
 0001:0003cca0       ?insert@?$_Tree@V?$_Tmap_traits@PAUHWND__@@UWndMoveData@@U?$less@PAUHWND__@@@std@@V?$allocator@U?$pair@QAUHWND__@@UWndMoveData@@@std@@@4@$0A@@std@@@std@@QAE?AU?$pair@Viterator@?$_Tree@V?$_Tmap_traits@PAUHWND__@@UWndMoveData@@U?$less@PAUHWND__@@@std@@V?$allocator@U?$pair@QAUHWND__@@UWndMoveData@@@std@@@4@$0A@@std@@@std@@_N@2@ABU?$pair@QAUHWND__@@UWndMoveData@@@2@@Z 0043dca0 f i WindowsMover.obj
 0001:0003ce50       ?erase@?$_Tree@V?$_Tmap_traits@PAUHWND__@@UWndMoveData@@U?$less@PAUHWND__@@@std@@V?$allocator@U?$pair@QAUHWND__@@UWndMoveData@@@std@@@4@$0A@@std@@@std@@QAE?AViterator@12@V312@0@Z 0043de50 f i WindowsMover.obj
 0001:0003cef0       ?_Init@?$_Tree@V?$_Tmap_traits@PAUHWND__@@UWndMoveData@@U?$less@PAUHWND__@@@std@@V?$allocator@U?$pair@QAUHWND__@@UWndMoveData@@@std@@@4@$0A@@std@@@std@@IAEXXZ 0043def0 f i WindowsMover.obj
 0001:0003cf60       ?_Insert@?$_Tree@V?$_Tmap_traits@PAUHWND__@@UWndMoveData@@U?$less@PAUHWND__@@@std@@V?$allocator@U?$pair@QAUHWND__@@UWndMoveData@@@std@@@4@$0A@@std@@@std@@IAE?AViterator@12@_NPAU_Node@?$_Tree_nod@V?$_Tmap_traits@PAUHWND__@@UWndMoveData@@U?$less@PAUHWND__@@@std@@V?$allocator@U?$pair@QAUHWND__@@UWndMoveData@@@std@@@4@$0A@@std@@@2@ABU?$pair@QAUHWND__@@UWndMoveData@@@2@@Z 0043df60 f i WindowsMover.obj
 0001:0003d3c0       ?_Lbound@?$_Tree@V?$_Tmap_traits@PAUHWND__@@UWndMoveData@@U?$less@PAUHWND__@@@std@@V?$allocator@U?$pair@QAUHWND__@@UWndMoveData@@@std@@@4@$0A@@std@@@std@@IBEPAU_Node@?$_Tree_nod@V?$_Tmap_traits@PAUHWND__@@UWndMoveData@@U?$less@PAUHWND__@@@std@@V?$allocator@U?$pair@QAUHWND__@@UWndMoveData@@@std@@@4@$0A@@std@@@2@ABQAUHWND__@@@Z 0043e3c0 f i WindowsMover.obj
 0001:0003d450       ?deallocate@?$allocator@U_Node@?$_Tree_nod@V?$_Tmap_traits@V?$basic_string@DU?$char_traits@D@std@@V?$allocator@D@2@@std@@PAVYL_CHTTPDownFile@@U?$less@V?$basic_string@DU?$char_traits@D@std@@V?$allocator@D@2@@std@@@2@V?$allocator@U?$pair@$$CBV?$basic_string@DU?$char_traits@D@std@@V?$allocator@D@2@@std@@PAVYL_CHTTPDownFile@@@std@@@2@$0A@@std@@@std@@@std@@QAEXPAU_Node@?$_Tree_nod@V?$_Tmap_traits@V?$basic_string@DU?$char_traits@D@std@@V?$allocator@D@2@@std@@PAVYL_CHTTPDownFile@@U?$less@V?$basic_string@DU?$char_traits@D@std@@V?$allocator@D@2@@std@@@2@V?$allocator@U?$pair@$$CBV?$basic_string@DU?$char_traits@D@std@@V?$allocator@D@2@@std@@PAVYL_CHTTPDownFile@@@std@@@2@$0A@@std@@@2@I@Z 0043e450 f i HttpDownCtrl.obj
 0001:0003d450       ?deallocate@?$allocator@PAVCPoint@@@std@@QAEXPAPAVCPoint@@I@Z 0043e450 f i LocalMusicCoverList.obj
 0001:0003d450       ?deallocate@?$allocator@U_Node@?$_List_nod@PAUMESSAGE_OBSERVER@@V?$allocator@PAUMESSAGE_OBSERVER@@@std@@@std@@@std@@QAEXPAU_Node@?$_List_nod@PAUMESSAGE_OBSERVER@@V?$allocator@PAUMESSAGE_OBSERVER@@@std@@@2@I@Z 0043e450 f i CMessageManager.obj
 0001:0003d450       ?deallocate@?$allocator@U_Node@?$_Tree_nod@V?$_Tmap_traits@HPAVBaseDialog@@U?$less@H@std@@V?$allocator@U?$pair@$$CBHPAVBaseDialog@@@std@@@3@$0A@@std@@@std@@@std@@QAEXPAU_Node@?$_Tree_nod@V?$_Tmap_traits@HPAVBaseDialog@@U?$less@H@std@@V?$allocator@U?$pair@$$CBHPAVBaseDialog@@@std@@@3@$0A@@std@@@2@I@Z 0043e450 f i DlgConfig.obj
 0001:0003d450       ?deallocate@?$allocator@U_Node@?$_Tree_nod@V?$_Tmap_traits@HUMYLIST_COLUMN_INFO@@U?$less@H@std@@V?$allocator@U?$pair@$$CBHUMYLIST_COLUMN_INFO@@@std@@@3@$0A@@std@@@std@@@std@@QAEXPAU_Node@?$_Tree_nod@V?$_Tmap_traits@HUMYLIST_COLUMN_INFO@@U?$less@H@std@@V?$allocator@U?$pair@$$CBHUMYLIST_COLUMN_INFO@@@std@@@3@$0A@@std@@@2@I@Z 0043e450 f i MyListCtrl.obj
 0001:0003d450       ?deallocate@?$allocator@U_Node@?$_List_nod@PAVCSubLabel@@V?$allocator@PAVCSubLabel@@@std@@@std@@@std@@QAEXPAU_Node@?$_List_nod@PAVCSubLabel@@V?$allocator@PAVCSubLabel@@@std@@@2@I@Z 0043e450 f i SubjectChildWnd.obj
 0001:0003d450       ?deallocate@?$allocator@VCPoint@@@std@@QAEXPAVCPoint@@I@Z 0043e450 f i LocalMusicCoverList.obj
 0001:0003d450       ?deallocate@?$allocator@U_Node@?$_Tree_nod@V?$_Tmap_traits@V?$basic_string@DU?$char_traits@D@std@@V?$allocator@D@2@@std@@HU?$less@V?$basic_string@DU?$char_traits@D@std@@V?$allocator@D@2@@std@@@2@V?$allocator@U?$pair@$$CBV?$basic_string@DU?$char_traits@D@std@@V?$allocator@D@2@@std@@H@std@@@2@$0A@@std@@@std@@@std@@QAEXPAU_Node@?$_Tree_nod@V?$_Tmap_traits@V?$basic_string@DU?$char_traits@D@std@@V?$allocator@D@2@@std@@HU?$less@V?$basic_string@DU?$char_traits@D@std@@V?$allocator@D@2@@std@@@2@V?$allocator@U?$pair@$$CBV?$basic_string@DU?$char_traits@D@std@@V?$allocator@D@2@@std@@H@std@@@2@$0A@@std@@@2@I@Z 0043e450 f i MyTreeCtrl.obj
 0001:0003d450       ?deallocate@?$allocator@U_tagLMCItemInfo@@@std@@QAEXPAU_tagLMCItemInfo@@I@Z 0043e450 f i LMCDataMgr.obj
 0001:0003d450       ?deallocate@?$allocator@Ubasecolor@@@std@@QAEXPAUbasecolor@@I@Z 0043e450 f i PanesMgr.obj
 0001:0003d450       ?deallocate@?$allocator@U_Node@?$_Tree_nod@V?$_Tmap_traits@KV?$list@PAUMESSAGE_OBSERVER@@V?$allocator@PAUMESSAGE_OBSERVER@@@std@@@std@@U?$less@K@2@V?$allocator@U?$pair@$$CBKV?$list@PAUMESSAGE_OBSERVER@@V?$allocator@PAUMESSAGE_OBSERVER@@@std@@@std@@@std@@@2@$0A@@std@@@std@@@std@@QAEXPAU_Node@?$_Tree_nod@V?$_Tmap_traits@KV?$list@PAUMESSAGE_OBSERVER@@V?$allocator@PAUMESSAGE_OBSERVER@@@std@@@std@@U?$less@K@2@V?$allocator@U?$pair@$$CBKV?$list@PAUMESSAGE_OBSERVER@@V?$allocator@PAUMESSAGE_OBSERVER@@@std@@@std@@@std@@@2@$0A@@std@@@2@I@Z 0043e450 f i CMessageManager.obj
 0001:0003d450       ?deallocate@?$allocator@U_Node@?$_Tree_nod@V?$_Tmap_traits@V?$CStringT@DV?$StrTraitMFC_DLL@DV?$ChTraitsCRT@D@ATL@@@@@ATL@@PAVCDibBitmap@@U?$less@V?$CStringT@DV?$StrTraitMFC_DLL@DV?$ChTraitsCRT@D@ATL@@@@@ATL@@@std@@V?$allocator@U?$pair@$$CBV?$CStringT@DV?$StrTraitMFC_DLL@DV?$ChTraitsCRT@D@ATL@@@@@ATL@@PAVCDibBitmap@@@std@@@5@$0A@@std@@@std@@@std@@QAEXPAU_Node@?$_Tree_nod@V?$_Tmap_traits@V?$CStringT@DV?$StrTraitMFC_DLL@DV?$ChTraitsCRT@D@ATL@@@@@ATL@@PAVCDibBitmap@@U?$less@V?$CStringT@DV?$StrTraitMFC_DLL@DV?$ChTraitsCRT@D@ATL@@@@@ATL@@@std@@V?$allocator@U?$pair@$$CBV?$CStringT@DV?$StrTraitMFC_DLL@DV?$ChTraitsCRT@D@ATL@@@@@ATL@@PAVCDibBitmap@@@std@@@5@$0A@@std@@@2@I@Z 0043e450 f i SkinMgr.obj
 0001:0003d450       ?deallocate@?$allocator@VCRect@@@std@@QAEXPAVCRect@@I@Z 0043e450 f i TabBarWnd.obj
 0001:0003d450       ?deallocate@?$allocator@U_Node@?$_Tree_nod@V?$_Tmap_traits@V?$basic_string@DU?$char_traits@D@std@@V?$allocator@D@2@@std@@V12@U?$less@V?$basic_string@DU?$char_traits@D@std@@V?$allocator@D@2@@std@@@2@V?$allocator@U?$pair@$$CBV?$basic_string@DU?$char_traits@D@std@@V?$allocator@D@2@@std@@V12@@std@@@2@$0A@@std@@@std@@@std@@QAEXPAU_Node@?$_Tree_nod@V?$_Tmap_traits@V?$basic_string@DU?$char_traits@D@std@@V?$allocator@D@2@@std@@V12@U?$less@V?$basic_string@DU?$char_traits@D@std@@V?$allocator@D@2@@std@@@2@V?$allocator@U?$pair@$$CBV?$basic_string@DU?$char_traits@D@std@@V?$allocator@D@2@@std@@V12@@std@@@2@$0A@@std@@@2@I@Z 0043e450 f i AfxUserConfig.obj
 0001:0003d450       ?deallocate@?$allocator@U_Node@?$_Tree_nod@V?$_Tmap_traits@V?$CStringT@DV?$StrTraitMFC_DLL@DV?$ChTraitsCRT@D@ATL@@@@@ATL@@PAVCSkinButton@@U?$less@V?$CStringT@DV?$StrTraitMFC_DLL@DV?$ChTraitsCRT@D@ATL@@@@@ATL@@@std@@V?$allocator@U?$pair@$$CBV?$CStringT@DV?$StrTraitMFC_DLL@DV?$ChTraitsCRT@D@ATL@@@@@ATL@@PAVCSkinButton@@@std@@@5@$0A@@std@@@std@@@std@@QAEXPAU_Node@?$_Tree_nod@V?$_Tmap_traits@V?$CStringT@DV?$StrTraitMFC_DLL@DV?$ChTraitsCRT@D@ATL@@@@@ATL@@PAVCSkinButton@@U?$less@V?$CStringT@DV?$StrTraitMFC_DLL@DV?$ChTraitsCRT@D@ATL@@@@@ATL@@@std@@V?$allocator@U?$pair@$$CBV?$CStringT@DV?$StrTraitMFC_DLL@DV?$ChTraitsCRT@D@ATL@@@@@ATL@@PAVCSkinButton@@@std@@@5@$0A@@std@@@2@I@Z 0043e450 f i SkinWnd.obj
 0001:0003d450       ?deallocate@?$allocator@U_Node@?$_Tree_nod@V?$_Tmap_traits@V?$CStringT@DV?$StrTraitMFC_DLL@DV?$ChTraitsCRT@D@ATL@@@@@ATL@@KU?$less@V?$CStringT@DV?$StrTraitMFC_DLL@DV?$ChTraitsCRT@D@ATL@@@@@ATL@@@std@@V?$allocator@U?$pair@$$CBV?$CStringT@DV?$StrTraitMFC_DLL@DV?$ChTraitsCRT@D@ATL@@@@@ATL@@K@std@@@4@$0A@@std@@@std@@@std@@QAEXPAU_Node@?$_Tree_nod@V?$_Tmap_traits@V?$CStringT@DV?$StrTraitMFC_DLL@DV?$ChTraitsCRT@D@ATL@@@@@ATL@@KU?$less@V?$CStringT@DV?$StrTraitMFC_DLL@DV?$ChTraitsCRT@D@ATL@@@@@ATL@@@std@@V?$allocator@U?$pair@$$CBV?$CStringT@DV?$StrTraitMFC_DLL@DV?$ChTraitsCRT@D@ATL@@@@@ATL@@K@std@@@4@$0A@@std@@@2@I@Z 0043e450 f i PanesMgr.obj
 0001:0003d450       ?deallocate@?$allocator@PAVCHostWnd@@@std@@QAEXPAPAVCHostWnd@@I@Z 0043e450 f i HostWndMgr.obj
 0001:0003d450       ?deallocate@?$allocator@U_Node@?$_Tree_nod@V?$_Tmap_traits@V?$basic_string@DU?$char_traits@D@std@@V?$allocator@D@2@@std@@_NU?$less@V?$basic_string@DU?$char_traits@D@std@@V?$allocator@D@2@@std@@@2@V?$allocator@U?$pair@$$CBV?$basic_string@DU?$char_traits@D@std@@V?$allocator@D@2@@std@@_N@std@@@2@$0A@@std@@@std@@@std@@QAEXPAU_Node@?$_Tree_nod@V?$_Tmap_traits@V?$basic_string@DU?$char_traits@D@std@@V?$allocator@D@2@@std@@_NU?$less@V?$basic_string@DU?$char_traits@D@std@@V?$allocator@D@2@@std@@@2@V?$allocator@U?$pair@$$CBV?$basic_string@DU?$char_traits@D@std@@V?$allocator@D@2@@std@@_N@std@@@2@$0A@@std@@@2@I@Z 0043e450 f i AfxUserConfig.obj
 0001:0003d450       ?deallocate@?$allocator@U_Node@?$_Tree_nod@V?$_Tmap_traits@PAUHWND__@@UWndMoveData@@U?$less@PAUHWND__@@@std@@V?$allocator@U?$pair@QAUHWND__@@UWndMoveData@@@std@@@4@$0A@@std@@@std@@@std@@QAEXPAU_Node@?$_Tree_nod@V?$_Tmap_traits@PAUHWND__@@UWndMoveData@@U?$less@PAUHWND__@@@std@@V?$allocator@U?$pair@QAUHWND__@@UWndMoveData@@@std@@@4@$0A@@std@@@2@I@Z 0043e450 f i WindowsMover.obj
 0001:0003d450       ?deallocate@?$allocator@UAD_STRUCT@@@std@@QAEXPAUAD_STRUCT@@I@Z 0043e450 f i DownAD.obj
 0001:0003d450       ?deallocate@?$allocator@PAVCSkinButton2@@@std@@QAEXPAPAVCSkinButton2@@I@Z 0043e450 f i MainSkinWnd.obj
 0001:0003d450       ?deallocate@?$allocator@PAVIChangeSkinEventListener@@@std@@QAEXPAPAVIChangeSkinEventListener@@I@Z 0043e450 f i IChangeColorMgr.obj
 0001:0003d450       ?deallocate@?$allocator@V?$basic_string@DU?$char_traits@D@std@@V?$allocator@D@2@@std@@@std@@QAEXPAV?$basic_string@DU?$char_traits@D@std@@V?$allocator@D@2@@2@I@Z 0043e450 f i PanesMgr.obj
 0001:0003d450       ?deallocate@?$allocator@UTAB_ITEM@@@std@@QAEXPAUTAB_ITEM@@I@Z 0043e450 f i WebManager.obj
 0001:0003d450       ?deallocate@?$allocator@U_Node@?$_Tree_nod@V?$_Tmap_traits@KPAVIData@@U?$less@K@std@@V?$allocator@U?$pair@$$CBKPAVIData@@@std@@@3@$0A@@std@@@std@@@std@@QAEXPAU_Node@?$_Tree_nod@V?$_Tmap_traits@KPAVIData@@U?$less@K@std@@V?$allocator@U?$pair@$$CBKPAVIData@@@std@@@3@$0A@@std@@@2@I@Z 0043e450 f i CDataManager.obj
 0001:0003d450       ?deallocate@?$allocator@PAVCBasicSkinWnd@@@std@@QAEXPAPAVCBasicSkinWnd@@I@Z 0043e450 f i SkinMgr.obj
 0001:0003d450       ?deallocate@?$allocator@PAVCWnd@@@std@@QAEXPAPAVCWnd@@I@Z 0043e450 f i TabWndFactory.obj
 0001:0003d450       ?deallocate@?$allocator@H@std@@QAEXPAHI@Z 0043e450 f i MyListCtrl.obj
 0001:0003d450       ?deallocate@?$allocator@U_Node@?$_List_nod@PAVIMessageObserver@@V?$allocator@PAVIMessageObserver@@@std@@@std@@@std@@QAEXPAU_Node@?$_List_nod@PAVIMessageObserver@@V?$allocator@PAVIMessageObserver@@@std@@@2@I@Z 0043e450 f i PlayBoxDlg.obj
 0001:0003d450       ?deallocate@?$allocator@UOneSubject@@@std@@QAEXPAUOneSubject@@I@Z 0043e450 f i PanesMgr.obj
 0001:0003d450       ?deallocate@?$allocator@K@std@@QAEXPAKI@Z 0043e450 f i CUIManager.obj
 0001:0003d450       ?deallocate@?$allocator@UOneLocalGame@@@std@@QAEXPAUOneLocalGame@@I@Z 0043e450 f i LocalGameData.obj
 0001:0003d450       ?deallocate@?$allocator@PAVCBitmap@@@std@@QAEXPAPAVCBitmap@@I@Z 0043e450 f i MyTreeCtrl.obj
 0001:0003d450       ?deallocate@?$allocator@U?$pair@UTAB_ITEM@@PAVCWnd@@@std@@@std@@QAEXPAU?$pair@UTAB_ITEM@@PAVCWnd@@@2@I@Z 0043e450 f i TabPageControl.obj
 0001:0003d450       ?deallocate@?$allocator@PAVILyricPopupWndShowObserver@@@std@@QAEXPAPAVILyricPopupWndShowObserver@@I@Z 0043e450 f i HostWndMgr.obj
 0001:0003d450       ?deallocate@?$allocator@U_Node@?$_Tree_nod@V?$_Tmap_traits@PAUHWND__@@UCWndData@@U?$less@PAUHWND__@@@std@@V?$allocator@U?$pair@QAUHWND__@@UCWndData@@@std@@@4@$0A@@std@@@std@@@std@@QAEXPAU_Node@?$_Tree_nod@V?$_Tmap_traits@PAUHWND__@@UCWndData@@U?$less@PAUHWND__@@@std@@V?$allocator@U?$pair@QAUHWND__@@UCWndData@@@std@@@4@$0A@@std@@@2@I@Z 0043e450 f i HostWndMgr.obj
 0001:0003d450       ?deallocate@?$allocator@U_Node@?$_List_nod@PAVCSkinButton@@V?$allocator@PAVCSkinButton@@@std@@@std@@@std@@QAEXPAU_Node@?$_List_nod@PAVCSkinButton@@V?$allocator@PAVCSkinButton@@@std@@@2@I@Z 0043e450 f i SkinWnd.obj
 0001:0003d450       ?deallocate@?$allocator@U_Node@?$_List_nod@PAVAfxUserConfig_Observer@@V?$allocator@PAVAfxUserConfig_Observer@@@std@@@std@@@std@@QAEXPAU_Node@?$_List_nod@PAVAfxUserConfig_Observer@@V?$allocator@PAVAfxUserConfig_Observer@@@std@@@2@I@Z 0043e450 f i AfxUserConfig.obj
 0001:0003d450       ?deallocate@?$allocator@U_Node@?$_Tree_nod@V?$_Tmap_traits@V?$basic_string@DU?$char_traits@D@std@@V?$allocator@D@2@@std@@V?$list@PAVAfxUserConfig_Observer@@V?$allocator@PAVAfxUserConfig_Observer@@@std@@@2@U?$less@V?$basic_string@DU?$char_traits@D@std@@V?$allocator@D@2@@std@@@2@V?$allocator@U?$pair@$$CBV?$basic_string@DU?$char_traits@D@std@@V?$allocator@D@2@@std@@V?$list@PAVAfxUserConfig_Observer@@V?$allocator@PAVAfxUserConfig_Observer@@@std@@@2@@std@@@2@$0A@@std@@@std@@@std@@QAEXPAU_Node@?$_Tree_nod@V?$_Tmap_traits@V?$basic_string@DU?$char_traits@D@std@@V?$allocator@D@2@@std@@V?$list@PAVAfxUserConfig_Observer@@V?$allocator@PAVAfxUserConfig_Observer@@@std@@@2@U?$less@V?$basic_string@DU?$char_traits@D@std@@V?$allocator@D@2@@std@@@2@V?$allocator@U?$pair@$$CBV?$basic_string@DU?$char_traits@D@std@@V?$allocator@D@2@@std@@V?$list@PAVAfxUserConfig_Observer@@V?$allocator@PAVAfxUserConfig_Observer@@@std@@@2@@std@@@2@$0A@@std@@@2@I@Z 0043e450 f i AfxUserConfig.obj
 0001:0003d450       ?deallocate@?$allocator@U_Node@?$_Tree_nod@V?$_Tmap_traits@V?$basic_string@DU?$char_traits@D@std@@V?$allocator@D@2@@std@@PAVCConfigObject@@U?$less@V?$basic_string@DU?$char_traits@D@std@@V?$allocator@D@2@@std@@@2@V?$allocator@U?$pair@$$CBV?$basic_string@DU?$char_traits@D@std@@V?$allocator@D@2@@std@@PAVCConfigObject@@@std@@@2@$0A@@std@@@std@@@std@@QAEXPAU_Node@?$_Tree_nod@V?$_Tmap_traits@V?$basic_string@DU?$char_traits@D@std@@V?$allocator@D@2@@std@@PAVCConfigObject@@U?$less@V?$basic_string@DU?$char_traits@D@std@@V?$allocator@D@2@@std@@@2@V?$allocator@U?$pair@$$CBV?$basic_string@DU?$char_traits@D@std@@V?$allocator@D@2@@std@@PAVCConfigObject@@@std@@@2@$0A@@std@@@2@I@Z 0043e450 f i AfxUserConfig.obj
 0001:0003d450       ?deallocate@?$allocator@UTFrame@CPictureEx@@@std@@QAEXPAUTFrame@CPictureEx@@I@Z 0043e450 f i PictureEx.obj
 0001:0003d470       ?destroy@?$allocator@PAU_Node@?$_List_nod@PAUMESSAGE_OBSERVER@@V?$allocator@PAUMESSAGE_OBSERVER@@@std@@@std@@@std@@QAEXPAPAU_Node@?$_List_nod@PAUMESSAGE_OBSERVER@@V?$allocator@PAUMESSAGE_OBSERVER@@@std@@@2@@Z 0043e470 f i CMessageManager.obj
 0001:0003d470       ?destroy@?$allocator@PAU_Node@?$_List_nod@PAVIMessageObserver@@V?$allocator@PAVIMessageObserver@@@std@@@std@@@std@@QAEXPAPAU_Node@?$_List_nod@PAVIMessageObserver@@V?$allocator@PAVIMessageObserver@@@std@@@2@@Z 0043e470 f i PlayBoxDlg.obj
 0001:0003d470       ?destroy@?$allocator@PAU_Node@?$_Tree_nod@V?$_Tmap_traits@V?$CStringT@DV?$StrTraitMFC_DLL@DV?$ChTraitsCRT@D@ATL@@@@@ATL@@PAVCDibBitmap@@U?$less@V?$CStringT@DV?$StrTraitMFC_DLL@DV?$ChTraitsCRT@D@ATL@@@@@ATL@@@std@@V?$allocator@U?$pair@$$CBV?$CStringT@DV?$StrTraitMFC_DLL@DV?$ChTraitsCRT@D@ATL@@@@@ATL@@PAVCDibBitmap@@@std@@@5@$0A@@std@@@std@@@std@@QAEXPAPAU_Node@?$_Tree_nod@V?$_Tmap_traits@V?$CStringT@DV?$StrTraitMFC_DLL@DV?$ChTraitsCRT@D@ATL@@@@@ATL@@PAVCDibBitmap@@U?$less@V?$CStringT@DV?$StrTraitMFC_DLL@DV?$ChTraitsCRT@D@ATL@@@@@ATL@@@std@@V?$allocator@U?$pair@$$CBV?$CStringT@DV?$StrTraitMFC_DLL@DV?$ChTraitsCRT@D@ATL@@@@@ATL@@PAVCDibBitmap@@@std@@@5@$0A@@std@@@2@@Z 0043e470 f i SkinMgr.obj
 0001:0003d470       ?destroy@?$allocator@U_Node@?$_Tree_nod@V?$_Tmap_traits@PAUHWND__@@UWndMoveData@@U?$less@PAUHWND__@@@std@@V?$allocator@U?$pair@QAUHWND__@@UWndMoveData@@@std@@@4@$0A@@std@@@std@@@std@@QAEXPAU_Node@?$_Tree_nod@V?$_Tmap_traits@PAUHWND__@@UWndMoveData@@U?$less@PAUHWND__@@@std@@V?$allocator@U?$pair@QAUHWND__@@UWndMoveData@@@std@@@4@$0A@@std@@@2@@Z 0043e470 f i WindowsMover.obj
 0001:0003d470       ?destroy@?$allocator@PAU_Node@?$_Tree_nod@V?$_Tmap_traits@HUMYLIST_COLUMN_INFO@@U?$less@H@std@@V?$allocator@U?$pair@$$CBHUMYLIST_COLUMN_INFO@@@std@@@3@$0A@@std@@@std@@@std@@QAEXPAPAU_Node@?$_Tree_nod@V?$_Tmap_traits@HUMYLIST_COLUMN_INFO@@U?$less@H@std@@V?$allocator@U?$pair@$$CBHUMYLIST_COLUMN_INFO@@@std@@@3@$0A@@std@@@2@@Z 0043e470 f i MyListCtrl.obj
 0001:0003d470       ?destroy@?$allocator@PAU_Node@?$_Tree_nod@V?$_Tmap_traits@V?$CStringT@DV?$StrTraitMFC_DLL@DV?$ChTraitsCRT@D@ATL@@@@@ATL@@PAVCSkinButton@@U?$less@V?$CStringT@DV?$StrTraitMFC_DLL@DV?$ChTraitsCRT@D@ATL@@@@@ATL@@@std@@V?$allocator@U?$pair@$$CBV?$CStringT@DV?$StrTraitMFC_DLL@DV?$ChTraitsCRT@D@ATL@@@@@ATL@@PAVCSkinButton@@@std@@@5@$0A@@std@@@std@@@std@@QAEXPAPAU_Node@?$_Tree_nod@V?$_Tmap_traits@V?$CStringT@DV?$StrTraitMFC_DLL@DV?$ChTraitsCRT@D@ATL@@@@@ATL@@PAVCSkinButton@@U?$less@V?$CStringT@DV?$StrTraitMFC_DLL@DV?$ChTraitsCRT@D@ATL@@@@@ATL@@@std@@V?$allocator@U?$pair@$$CBV?$CStringT@DV?$StrTraitMFC_DLL@DV?$ChTraitsCRT@D@ATL@@@@@ATL@@PAVCSkinButton@@@std@@@5@$0A@@std@@@2@@Z 0043e470 f i SkinWnd.obj
 0001:0003d470       ?destroy@?$allocator@PAU_Node@?$_Tree_nod@V?$_Tmap_traits@PAUHWND__@@UCWndData@@U?$less@PAUHWND__@@@std@@V?$allocator@U?$pair@QAUHWND__@@UCWndData@@@std@@@4@$0A@@std@@@std@@@std@@QAEXPAPAU_Node@?$_Tree_nod@V?$_Tmap_traits@PAUHWND__@@UCWndData@@U?$less@PAUHWND__@@@std@@V?$allocator@U?$pair@QAUHWND__@@UCWndData@@@std@@@4@$0A@@std@@@2@@Z 0043e470 f i HostWndMgr.obj
 0001:0003d470       ?destroy@?$allocator@PAU_Node@?$_Tree_nod@V?$_Tmap_traits@HPAVBaseDialog@@U?$less@H@std@@V?$allocator@U?$pair@$$CBHPAVBaseDialog@@@std@@@3@$0A@@std@@@std@@@std@@QAEXPAPAU_Node@?$_Tree_nod@V?$_Tmap_traits@HPAVBaseDialog@@U?$less@H@std@@V?$allocator@U?$pair@$$CBHPAVBaseDialog@@@std@@@3@$0A@@std@@@2@@Z 0043e470 f i DlgConfig.obj
 0001:0003d470       ?destroy@?$allocator@PAU_Node@?$_Tree_nod@V?$_Tmap_traits@V?$basic_string@DU?$char_traits@D@std@@V?$allocator@D@2@@std@@V12@U?$less@V?$basic_string@DU?$char_traits@D@std@@V?$allocator@D@2@@std@@@2@V?$allocator@U?$pair@$$CBV?$basic_string@DU?$char_traits@D@std@@V?$allocator@D@2@@std@@V12@@std@@@2@$0A@@std@@@std@@@std@@QAEXPAPAU_Node@?$_Tree_nod@V?$_Tmap_traits@V?$basic_string@DU?$char_traits@D@std@@V?$allocator@D@2@@std@@V12@U?$less@V?$basic_string@DU?$char_traits@D@std@@V?$allocator@D@2@@std@@@2@V?$allocator@U?$pair@$$CBV?$basic_string@DU?$char_traits@D@std@@V?$allocator@D@2@@std@@V12@@std@@@2@$0A@@std@@@2@@Z 0043e470 f i AfxUserConfig.obj
 0001:0003d470       ?destroy@?$allocator@U_Node@?$_Tree_nod@V?$_Tmap_traits@PAUHWND__@@UCWndData@@U?$less@PAUHWND__@@@std@@V?$allocator@U?$pair@QAUHWND__@@UCWndData@@@std@@@4@$0A@@std@@@std@@@std@@QAEXPAU_Node@?$_Tree_nod@V?$_Tmap_traits@PAUHWND__@@UCWndData@@U?$less@PAUHWND__@@@std@@V?$allocator@U?$pair@QAUHWND__@@UCWndData@@@std@@@4@$0A@@std@@@2@@Z 0043e470 f i HostWndMgr.obj
 0001:0003d470       ?destroy@?$allocator@PAU_Node@?$_Tree_nod@V?$_Tmap_traits@V?$CStringT@DV?$StrTraitMFC_DLL@DV?$ChTraitsCRT@D@ATL@@@@@ATL@@KU?$less@V?$CStringT@DV?$StrTraitMFC_DLL@DV?$ChTraitsCRT@D@ATL@@@@@ATL@@@std@@V?$allocator@U?$pair@$$CBV?$CStringT@DV?$StrTraitMFC_DLL@DV?$ChTraitsCRT@D@ATL@@@@@ATL@@K@std@@@4@$0A@@std@@@std@@@std@@QAEXPAPAU_Node@?$_Tree_nod@V?$_Tmap_traits@V?$CStringT@DV?$StrTraitMFC_DLL@DV?$ChTraitsCRT@D@ATL@@@@@ATL@@KU?$less@V?$CStringT@DV?$StrTraitMFC_DLL@DV?$ChTraitsCRT@D@ATL@@@@@ATL@@@std@@V?$allocator@U?$pair@$$CBV?$CStringT@DV?$StrTraitMFC_DLL@DV?$ChTraitsCRT@D@ATL@@@@@ATL@@K@std@@@4@$0A@@std@@@2@@Z 0043e470 f i SkinMgr.obj
 0001:0003d470       ?destroy@?$allocator@PAU_Node@?$_Tree_nod@V?$_Tmap_traits@V?$basic_string@DU?$char_traits@D@std@@V?$allocator@D@2@@std@@_NU?$less@V?$basic_string@DU?$char_traits@D@std@@V?$allocator@D@2@@std@@@2@V?$allocator@U?$pair@$$CBV?$basic_string@DU?$char_traits@D@std@@V?$allocator@D@2@@std@@_N@std@@@2@$0A@@std@@@std@@@std@@QAEXPAPAU_Node@?$_Tree_nod@V?$_Tmap_traits@V?$basic_string@DU?$char_traits@D@std@@V?$allocator@D@2@@std@@_NU?$less@V?$basic_string@DU?$char_traits@D@std@@V?$allocator@D@2@@std@@@2@V?$allocator@U?$pair@$$CBV?$basic_string@DU?$char_traits@D@std@@V?$allocator@D@2@@std@@_N@std@@@2@$0A@@std@@@2@@Z 0043e470 f i AfxUserConfig.obj
 0001:0003d470       ?destroy@?$allocator@VCRect@@@std@@QAEXPAVCRect@@@Z 0043e470 f i TabBarWnd.obj
 0001:0003d470       ?destroy@?$allocator@U_Node@?$_Tree_nod@V?$_Tmap_traits@KPAVIData@@U?$less@K@std@@V?$allocator@U?$pair@$$CBKPAVIData@@@std@@@3@$0A@@std@@@std@@@std@@QAEXPAU_Node@?$_Tree_nod@V?$_Tmap_traits@KPAVIData@@U?$less@K@std@@V?$allocator@U?$pair@$$CBKPAVIData@@@std@@@3@$0A@@std@@@2@@Z 0043e470 f i CDataManager.obj
 0001:0003d470       ?destroy@?$allocator@PAU_Node@?$_Tree_nod@V?$_Tmap_traits@V?$basic_string@DU?$char_traits@D@std@@V?$allocator@D@2@@std@@V?$list@PAVAfxUserConfig_Observer@@V?$allocator@PAVAfxUserConfig_Observer@@@std@@@2@U?$less@V?$basic_string@DU?$char_traits@D@std@@V?$allocator@D@2@@std@@@2@V?$allocator@U?$pair@$$CBV?$basic_string@DU?$char_traits@D@std@@V?$allocator@D@2@@std@@V?$list@PAVAfxUserConfig_Observer@@V?$allocator@PAVAfxUserConfig_Observer@@@std@@@2@@std@@@2@$0A@@std@@@std@@@std@@QAEXPAPAU_Node@?$_Tree_nod@V?$_Tmap_traits@V?$basic_string@DU?$char_traits@D@std@@V?$allocator@D@2@@std@@V?$list@PAVAfxUserConfig_Observer@@V?$allocator@PAVAfxUserConfig_Observer@@@std@@@2@U?$less@V?$basic_string@DU?$char_traits@D@std@@V?$allocator@D@2@@std@@@2@V?$allocator@U?$pair@$$CBV?$basic_string@DU?$char_traits@D@std@@V?$allocator@D@2@@std@@V?$list@PAVAfxUserConfig_Observer@@V?$allocator@PAVAfxUserConfig_Observer@@@std@@@2@@std@@@2@$0A@@std@@@2@@Z 0043e470 f i AfxUserConfig.obj
 0001:0003d470       ?destroy@?$allocator@PAU_Node@?$_List_nod@PAVCSkinButton@@V?$allocator@PAVCSkinButton@@@std@@@std@@@std@@QAEXPAPAU_Node@?$_List_nod@PAVCSkinButton@@V?$allocator@PAVCSkinButton@@@std@@@2@@Z 0043e470 f i SkinWnd.obj
 0001:0003d470       ?destroy@?$allocator@PAVCPoint@@@std@@QAEXPAPAVCPoint@@@Z 0043e470 f i LocalMusicCoverList.obj
 0001:0003d470       ?destroy@?$allocator@H@std@@QAEXPAH@Z 0043e470 f i LocalMusicCoverList.obj
 0001:0003d470       ?destroy@?$allocator@U_Node@?$_List_nod@PAVIMessageObserver@@V?$allocator@PAVIMessageObserver@@@std@@@std@@@std@@QAEXPAU_Node@?$_List_nod@PAVIMessageObserver@@V?$allocator@PAVIMessageObserver@@@std@@@2@@Z 0043e470 f i PlayBoxDlg.obj
 0001:0003d470       ?destroy@?$allocator@VCPoint@@@std@@QAEXPAVCPoint@@@Z 0043e470 f i LocalMusicCoverList.obj
 0001:0003d470       ?destroy@?$allocator@PAU_Node@?$_Tree_nod@V?$_Tmap_traits@V?$basic_string@DU?$char_traits@D@std@@V?$allocator@D@2@@std@@PAVCConfigObject@@U?$less@V?$basic_string@DU?$char_traits@D@std@@V?$allocator@D@2@@std@@@2@V?$allocator@U?$pair@$$CBV?$basic_string@DU?$char_traits@D@std@@V?$allocator@D@2@@std@@PAVCConfigObject@@@std@@@2@$0A@@std@@@std@@@std@@QAEXPAPAU_Node@?$_Tree_nod@V?$_Tmap_traits@V?$basic_string@DU?$char_traits@D@std@@V?$allocator@D@2@@std@@PAVCConfigObject@@U?$less@V?$basic_string@DU?$char_traits@D@std@@V?$allocator@D@2@@std@@@2@V?$allocator@U?$pair@$$CBV?$basic_string@DU?$char_traits@D@std@@V?$allocator@D@2@@std@@PAVCConfigObject@@@std@@@2@$0A@@std@@@2@@Z 0043e470 f i AfxUserConfig.obj
 0001:0003d470       ?destroy@?$allocator@PAU_Node@?$_Tree_nod@V?$_Tmap_traits@KV?$list@PAUMESSAGE_OBSERVER@@V?$allocator@PAUMESSAGE_OBSERVER@@@std@@@std@@U?$less@K@2@V?$allocator@U?$pair@$$CBKV?$list@PAUMESSAGE_OBSERVER@@V?$allocator@PAUMESSAGE_OBSERVER@@@std@@@std@@@std@@@2@$0A@@std@@@std@@@std@@QAEXPAPAU_Node@?$_Tree_nod@V?$_Tmap_traits@KV?$list@PAUMESSAGE_OBSERVER@@V?$allocator@PAUMESSAGE_OBSERVER@@@std@@@std@@U?$less@K@2@V?$allocator@U?$pair@$$CBKV?$list@PAUMESSAGE_OBSERVER@@V?$allocator@PAUMESSAGE_OBSERVER@@@std@@@std@@@std@@@2@$0A@@std@@@2@@Z 0043e470 f i CMessageManager.obj
 0001:0003d470       ?destroy@?$allocator@PAU_Node@?$_List_nod@PAVAfxUserConfig_Observer@@V?$allocator@PAVAfxUserConfig_Observer@@@std@@@std@@@std@@QAEXPAPAU_Node@?$_List_nod@PAVAfxUserConfig_Observer@@V?$allocator@PAVAfxUserConfig_Observer@@@std@@@2@@Z 0043e470 f i AfxUserConfig.obj
 0001:0003d470       ?destroy@?$allocator@U_Node@?$_List_nod@PAVAfxUserConfig_Observer@@V?$allocator@PAVAfxUserConfig_Observer@@@std@@@std@@@std@@QAEXPAU_Node@?$_List_nod@PAVAfxUserConfig_Observer@@V?$allocator@PAVAfxUserConfig_Observer@@@std@@@2@@Z 0043e470 f i AfxUserConfig.obj
 0001:0003d470       ?destroy@?$allocator@PAU_Node@?$_Tree_nod@V?$_Tmap_traits@V?$basic_string@DU?$char_traits@D@std@@V?$allocator@D@2@@std@@HU?$less@V?$basic_string@DU?$char_traits@D@std@@V?$allocator@D@2@@std@@@2@V?$allocator@U?$pair@$$CBV?$basic_string@DU?$char_traits@D@std@@V?$allocator@D@2@@std@@H@std@@@2@$0A@@std@@@std@@@std@@QAEXPAPAU_Node@?$_Tree_nod@V?$_Tmap_traits@V?$basic_string@DU?$char_traits@D@std@@V?$allocator@D@2@@std@@HU?$less@V?$basic_string@DU?$char_traits@D@std@@V?$allocator@D@2@@std@@@2@V?$allocator@U?$pair@$$CBV?$basic_string@DU?$char_traits@D@std@@V?$allocator@D@2@@std@@H@std@@@2@$0A@@std@@@2@@Z 0043e470 f i MyTreeCtrl.obj
 0001:0003d470       ?destroy@?$allocator@U_Node@?$_List_nod@PAVCSkinButton@@V?$allocator@PAVCSkinButton@@@std@@@std@@@std@@QAEXPAU_Node@?$_List_nod@PAVCSkinButton@@V?$allocator@PAVCSkinButton@@@std@@@2@@Z 0043e470 f i SkinWnd.obj
 0001:0003d470       ?destroy@?$allocator@U_Node@?$_List_nod@PAVCSubLabel@@V?$allocator@PAVCSubLabel@@@std@@@std@@@std@@QAEXPAU_Node@?$_List_nod@PAVCSubLabel@@V?$allocator@PAVCSubLabel@@@std@@@2@@Z 0043e470 f i SubjectChildWnd.obj
 0001:0003d470       ?destroy@?$allocator@U_Node@?$_List_nod@PAUMESSAGE_OBSERVER@@V?$allocator@PAUMESSAGE_OBSERVER@@@std@@@std@@@std@@QAEXPAU_Node@?$_List_nod@PAUMESSAGE_OBSERVER@@V?$allocator@PAUMESSAGE_OBSERVER@@@std@@@2@@Z 0043e470 f i CMessageManager.obj
 0001:0003d470       ?destroy@?$allocator@PAU_Node@?$_Tree_nod@V?$_Tmap_traits@V?$basic_string@DU?$char_traits@D@std@@V?$allocator@D@2@@std@@PAVYL_CHTTPDownFile@@U?$less@V?$basic_string@DU?$char_traits@D@std@@V?$allocator@D@2@@std@@@2@V?$allocator@U?$pair@$$CBV?$basic_string@DU?$char_traits@D@std@@V?$allocator@D@2@@std@@PAVYL_CHTTPDownFile@@@std@@@2@$0A@@std@@@std@@@std@@QAEXPAPAU_Node@?$_Tree_nod@V?$_Tmap_traits@V?$basic_string@DU?$char_traits@D@std@@V?$allocator@D@2@@std@@PAVYL_CHTTPDownFile@@U?$less@V?$basic_string@DU?$char_traits@D@std@@V?$allocator@D@2@@std@@@2@V?$allocator@U?$pair@$$CBV?$basic_string@DU?$char_traits@D@std@@V?$allocator@D@2@@std@@PAVYL_CHTTPDownFile@@@std@@@2@$0A@@std@@@2@@Z 0043e470 f i HttpDownCtrl.obj
 0001:0003d470       ?destroy@?$allocator@PAU_Node@?$_Tree_nod@V?$_Tmap_traits@KPAVIData@@U?$less@K@std@@V?$allocator@U?$pair@$$CBKPAVIData@@@std@@@3@$0A@@std@@@std@@@std@@QAEXPAPAU_Node@?$_Tree_nod@V?$_Tmap_traits@KPAVIData@@U?$less@K@std@@V?$allocator@U?$pair@$$CBKPAVIData@@@std@@@3@$0A@@std@@@2@@Z 0043e470 f i CDataManager.obj
 0001:0003d470       ?destroy@?$allocator@PAU_Node@?$_Tree_nod@V?$_Tmap_traits@PAUHWND__@@UWndMoveData@@U?$less@PAUHWND__@@@std@@V?$allocator@U?$pair@QAUHWND__@@UWndMoveData@@@std@@@4@$0A@@std@@@std@@@std@@QAEXPAPAU_Node@?$_Tree_nod@V?$_Tmap_traits@PAUHWND__@@UWndMoveData@@U?$less@PAUHWND__@@@std@@V?$allocator@U?$pair@QAUHWND__@@UWndMoveData@@@std@@@4@$0A@@std@@@2@@Z 0043e470 f i WindowsMover.obj
 0001:0003d470       ?destroy@?$allocator@PAU_Node@?$_List_nod@PAVCSubLabel@@V?$allocator@PAVCSubLabel@@@std@@@std@@@std@@QAEXPAPAU_Node@?$_List_nod@PAVCSubLabel@@V?$allocator@PAVCSubLabel@@@std@@@2@@Z 0043e470 f i SubjectChildWnd.obj
 0001:0003d470       ?destroy@?$allocator@U_Node@?$_Tree_nod@V?$_Tmap_traits@HPAVBaseDialog@@U?$less@H@std@@V?$allocator@U?$pair@$$CBHPAVBaseDialog@@@std@@@3@$0A@@std@@@std@@@std@@QAEXPAU_Node@?$_Tree_nod@V?$_Tmap_traits@HPAVBaseDialog@@U?$less@H@std@@V?$allocator@U?$pair@$$CBHPAVBaseDialog@@@std@@@3@$0A@@std@@@2@@Z 0043e470 f i DlgConfig.obj
 0001:0003d470       ?destroy@?$allocator@UTFrame@CPictureEx@@@std@@QAEXPAUTFrame@CPictureEx@@@Z 0043e470 f i PictureEx.obj
 0001:0003d490       ??Fiterator@?$_Tree@V?$_Tmap_traits@V?$basic_string@DU?$char_traits@D@std@@V?$allocator@D@2@@std@@HU?$less@V?$basic_string@DU?$char_traits@D@std@@V?$allocator@D@2@@std@@@2@V?$allocator@U?$pair@$$CBV?$basic_string@DU?$char_traits@D@std@@V?$allocator@D@2@@std@@H@std@@@2@$0A@@std@@@std@@QAEAAV012@XZ 0043e490 f i MyTreeCtrl.obj
 0001:0003d490       ??Fiterator@?$_Tree@V?$_Tmap_traits@V?$basic_string@DU?$char_traits@D@std@@V?$allocator@D@2@@std@@_NU?$less@V?$basic_string@DU?$char_traits@D@std@@V?$allocator@D@2@@std@@@2@V?$allocator@U?$pair@$$CBV?$basic_string@DU?$char_traits@D@std@@V?$allocator@D@2@@std@@_N@std@@@2@$0A@@std@@@std@@QAEAAV012@XZ 0043e490 f i AfxUserConfig.obj
 0001:0003d490       ??Fiterator@?$_Tree@V?$_Tmap_traits@V?$basic_string@DU?$char_traits@D@std@@V?$allocator@D@2@@std@@PAVCConfigObject@@U?$less@V?$basic_string@DU?$char_traits@D@std@@V?$allocator@D@2@@std@@@2@V?$allocator@U?$pair@$$CBV?$basic_string@DU?$char_traits@D@std@@V?$allocator@D@2@@std@@PAVCConfigObject@@@std@@@2@$0A@@std@@@std@@QAEAAV012@XZ 0043e490 f i AfxUserConfig.obj
 0001:0003d490       ??Fiterator@?$_Tree@V?$_Tmap_traits@PAUHWND__@@UWndMoveData@@U?$less@PAUHWND__@@@std@@V?$allocator@U?$pair@QAUHWND__@@UWndMoveData@@@std@@@4@$0A@@std@@@std@@QAEAAV012@XZ 0043e490 f i WindowsMover.obj
 0001:0003d490       ??Fiterator@?$_Tree@V?$_Tmap_traits@V?$basic_string@DU?$char_traits@D@std@@V?$allocator@D@2@@std@@PAVYL_CHTTPDownFile@@U?$less@V?$basic_string@DU?$char_traits@D@std@@V?$allocator@D@2@@std@@@2@V?$allocator@U?$pair@$$CBV?$basic_string@DU?$char_traits@D@std@@V?$allocator@D@2@@std@@PAVYL_CHTTPDownFile@@@std@@@2@$0A@@std@@@std@@QAEAAV012@XZ 0043e490 f i HttpDownCtrl.obj
 0001:0003d4b0       ?erase@?$_Tree@V?$_Tmap_traits@PAUHWND__@@UWndMoveData@@U?$less@PAUHWND__@@@std@@V?$allocator@U?$pair@QAUHWND__@@UWndMoveData@@@std@@@4@$0A@@std@@@std@@QAE?AViterator@12@V312@@Z 0043e4b0 f i WindowsMover.obj
 0001:0003dc60       ?_Buynode@?$_Tree@V?$_Tmap_traits@PAUHWND__@@UWndMoveData@@U?$less@PAUHWND__@@@std@@V?$allocator@U?$pair@QAUHWND__@@UWndMoveData@@@std@@@4@$0A@@std@@@std@@IAEPAU_Node@?$_Tree_nod@V?$_Tmap_traits@PAUHWND__@@UWndMoveData@@U?$less@PAUHWND__@@@std@@V?$allocator@U?$pair@QAUHWND__@@UWndMoveData@@@std@@@4@$0A@@std@@@2@XZ 0043ec60 f i WindowsMover.obj
 0001:0003ddd0       ?_Buynode@?$_Tree@V?$_Tmap_traits@PAUHWND__@@UWndMoveData@@U?$less@PAUHWND__@@@std@@V?$allocator@U?$pair@QAUHWND__@@UWndMoveData@@@std@@@4@$0A@@std@@@std@@IAEPAU_Node@?$_Tree_nod@V?$_Tmap_traits@PAUHWND__@@UWndMoveData@@U?$less@PAUHWND__@@@std@@V?$allocator@U?$pair@QAUHWND__@@UWndMoveData@@@std@@@4@$0A@@std@@@2@PAU342@00ABU?$pair@QAUHWND__@@UWndMoveData@@@2@D@Z 0043edd0 f i WindowsMover.obj
 0001:0003dea0       ??0_Node@?$_Tree_nod@V?$_Tmap_traits@PAUHWND__@@UWndMoveData@@U?$less@PAUHWND__@@@std@@V?$allocator@U?$pair@QAUHWND__@@UWndMoveData@@@std@@@4@$0A@@std@@@std@@QAE@PAU012@00ABU?$pair@QAUHWND__@@UWndMoveData@@@2@D@Z 0043eea0 f i WindowsMover.obj
 0001:0003def0       ??8CPoint@@QBEHUtagPOINT@@@Z 0043eef0 f i WindowsMover.obj
 0001:0003df30       ?RectInRegion@CRgn@@QBEHPBUtagRECT@@@Z 0043ef30 f i WindowsMover.obj
 0001:0003df50       ?abs@@YAJJ@Z               0043ef50 f i WindowsMover.obj
 0001:0003df70       ??0CBitMapOperate@@QAE@XZ  0043ef70 f   BitMapOperate.obj
 0001:0003dfa0       ??1CBitMapOperate@@UAE@XZ  0043efa0 f   BitMapOperate.obj
 0001:0003dfc0       ?SetHBS@CBitMapOperate@@QAEXKAAM00@Z 0043efc0 f   BitMapOperate.obj
 0001:0003e1e0       ?SetRGB@CBitMapOperate@@QAEXAAKMMM@Z 0043f1e0 f   BitMapOperate.obj
 0001:0003e320       ?ChangeBmpSkin@CBitMapOperate@@QAEPAUHBITMAP__@@AAPAU2@AAIAAK21@Z 0043f320 f   BitMapOperate.obj
 0001:0003e750       ?ChangeBmpSkin@CBitMapOperate@@QAEPAVDIBINFO@@AAV2@AAIAAK21@Z 0043f750 f   BitMapOperate.obj
 0001:0003ec20       ?changeColor@CBitMapOperate@@QAEXAAKKI@Z 0043fc20 f   BitMapOperate.obj
 0001:0003edd0       ?CreateRgnFromBitmap@CBitMapOperate@@QAEPAUHRGN__@@PAUHBITMAP__@@KPAVCWnd@@@Z 0043fdd0 f   BitMapOperate.obj
 0001:0003f160       ?FillRectangle@CBitMapOperate@@UAEXPAUHDC__@@UtagRECT@@KKW4ENUM_DrawOrientation@1@HI@Z 00440160 f   BitMapOperate.obj
 0001:0003f530       ?FillRectangleHue@CBitMapOperate@@UAEXPAUHDC__@@UtagRECT@@KKW4ENUM_DrawOrientation@1@HI@Z 00440530 f   BitMapOperate.obj
 0001:0003f960       ?FillRectangleS@CBitMapOperate@@QAEXPAUHDC__@@UtagRECT@@KKIW4ENUM_DrawOrientation@1@HI@Z 00440960 f   BitMapOperate.obj
 0001:0003fe00       ?FillRectangleLight@CBitMapOperate@@UAEXPAUHDC__@@UtagRECT@@KKIW4ENUM_DrawOrientation@1@HI@Z 00440e00 f   BitMapOperate.obj
 0001:000402a0       ?FillRectangle@CBitMapOperate@@UAEXPAUHDC__@@UtagRECT@@KH@Z 004412a0 f   BitMapOperate.obj
 0001:00040350       ?DrawLine@CBitMapOperate@@UAEXPAUHDC__@@KMHHHHH@Z 00441350 f   BitMapOperate.obj
 0001:00040410       ?DrawArrow@CBitMapOperate@@UAEXPAUHDC__@@KHHHHHHH@Z 00441410 f   BitMapOperate.obj
 0001:00040520       ?BeforeChangeColor@CBitMapOperate@@QAEXXZ 00441520 f   BitMapOperate.obj
 0001:00040550       ?BrightColor@CBitMapOperate@@QAEKKM@Z 00441550 f   BitMapOperate.obj
 0001:000405c0       ?DrawTextA@CBitMapOperate@@UAEXPAVCDC@@V?$CStringT@DV?$StrTraitMFC_DLL@DV?$ChTraitsCRT@D@ATL@@@@@ATL@@KAAUtagRECT@@I_NIIIV?$basic_string@DU?$char_traits@D@std@@V?$allocator@D@2@@std@@@Z 004415c0 f   BitMapOperate.obj
 0001:000407c0       ?AfterChangeColor@CBitMapOperate@@QAEXXZ 004417c0 f   BitMapOperate.obj
 0001:000407d0       ??0DIBINFO@@QAE@XZ         004417d0 f i BitMapOperate.obj
 0001:00040800       ??_ECBitMapOperate@@UAEPAXI@Z 00441800 f i BitMapOperate.obj
 0001:00040800       ??_GCBitMapOperate@@UAEPAXI@Z 00441800 f i BitMapOperate.obj
 0001:00040830       ?HuetoRGB@CBitMapOperate@@QAEMMMM@Z 00441830 f i BitMapOperate.obj
 0001:000408f0       ?RGBtoHSL@CGdiEx@@QAEXKPAN00@Z 004418f0 f i GdiEx.obj
 0001:000408f0       ?RGBtoHSL@CBitMapOperate@@QAEXKPAN00@Z 004418f0 f i BitMapOperate.obj
 0001:00040b00       ?HLStoRGB@CBitMapOperate@@QAEKABN00@Z 00441b00 f i BitMapOperate.obj
 0001:00040b60       ?HLStoRGB@CBitMapOperate@@QAEXABM00PAE11@Z 00441b60 f i BitMapOperate.obj
 0001:00040ca0       ?RGBtoHSL@CBitMapOperate@@QAEXMMMPAM00@Z 00441ca0 f i BitMapOperate.obj
 0001:00040e90       ??0CMemoryException@@QAE@XZ 00441e90 f i BitMapOperate.obj
 0001:00040eb0       ??0CSimpleException@@QAE@XZ 00441eb0 f i BitMapOperate.obj
 0001:00040ee0       ??_ECMemoryException@@UAEPAXI@Z 00441ee0 f i BitMapOperate.obj
 0001:00040ee0       ??_GCMemoryException@@UAEPAXI@Z 00441ee0 f i BitMapOperate.obj
 0001:00040f10       ??1CMemoryException@@UAE@XZ 00441f10 f i BitMapOperate.obj
 0001:00040f30       ??1CSimpleException@@UAE@XZ 00441f30 f i BitMapOperate.obj
 0001:00040f30       ??1CCustomOccManager@@UAE@XZ 00441f30 f i MyWebBrowserWnd.obj
 0001:00040f50       ??1CException@@UAE@XZ      00441f50 f i BitMapOperate.obj
 0001:00040f50       ??1COccManager@@UAE@XZ     00441f50 f i MyWebBrowserWnd.obj
 0001:00040f70       ??0CPen@@QAE@XZ            00441f70 f i BitMapOperate.obj
 0001:00040f90       ??_GCPen@@UAEPAXI@Z        00441f90 f i BitMapOperate.obj
 0001:00040f90       ??_ECPen@@UAEPAXI@Z        00441f90 f i BitMapOperate.obj
 0001:00040fc0       ??1CPen@@UAE@XZ            00441fc0 f i BitMapOperate.obj
 0001:00040fe0       ?CreatePen@CPen@@QAEHHHK@Z 00441fe0 f i BitMapOperate.obj
 0001:00041010       ??0CBrush@@QAE@XZ          00442010 f i BitMapOperate.obj
 0001:00041030       ?CreateSolidBrush@CBrush@@QAEHK@Z 00442030 f i BitMapOperate.obj
 0001:00041050       ??0CFont@@QAE@XZ           00442050 f i BitMapOperate.obj
 0001:00041070       ??_ECFont@@UAEPAXI@Z       00442070 f i BitMapOperate.obj
 0001:00041070       ??_GCFont@@UAEPAXI@Z       00442070 f i BitMapOperate.obj
 0001:000410a0       ??1CFont@@UAE@XZ           004420a0 f i BitMapOperate.obj
 0001:000410c0       ?CreateFontIndirectA@CFont@@QAEHPBUtagLOGFONTA@@@Z 004420c0 f i BitMapOperate.obj
 0001:000410e0       ?SelectObject@CDC@@QAEPAXPAX@Z 004420e0 f i BitMapOperate.obj
 0001:00041120       ?GetTextColor@CDC@@QBEKXZ  00442120 f i BitMapOperate.obj
 0001:00041140       ?Polygon@CDC@@QAEHPAUtagPOINT@@H@Z 00442140 f i BitMapOperate.obj
 0001:00041170       ?GetPixel@CDC@@QBEKHH@Z    00442170 f i BitMapOperate.obj
 0001:000411a0       ??0CColorSlide@@QAE@XZ     004421a0 f   ColorSlide.obj
 0001:00041240       ??1CColorSlide@@UAE@XZ     00442240 f   ColorSlide.obj
 0001:00041260       ?GetThisMessageMap@CColorSlide@@KGPBUAFX_MSGMAP@@XZ 00442260 f   ColorSlide.obj
 0001:00041270       ?GetMessageMap@CColorSlide@@MBEPBUAFX_MSGMAP@@XZ 00442270 f   ColorSlide.obj
 0001:00041280       ?OnEraseBkgnd@CColorSlide@@IAEHPAVCDC@@@Z 00442280 f   ColorSlide.obj
 0001:000412a0       ?PreSubclassWindow@CColorSlide@@MAEXXZ 004422a0 f   ColorSlide.obj
 0001:000412d0       ?SelfProc@CColorSlide@@KGJPAUHWND__@@IIJ@Z 004422d0 f   ColorSlide.obj
 0001:00041450       ?OnLButtonDown@CColorSlide@@IAEXIVCPoint@@@Z 00442450 f   ColorSlide.obj
 0001:000415a0       ?OnLButtonUp@CColorSlide@@IAEXIVCPoint@@@Z 004425a0 f   ColorSlide.obj
 0001:000416f0       ?OnMouseMove@CColorSlide@@IAEXIVCPoint@@@Z 004426f0 f   ColorSlide.obj
 0001:00041810       ?DynamicStat@CColorSlide@@IAEXW4ENUM_SLIDERSTATE@@@Z 00442810 f   ColorSlide.obj
 0001:00041990       ?DrawSlider@CColorSlide@@IAEXW4ENUM_SLIDERSTATE@@VCRect@@PAUHDC__@@@Z 00442990 f   ColorSlide.obj
 0001:00041a40       ?PaintBK@CColorSlide@@IAEXVCRect@@PAUHDC__@@@Z 00442a40 f   ColorSlide.obj
 0001:00041db0       ?SetButtonPos@CColorSlide@@QAEXH@Z 00442db0 f   ColorSlide.obj
 0001:00041e90       ?GetButtonPos@CColorSlide@@QAEIXZ 00442e90 f   ColorSlide.obj
 0001:00041eb0       ?SetRangeMax@CColorSlide@@QAEXH@Z 00442eb0 f   ColorSlide.obj
 0001:00041ed0       ?GetRangeMax@CColorSlide@@QBEHXZ 00442ed0 f   ColorSlide.obj
 0001:00041ef0       ?SetRangeMin@CColorSlide@@QAEXH@Z 00442ef0 f   ColorSlide.obj
 0001:00041f10       ?GetRangeMin@CColorSlide@@QBEHXZ 00442f10 f   ColorSlide.obj
 0001:00041f30       ?SetRange@CColorSlide@@QAEXHH@Z 00442f30 f   ColorSlide.obj
 0001:00041f60       ?GetRange@CColorSlide@@QBEXAAH0@Z 00442f60 f   ColorSlide.obj
 0001:00041f90       ?SetTicFreq@CColorSlide@@QAEXH@Z 00442f90 f   ColorSlide.obj
 0001:00041fc0       ?SetSliderCtrlType@CColorSlide@@QAEXW4ColorSlideType@@@Z 00442fc0 f   ColorSlide.obj
 0001:00042050       ?PreTranslateMessage@CColorSlide@@UAEHPAUtagMSG@@@Z 00443050 f   ColorSlide.obj
 0001:00042070       ?UpdateToolTips@CColorSlide@@QAEXXZ 00443070 f   ColorSlide.obj
 0001:00042080       ?SetHintText@CColorSlide@@QAEXV?$CStringT@DV?$StrTraitMFC_DLL@DV?$ChTraitsCRT@D@ATL@@@@@ATL@@@Z 00443080 f   ColorSlide.obj
 0001:000420a0       ?SaveSize@CColorSlide@@AAEXXZ 004430a0 f   ColorSlide.obj
 0001:000420f0       ?SetBKColor@CColorSlide@@QAEXKKI@Z 004430f0 f   ColorSlide.obj
 0001:00042120       ?SetBKColor@CColorSlide@@QAEXK@Z 00443120 f   ColorSlide.obj
 0001:00042140       ??_ECColorSlide@@UAEPAXI@Z 00443140 f i ColorSlide.obj
 0001:00042140       ??_GCColorSlide@@UAEPAXI@Z 00443140 f i ColorSlide.obj
 0001:00042170       ?AfxGetMainWnd@@YGPAVCWnd@@XZ 00443170 f i ColorSlide.obj
 0001:000421b0       ?FillRect@CDC@@QAEXPBUtagRECT@@PAVCBrush@@@Z 004431b0 f i ColorSlide.obj
 0001:000421e0       ?FrameRect@CDC@@QAEXPBUtagRECT@@PAVCBrush@@@Z 004431e0 f i ColorSlide.obj
 0001:00042210       ?GetWindowDC@CWnd@@QAEPAVCDC@@XZ 00443210 f i ColorSlide.obj
 0001:00042230       ?WindowFromPoint@CWnd@@SGPAV1@UtagPOINT@@@Z 00443230 f i ColorSlide.obj
 0001:00042250       ??0CSliderCtrl@@QAE@XZ     00443250 f i ColorSlide.obj
 0001:00042270       ??_ECSliderCtrl@@UAEPAXI@Z 00443270 f i ColorSlide.obj
 0001:00042270       ??_GCSliderCtrl@@UAEPAXI@Z 00443270 f i ColorSlide.obj
 0001:000422a0       ?SetPos@CSliderCtrl@@QAEXH@Z 004432a0 f i ColorSlide.obj
 0001:000422d0       ?GetThisClass@CDownloadPercentWnd@@SGPAUCRuntimeClass@@XZ 004432d0 f   DownloadPercentWnd.obj
 0001:000422e0       ?GetRuntimeClass@CDownloadPercentWnd@@UBEPAUCRuntimeClass@@XZ 004432e0 f   DownloadPercentWnd.obj
 0001:000422f0       ??0CDownloadPercentWnd@@QAE@XZ 004432f0 f   DownloadPercentWnd.obj
 0001:00042390       ??1CDownloadPercentWnd@@UAE@XZ 00443390 f   DownloadPercentWnd.obj
 0001:00042410       ?GetThisMessageMap@CDownloadPercentWnd@@KGPBUAFX_MSGMAP@@XZ 00443410 f   DownloadPercentWnd.obj
 0001:00042420       ?GetMessageMap@CDownloadPercentWnd@@MBEPBUAFX_MSGMAP@@XZ 00443420 f   DownloadPercentWnd.obj
 0001:00042430       ?OnCreate@CDownloadPercentWnd@@QAEHPAUtagCREATESTRUCTA@@@Z 00443430 f   DownloadPercentWnd.obj
 0001:00042690       ?SetDownloadHit@CDownloadPercentWnd@@QAEXV?$CStringT@DV?$StrTraitMFC_DLL@DV?$ChTraitsCRT@D@ATL@@@@@ATL@@@Z 00443690 f   DownloadPercentWnd.obj
 0001:000426f0       ?SetDownloadPercent@CDownloadPercentWnd@@QAEXH@Z 004436f0 f   DownloadPercentWnd.obj
 0001:000427a0       ?OnPaint@CDownloadPercentWnd@@QAEXXZ 004437a0 f   DownloadPercentWnd.obj
 0001:00042890       ?OnDownSubStart@CDownloadPercentWnd@@QAEJIJ@Z 00443890 f   DownloadPercentWnd.obj
 0001:00042930       ?OnDownSubClose@CDownloadPercentWnd@@QAEJIJ@Z 00443930 f   DownloadPercentWnd.obj
 0001:00042970       ?OnTimer@CDownloadPercentWnd@@QAEXI@Z 00443970 f   DownloadPercentWnd.obj
 0001:000429d0       ??_GCDownloadPercentWnd@@UAEPAXI@Z 004439d0 f i DownloadPercentWnd.obj
 0001:000429d0       ??_ECDownloadPercentWnd@@UAEPAXI@Z 004439d0 f i DownloadPercentWnd.obj
 0001:00042a00       ?DownSub_Thread@@YGKPAX@Z  00443a00 f   DownSubject.obj
 0001:00042ef0       ?DownWebSub_Thread@@YGKPAX@Z 00443ef0 f   DownSubject.obj
 0001:00042f00       ?ReqDownSub@CDownSub@@SAXABV?$CStringT@DV?$StrTraitMFC_DLL@DV?$ChTraitsCRT@D@ATL@@@@@ATL@@PAUHWND__@@@Z 00443f00 f   DownSubject.obj
 0001:00042fe0       ?ReqDownWebSub@CDownSub@@SAXABV?$CStringT@DV?$StrTraitMFC_DLL@DV?$ChTraitsCRT@D@ATL@@@@@ATL@@0PAUHWND__@@@Z 00443fe0 f   DownSubject.obj
 0001:00043120       ?StopDownWebSubThread@CDownSub@@SAXXZ 00444120 f   DownSubject.obj
 0001:00043180       ?IsDownWebSub@CDownSub@@SA_NXZ 00444180 f   DownSubject.obj
 0001:00043190       ??_GYL_CHTTPDownFile@@QAEPAXI@Z 00444190 f i DownSubject.obj
 0001:000431c0       ??0CSkinMgrV1@@QAE@XZ      004441c0 f   IChangeColorMgr.obj
 0001:00043360       ??1CSkinMgrV1@@UAE@XZ      00444360 f   IChangeColorMgr.obj
 0001:00043520       ?GetObjectA@CSkinMgrV1@@SAPAVIChangeColorMgr@@XZ 00444520 f   IChangeColorMgr.obj
 0001:000435a0       ?OnClose@CSkinMgrV1@@UAEXXZ 004445a0 f   IChangeColorMgr.obj
 0001:000435e0       ?GetSkinWndRect@CSkinMgrV1@@QAEXABUtagPOINT@@AAVCRect@@@Z 004445e0 f   IChangeColorMgr.obj
 0001:00043730       ?PopSkinWnd@CSkinMgrV1@@UAEHPAVCWnd@@IUtagPOINT@@@Z 00444730 f   IChangeColorMgr.obj
 0001:00044210       ?InsertSmallSkin@CSkinMgrV1@@UAE_NV?$basic_string@DU?$char_traits@D@std@@V?$allocator@D@2@@std@@PAVCBitmap@@0_N@Z 00445210 f   IChangeColorMgr.obj
 0001:000443d0       ?InsertSmallSubjectSkin@CSkinMgrV1@@UAE_NV?$basic_string@DU?$char_traits@D@std@@V?$allocator@D@2@@std@@PAVCBitmap@@0_N@Z 004453d0 f   IChangeColorMgr.obj
 0001:00044590       ?SetTipText@CSkinMgrV1@@UAEXV?$CStringT@DV?$StrTraitMFC_DLL@DV?$ChTraitsCRT@D@ATL@@@@@ATL@@0@Z 00445590 f   IChangeColorMgr.obj
 0001:00044630       ?ChangeBmp@CSkinMgrV1@@UAEPAVDIBINFO@@V2@IK@Z 00445630 f   IChangeColorMgr.obj
 0001:000446a0       ?ChangeColor@CSkinMgrV1@@UAEXAAK@Z 004456a0 f   IChangeColorMgr.obj
 0001:000446d0       ?SetListener@CSkinMgrV1@@UAEXPAVIChangeSkinEventListener@@@Z 004456d0 f   IChangeColorMgr.obj
 0001:00044730       ?RemoveListener@CSkinMgrV1@@UAEXPAVIChangeSkinEventListener@@@Z 00445730 f   IChangeColorMgr.obj
 0001:000447b0       ?OnTabSelChange@CSkinMgrV1@@UAEXI@Z 004457b0 f   IChangeColorMgr.obj
 0001:00044a50       ?SetTopMost@CSkinMgrV1@@UAEX_N@Z 00445a50 f   IChangeColorMgr.obj
 0001:00044ac0       ?DeleteObject@CSkinMgrV1@@UAEXXZ 00445ac0 f   IChangeColorMgr.obj
 0001:00044b20       ?OnSendChangeColor@CSkinMgrV1@@UAEXKI_N@Z 00445b20 f   IChangeColorMgr.obj
 0001:00044cd0       ?OnSendChangeSkin@CSkinMgrV1@@UAEXV?$CStringT@DV?$StrTraitMFC_DLL@DV?$ChTraitsCRT@D@ATL@@@@@ATL@@@Z 00445cd0 f   IChangeColorMgr.obj
 0001:000450e0       ?OnChangeSkinAndSub@CSkinMgrV1@@UAEXABV?$CStringT@DV?$StrTraitMFC_DLL@DV?$ChTraitsCRT@D@ATL@@@@@ATL@@0@Z 004460e0 f   IChangeColorMgr.obj
 0001:00045480       ?BeforeChangeColor@CSkinMgrV1@@UAEXXZ 00446480 f   IChangeColorMgr.obj
 0001:000454a0       ?AfterChangeColor@CSkinMgrV1@@UAEXXZ 004464a0 f   IChangeColorMgr.obj
 0001:000454d0       ?DownloadStart@CSkinMgrV1@@UAEXXZ 004464d0 f   IChangeColorMgr.obj
 0001:00045600       ?SetDownloadPercentage@CSkinMgrV1@@UAEXHV?$CStringT@DV?$StrTraitMFC_DLL@DV?$ChTraitsCRT@D@ATL@@@@@ATL@@@Z 00446600 f   IChangeColorMgr.obj
 0001:00045720       ?DownloadFinish@CSkinMgrV1@@UAEXV?$CStringT@DV?$StrTraitMFC_DLL@DV?$ChTraitsCRT@D@ATL@@@@@ATL@@@Z 00446720 f   IChangeColorMgr.obj
 0001:000459e0       ?P2POb_DownStart@CSkinMgrV1@@QAEXABUSign@@PBDI@Z 004469e0 f   IChangeColorMgr.obj
 0001:00045af0       ?P2POb_DownFinish@CSkinMgrV1@@QAEXABUSign@@@Z 00446af0 f   IChangeColorMgr.obj
 0001:00045e20       ?P2POb_DownFailed@CSkinMgrV1@@QAEXABUSign@@W4P2P_DOWN_FAILED_REASON@@@Z 00446e20 f   IChangeColorMgr.obj
 0001:00045fe0       ?P2POb_DownProgress@CSkinMgrV1@@QAEXABUSign@@III@Z 00446fe0 f   IChangeColorMgr.obj
 0001:000460e0       ?OnSendChangeSubject@CSkinMgrV1@@UAEXV?$CStringT@DV?$StrTraitMFC_DLL@DV?$ChTraitsCRT@D@ATL@@@@@ATL@@0@Z 004470e0 f   IChangeColorMgr.obj
 0001:00046200       ?NotifyChangeSubject@CSkinMgrV1@@UAEXABV?$CStringT@DV?$StrTraitMFC_DLL@DV?$ChTraitsCRT@D@ATL@@@@@ATL@@@Z 00447200 f   IChangeColorMgr.obj
 0001:00046380       ?CloseSkinWnd@CSkinMgrV1@@UAE_NXZ 00447380 f   IChangeColorMgr.obj
 0001:000463c0       ?SetSelectedColor@CSkinMgrV1@@UAEXK@Z 004473c0 f   IChangeColorMgr.obj
 0001:000463e0       ?ClickSub@CSkinMgrV1@@UAEXABV?$CStringT@DV?$StrTraitMFC_DLL@DV?$ChTraitsCRT@D@ATL@@@@@ATL@@@Z 004473e0 f   IChangeColorMgr.obj
 0001:00046430       ?ILayoutChangeOb_SkinChanged@CSkinMgrV1@@UAEXV?$basic_string@DU?$char_traits@D@std@@V?$allocator@D@2@@std@@0@Z 00447430 f   IChangeColorMgr.obj
 0001:000464b0       ?OnStartDownSubject@CSkinMgrV1@@UAEXABV?$CStringT@DV?$StrTraitMFC_DLL@DV?$ChTraitsCRT@D@ATL@@@@@ATL@@@Z 004474b0 f   IChangeColorMgr.obj
 0001:000465e0       ?OnFinishDownSubject@CSkinMgrV1@@UAEXH@Z 004475e0 f   IChangeColorMgr.obj
 0001:000466e0       ?InsertSubject@CSkinMgrV1@@QAEXV?$basic_string@DU?$char_traits@D@std@@V?$allocator@D@2@@std@@@Z 004476e0 f   IChangeColorMgr.obj
 0001:00046700       ?InstallWebSubject@CSkinMgrV1@@QAEXV?$basic_string@DU?$char_traits@D@std@@V?$allocator@D@2@@std@@@Z 00447700 f   IChangeColorMgr.obj
 0001:00046720       ?DownloadWebSub@CSkinMgrV1@@UAEXABV?$CStringT@DV?$StrTraitMFC_DLL@DV?$ChTraitsCRT@D@ATL@@@@@ATL@@0@Z 00447720 f   IChangeColorMgr.obj
 0001:00046890       ?DownloadSubStart@CSkinMgrV1@@QAEXABV?$CStringT@DV?$StrTraitMFC_DLL@DV?$ChTraitsCRT@D@ATL@@@@@ATL@@@Z 00447890 f   IChangeColorMgr.obj
 0001:00046a40       ?DownloadSubFinish@CSkinMgrV1@@QAEXABV?$CStringT@DV?$StrTraitMFC_DLL@DV?$ChTraitsCRT@D@ATL@@@@@ATL@@H@Z 00447a40 f   IChangeColorMgr.obj
 0001:00046ec0       ?DownloadWebSubFinish@CSkinMgrV1@@QAEXABV?$CStringT@DV?$StrTraitMFC_DLL@DV?$ChTraitsCRT@D@ATL@@@@@ATL@@H@Z 00447ec0 f   IChangeColorMgr.obj
 0001:000474c0       ?OnChangeSkinTemplate@IWndEventListener@@UAE_NV?$CStringT@DV?$StrTraitMFC_DLL@DV?$ChTraitsCRT@D@ATL@@@@@ATL@@@Z 004484c0 f i IChangeColorMgr.obj
 0001:000474e0       ??1P2PObserver@@UAE@XZ     004484e0 f i IChangeColorMgr.obj
 0001:00047500       ?P2POb_DownStart@P2PObserver@@UAEXABV?$basic_string@DU?$char_traits@D@std@@V?$allocator@D@2@@std@@PBDI@Z 00448500 f i IChangeColorMgr.obj
 0001:00047500       ?OnchangeColor@IChangeSkinEventListener@@UAEXKI_N@Z 00448500 f i PanesMgr.obj
 0001:00047500       ?OnSendChangeColor@IEventListener@@UAEXKI_N@Z 00448500 f i IChangeColorMgr.obj
 0001:00047500       ?P2POb_SigChange@P2PObserver@@UAEXABV?$basic_string@DU?$char_traits@D@std@@V?$allocator@D@2@@std@@0PBD@Z 00448500 f i IChangeColorMgr.obj
 0001:00047510       ?P2POb_DownProgress@P2PObserver@@UAEXABV?$basic_string@DU?$char_traits@D@std@@V?$allocator@D@2@@std@@III@Z 00448510 f i IChangeColorMgr.obj
 0001:00047520       ??_EP2PObserver@@UAEPAXI@Z 00448520 f i IChangeColorMgr.obj
 0001:00047520       ??_GP2PObserver@@UAEPAXI@Z 00448520 f i IChangeColorMgr.obj
 0001:00047550       ??0IChangeColorMgr@@QAE@XZ 00448550 f i IChangeColorMgr.obj
 0001:00047590       ?OnSendChangeSubject@IEventListener@@UAEXV?$CStringT@DV?$StrTraitMFC_DLL@DV?$ChTraitsCRT@D@ATL@@@@@ATL@@0@Z 00448590 f i IChangeColorMgr.obj
 0001:000475b0       ??0P2PObserver@@QAE@XZ     004485b0 f i IChangeColorMgr.obj
 0001:000475d0       ??0IWndEventListener@@QAE@XZ 004485d0 f i IChangeColorMgr.obj
 0001:000475f0       ??0IEventListener@@QAE@XZ  004485f0 f i IChangeColorMgr.obj
 0001:00047610       ?SetListener@CMainSkinWnd@@QAEXPAVIEventListener@@@Z 00448610 f i IChangeColorMgr.obj
 0001:00047630       ?SetWndListener@CMainSkinWnd@@QAEXPAVIWndEventListener@@@Z 00448630 f i IChangeColorMgr.obj
 0001:00047650       ?SetSendEventListener@CSkinWnd@@QAEXPAVIEventListener@@@Z 00448650 f i IChangeColorMgr.obj
 0001:00047670       ?SetSendEventListener@CSubjectChildWnd@@QAEXPAVIEventListener@@@Z 00448670 f i IChangeColorMgr.obj
 0001:00047690       ?SetAdjustValue@CBitMapOperate@@QAEXH@Z 00448690 f i IChangeColorMgr.obj
 0001:000476b0       ?SetEventListener@CDownloadPercentWnd@@QAEXPAVIEventListener@@@Z 004486b0 f i IChangeColorMgr.obj
 0001:000476d0       ?SetMsg@CDialogMsg@@QAEXABV?$CStringT@DV?$StrTraitMFC_DLL@DV?$ChTraitsCRT@D@ATL@@@@@ATL@@@Z 004486d0 f i IChangeColorMgr.obj
 0001:000476f0       ??0?$vector@PAVIChangeSkinEventListener@@V?$allocator@PAVIChangeSkinEventListener@@@std@@@std@@QAE@XZ 004486f0 f i IChangeColorMgr.obj
 0001:00047720       ?push_back@?$vector@PAVIChangeSkinEventListener@@V?$allocator@PAVIChangeSkinEventListener@@@std@@@std@@QAEXABQAVIChangeSkinEventListener@@@Z 00448720 f i IChangeColorMgr.obj
 0001:00047790       ?insert@?$vector@PAVIChangeSkinEventListener@@V?$allocator@PAVIChangeSkinEventListener@@@std@@@std@@QAE?AViterator@12@V312@ABQAVIChangeSkinEventListener@@@Z 00448790 f i IChangeColorMgr.obj
 0001:00047810       ?_Buy@?$vector@PAVIChangeSkinEventListener@@V?$allocator@PAVIChangeSkinEventListener@@@std@@@std@@IAE_NI@Z 00448810 f i IChangeColorMgr.obj
 0001:00047890       ?_Destroy@?$vector@PAVCWnd@@V?$allocator@PAVCWnd@@@std@@@std@@IAEXPAPAVCWnd@@0@Z 00448890 f i TabWndFactory.obj
 0001:00047890       ?_Destroy@?$vector@PAVCSkinButton2@@V?$allocator@PAVCSkinButton2@@@std@@@std@@IAEXPAPAVCSkinButton2@@0@Z 00448890 f i MainSkinWnd.obj
 0001:00047890       ?_Destroy@?$vector@HV?$allocator@H@std@@@std@@IAEXPAH0@Z 00448890 f i MyListCtrl.obj
 0001:00047890       ?_Destroy@?$vector@PAVILyricPopupWndShowObserver@@V?$allocator@PAVILyricPopupWndShowObserver@@@std@@@std@@IAEXPAPAVILyricPopupWndShowObserver@@0@Z 00448890 f i HostWndMgr.obj
 0001:00047890       ?_Destroy@?$vector@PAVIChangeSkinEventListener@@V?$allocator@PAVIChangeSkinEventListener@@@std@@@std@@IAEXPAPAVIChangeSkinEventListener@@0@Z 00448890 f i IChangeColorMgr.obj
 0001:00047890       ?_Destroy@?$vector@PAVCHostWnd@@V?$allocator@PAVCHostWnd@@@std@@@std@@IAEXPAPAVCHostWnd@@0@Z 00448890 f i HostWndMgr.obj
 0001:00047890       ?_Destroy@?$vector@PAVCBitmap@@V?$allocator@PAVCBitmap@@@std@@@std@@IAEXPAPAVCBitmap@@0@Z 00448890 f i MyTreeCtrl.obj
 0001:00047890       ?_Destroy@?$vector@KV?$allocator@K@std@@@std@@IAEXPAK0@Z 00448890 f i CUIManager.obj
 0001:00047890       ?_Destroy@?$vector@PAVCBasicSkinWnd@@V?$allocator@PAVCBasicSkinWnd@@@std@@@std@@IAEXPAPAVCBasicSkinWnd@@0@Z 00448890 f i SkinMgr.obj
 0001:000478c0       ??0?$_List_nod@PAVCSkinButton@@V?$allocator@PAVCSkinButton@@@std@@@std@@IAE@V?$allocator@PAVCSkinButton@@@1@@Z 004488c0 f i SkinWnd.obj
 0001:000478c0       ??0?$_Vector_val@V?$basic_string@DU?$char_traits@D@std@@V?$allocator@D@2@@std@@V?$allocator@V?$basic_string@DU?$char_traits@D@std@@V?$allocator@D@2@@std@@@2@@std@@IAE@V?$allocator@V?$basic_string@DU?$char_traits@D@std@@V?$allocator@D@2@@std@@@1@@Z 004488c0 f i PanesMgr.obj
 0001:000478c0       ??0?$_List_nod@PAVAfxUserConfig_Observer@@V?$allocator@PAVAfxUserConfig_Observer@@@std@@@std@@IAE@V?$allocator@PAVAfxUserConfig_Observer@@@1@@Z 004488c0 f i AfxUserConfig.obj
 0001:000478c0       ??0?$_List_nod@PAUMESSAGE_OBSERVER@@V?$allocator@PAUMESSAGE_OBSERVER@@@std@@@std@@IAE@V?$allocator@PAUMESSAGE_OBSERVER@@@1@@Z 004488c0 f i CMessageManager.obj
 0001:000478c0       ??0?$_Vector_val@PAVCBasicSkinWnd@@V?$allocator@PAVCBasicSkinWnd@@@std@@@std@@IAE@V?$allocator@PAVCBasicSkinWnd@@@1@@Z 004488c0 f i SkinMgr.obj
 0001:000478c0       ??0?$_Vector_val@UTFrame@CPictureEx@@V?$allocator@UTFrame@CPictureEx@@@std@@@std@@IAE@V?$allocator@UTFrame@CPictureEx@@@1@@Z 004488c0 f i PictureEx.obj
 0001:000478c0       ??0?$_Vector_val@PAVILyricPopupWndShowObserver@@V?$allocator@PAVILyricPopupWndShowObserver@@@std@@@std@@IAE@V?$allocator@PAVILyricPopupWndShowObserver@@@1@@Z 004488c0 f i HostWndMgr.obj
 0001:000478c0       ??0?$_Vector_val@PAVCBitmap@@V?$allocator@PAVCBitmap@@@std@@@std@@IAE@V?$allocator@PAVCBitmap@@@1@@Z 004488c0 f i MyTreeCtrl.obj
 0001:000478c0       ??0?$_Vector_val@PAVCWnd@@V?$allocator@PAVCWnd@@@std@@@std@@IAE@V?$allocator@PAVCWnd@@@1@@Z 004488c0 f i TabWndFactory.obj
 0001:000478c0       ??0?$_Vector_val@PAVIChangeSkinEventListener@@V?$allocator@PAVIChangeSkinEventListener@@@std@@@std@@IAE@V?$allocator@PAVIChangeSkinEventListener@@@1@@Z 004488c0 f i IChangeColorMgr.obj
 0001:000478c0       ??0?$_Deque_map@VCPoint@@V?$allocator@VCPoint@@@std@@@std@@IAE@V?$allocator@VCPoint@@@1@@Z 004488c0 f i LocalMusicCoverList.obj
 0001:000478c0       ??0?$_Vector_val@U_tagLMCItemInfo@@V?$allocator@U_tagLMCItemInfo@@@std@@@std@@IAE@V?$allocator@U_tagLMCItemInfo@@@1@@Z 004488c0 f i LMCDataMgr.obj
 0001:000478c0       ??0?$_Vector_val@UTAB_ITEM@@V?$allocator@UTAB_ITEM@@@std@@@std@@IAE@V?$allocator@UTAB_ITEM@@@1@@Z 004488c0 f i WebManager.obj
 0001:000478c0       ??0?$_Vector_val@PAVCHostWnd@@V?$allocator@PAVCHostWnd@@@std@@@std@@IAE@V?$allocator@PAVCHostWnd@@@1@@Z 004488c0 f i HostWndMgr.obj
 0001:000478c0       ??0?$_Vector_val@UAD_STRUCT@@V?$allocator@UAD_STRUCT@@@std@@@std@@IAE@V?$allocator@UAD_STRUCT@@@1@@Z 004488c0 f i DownAD.obj
 0001:000478c0       ??0?$_Vector_val@UOneLocalGame@@V?$allocator@UOneLocalGame@@@std@@@std@@IAE@V?$allocator@UOneLocalGame@@@1@@Z 004488c0 f i LocalGameData.obj
 0001:000478c0       ??0?$_Vector_val@KV?$allocator@K@std@@@std@@IAE@V?$allocator@K@1@@Z 004488c0 f i CUIManager.obj
 0001:000478c0       ??0?$_Vector_val@UOneSubject@@V?$allocator@UOneSubject@@@std@@@std@@IAE@V?$allocator@UOneSubject@@@1@@Z 004488c0 f i PanesMgr.obj
 0001:000478c0       ??0?$_List_nod@PAVCSubLabel@@V?$allocator@PAVCSubLabel@@@std@@@std@@IAE@V?$allocator@PAVCSubLabel@@@1@@Z 004488c0 f i SubjectChildWnd.obj
 0001:000478c0       ??0?$_Vector_val@U?$pair@UTAB_ITEM@@PAVCWnd@@@std@@V?$allocator@U?$pair@UTAB_ITEM@@PAVCWnd@@@std@@@2@@std@@IAE@V?$allocator@U?$pair@UTAB_ITEM@@PAVCWnd@@@std@@@1@@Z 004488c0 f i TabPageControl.obj
 0001:000478c0       ??0?$_Vector_val@HV?$allocator@H@std@@@std@@IAE@V?$allocator@H@1@@Z 004488c0 f i MyListCtrl.obj
 0001:000478c0       ??0?$_Vector_val@VCRect@@V?$allocator@VCRect@@@std@@@std@@IAE@V?$allocator@VCRect@@@1@@Z 004488c0 f i TabBarWnd.obj
 0001:000478c0       ??0?$_List_nod@PAVIMessageObserver@@V?$allocator@PAVIMessageObserver@@@std@@@std@@IAE@V?$allocator@PAVIMessageObserver@@@1@@Z 004488c0 f i PlayBoxDlg.obj
 0001:000478c0       ??0?$_Vector_val@Ubasecolor@@V?$allocator@Ubasecolor@@@std@@@std@@IAE@V?$allocator@Ubasecolor@@@1@@Z 004488c0 f i SkinMgr.obj
 0001:000478c0       ??0?$_Vector_val@PAVCSkinButton2@@V?$allocator@PAVCSkinButton2@@@std@@@std@@IAE@V?$allocator@PAVCSkinButton2@@@1@@Z 004488c0 f i MainSkinWnd.obj
 0001:000478e0       ?_Insert_n@?$vector@PAVIChangeSkinEventListener@@V?$allocator@PAVIChangeSkinEventListener@@@std@@@std@@IAEXViterator@12@IABQAVIChangeSkinEventListener@@@Z 004488e0 f i IChangeColorMgr.obj
 0001:00047c00       ?_Xlen@?$vector@PAVIChangeSkinEventListener@@V?$allocator@PAVIChangeSkinEventListener@@@std@@@std@@IBEXXZ 00448c00 f i IChangeColorMgr.obj
 0001:00047c60       ?allocate@?$allocator@PAVCWnd@@@std@@QAEPAPAVCWnd@@I@Z 00448c60 f i TabWndFactory.obj
 0001:00047c60       ?allocate@?$allocator@H@std@@QAEPAHI@Z 00448c60 f i MyListCtrl.obj
 0001:00047c60       ?allocate@?$allocator@PAVIChangeSkinEventListener@@@std@@QAEPAPAVIChangeSkinEventListener@@I@Z 00448c60 f i IChangeColorMgr.obj
 0001:00047c60       ?allocate@?$allocator@K@std@@QAEPAKI@Z 00448c60 f i CUIManager.obj
 0001:00047c60       ?allocate@?$allocator@PAVCPoint@@@std@@QAEPAPAVCPoint@@I@Z 00448c60 f i LocalMusicCoverList.obj
 0001:00047c60       ?allocate@?$allocator@PAVCBasicSkinWnd@@@std@@QAEPAPAVCBasicSkinWnd@@I@Z 00448c60 f i SkinMgr.obj
 0001:00047c60       ?allocate@?$allocator@PAVILyricPopupWndShowObserver@@@std@@QAEPAPAVILyricPopupWndShowObserver@@I@Z 00448c60 f i HostWndMgr.obj
 0001:00047c60       ?allocate@?$allocator@PAVCBitmap@@@std@@QAEPAPAVCBitmap@@I@Z 00448c60 f i MyTreeCtrl.obj
 0001:00047c60       ?allocate@?$allocator@PAVCSkinButton2@@@std@@QAEPAPAVCSkinButton2@@I@Z 00448c60 f i MainSkinWnd.obj
 0001:00047c60       ?allocate@?$allocator@PAVCHostWnd@@@std@@QAEPAPAVCHostWnd@@I@Z 00448c60 f i HostWndMgr.obj
 0001:00047c80       ??Giterator@?$vector@KV?$allocator@K@std@@@std@@QBEHABVconst_iterator@12@@Z 00448c80 f i CUIManager.obj
 0001:00047c80       ??Giterator@?$vector@PAVCHostWnd@@V?$allocator@PAVCHostWnd@@@std@@@std@@QBEHABVconst_iterator@12@@Z 00448c80 f i HostWndMgr.obj
 0001:00047c80       ??Giterator@?$vector@HV?$allocator@H@std@@@std@@QBEHABVconst_iterator@12@@Z 00448c80 f i MyListCtrl.obj
 0001:00047c80       ??Giterator@?$vector@PAVCBasicSkinWnd@@V?$allocator@PAVCBasicSkinWnd@@@std@@@std@@QBEHABVconst_iterator@12@@Z 00448c80 f i SkinMgr.obj
 0001:00047c80       ??Giterator@?$vector@PAVIChangeSkinEventListener@@V?$allocator@PAVIChangeSkinEventListener@@@std@@@std@@QBEHABVconst_iterator@12@@Z 00448c80 f i IChangeColorMgr.obj
 0001:00047c80       ??Giterator@?$vector@PAVCSkinButton2@@V?$allocator@PAVCSkinButton2@@@std@@@std@@QBEHABVconst_iterator@12@@Z 00448c80 f i MainSkinWnd.obj
 0001:00047cb0       ??$copy@PAKPAK@std@@YAPAKPAK00@Z 00448cb0 f i CUIManager.obj
 0001:00047cb0       ??$copy@PAPAVIChangeSkinEventListener@@PAPAV1@@std@@YAPAPAVIChangeSkinEventListener@@PAPAV1@00@Z 00448cb0 f i IChangeColorMgr.obj
 0001:00047cb0       ??$copy@PAHPAH@std@@YAPAHPAH00@Z 00448cb0 f i PlayedGameWnd.obj
 0001:00047cb0       ??$copy@PAPAVCBasicSkinWnd@@PAPAV1@@std@@YAPAPAVCBasicSkinWnd@@PAPAV1@00@Z 00448cb0 f i SkinMgr.obj
 0001:00047cb0       ??$copy@PAPAVCWnd@@PAPAV1@@std@@YAPAPAVCWnd@@PAPAV1@00@Z 00448cb0 f i TabWndFactory.obj
 0001:00047cf0       ??$_Ucopy@PAH@?$vector@HV?$allocator@H@std@@@std@@IAEPAHPAH00@Z 00448cf0 f i MyListCtrl.obj
 0001:00047cf0       ??$_Ucopy@PAK@?$vector@KV?$allocator@K@std@@@std@@IAEPAKPAK00@Z 00448cf0 f i CUIManager.obj
 0001:00047cf0       ??$_Ucopy@PAPAVCHostWnd@@@?$vector@PAVCHostWnd@@V?$allocator@PAVCHostWnd@@@std@@@std@@IAEPAPAVCHostWnd@@PAPAV2@00@Z 00448cf0 f i HostWndMgr.obj
 0001:00047cf0       ??$_Ucopy@PAPAVIChangeSkinEventListener@@@?$vector@PAVIChangeSkinEventListener@@V?$allocator@PAVIChangeSkinEventListener@@@std@@@std@@IAEPAPAVIChangeSkinEventListener@@PAPAV2@00@Z 00448cf0 f i IChangeColorMgr.obj
 0001:00047cf0       ??$_Ucopy@PAPAVCBasicSkinWnd@@@?$vector@PAVCBasicSkinWnd@@V?$allocator@PAVCBasicSkinWnd@@@std@@@std@@IAEPAPAVCBasicSkinWnd@@PAPAV2@00@Z 00448cf0 f i SkinMgr.obj
 0001:00047cf0       ??$_Ucopy@PAPAVCSkinButton2@@@?$vector@PAVCSkinButton2@@V?$allocator@PAVCSkinButton2@@@std@@@std@@IAEPAPAVCSkinButton2@@PAPAV2@00@Z 00448cf0 f i MainSkinWnd.obj
 0001:00047d20       ??$_Ptr_cat@Viterator@?$vector@HV?$allocator@H@std@@@std@@V?$back_insert_iterator@V?$vector@HV?$allocator@H@std@@@std@@@3@@std@@YA?AU_Nonscalar_ptr_iterator_tag@0@AAViterator@?$vector@HV?$allocator@H@std@@@0@AAV?$back_insert_iterator@V?$vector@HV?$allocator@H@std@@@std@@@0@@Z 00448d20 f i MyListCtrl.obj
 0001:00047d20       ??$_Ptr_cat@PAUTFrame@CPictureEx@@PAU12@@std@@YA?AU_Nonscalar_ptr_iterator_tag@0@AAPAUTFrame@CPictureEx@@0@Z 00448d20 f i PictureEx.obj
 0001:00047d20       ??$_Ptr_cat@Viterator@?$vector@UOneLocalGame@@V?$allocator@UOneLocalGame@@@std@@@std@@V?$back_insert_iterator@V?$vector@UOneLocalGame@@V?$allocator@UOneLocalGame@@@std@@@std@@@3@@std@@YA?AU_Nonscalar_ptr_iterator_tag@0@AAViterator@?$vector@UOneLocalGame@@V?$allocator@UOneLocalGame@@@std@@@0@AAV?$back_insert_iterator@V?$vector@UOneLocalGame@@V?$allocator@UOneLocalGame@@@std@@@std@@@0@@Z 00448d20 f i LocalGameData.obj
 0001:00047d20       ??$_Ptr_cat@Vconst_iterator@?$vector@HV?$allocator@H@std@@@std@@PAH@std@@YA?AU_Nonscalar_ptr_iterator_tag@0@AAVconst_iterator@?$vector@HV?$allocator@H@std@@@0@AAPAH@Z 00448d20 f i LocalMusicCoverList.obj
 0001:00047d20       ??$_Ptr_cat@PAUOneSubject@@PAU1@@std@@YA?AU_Nonscalar_ptr_iterator_tag@0@AAPAUOneSubject@@0@Z 00448d20 f i PanesMgr.obj
 0001:00047d20       ??$_Ptr_cat@PAUAD_STRUCT@@PAU1@@std@@YA?AU_Nonscalar_ptr_iterator_tag@0@AAPAUAD_STRUCT@@0@Z 00448d20 f i DownAD.obj
 0001:00047d20       ??$_Ptr_cat@VCBitmap@@@std@@YA?AU_Scalar_ptr_iterator_tag@0@PAPAVCBitmap@@0@Z 00448d20 f i MyTreeCtrl.obj
 0001:00047d20       ??$_Ptr_cat@VCSkinButton2@@@std@@YA?AU_Scalar_ptr_iterator_tag@0@PAPAVCSkinButton2@@0@Z 00448d20 f i MainSkinWnd.obj
 0001:00047d20       ??$_Ptr_cat@PAUTAB_ITEM@@PAU1@@std@@YA?AU_Nonscalar_ptr_iterator_tag@0@AAPAUTAB_ITEM@@0@Z 00448d20 f i WebManager.obj
 0001:00047d20       ??$_Ptr_cat@VIChangeSkinEventListener@@@std@@YA?AU_Scalar_ptr_iterator_tag@0@PAPAVIChangeSkinEventListener@@0@Z 00448d20 f i IChangeColorMgr.obj
 0001:00047d20       ??$_Ptr_cat@Viterator@?$vector@V?$basic_string@DU?$char_traits@D@std@@V?$allocator@D@2@@std@@V?$allocator@V?$basic_string@DU?$char_traits@D@std@@V?$allocator@D@2@@std@@@2@@std@@V?$back_insert_iterator@V?$vector@V?$basic_string@DU?$char_traits@D@std@@V?$allocator@D@2@@std@@V?$allocator@V?$basic_string@DU?$char_traits@D@std@@V?$allocator@D@2@@std@@@2@@std@@@3@@std@@YA?AU_Nonscalar_ptr_iterator_tag@0@AAViterator@?$vector@V?$basic_string@DU?$char_traits@D@std@@V?$allocator@D@2@@std@@V?$allocator@V?$basic_string@DU?$char_traits@D@std@@V?$allocator@D@2@@std@@@2@@0@AAV?$back_insert_iterator@V?$vector@V?$basic_string@DU?$char_traits@D@std@@V?$allocator@D@2@@std@@V?$allocator@V?$basic_string@DU?$char_traits@D@std@@V?$allocator@D@2@@std@@@2@@std@@@0@@Z 00448d20 f i DownPercentWnd.obj
 0001:00047d20       ?_Ptr_cat@std@@YA?AU_Scalar_ptr_iterator_tag@1@PAH0@Z 00448d20 f i MyListCtrl.obj
 0001:00047d20       ??$_Ptr_cat@VILyricPopupWndShowObserver@@@std@@YA?AU_Scalar_ptr_iterator_tag@0@PAPAVILyricPopupWndShowObserver@@0@Z 00448d20 f i HostWndMgr.obj
 0001:00047d20       ??$_Ptr_cat@PAU_tagLMCItemInfo@@PAU1@@std@@YA?AU_Nonscalar_ptr_iterator_tag@0@AAPAU_tagLMCItemInfo@@0@Z 00448d20 f i LMCDataMgr.obj
 0001:00047d20       ??$_Ptr_cat@PAV?$basic_string@DU?$char_traits@D@std@@V?$allocator@D@2@@std@@PAV12@@std@@YA?AU_Nonscalar_ptr_iterator_tag@0@AAPAV?$basic_string@DU?$char_traits@D@std@@V?$allocator@D@2@@0@0@Z 00448d20 f i PanesMgr.obj
 0001:00047d20       ??$_Ptr_cat@VCBasicSkinWnd@@@std@@YA?AU_Scalar_ptr_iterator_tag@0@PAPAVCBasicSkinWnd@@0@Z 00448d20 f i SkinMgr.obj
 0001:00047d20       ??$_Ptr_cat@VCPoint@@@std@@YA?AU_Scalar_ptr_iterator_tag@0@PAPAVCPoint@@0@Z 00448d20 f i LocalMusicCoverList.obj
 0001:00047d20       ??$_Ptr_cat@PAUbasecolor@@PAU1@@std@@YA?AU_Nonscalar_ptr_iterator_tag@0@AAPAUbasecolor@@0@Z 00448d20 f i PanesMgr.obj
 0001:00047d20       ??$_Ptr_cat@PAVCRect@@PAV1@@std@@YA?AU_Nonscalar_ptr_iterator_tag@0@AAPAVCRect@@0@Z 00448d20 f i TabBarWnd.obj
 0001:00047d20       ??$_Ptr_cat@VCWnd@@@std@@YA?AU_Scalar_ptr_iterator_tag@0@PAPAVCWnd@@0@Z 00448d20 f i TabWndFactory.obj
 0001:00047d20       ??$_Ptr_cat@VCHostWnd@@@std@@YA?AU_Scalar_ptr_iterator_tag@0@PAPAVCHostWnd@@0@Z 00448d20 f i HostWndMgr.obj
 0001:00047d20       ?_Ptr_cat@std@@YA?AU_Scalar_ptr_iterator_tag@1@PAK0@Z 00448d20 f i CUIManager.obj
 0001:00047d20       ??$_Ptr_cat@PAUOneLocalGame@@PAU1@@std@@YA?AU_Nonscalar_ptr_iterator_tag@0@AAPAUOneLocalGame@@0@Z 00448d20 f i LocalGameData.obj
 0001:00047d20       ??$_Ptr_cat@Viterator@?$vector@UTAB_ITEM@@V?$allocator@UTAB_ITEM@@@std@@@std@@V?$back_insert_iterator@V?$vector@UTAB_ITEM@@V?$allocator@UTAB_ITEM@@@std@@@std@@@3@@std@@YA?AU_Nonscalar_ptr_iterator_tag@0@AAViterator@?$vector@UTAB_ITEM@@V?$allocator@UTAB_ITEM@@@std@@@0@AAV?$back_insert_iterator@V?$vector@UTAB_ITEM@@V?$allocator@UTAB_ITEM@@@std@@@std@@@0@@Z 00448d20 f i TabBarData.obj
 0001:00047d20       ??$_Ptr_cat@PAU?$pair@UTAB_ITEM@@PAVCWnd@@@std@@PAU12@@std@@YA?AU_Nonscalar_ptr_iterator_tag@0@AAPAU?$pair@UTAB_ITEM@@PAVCWnd@@@0@0@Z 00448d20 f i TabPageControl.obj
 0001:00047d30       ??$_Uninit_fill_n@PAVIChangeSkinEventListener@@IPAV1@@std@@YAXPAPAVIChangeSkinEventListener@@IABQAV1@AAV?$allocator@PAVIChangeSkinEventListener@@@0@U_Scalar_ptr_iterator_tag@0@@Z 00448d30 f i IChangeColorMgr.obj
 0001:00047d30       ??$_Uninit_fill_n@PAVCHostWnd@@IPAV1@@std@@YAXPAPAVCHostWnd@@IABQAV1@AAV?$allocator@PAVCHostWnd@@@0@U_Scalar_ptr_iterator_tag@0@@Z 00448d30 f i HostWndMgr.obj
 0001:00047d30       ??$_Uninit_fill_n@KIK@std@@YAXPAKIABKAAV?$allocator@K@0@U_Scalar_ptr_iterator_tag@0@@Z 00448d30 f i CUIManager.obj
 0001:00047d30       ??$_Uninit_fill_n@HIH@std@@YAXPAHIABHAAV?$allocator@H@0@U_Scalar_ptr_iterator_tag@0@@Z 00448d30 f i MyListCtrl.obj
 0001:00047d30       ??$_Uninit_fill_n@PAVCBasicSkinWnd@@IPAV1@@std@@YAXPAPAVCBasicSkinWnd@@IABQAV1@AAV?$allocator@PAVCBasicSkinWnd@@@0@U_Scalar_ptr_iterator_tag@0@@Z 00448d30 f i SkinMgr.obj
 0001:00047d30       ??$_Uninit_fill_n@PAVCSkinButton2@@IPAV1@@std@@YAXPAPAVCSkinButton2@@IABQAV1@AAV?$allocator@PAVCSkinButton2@@@0@U_Scalar_ptr_iterator_tag@0@@Z 00448d30 f i MainSkinWnd.obj
 0001:00047d30       ??$_Uninit_fill_n@PAVCPoint@@IPAV1@@std@@YAXPAPAVCPoint@@IABQAV1@AAV?$allocator@PAVCPoint@@@0@U_Scalar_ptr_iterator_tag@0@@Z 00448d30 f i LocalMusicCoverList.obj
 0001:00047d50       ??_ECSkinMgrV1@@W7AEPAXI@Z 00448d50 f i IChangeColorMgr.obj
 0001:00047d60       ??_GCSkinMgrV1@@UAEPAXI@Z  00448d60 f i IChangeColorMgr.obj
 0001:00047d60       ??_ECSkinMgrV1@@UAEPAXI@Z  00448d60 f i IChangeColorMgr.obj
 0001:00047d90       ??_ECSkinMgrV1@@WM@AEPAXI@Z 00448d90 f i IChangeColorMgr.obj
 0001:00047da0       ?UpdateWindow@CWnd@@QAEXXZ 00448da0 f i IChangeColorMgr.obj
 0001:00047dc0       ?InvalidateRect@CWnd@@QAEXPBUtagRECT@@H@Z 00448dc0 f i IChangeColorMgr.obj
 0001:00047df0       ?CreateObject@CMainSkinWnd@@SGPAVCObject@@XZ 00448df0 f   MainSkinWnd.obj
 0001:00047e60       ?GetThisClass@CMainSkinWnd@@SGPAUCRuntimeClass@@XZ 00448e60 f   MainSkinWnd.obj
 0001:00047e70       ?GetRuntimeClass@CMainSkinWnd@@UBEPAUCRuntimeClass@@XZ 00448e70 f   MainSkinWnd.obj
 0001:00047e80       ??0CMainSkinWnd@@QAE@XZ    00448e80 f   MainSkinWnd.obj
 0001:00048040       ??1CMainSkinWnd@@UAE@XZ    00449040 f   MainSkinWnd.obj
 0001:00048210       ?GetThisMessageMap@CMainSkinWnd@@KGPBUAFX_MSGMAP@@XZ 00449210 f   MainSkinWnd.obj
 0001:00048220       ?GetMessageMap@CMainSkinWnd@@MBEPBUAFX_MSGMAP@@XZ 00449220 f   MainSkinWnd.obj
 0001:00048230       ?ShowToolTip@CMainSkinWnd@@QAEXH@Z 00449230 f   MainSkinWnd.obj
 0001:000482e0       ?SetToolTip@CMainSkinWnd@@QAEXV?$CStringT@DV?$StrTraitMFC_DLL@DV?$ChTraitsCRT@D@ATL@@@@@ATL@@@Z 004492e0 f   MainSkinWnd.obj
 0001:00048340       ?OnCloseDlg@CMainSkinWnd@@QAEXXZ 00449340 f   MainSkinWnd.obj
 0001:00048370       ?OnMove@CMainSkinWnd@@QAEXHH@Z 00449370 f   MainSkinWnd.obj
 0001:000483d0       ?OnColor@CMainSkinWnd@@QAEXI@Z 004493d0 f   MainSkinWnd.obj
 0001:00048710       ?PreCreateWindow@CMainSkinWnd@@MAEHAAUtagCREATESTRUCTA@@@Z 00449710 f   MainSkinWnd.obj
 0001:00048bc0       ?OnEraseBkgnd@CMainSkinWnd@@QAEHPAVCDC@@@Z 00449bc0 f   MainSkinWnd.obj
 0001:00048bd0       ?OnCreate@CMainSkinWnd@@QAEHPAUtagCREATESTRUCTA@@@Z 00449bd0 f   MainSkinWnd.obj
 0001:000496e0       ?OnPaint@CMainSkinWnd@@QAEXXZ 0044a6e0 f   MainSkinWnd.obj
 0001:00049770       ?CloseWindows@CMainSkinWnd@@QAEXXZ 0044a770 f   MainSkinWnd.obj
 0001:00049790       ?LoadSkin@CMainSkinWnd@@QAEXXZ 0044a790 f   MainSkinWnd.obj
 0001:000497a0       ?OnClickMoreCol@CMainSkinWnd@@QAEXXZ 0044a7a0 f   MainSkinWnd.obj
 0001:00049aa0       ?OnClickDownMore@CMainSkinWnd@@QAEXXZ 0044aaa0 f   MainSkinWnd.obj
 0001:00049b40       ?OnChangeBtnColor@CMainSkinWnd@@QAEJIJ@Z 0044ab40 f   MainSkinWnd.obj
 0001:00049c30       ?OnBtnSub@CMainSkinWnd@@QAEXXZ 0044ac30 f   MainSkinWnd.obj
 0001:00049c90       ?OnBtnSkin@CMainSkinWnd@@QAEXXZ 0044ac90 f   MainSkinWnd.obj
 0001:00049cf0       ?OnBtnWebSub@CMainSkinWnd@@QAEXXZ 0044acf0 f   MainSkinWnd.obj
 0001:00049d50       ?SetCheckBtn@CMainSkinWnd@@QAEXH@Z 0044ad50 f   MainSkinWnd.obj
 0001:00049e10       ?OnLButtonDown@CMainSkinWnd@@QAEXIVCPoint@@@Z 0044ae10 f   MainSkinWnd.obj
 0001:00049e50       ?ShowColorBtn@CMainSkinWnd@@QAEXH@Z 0044ae50 f   MainSkinWnd.obj
 0001:00049ee0       ??_ECMainSkinWnd@@UAEPAXI@Z 0044aee0 f i MainSkinWnd.obj
 0001:00049ee0       ??_GCMainSkinWnd@@UAEPAXI@Z 0044aee0 f i MainSkinWnd.obj
 0001:00049f10       ??1CColorDialog@@UAE@XZ    0044af10 f i MainSkinWnd.obj
 0001:00049f30       ??0?$vector@PAVCSkinButton2@@V?$allocator@PAVCSkinButton2@@@std@@@std@@QAE@XZ 0044af30 f i MainSkinWnd.obj
 0001:00049f60       ?push_back@?$vector@PAVCSkinButton2@@V?$allocator@PAVCSkinButton2@@@std@@@std@@QAEXABQAVCSkinButton2@@@Z 0044af60 f i MainSkinWnd.obj
 0001:00049fd0       ?insert@?$vector@PAVCSkinButton2@@V?$allocator@PAVCSkinButton2@@@std@@@std@@QAE?AViterator@12@V312@ABQAVCSkinButton2@@@Z 0044afd0 f i MainSkinWnd.obj
 0001:0004a050       ?_Buy@?$vector@PAVCSkinButton2@@V?$allocator@PAVCSkinButton2@@@std@@@std@@IAE_NI@Z 0044b050 f i MainSkinWnd.obj
 0001:0004a0d0       ?_Insert_n@?$vector@PAVCSkinButton2@@V?$allocator@PAVCSkinButton2@@@std@@@std@@IAEXViterator@12@IABQAVCSkinButton2@@@Z 0044b0d0 f i MainSkinWnd.obj
 0001:0004a3f0       ?_Xlen@?$vector@PAVCSkinButton2@@V?$allocator@PAVCSkinButton2@@@std@@@std@@IBEXXZ 0044b3f0 f i MainSkinWnd.obj
 0001:0004a450       ??$fill_n@PAPAVCHostWnd@@IPAV1@@std@@YAXPAPAVCHostWnd@@IABQAV1@@Z 0044b450 f i HostWndMgr.obj
 0001:0004a450       ??$fill_n@PAPAVCPoint@@IPAV1@@std@@YAXPAPAVCPoint@@IABQAV1@@Z 0044b450 f i LocalMusicCoverList.obj
 0001:0004a450       ??$fill_n@PAPAVCBasicSkinWnd@@IPAV1@@std@@YAXPAPAVCBasicSkinWnd@@IABQAV1@@Z 0044b450 f i SkinMgr.obj
 0001:0004a450       ??$fill_n@PAPAVCSkinButton2@@IPAV1@@std@@YAXPAPAVCSkinButton2@@IABQAV1@@Z 0044b450 f i MainSkinWnd.obj
 0001:0004a450       ??$fill_n@PAPAVIChangeSkinEventListener@@IPAV1@@std@@YAXPAPAVIChangeSkinEventListener@@IABQAV1@@Z 0044b450 f i IChangeColorMgr.obj
 0001:0004a450       ??$fill_n@PAKIK@std@@YAXPAKIABK@Z 0044b450 f i CUIManager.obj
 0001:0004a450       ??$fill_n@PAHIH@std@@YAXPAHIABH@Z 0044b450 f i MyListCtrl.obj
 0001:0004a480       ?SetCheck@CButton@@QAEXH@Z 0044b480 f i MainSkinWnd.obj
 0001:0004a4b0       ?SetLayeredWindowAttributes@CWnd@@QAEHKEK@Z 0044b4b0 f i MainSkinWnd.obj
 0001:0004a4e0       ??1CCommonDialog@@UAE@XZ   0044b4e0 f i MainSkinWnd.obj
 0001:0004a500       ??0CScrollBarEx@@QAE@XZ    0044b500 f   ScrollBarEx.obj
 0001:0004a620       ??1CScrollBarEx@@UAE@XZ    0044b620 f   ScrollBarEx.obj
 0001:0004a640       ?GetThisMessageMap@CScrollBarEx@@KGPBUAFX_MSGMAP@@XZ 0044b640 f   ScrollBarEx.obj
 0001:0004a650       ?GetMessageMap@CScrollBarEx@@MBEPBUAFX_MSGMAP@@XZ 0044b650 f   ScrollBarEx.obj
 0001:0004a660       ?PreSubclassWindow@CScrollBarEx@@MAEXXZ 0044b660 f   ScrollBarEx.obj
 0001:0004a6a0       ?SelfProc@CScrollBarEx@@KGJPAUHWND__@@IIJ@Z 0044b6a0 f   ScrollBarEx.obj
 0001:0004a760       ?OnLButtonDown@CScrollBarEx@@IAEXIVCPoint@@@Z 0044b760 f   ScrollBarEx.obj
 0001:0004ab60       ?OnLButtonDblClk@CScrollBarEx@@IAEXIVCPoint@@@Z 0044bb60 f   ScrollBarEx.obj
 0001:0004ab90       ?OnLButtonUp@CScrollBarEx@@IAEXIVCPoint@@@Z 0044bb90 f   ScrollBarEx.obj
 0001:0004ace0       ?OnMouseMove@CScrollBarEx@@IAEXIVCPoint@@@Z 0044bce0 f   ScrollBarEx.obj
 0001:0004add0       ?OnMouseLeave@CScrollBarEx@@IAEJIJ@Z 0044bdd0 f   ScrollBarEx.obj
 0001:0004ae20       ?MoveThumb@CScrollBarEx@@AAEXVCPoint@@@Z 0044be20 f   ScrollBarEx.obj
 0001:0004b310       ?TrackSpace@CScrollBarEx@@AAEXXZ 0044c310 f   ScrollBarEx.obj
 0001:0004b480       ?OnTimer@CScrollBarEx@@IAEXI@Z 0044c480 f   ScrollBarEx.obj
 0001:0004b670       ?NotifyControlWnd@CScrollBarEx@@AAEXIH@Z 0044c670 f   ScrollBarEx.obj
 0001:0004b6a0       ?SetControlWnd@CScrollBarEx@@QAEXPAVCWnd@@@Z 0044c6a0 f   ScrollBarEx.obj
 0001:0004b6c0       ?SetPosition@CScrollBarEx@@QAEXXZ 0044c6c0 f   ScrollBarEx.obj
 0001:0004ba80       ?UpdateScrollBar@CScrollBarEx@@QAEXXZ 0044ca80 f   ScrollBarEx.obj
 0001:0004bb10       ?Draw@CScrollBarEx@@AAEXPAUHWND__@@PAUHDC__@@@Z 0044cb10 f   ScrollBarEx.obj
 0001:0004bc90       ?DrawLeftBtn@CScrollBarEx@@AAEXPAUHDC__@@UtagRECT@@@Z 0044cc90 f   ScrollBarEx.obj
 0001:0004bd70       ?DrawRightBtn@CScrollBarEx@@AAEXPAUHDC__@@UtagRECT@@@Z 0044cd70 f   ScrollBarEx.obj
 0001:0004be50       ?DrawUpBtn@CScrollBarEx@@AAEXPAUHDC__@@UtagRECT@@@Z 0044ce50 f   ScrollBarEx.obj
 0001:0004bfd0       ?DrawDownBtn@CScrollBarEx@@AAEXPAUHDC__@@UtagRECT@@@Z 0044cfd0 f   ScrollBarEx.obj
 0001:0004c150       ?DrawThumb@CScrollBarEx@@AAEXPAUHDC__@@UtagRECT@@@Z 0044d150 f   ScrollBarEx.obj
 0001:0004c300       ?DrawThumbSpace@CScrollBarEx@@AAEXPAUHDC__@@UtagRECT@@@Z 0044d300 f   ScrollBarEx.obj
 0001:0004c560       ?DrawHighlightFace@CScrollBarEx@@AAEXPAUHDC__@@UtagRECT@@H@Z 0044d560 f   ScrollBarEx.obj
 0001:0004d760       ?DrawDownFace@CScrollBarEx@@AAEXPAUHDC__@@UtagRECT@@H@Z 0044e760 f   ScrollBarEx.obj
 0001:0004e960       ?DrawNormalFace@CScrollBarEx@@AAEXPAUHDC__@@UtagRECT@@H@Z 0044f960 f   ScrollBarEx.obj
 0001:0004fb50       ?HitTest@CScrollBarEx@@AAEIVCPoint@@@Z 00450b50 f   ScrollBarEx.obj
 0001:0004fbf0       ?HitTest@CScrollBarEx@@AAEIXZ 00450bf0 f   ScrollBarEx.obj
 0001:0004fc30       ?GetRect@CScrollBarEx@@AAE?AUtagRECT@@I@Z 00450c30 f   ScrollBarEx.obj
 0001:00050070       ?GetScrollInfo@CScrollBarEx@@QAEHPAUtagSCROLLINFO@@I@Z 00451070 f   ScrollBarEx.obj
 0001:000500a0       ?GetScrollLimit@CScrollBarEx@@QAEHXZ 004510a0 f   ScrollBarEx.obj
 0001:000500c0       ?GetScrollPos@CScrollBarEx@@QAEHXZ 004510c0 f   ScrollBarEx.obj
 0001:000500e0       ?GetScrollRange@CScrollBarEx@@QAEXPAH0@Z 004510e0 f   ScrollBarEx.obj
 0001:00050120       ?GetScrollOrientation@CScrollBarEx@@QAE?AW4ENUM_ScrollOrientation@@XZ 00451120 f   ScrollBarEx.obj
 0001:00050140       ?SetScrollInfo@CScrollBarEx@@QAEHPAUtagSCROLLINFO@@H@Z 00451140 f   ScrollBarEx.obj
 0001:000501e0       ?SetScrollPos@CScrollBarEx@@QAEHHH@Z 004511e0 f   ScrollBarEx.obj
 0001:00050210       ?SetScrollRange@CScrollBarEx@@QAEXHHH@Z 00451210 f   ScrollBarEx.obj
 0001:00050240       ?SetScrollOrientation@CScrollBarEx@@QAEXW4ENUM_ScrollOrientation@@@Z 00451240 f   ScrollBarEx.obj
 0001:00050260       ?OnDlgMouseWheel@CScrollBarEx@@IAEJIJ@Z 00451260 f   ScrollBarEx.obj
 0001:00050280       ?OnCreate@CScrollBarEx@@QAEHPAUtagCREATESTRUCTA@@@Z 00451280 f   ScrollBarEx.obj
 0001:000503d0       ??_ECScrollBarEx@@UAEPAXI@Z 004513d0 f i ScrollBarEx.obj
 0001:000503d0       ??_GCScrollBarEx@@UAEPAXI@Z 004513d0 f i ScrollBarEx.obj
 0001:00050400       ??0CTime@ATL@@QAE@_J@Z     00451400 f i LhcImg.obj
 0001:00050400       ??0CPoint@@QAE@UtagSIZE@@@Z 00451400 f i ScrollBarEx.obj
 0001:00050400       ??0CTimeSpan@ATL@@QAE@_J@Z 00451400 f i TrayIconPosition.obj
 0001:00050400       ??0CSize@@QAE@UtagSIZE@@@Z 00451400 f i SkinBotton.obj
 0001:00050420       ??GCPoint@@QBE?AVCSize@@UtagPOINT@@@Z 00451420 f i ScrollBarEx.obj
 0001:00050450       ?ScreenToClient@CWnd@@QBEXPAUtagPOINT@@@Z 00451450 f i ScrollBarEx.obj
 0001:00050470       ?GetThisClass@CSkinButton@@SGPAUCRuntimeClass@@XZ 00451470 f   SkinBotton.obj
 0001:00050480       ?GetRuntimeClass@CSkinButton@@UBEPAUCRuntimeClass@@XZ 00451480 f   SkinBotton.obj
 0001:00050490       ??0CSkinButton@@QAE@XZ     00451490 f   SkinBotton.obj
 0001:000505a0       ??1CSkinButton@@UAE@XZ     004515a0 f   SkinBotton.obj
 0001:00050680       ?GetThisMessageMap@CSkinButton@@KGPBUAFX_MSGMAP@@XZ 00451680 f   SkinBotton.obj
 0001:00050690       ?GetMessageMap@CSkinButton@@MBEPBUAFX_MSGMAP@@XZ 00451690 f   SkinBotton.obj
 0001:000506a0       ?DrawItem@CSkinButton@@MAEXPAUtagDRAWITEMSTRUCT@@@Z 004516a0 f   SkinBotton.obj
 0001:000507a0       ?OnMouseHover@CSkinButton@@IAEJIJ@Z 004517a0 f   SkinBotton.obj
 0001:000507d0       ?OnMouseLeave@CSkinButton@@IAEJIJ@Z 004517d0 f   SkinBotton.obj
 0001:00050800       ?OnMouseMove@CSkinButton@@QAEXIVCPoint@@@Z 00451800 f   SkinBotton.obj
 0001:000508d0       ?OnLButtonDown@CSkinButton@@QAEXIVCPoint@@@Z 004518d0 f   SkinBotton.obj
 0001:00050960       ?OnLButtonUp@CSkinButton@@QAEXIVCPoint@@@Z 00451960 f   SkinBotton.obj
 0001:000509c0       ?OnEraseBkgnd@CSkinButton@@QAEHPAVCDC@@@Z 004519c0 f   SkinBotton.obj
 0001:00050a50       ??0CButtonDraw@@QAE@XZ     00451a50 f   SkinBotton.obj
 0001:00050b10       ??1CButtonDraw@@UAE@XZ     00451b10 f   SkinBotton.obj
 0001:00050b30       ?DrawButton@CButtonDraw@@QAEXPAVCWnd@@PAUtagDRAWITEMSTRUCT@@HHAAV?$CStringT@DV?$StrTraitMFC_DLL@DV?$ChTraitsCRT@D@ATL@@@@@ATL@@KKPAVCBitmap@@@Z 00451b30 f   SkinBotton.obj
 0001:000510c0       ?DrawSkinEnter@CButtonDraw@@IAEXAAPAUHDC__@@AAUtagRECT@@AAV?$CStringT@DV?$StrTraitMFC_DLL@DV?$ChTraitsCRT@D@ATL@@@@@ATL@@PAVCBitmap@@@Z 004520c0 f   SkinBotton.obj
 0001:000512f0       ?DrawSkinNormal@CButtonDraw@@IAEXAAPAUHDC__@@AAUtagRECT@@AAV?$CStringT@DV?$StrTraitMFC_DLL@DV?$ChTraitsCRT@D@ATL@@@@@ATL@@PAVCBitmap@@@Z 004522f0 f   SkinBotton.obj
 0001:00051460       ?DrawColorEnter@CButtonDraw@@IAEXAAPAUHDC__@@AAUtagRECT@@AAV?$CStringT@DV?$StrTraitMFC_DLL@DV?$ChTraitsCRT@D@ATL@@@@@ATL@@AAK3@Z 00452460 f   SkinBotton.obj
 0001:00051470       ?DrawColorNormal@CButtonDraw@@IAEXAAPAUHDC__@@AAUtagRECT@@AAV?$CStringT@DV?$StrTraitMFC_DLL@DV?$ChTraitsCRT@D@ATL@@@@@ATL@@AAK3@Z 00452470 f   SkinBotton.obj
 0001:00051480       ?DrawColorNoTextEnter@CButtonDraw@@IAEXAAPAUHDC__@@AAUtagRECT@@AAV?$CStringT@DV?$StrTraitMFC_DLL@DV?$ChTraitsCRT@D@ATL@@@@@ATL@@AAK3@Z 00452480 f   SkinBotton.obj
 0001:00051490       ?DrawColorNoTextNormal@CButtonDraw@@IAEXAAPAUHDC__@@AAUtagRECT@@AAV?$CStringT@DV?$StrTraitMFC_DLL@DV?$ChTraitsCRT@D@ATL@@@@@ATL@@AAK3@Z 00452490 f   SkinBotton.obj
 0001:000514a0       ?DrawDefaultButtonNormal@CButtonDraw@@IAEXAAPAUHDC__@@AAUtagRECT@@AAV?$CStringT@DV?$StrTraitMFC_DLL@DV?$ChTraitsCRT@D@ATL@@@@@ATL@@@Z 004524a0 f   SkinBotton.obj
 0001:000514f0       ?DrawDefaultButtonEnter@CButtonDraw@@IAEXAAPAUHDC__@@AAUtagRECT@@AAV?$CStringT@DV?$StrTraitMFC_DLL@DV?$ChTraitsCRT@D@ATL@@@@@ATL@@@Z 004524f0 f   SkinBotton.obj
 0001:00051540       ?DrawExitButtonNormal@CButtonDraw@@IAEXAAPAUHDC__@@AAUtagRECT@@@Z 00452540 f   SkinBotton.obj
 0001:00051620       ?DrawExitButtonEnter@CButtonDraw@@IAEXAAPAUHDC__@@AAUtagRECT@@@Z 00452620 f   SkinBotton.obj
 0001:00051700       ?OnDestroy@CSkinButton@@AAEXXZ 00452700 f   SkinBotton.obj
 0001:00051720       ?SetToolTipText@CSkinButton@@QAEXV?$CStringT@DV?$StrTraitMFC_DLL@DV?$ChTraitsCRT@D@ATL@@@@@ATL@@@Z 00452720 f   SkinBotton.obj
 0001:00051800       ?RelayEvent@CSkinButton@@QAEXIIJ@Z 00452800 f   SkinBotton.obj
 0001:00051870       ?SetUseTip@CSkinButton@@QAEX_N@Z 00452870 f   SkinBotton.obj
 0001:000518e0       ?DrawBmpShade@CButtonDraw@@IAEXPAVCDC@@AAVCRect@@@Z 004528e0 f   SkinBotton.obj
 0001:00051d30       ?SetPngSkin@CSkinButton@@QAEHV?$CStringT@DV?$StrTraitMFC_DLL@DV?$ChTraitsCRT@D@ATL@@@@@ATL@@@Z 00452d30 f   SkinBotton.obj
 0001:00051eb0       ?DrawImage@CSkinButton@@QAEXAAVGraphics@Gdiplus@@@Z 00452eb0 f   SkinBotton.obj
 0001:00051f90       ?SetPngFrame@CSkinButton@@UAEHV?$CStringT@DV?$StrTraitMFC_DLL@DV?$ChTraitsCRT@D@ATL@@@@@ATL@@@Z 00452f90 f i SkinBotton.obj
 0001:00051f90       ?SetPngHoverSkin@CSkinButton@@UAEHV?$CStringT@DV?$StrTraitMFC_DLL@DV?$ChTraitsCRT@D@ATL@@@@@ATL@@@Z 00452f90 f i SkinBotton.obj
 0001:00051fc0       ??_GCSkinButton@@UAEPAXI@Z 00452fc0 f i SkinBotton.obj
 0001:00051fc0       ??_ECSkinButton@@UAEPAXI@Z 00452fc0 f i SkinBotton.obj
 0001:00051ff0       ?GetText@CSkinButton@@QBE?AV?$CStringT@DV?$StrTraitMFC_DLL@DV?$ChTraitsCRT@D@ATL@@@@@ATL@@XZ 00452ff0 f i SkinBotton.obj
 0001:00052030       ??_ECButtonDraw@@UAEPAXI@Z 00453030 f i SkinBotton.obj
 0001:00052030       ??_GCButtonDraw@@UAEPAXI@Z 00453030 f i SkinBotton.obj
 0001:00052060       ??0CGdiPlusBitmap@CSkinButton@@QAE@XZ 00453060 f i SkinBotton.obj
 0001:00052090       ?Load@CGdiPlusBitmap@CSkinButton@@QAE_NPB_W@Z 00453090 f i SkinBotton.obj
 0001:00052090       ?Load@CGdiPlusBitmap@@QAE_NPB_W@Z 00453090 f i SkinButton2.obj
 0001:000520d0       ?Empty@CGdiPlusBitmap@@QAEXXZ 004530d0 f i SkinButton2.obj
 0001:000520d0       ?Empty@CGdiPlusBitmap@CSkinButton@@QAEXXZ 004530d0 f i SkinBotton.obj
 0001:00052120       ??_ECGdiPlusBitmap@CSkinButton@@UAEPAXI@Z 00453120 f i SkinBotton.obj
 0001:00052120       ??_GCGdiPlusBitmap@CSkinButton@@UAEPAXI@Z 00453120 f i SkinBotton.obj
 0001:00052150       ??1CGdiPlusBitmap@CSkinButton@@UAE@XZ 00453150 f i SkinBotton.obj
 0001:00052170       ?GetBitmapDimension@CBitmap@@QBE?AVCSize@@XZ 00453170 f i SkinBotton.obj
 0001:000521b0       ??0CButton@@QAE@XZ         004531b0 f i SkinBotton.obj
 0001:000521d0       ??_GCButton@@UAEPAXI@Z     004531d0 f i SkinBotton.obj
 0001:000521d0       ??_ECButton@@UAEPAXI@Z     004531d0 f i SkinBotton.obj
 0001:00052200       ?Activate@CToolTipCtrl@@QAEXH@Z 00453200 f i SkinBotton.obj
 0001:00052230       ?RelayEvent@CToolTipCtrl@@QAEXPAUtagMSG@@@Z 00453230 f i SkinBotton.obj
 0001:00052260       ?Add@CImageList@@QAEHPAVCBitmap@@K@Z 00453260 f i SkinBotton.obj
 0001:00052290       ?Draw@CImageList@@QAEHPAVCDC@@HUtagPOINT@@I@Z 00453290 f i SkinBotton.obj
 0001:000522d0       ?SetMaxTipWidth@CToolTipCtrl@@QAEHH@Z 004532d0 f i SkinBotton.obj
 0001:00052300       ??0PointF@Gdiplus@@QAE@ABV01@@Z 00453300 f i SkinBotton.obj
 0001:00052330       ??0RectF@Gdiplus@@QAE@XZ   00453330 f i SkinBotton.obj
 0001:00052370       ??0RectF@Gdiplus@@QAE@MMMM@Z 00453370 f i SkinBotton.obj
 0001:00052370       ??0CRect@@QAE@HHHH@Z       00453370 f i CUIManager.obj
 0001:00052370       ??0CRect@@QAE@UtagPOINT@@0@Z 00453370 f i WToolTips.obj
 0001:00052370       ??0Rect@Gdiplus@@QAE@HHHH@Z 00453370 f i SubSkinButton.obj
 0001:000523b0       ??0Color@Gdiplus@@QAE@XZ   004533b0 f i SkinBotton.obj
 0001:000523d0       ?MakeARGB@Color@Gdiplus@@SAKEEEE@Z 004533d0 f i SkinBotton.obj
 0001:00052400       ??0LinearGradientBrush@Gdiplus@@QAE@ABVRectF@1@ABVColor@1@1W4LinearGradientMode@1@@Z 00453400 f i SkinBotton.obj
 0001:00052490       ??1Brush@Gdiplus@@UAE@XZ   00453490 f i SkinBotton.obj
 0001:000524b0       ?Clone@Brush@Gdiplus@@UBEPAV12@XZ 004534b0 f i SkinBotton.obj
 0001:00052560       ??3GdiplusBase@Gdiplus@@SAXPAX@Z 00453560 f i SkinBotton.obj
 0001:00052570       ??2GdiplusBase@Gdiplus@@SAPAXI@Z 00453570 f i SkinBotton.obj
 0001:00052580       ??0Brush@Gdiplus@@IAE@XZ   00453580 f i SkinBotton.obj
 0001:000525b0       ??0Brush@Gdiplus@@IAE@PAVGpBrush@1@W4Status@1@@Z 004535b0 f i SkinBotton.obj
 0001:000525e0       ?SetStatus@Brush@Gdiplus@@IBE?AW4Status@2@W432@@Z 004535e0 f i SkinBotton.obj
 0001:000525e0       ?SetStatus@Image@Gdiplus@@IBE?AW4Status@2@W432@@Z 004535e0 f i SkinBotton.obj
 0001:00052610       ??_GBrush@Gdiplus@@UAEPAXI@Z 00453610 f i SkinBotton.obj
 0001:00052610       ??_EBrush@Gdiplus@@UAEPAXI@Z 00453610 f i SkinBotton.obj
 0001:00052640       ??0Graphics@Gdiplus@@QAE@PAUHDC__@@@Z 00453640 f i SkinBotton.obj
 0001:00052680       ??1Graphics@Gdiplus@@QAE@XZ 00453680 f i SkinBotton.obj
 0001:000526a0       ?SetSmoothingMode@Graphics@Gdiplus@@QAE?AW4Status@2@W4SmoothingMode@2@@Z 004536a0 f i SkinBotton.obj
 0001:000526d0       ?FillPolygon@Graphics@Gdiplus@@QAE?AW4Status@2@PBVBrush@2@PBVPointF@2@HW4FillMode@2@@Z 004536d0 f i SkinBotton.obj
 0001:00052710       ?DrawImage@Graphics@Gdiplus@@QAE?AW4Status@2@PAVImage@2@ABVRectF@2@@Z 00453710 f i SkinBotton.obj
 0001:00052750       ?DrawImage@Graphics@Gdiplus@@QAE?AW4Status@2@PAVImage@2@MMMM@Z 00453750 f i SkinBotton.obj
 0001:000527a0       ?GetWidth@Image@Gdiplus@@QAEIXZ 004537a0 f i SkinBotton.obj
 0001:000527d0       ?GetHeight@Image@Gdiplus@@QAEIXZ 004537d0 f i SkinBotton.obj
 0001:00052800       ?GetLastStatus@Image@Gdiplus@@QBE?AW4Status@2@XZ 00453800 f i SkinBotton.obj
 0001:00052830       ?FromFile@Bitmap@Gdiplus@@SAPAV12@PB_WH@Z 00453830 f i SkinBotton.obj
 0001:000528a0       ??0Bitmap@Gdiplus@@QAE@PB_WH@Z 004538a0 f i SkinBotton.obj
 0001:00052940       ??0Image@Gdiplus@@IAE@XZ   00453940 f i SkinBotton.obj
 0001:00052960       ??_EImage@Gdiplus@@UAEPAXI@Z 00453960 f i SkinBotton.obj
 0001:00052960       ??_GImage@Gdiplus@@UAEPAXI@Z 00453960 f i SkinBotton.obj
 0001:00052990       ??1Image@Gdiplus@@UAE@XZ   00453990 f i SkinBotton.obj
 0001:000529b0       ?Clone@Image@Gdiplus@@UAEPAV12@XZ 004539b0 f i SkinBotton.obj
 0001:00052a50       ??0Image@Gdiplus@@IAE@PAVGpImage@1@W4Status@1@@Z 00453a50 f i SkinBotton.obj
 0001:00052a80       ?SetNativeBrush@Brush@Gdiplus@@IAEXPAVGpBrush@2@@Z 00453a80 f i SkinBotton.obj
 0001:00052a80       ?SetNativeImage@Image@Gdiplus@@IAEXPAVGpImage@2@@Z 00453a80 f i SkinBotton.obj
 0001:00052aa0       ??_GBitmap@Gdiplus@@UAEPAXI@Z 00453aa0 f i SkinBotton.obj
 0001:00052aa0       ??_EBitmap@Gdiplus@@UAEPAXI@Z 00453aa0 f i SkinBotton.obj
 0001:00052ad0       ??1Bitmap@Gdiplus@@UAE@XZ  00453ad0 f i SkinBotton.obj
 0001:00052af0       ?CreateObject@CSkinWnd@@SGPAVCObject@@XZ 00453af0 f   SkinWnd.obj
 0001:00052b60       ?GetThisClass@CSkinWnd@@SGPAUCRuntimeClass@@XZ 00453b60 f   SkinWnd.obj
 0001:00052b70       ?GetRuntimeClass@CSkinWnd@@UBEPAUCRuntimeClass@@XZ 00453b70 f   SkinWnd.obj
 0001:00052b80       ??0CSkinWnd@@QAE@XZ        00453b80 f   SkinWnd.obj
 0001:00052cc0       ??1CSkinWnd@@UAE@XZ        00453cc0 f   SkinWnd.obj
 0001:00052e70       ?GetThisMessageMap@CSkinWnd@@KGPBUAFX_MSGMAP@@XZ 00453e70 f   SkinWnd.obj
 0001:00052e80       ?GetMessageMap@CSkinWnd@@MBEPBUAFX_MSGMAP@@XZ 00453e80 f   SkinWnd.obj
 0001:00052e90       ?PreCreateWindow@CSkinWnd@@MAEHAAUtagCREATESTRUCTA@@@Z 00453e90 f   SkinWnd.obj
 0001:00052f90       ?OnPaint@CSkinWnd@@QAEXXZ  00453f90 f   SkinWnd.obj
 0001:000531e0       ?UpdateScrollBar@CSkinWnd@@AAEXXZ 004541e0 f   SkinWnd.obj
 0001:00053210       ?UpdateScrollBarPosition@CSkinWnd@@AAEXXZ 00454210 f   SkinWnd.obj
 0001:00053240       ?UpdateControlsEnable@CSkinWnd@@QAEXH@Z 00454240 f   SkinWnd.obj
 0001:000532c0       ?InitScrollBar@CSkinWnd@@QAEXXZ 004542c0 f   SkinWnd.obj
 0001:00053500       ?OnVScroll@CSkinWnd@@QAEXIIPAVCScrollBar@@@Z 00454500 f   SkinWnd.obj
 0001:00053970       ?OnSize@CSkinWnd@@QAEXIHH@Z 00454970 f   SkinWnd.obj
 0001:00053a10       ?OnMouseWheel@CSkinWnd@@QAEHIFVCPoint@@@Z 00454a10 f   SkinWnd.obj
 0001:00053a50       ?InsertSmallSkin@CSkinWnd@@QAEXAAV?$basic_string@DU?$char_traits@D@std@@V?$allocator@D@2@@std@@PAVCBitmap@@V23@_N@Z 00454a50 f   SkinWnd.obj
 0001:00053bd0       ?DownloadSkinFinish@CSkinWnd@@QAEXV?$CStringT@DV?$StrTraitMFC_DLL@DV?$ChTraitsCRT@D@ATL@@@@@ATL@@@Z 00454bd0 f   SkinWnd.obj
 0001:00053cc0       ?OnCreate@CSkinWnd@@QAEHPAUtagCREATESTRUCTA@@@Z 00454cc0 f   SkinWnd.obj
 0001:000544a0       ?OnDestroy@CSkinWnd@@QAEXXZ 004554a0 f   SkinWnd.obj
 0001:00054530       ?OnNcPaint@CSkinWnd@@QAEXXZ 00455530 f   SkinWnd.obj
 0001:00054540       ?OnCliekButton@CSkinWnd@@UAEXPAVCButton@@@Z 00455540 f   SkinWnd.obj
 0001:00054670       ?EnableSkinBtn@CSkinWnd@@QAEXH@Z 00455670 f   SkinWnd.obj
 0001:00054710       ?SetTipText@CSkinWnd@@QAEXV?$CStringT@DV?$StrTraitMFC_DLL@DV?$ChTraitsCRT@D@ATL@@@@@ATL@@0@Z 00455710 f   SkinWnd.obj
 0001:00054860       ?SetUseTip@CSkinWnd@@QAEX_N@Z 00455860 f   SkinWnd.obj
 0001:00054900       ?OnSkinDownLoadFailed@CSkinWnd@@QAEJIJ@Z 00455900 f   SkinWnd.obj
 0001:00054930       ?ShowWindow@CSkinWnd@@QAEXH@Z 00455930 f   SkinWnd.obj
 0001:000549d0       ?OnChangeSubject@CSkinWnd@@QAEXXZ 004559d0 f   SkinWnd.obj
 0001:00054ab0       ?SkinChanged@CSkinWnd@@QAEXABV?$basic_string@DU?$char_traits@D@std@@V?$allocator@D@2@@std@@@Z 00455ab0 f   SkinWnd.obj
 0001:00054c90       ?ShowItemToolTip@CMyListCtrl@@UAEXHH@Z 00455c90 f i MyListCtrl.obj
 0001:00054c90       ?OnSendChangeColor@CSkinWnd@@MAEXKI@Z 00455c90 f i SkinWnd.obj
 0001:00054c90       ?P2POb_DownFailed@P2PObserver@@UAEXABV?$basic_string@DU?$char_traits@D@std@@V?$allocator@D@2@@std@@W4P2P_DOWN_FAILED_REASON@@@Z 00455c90 f i IChangeColorMgr.obj
 0001:00054c90       ?OnchangeColor@IWndEventListener@@UAEXKI@Z 00455c90 f i IChangeColorMgr.obj
 0001:00054c90       ?ShowSubItemToolTip@CMyListCtrl@@UAEXHH@Z 00455c90 f i MyListCtrl.obj
 0001:00054c90       ?OnChangeSkinAndSub@IEventListener@@UAEXABV?$CStringT@DV?$StrTraitMFC_DLL@DV?$ChTraitsCRT@D@ATL@@@@@ATL@@0@Z 00455c90 f i IChangeColorMgr.obj
 0001:00054ca0       ?OnSendChangeSkin@IEventListener@@UAEXV?$CStringT@DV?$StrTraitMFC_DLL@DV?$ChTraitsCRT@D@ATL@@@@@ATL@@@Z 00455ca0 f i IChangeColorMgr.obj
 0001:00054ca0       ?OnSendChangeSkin@CSkinWnd@@MAEXV?$CStringT@DV?$StrTraitMFC_DLL@DV?$ChTraitsCRT@D@ATL@@@@@ATL@@@Z 00455ca0 f i SkinWnd.obj
 0001:00054cc0       ??_GCSkinWnd@@UAEPAXI@Z    00455cc0 f i SkinWnd.obj
 0001:00054cc0       ??_ECSkinWnd@@UAEPAXI@Z    00455cc0 f i SkinWnd.obj
 0001:00054cf0       ??1?$map@V?$CStringT@DV?$StrTraitMFC_DLL@DV?$ChTraitsCRT@D@ATL@@@@@ATL@@PAVCSkinButton@@U?$less@V?$CStringT@DV?$StrTraitMFC_DLL@DV?$ChTraitsCRT@D@ATL@@@@@ATL@@@std@@V?$allocator@U?$pair@$$CBV?$CStringT@DV?$StrTraitMFC_DLL@DV?$ChTraitsCRT@D@ATL@@@@@ATL@@PAVCSkinButton@@@std@@@5@@std@@QAE@XZ 00455cf0 f i SkinWnd.obj
 0001:00054d10       ?GetBitmapEx@CSkinButton@@QBEPAVCBitmap@@XZ 00455d10 f i SkinWnd.obj
 0001:00054d30       ?SetBitmap@CSkinButton@@QAEXPAVCBitmap@@@Z 00455d30 f i SkinWnd.obj
 0001:00054d50       ?SetSkinPath@CSkinButton@@QAEXV?$basic_string@DU?$char_traits@D@std@@V?$allocator@D@2@@std@@@Z 00455d50 f i SkinWnd.obj
 0001:00054db0       ?SetBottonType@CSkinButton@@QAEXI@Z 00455db0 f i SkinWnd.obj
 0001:00054dd0       ?SetText@CSkinButton@@QAEXV?$CStringT@DV?$StrTraitMFC_DLL@DV?$ChTraitsCRT@D@ATL@@@@@ATL@@@Z 00455dd0 f i SkinWnd.obj
 0001:00054e30       ?SetListener@CSkinButton@@QAEXPAVIEventListener@@@Z 00455e30 f i SkinWnd.obj
 0001:00054e50       ?SetSelected@CSkinButton@@QAEX_N@Z 00455e50 f i SkinWnd.obj
 0001:00054e70       ?GetSkinPath@CSkinButton@@QBE?AV?$CStringT@DV?$StrTraitMFC_DLL@DV?$ChTraitsCRT@D@ATL@@@@@ATL@@XZ 00455e70 f i SkinWnd.obj
 0001:00054eb0       ?GetSelected@CSkinButton@@QBE_NXZ 00455eb0 f i SkinWnd.obj
 0001:00054ed0       ??0?$list@PAVCSkinButton@@V?$allocator@PAVCSkinButton@@@std@@@std@@QAE@XZ 00455ed0 f i SkinWnd.obj
 0001:00054f10       ??1?$list@PAVIMessageObserver@@V?$allocator@PAVIMessageObserver@@@std@@@std@@QAE@XZ 00455f10 f i PlayBoxDlg.obj
 0001:00054f10       ??1?$list@PAVAfxUserConfig_Observer@@V?$allocator@PAVAfxUserConfig_Observer@@@std@@@std@@QAE@XZ 00455f10 f i AfxUserConfig.obj
 0001:00054f10       ??1?$list@PAVCSkinButton@@V?$allocator@PAVCSkinButton@@@std@@@std@@QAE@XZ 00455f10 f i SkinWnd.obj
 0001:00054f10       ??1?$list@PAUMESSAGE_OBSERVER@@V?$allocator@PAUMESSAGE_OBSERVER@@@std@@@std@@QAE@XZ 00455f10 f i CMessageManager.obj
 0001:00054f10       ??1?$list@PAVCSubLabel@@V?$allocator@PAVCSubLabel@@@std@@@std@@QAE@XZ 00455f10 f i SubjectChildWnd.obj
 0001:00054f30       ?begin@?$list@PAVCSubLabel@@V?$allocator@PAVCSubLabel@@@std@@@std@@QAE?AViterator@12@XZ 00455f30 f i SubjectChildWnd.obj
 0001:00054f30       ?begin@?$list@PAUMESSAGE_OBSERVER@@V?$allocator@PAUMESSAGE_OBSERVER@@@std@@@std@@QAE?AViterator@12@XZ 00455f30 f i CMessageManager.obj
 0001:00054f30       ?begin@?$list@PAVIMessageObserver@@V?$allocator@PAVIMessageObserver@@@std@@@std@@QAE?AViterator@12@XZ 00455f30 f i PlayBoxDlg.obj
 0001:00054f30       ?begin@?$list@PAVCSkinButton@@V?$allocator@PAVCSkinButton@@@std@@@std@@QAE?AViterator@12@XZ 00455f30 f i SkinWnd.obj
 0001:00054f30       ?begin@?$list@PAVAfxUserConfig_Observer@@V?$allocator@PAVAfxUserConfig_Observer@@@std@@@std@@QAE?AViterator@12@XZ 00455f30 f i AfxUserConfig.obj
 0001:00054f60       ?push_back@?$list@PAVCSkinButton@@V?$allocator@PAVCSkinButton@@@std@@@std@@QAEXABQAVCSkinButton@@@Z 00455f60 f i SkinWnd.obj
 0001:00054f90       ??Diterator@?$list@PAVAfxUserConfig_Observer@@V?$allocator@PAVAfxUserConfig_Observer@@@std@@@std@@QBEAAPAVAfxUserConfig_Observer@@XZ 00455f90 f i AfxUserConfig.obj
 0001:00054f90       ??Diterator@?$list@PAVIMessageObserver@@V?$allocator@PAVIMessageObserver@@@std@@@std@@QBEAAPAVIMessageObserver@@XZ 00455f90 f i PlayBoxDlg.obj
 0001:00054f90       ??Diterator@?$list@PAVCSkinButton@@V?$allocator@PAVCSkinButton@@@std@@@std@@QBEAAPAVCSkinButton@@XZ 00455f90 f i SkinWnd.obj
 0001:00054f90       ??Diterator@?$list@PAUMESSAGE_OBSERVER@@V?$allocator@PAUMESSAGE_OBSERVER@@@std@@@std@@QBEAAPAUMESSAGE_OBSERVER@@XZ 00455f90 f i CMessageManager.obj
 0001:00054f90       ??Diterator@?$list@PAVCSubLabel@@V?$allocator@PAVCSubLabel@@@std@@@std@@QBEAAPAVCSubLabel@@XZ 00455f90 f i SubjectChildWnd.obj
 0001:00054fb0       ??0?$map@V?$CStringT@DV?$StrTraitMFC_DLL@DV?$ChTraitsCRT@D@ATL@@@@@ATL@@PAVCSkinButton@@U?$less@V?$CStringT@DV?$StrTraitMFC_DLL@DV?$ChTraitsCRT@D@ATL@@@@@ATL@@@std@@V?$allocator@U?$pair@$$CBV?$CStringT@DV?$StrTraitMFC_DLL@DV?$ChTraitsCRT@D@ATL@@@@@ATL@@PAVCSkinButton@@@std@@@5@@std@@QAE@XZ 00455fb0 f i SkinWnd.obj
 0001:00054fe0       ??1?$_Tree@V?$_Tmap_traits@V?$CStringT@DV?$StrTraitMFC_DLL@DV?$ChTraitsCRT@D@ATL@@@@@ATL@@PAVCSkinButton@@U?$less@V?$CStringT@DV?$StrTraitMFC_DLL@DV?$ChTraitsCRT@D@ATL@@@@@ATL@@@std@@V?$allocator@U?$pair@$$CBV?$CStringT@DV?$StrTraitMFC_DLL@DV?$ChTraitsCRT@D@ATL@@@@@ATL@@PAVCSkinButton@@@std@@@5@$0A@@std@@@std@@QAE@XZ 00455fe0 f i SkinWnd.obj
 0001:00055000       ?insert@?$_Tree@V?$_Tmap_traits@V?$CStringT@DV?$StrTraitMFC_DLL@DV?$ChTraitsCRT@D@ATL@@@@@ATL@@PAVCSkinButton@@U?$less@V?$CStringT@DV?$StrTraitMFC_DLL@DV?$ChTraitsCRT@D@ATL@@@@@ATL@@@std@@V?$allocator@U?$pair@$$CBV?$CStringT@DV?$StrTraitMFC_DLL@DV?$ChTraitsCRT@D@ATL@@@@@ATL@@PAVCSkinButton@@@std@@@5@$0A@@std@@@std@@QAE?AU?$pair@Viterator@?$_Tree@V?$_Tmap_traits@V?$CStringT@DV?$StrTraitMFC_DLL@DV?$ChTraitsCRT@D@ATL@@@@@ATL@@PAVCSkinButton@@U?$less@V?$CStringT@DV?$StrTraitMFC_DLL@DV?$ChTraitsCRT@D@ATL@@@@@ATL@@@std@@V?$allocator@U?$pair@$$CBV?$CStringT@DV?$StrTraitMFC_DLL@DV?$ChTraitsCRT@D@ATL@@@@@ATL@@PAVCSkinButton@@@std@@@5@$0A@@std@@@std@@_N@2@ABU?$pair@$$CBV?$CStringT@DV?$StrTraitMFC_DLL@DV?$ChTraitsCRT@D@ATL@@@@@ATL@@PAVCSkinButton@@@2@@Z 00456000 f i SkinWnd.obj
 0001:000551b0       ?erase@?$_Tree@V?$_Tmap_traits@V?$CStringT@DV?$StrTraitMFC_DLL@DV?$ChTraitsCRT@D@ATL@@@@@ATL@@PAVCSkinButton@@U?$less@V?$CStringT@DV?$StrTraitMFC_DLL@DV?$ChTraitsCRT@D@ATL@@@@@ATL@@@std@@V?$allocator@U?$pair@$$CBV?$CStringT@DV?$StrTraitMFC_DLL@DV?$ChTraitsCRT@D@ATL@@@@@ATL@@PAVCSkinButton@@@std@@@5@$0A@@std@@@std@@QAE?AViterator@12@V312@@Z 004561b0 f i SkinWnd.obj
 0001:00055960       ?clear@?$_Tree@V?$_Tmap_traits@V?$CStringT@DV?$StrTraitMFC_DLL@DV?$ChTraitsCRT@D@ATL@@@@@ATL@@PAVCSkinButton@@U?$less@V?$CStringT@DV?$StrTraitMFC_DLL@DV?$ChTraitsCRT@D@ATL@@@@@ATL@@@std@@V?$allocator@U?$pair@$$CBV?$CStringT@DV?$StrTraitMFC_DLL@DV?$ChTraitsCRT@D@ATL@@@@@ATL@@PAVCSkinButton@@@std@@@5@$0A@@std@@@std@@QAEXXZ 00456960 f i SkinWnd.obj
 0001:000559c0       ??0?$pair@V?$CStringT@DV?$StrTraitMFC_DLL@DV?$ChTraitsCRT@D@ATL@@@@@ATL@@PAVCSkinButton@@@std@@QAE@XZ 004569c0 f i SkinWnd.obj
 0001:000559f0       ?_Insert@?$list@PAVCSkinButton@@V?$allocator@PAVCSkinButton@@@std@@@std@@QAEXViterator@12@ABQAVCSkinButton@@@Z 004569f0 f i SkinWnd.obj
 0001:00055a70       ?_Buynode@?$list@PAVCSkinButton@@V?$allocator@PAVCSkinButton@@@std@@@std@@IAEPAU_Node@?$_List_nod@PAVCSkinButton@@V?$allocator@PAVCSkinButton@@@std@@@2@XZ 00456a70 f i SkinWnd.obj
 0001:00055b50       ??0?$_Tree@V?$_Tmap_traits@V?$CStringT@DV?$StrTraitMFC_DLL@DV?$ChTraitsCRT@D@ATL@@@@@ATL@@PAVCSkinButton@@U?$less@V?$CStringT@DV?$StrTraitMFC_DLL@DV?$ChTraitsCRT@D@ATL@@@@@ATL@@@std@@V?$allocator@U?$pair@$$CBV?$CStringT@DV?$StrTraitMFC_DLL@DV?$ChTraitsCRT@D@ATL@@@@@ATL@@PAVCSkinButton@@@std@@@5@$0A@@std@@@std@@QAE@ABU?$less@V?$CStringT@DV?$StrTraitMFC_DLL@DV?$ChTraitsCRT@D@ATL@@@@@ATL@@@1@ABV?$allocator@U?$pair@$$CBV?$CStringT@DV?$StrTraitMFC_DLL@DV?$ChTraitsCRT@D@ATL@@@@@ATL@@PAVCSkinButton@@@std@@@1@@Z 00456b50 f i SkinWnd.obj
 0001:00055b90       ?_Erase@?$_Tree@V?$_Tmap_traits@V?$CStringT@DV?$StrTraitMFC_DLL@DV?$ChTraitsCRT@D@ATL@@@@@ATL@@PAVCSkinButton@@U?$less@V?$CStringT@DV?$StrTraitMFC_DLL@DV?$ChTraitsCRT@D@ATL@@@@@ATL@@@std@@V?$allocator@U?$pair@$$CBV?$CStringT@DV?$StrTraitMFC_DLL@DV?$ChTraitsCRT@D@ATL@@@@@ATL@@PAVCSkinButton@@@std@@@5@$0A@@std@@@std@@IAEXPAU_Node@?$_Tree_nod@V?$_Tmap_traits@V?$CStringT@DV?$StrTraitMFC_DLL@DV?$ChTraitsCRT@D@ATL@@@@@ATL@@PAVCSkinButton@@U?$less@V?$CStringT@DV?$StrTraitMFC_DLL@DV?$ChTraitsCRT@D@ATL@@@@@ATL@@@std@@V?$allocator@U?$pair@$$CBV?$CStringT@DV?$StrTraitMFC_DLL@DV?$ChTraitsCRT@D@ATL@@@@@ATL@@PAVCSkinButton@@@std@@@5@$0A@@std@@@2@@Z 00456b90 f i SkinWnd.obj
 0001:00055c10       ?_Insert@?$_Tree@V?$_Tmap_traits@V?$CStringT@DV?$StrTraitMFC_DLL@DV?$ChTraitsCRT@D@ATL@@@@@ATL@@PAVCSkinButton@@U?$less@V?$CStringT@DV?$StrTraitMFC_DLL@DV?$ChTraitsCRT@D@ATL@@@@@ATL@@@std@@V?$allocator@U?$pair@$$CBV?$CStringT@DV?$StrTraitMFC_DLL@DV?$ChTraitsCRT@D@ATL@@@@@ATL@@PAVCSkinButton@@@std@@@5@$0A@@std@@@std@@IAE?AViterator@12@_NPAU_Node@?$_Tree_nod@V?$_Tmap_traits@V?$CStringT@DV?$StrTraitMFC_DLL@DV?$ChTraitsCRT@D@ATL@@@@@ATL@@PAVCSkinButton@@U?$less@V?$CStringT@DV?$StrTraitMFC_DLL@DV?$ChTraitsCRT@D@ATL@@@@@ATL@@@std@@V?$allocator@U?$pair@$$CBV?$CStringT@DV?$StrTraitMFC_DLL@DV?$ChTraitsCRT@D@ATL@@@@@ATL@@PAVCSkinButton@@@std@@@5@$0A@@std@@@2@ABU?$pair@$$CBV?$CStringT@DV?$StrTraitMFC_DLL@DV?$ChTraitsCRT@D@ATL@@@@@ATL@@PAVCSkinButton@@@2@@Z 00456c10 f i SkinWnd.obj
 0001:00056070       ?_Rrotate@?$_Tree@V?$_Tmap_traits@KPAVIData@@U?$less@K@std@@V?$allocator@U?$pair@$$CBKPAVIData@@@std@@@3@$0A@@std@@@std@@IAEXPAU_Node@?$_Tree_nod@V?$_Tmap_traits@KPAVIData@@U?$less@K@std@@V?$allocator@U?$pair@$$CBKPAVIData@@@std@@@3@$0A@@std@@@2@@Z 00457070 f i CDataManager.obj
 0001:00056070       ?_Rrotate@?$_Tree@V?$_Tmap_traits@V?$CStringT@DV?$StrTraitMFC_DLL@DV?$ChTraitsCRT@D@ATL@@@@@ATL@@PAVCSkinButton@@U?$less@V?$CStringT@DV?$StrTraitMFC_DLL@DV?$ChTraitsCRT@D@ATL@@@@@ATL@@@std@@V?$allocator@U?$pair@$$CBV?$CStringT@DV?$StrTraitMFC_DLL@DV?$ChTraitsCRT@D@ATL@@@@@ATL@@PAVCSkinButton@@@std@@@5@$0A@@std@@@std@@IAEXPAU_Node@?$_Tree_nod@V?$_Tmap_traits@V?$CStringT@DV?$StrTraitMFC_DLL@DV?$ChTraitsCRT@D@ATL@@@@@ATL@@PAVCSkinButton@@U?$less@V?$CStringT@DV?$StrTraitMFC_DLL@DV?$ChTraitsCRT@D@ATL@@@@@ATL@@@std@@V?$allocator@U?$pair@$$CBV?$CStringT@DV?$StrTraitMFC_DLL@DV?$ChTraitsCRT@D@ATL@@@@@ATL@@PAVCSkinButton@@@std@@@5@$0A@@std@@@2@@Z 00457070 f i SkinWnd.obj
 0001:00056070       ?_Rrotate@?$_Tree@V?$_Tmap_traits@V?$CStringT@DV?$StrTraitMFC_DLL@DV?$ChTraitsCRT@D@ATL@@@@@ATL@@KU?$less@V?$CStringT@DV?$StrTraitMFC_DLL@DV?$ChTraitsCRT@D@ATL@@@@@ATL@@@std@@V?$allocator@U?$pair@$$CBV?$CStringT@DV?$StrTraitMFC_DLL@DV?$ChTraitsCRT@D@ATL@@@@@ATL@@K@std@@@4@$0A@@std@@@std@@IAEXPAU_Node@?$_Tree_nod@V?$_Tmap_traits@V?$CStringT@DV?$StrTraitMFC_DLL@DV?$ChTraitsCRT@D@ATL@@@@@ATL@@KU?$less@V?$CStringT@DV?$StrTraitMFC_DLL@DV?$ChTraitsCRT@D@ATL@@@@@ATL@@@std@@V?$allocator@U?$pair@$$CBV?$CStringT@DV?$StrTraitMFC_DLL@DV?$ChTraitsCRT@D@ATL@@@@@ATL@@K@std@@@4@$0A@@std@@@2@@Z 00457070 f i SkinMgr.obj
 0001:00056070       ?_Rrotate@?$_Tree@V?$_Tmap_traits@HPAVBaseDialog@@U?$less@H@std@@V?$allocator@U?$pair@$$CBHPAVBaseDialog@@@std@@@3@$0A@@std@@@std@@IAEXPAU_Node@?$_Tree_nod@V?$_Tmap_traits@HPAVBaseDialog@@U?$less@H@std@@V?$allocator@U?$pair@$$CBHPAVBaseDialog@@@std@@@3@$0A@@std@@@2@@Z 00457070 f i DlgConfig.obj
 0001:00056070       ?_Rrotate@?$_Tree@V?$_Tmap_traits@V?$CStringT@DV?$StrTraitMFC_DLL@DV?$ChTraitsCRT@D@ATL@@@@@ATL@@PAVCDibBitmap@@U?$less@V?$CStringT@DV?$StrTraitMFC_DLL@DV?$ChTraitsCRT@D@ATL@@@@@ATL@@@std@@V?$allocator@U?$pair@$$CBV?$CStringT@DV?$StrTraitMFC_DLL@DV?$ChTraitsCRT@D@ATL@@@@@ATL@@PAVCDibBitmap@@@std@@@5@$0A@@std@@@std@@IAEXPAU_Node@?$_Tree_nod@V?$_Tmap_traits@V?$CStringT@DV?$StrTraitMFC_DLL@DV?$ChTraitsCRT@D@ATL@@@@@ATL@@PAVCDibBitmap@@U?$less@V?$CStringT@DV?$StrTraitMFC_DLL@DV?$ChTraitsCRT@D@ATL@@@@@ATL@@@std@@V?$allocator@U?$pair@$$CBV?$CStringT@DV?$StrTraitMFC_DLL@DV?$ChTraitsCRT@D@ATL@@@@@ATL@@PAVCDibBitmap@@@std@@@5@$0A@@std@@@2@@Z 00457070 f i SkinMgr.obj
 0001:000561a0       ?_Tidy@?$_Tree@V?$_Tmap_traits@V?$CStringT@DV?$StrTraitMFC_DLL@DV?$ChTraitsCRT@D@ATL@@@@@ATL@@PAVCSkinButton@@U?$less@V?$CStringT@DV?$StrTraitMFC_DLL@DV?$ChTraitsCRT@D@ATL@@@@@ATL@@@std@@V?$allocator@U?$pair@$$CBV?$CStringT@DV?$StrTraitMFC_DLL@DV?$ChTraitsCRT@D@ATL@@@@@ATL@@PAVCSkinButton@@@std@@@5@$0A@@std@@@std@@IAEXXZ 004571a0 f i SkinWnd.obj
 0001:00056250       ?destroy@?$allocator@U_Node@?$_Tree_nod@V?$_Tmap_traits@V?$CStringT@DV?$StrTraitMFC_DLL@DV?$ChTraitsCRT@D@ATL@@@@@ATL@@PAVCDibBitmap@@U?$less@V?$CStringT@DV?$StrTraitMFC_DLL@DV?$ChTraitsCRT@D@ATL@@@@@ATL@@@std@@V?$allocator@U?$pair@$$CBV?$CStringT@DV?$StrTraitMFC_DLL@DV?$ChTraitsCRT@D@ATL@@@@@ATL@@PAVCDibBitmap@@@std@@@5@$0A@@std@@@std@@@std@@QAEXPAU_Node@?$_Tree_nod@V?$_Tmap_traits@V?$CStringT@DV?$StrTraitMFC_DLL@DV?$ChTraitsCRT@D@ATL@@@@@ATL@@PAVCDibBitmap@@U?$less@V?$CStringT@DV?$StrTraitMFC_DLL@DV?$ChTraitsCRT@D@ATL@@@@@ATL@@@std@@V?$allocator@U?$pair@$$CBV?$CStringT@DV?$StrTraitMFC_DLL@DV?$ChTraitsCRT@D@ATL@@@@@ATL@@PAVCDibBitmap@@@std@@@5@$0A@@std@@@2@@Z 00457250 f i SkinMgr.obj
 0001:00056250       ?destroy@?$allocator@U_Node@?$_Tree_nod@V?$_Tmap_traits@V?$CStringT@DV?$StrTraitMFC_DLL@DV?$ChTraitsCRT@D@ATL@@@@@ATL@@KU?$less@V?$CStringT@DV?$StrTraitMFC_DLL@DV?$ChTraitsCRT@D@ATL@@@@@ATL@@@std@@V?$allocator@U?$pair@$$CBV?$CStringT@DV?$StrTraitMFC_DLL@DV?$ChTraitsCRT@D@ATL@@@@@ATL@@K@std@@@4@$0A@@std@@@std@@@std@@QAEXPAU_Node@?$_Tree_nod@V?$_Tmap_traits@V?$CStringT@DV?$StrTraitMFC_DLL@DV?$ChTraitsCRT@D@ATL@@@@@ATL@@KU?$less@V?$CStringT@DV?$StrTraitMFC_DLL@DV?$ChTraitsCRT@D@ATL@@@@@ATL@@@std@@V?$allocator@U?$pair@$$CBV?$CStringT@DV?$StrTraitMFC_DLL@DV?$ChTraitsCRT@D@ATL@@@@@ATL@@K@std@@@4@$0A@@std@@@2@@Z 00457250 f i PanesMgr.obj
 0001:00056250       ?destroy@?$allocator@U_Node@?$_Tree_nod@V?$_Tmap_traits@V?$CStringT@DV?$StrTraitMFC_DLL@DV?$ChTraitsCRT@D@ATL@@@@@ATL@@PAVCSkinButton@@U?$less@V?$CStringT@DV?$StrTraitMFC_DLL@DV?$ChTraitsCRT@D@ATL@@@@@ATL@@@std@@V?$allocator@U?$pair@$$CBV?$CStringT@DV?$StrTraitMFC_DLL@DV?$ChTraitsCRT@D@ATL@@@@@ATL@@PAVCSkinButton@@@std@@@5@$0A@@std@@@std@@@std@@QAEXPAU_Node@?$_Tree_nod@V?$_Tmap_traits@V?$CStringT@DV?$StrTraitMFC_DLL@DV?$ChTraitsCRT@D@ATL@@@@@ATL@@PAVCSkinButton@@U?$less@V?$CStringT@DV?$StrTraitMFC_DLL@DV?$ChTraitsCRT@D@ATL@@@@@ATL@@@std@@V?$allocator@U?$pair@$$CBV?$CStringT@DV?$StrTraitMFC_DLL@DV?$ChTraitsCRT@D@ATL@@@@@ATL@@PAVCSkinButton@@@std@@@5@$0A@@std@@@2@@Z 00457250 f i SkinWnd.obj
 0001:00056270       ??0?$pair@Viterator@?$_Tree@V?$_Tmap_traits@V?$CStringT@DV?$StrTraitMFC_DLL@DV?$ChTraitsCRT@D@ATL@@@@@ATL@@PAVCDibBitmap@@U?$less@V?$CStringT@DV?$StrTraitMFC_DLL@DV?$ChTraitsCRT@D@ATL@@@@@ATL@@@std@@V?$allocator@U?$pair@$$CBV?$CStringT@DV?$StrTraitMFC_DLL@DV?$ChTraitsCRT@D@ATL@@@@@ATL@@PAVCDibBitmap@@@std@@@5@$0A@@std@@@std@@_N@std@@QAE@ABViterator@?$_Tree@V?$_Tmap_traits@V?$CStringT@DV?$StrTraitMFC_DLL@DV?$ChTraitsCRT@D@ATL@@@@@ATL@@PAVCDibBitmap@@U?$less@V?$CStringT@DV?$StrTraitMFC_DLL@DV?$ChTraitsCRT@D@ATL@@@@@ATL@@@std@@V?$allocator@U?$pair@$$CBV?$CStringT@DV?$StrTraitMFC_DLL@DV?$ChTraitsCRT@D@ATL@@@@@ATL@@PAVCDibBitmap@@@std@@@5@$0A@@std@@@1@AB_N@Z 00457270 f i SkinMgr.obj
 0001:00056270       ??0?$pair@Viterator@?$_Tree@V?$_Tmap_traits@V?$CStringT@DV?$StrTraitMFC_DLL@DV?$ChTraitsCRT@D@ATL@@@@@ATL@@PAVCSkinButton@@U?$less@V?$CStringT@DV?$StrTraitMFC_DLL@DV?$ChTraitsCRT@D@ATL@@@@@ATL@@@std@@V?$allocator@U?$pair@$$CBV?$CStringT@DV?$StrTraitMFC_DLL@DV?$ChTraitsCRT@D@ATL@@@@@ATL@@PAVCSkinButton@@@std@@@5@$0A@@std@@@std@@_N@std@@QAE@ABViterator@?$_Tree@V?$_Tmap_traits@V?$CStringT@DV?$StrTraitMFC_DLL@DV?$ChTraitsCRT@D@ATL@@@@@ATL@@PAVCSkinButton@@U?$less@V?$CStringT@DV?$StrTraitMFC_DLL@DV?$ChTraitsCRT@D@ATL@@@@@ATL@@@std@@V?$allocator@U?$pair@$$CBV?$CStringT@DV?$StrTraitMFC_DLL@DV?$ChTraitsCRT@D@ATL@@@@@ATL@@PAVCSkinButton@@@std@@@5@$0A@@std@@@1@AB_N@Z 00457270 f i SkinWnd.obj
 0001:00056270       ??0?$pair@Viterator@?$_Tree@V?$_Tmap_traits@PAUHWND__@@UCWndData@@U?$less@PAUHWND__@@@std@@V?$allocator@U?$pair@QAUHWND__@@UCWndData@@@std@@@4@$0A@@std@@@std@@_N@std@@QAE@ABViterator@?$_Tree@V?$_Tmap_traits@PAUHWND__@@UCWndData@@U?$less@PAUHWND__@@@std@@V?$allocator@U?$pair@QAUHWND__@@UCWndData@@@std@@@4@$0A@@std@@@1@AB_N@Z 00457270 f i HostWndMgr.obj
 0001:00056270       ??0?$pair@Viterator@?$_Tree@V?$_Tmap_traits@V?$basic_string@DU?$char_traits@D@std@@V?$allocator@D@2@@std@@PAVCConfigObject@@U?$less@V?$basic_string@DU?$char_traits@D@std@@V?$allocator@D@2@@std@@@2@V?$allocator@U?$pair@$$CBV?$basic_string@DU?$char_traits@D@std@@V?$allocator@D@2@@std@@PAVCConfigObject@@@std@@@2@$0A@@std@@@std@@_N@std@@QAE@ABViterator@?$_Tree@V?$_Tmap_traits@V?$basic_string@DU?$char_traits@D@std@@V?$allocator@D@2@@std@@PAVCConfigObject@@U?$less@V?$basic_string@DU?$char_traits@D@std@@V?$allocator@D@2@@std@@@2@V?$allocator@U?$pair@$$CBV?$basic_string@DU?$char_traits@D@std@@V?$allocator@D@2@@std@@PAVCConfigObject@@@std@@@2@$0A@@std@@@1@AB_N@Z 00457270 f i AfxUserConfig.obj
 0001:00056270       ??0?$pair@Viterator@?$_Tree@V?$_Tmap_traits@V?$basic_string@DU?$char_traits@D@std@@V?$allocator@D@2@@std@@V12@U?$less@V?$basic_string@DU?$char_traits@D@std@@V?$allocator@D@2@@std@@@2@V?$allocator@U?$pair@$$CBV?$basic_string@DU?$char_traits@D@std@@V?$allocator@D@2@@std@@V12@@std@@@2@$0A@@std@@@std@@_N@std@@QAE@ABViterator@?$_Tree@V?$_Tmap_traits@V?$basic_string@DU?$char_traits@D@std@@V?$allocator@D@2@@std@@V12@U?$less@V?$basic_string@DU?$char_traits@D@std@@V?$allocator@D@2@@std@@@2@V?$allocator@U?$pair@$$CBV?$basic_string@DU?$char_traits@D@std@@V?$allocator@D@2@@std@@V12@@std@@@2@$0A@@std@@@1@AB_N@Z 00457270 f i AfxUserConfig.obj
 0001:00056270       ??0?$pair@Viterator@?$_Tree@V?$_Tmap_traits@HPAVBaseDialog@@U?$less@H@std@@V?$allocator@U?$pair@$$CBHPAVBaseDialog@@@std@@@3@$0A@@std@@@std@@_N@std@@QAE@ABViterator@?$_Tree@V?$_Tmap_traits@HPAVBaseDialog@@U?$less@H@std@@V?$allocator@U?$pair@$$CBHPAVBaseDialog@@@std@@@3@$0A@@std@@@1@AB_N@Z 00457270 f i DlgConfig.obj
 0001:00056270       ??0?$pair@Viterator@?$_Tree@V?$_Tmap_traits@HUMYLIST_COLUMN_INFO@@U?$less@H@std@@V?$allocator@U?$pair@$$CBHUMYLIST_COLUMN_INFO@@@std@@@3@$0A@@std@@@std@@_N@std@@QAE@ABViterator@?$_Tree@V?$_Tmap_traits@HUMYLIST_COLUMN_INFO@@U?$less@H@std@@V?$allocator@U?$pair@$$CBHUMYLIST_COLUMN_INFO@@@std@@@3@$0A@@std@@@1@AB_N@Z 00457270 f i MyListCtrl.obj
 0001:00056270       ??0?$pair@Viterator@?$_Tree@V?$_Tmap_traits@KPAVIData@@U?$less@K@std@@V?$allocator@U?$pair@$$CBKPAVIData@@@std@@@3@$0A@@std@@@std@@_N@std@@QAE@ABViterator@?$_Tree@V?$_Tmap_traits@KPAVIData@@U?$less@K@std@@V?$allocator@U?$pair@$$CBKPAVIData@@@std@@@3@$0A@@std@@@1@AB_N@Z 00457270 f i CDataManager.obj
 0001:00056270       ??0?$pair@Viterator@?$_Tree@V?$_Tmap_traits@V?$CStringT@DV?$StrTraitMFC_DLL@DV?$ChTraitsCRT@D@ATL@@@@@ATL@@KU?$less@V?$CStringT@DV?$StrTraitMFC_DLL@DV?$ChTraitsCRT@D@ATL@@@@@ATL@@@std@@V?$allocator@U?$pair@$$CBV?$CStringT@DV?$StrTraitMFC_DLL@DV?$ChTraitsCRT@D@ATL@@@@@ATL@@K@std@@@4@$0A@@std@@@std@@_N@std@@QAE@ABViterator@?$_Tree@V?$_Tmap_traits@V?$CStringT@DV?$StrTraitMFC_DLL@DV?$ChTraitsCRT@D@ATL@@@@@ATL@@KU?$less@V?$CStringT@DV?$StrTraitMFC_DLL@DV?$ChTraitsCRT@D@ATL@@@@@ATL@@@std@@V?$allocator@U?$pair@$$CBV?$CStringT@DV?$StrTraitMFC_DLL@DV?$ChTraitsCRT@D@ATL@@@@@ATL@@K@std@@@4@$0A@@std@@@1@AB_N@Z 00457270 f i SkinMgr.obj
 0001:00056270       ??0?$pair@Viterator@?$_Tree@V?$_Tmap_traits@PAUHWND__@@UWndMoveData@@U?$less@PAUHWND__@@@std@@V?$allocator@U?$pair@QAUHWND__@@UWndMoveData@@@std@@@4@$0A@@std@@@std@@_N@std@@QAE@ABViterator@?$_Tree@V?$_Tmap_traits@PAUHWND__@@UWndMoveData@@U?$less@PAUHWND__@@@std@@V?$allocator@U?$pair@QAUHWND__@@UWndMoveData@@@std@@@4@$0A@@std@@@1@AB_N@Z 00457270 f i WindowsMover.obj
 0001:00056270       ??0?$pair@Viterator@?$_Tree@V?$_Tmap_traits@V?$basic_string@DU?$char_traits@D@std@@V?$allocator@D@2@@std@@PAVYL_CHTTPDownFile@@U?$less@V?$basic_string@DU?$char_traits@D@std@@V?$allocator@D@2@@std@@@2@V?$allocator@U?$pair@$$CBV?$basic_string@DU?$char_traits@D@std@@V?$allocator@D@2@@std@@PAVYL_CHTTPDownFile@@@std@@@2@$0A@@std@@@std@@_N@std@@QAE@ABViterator@?$_Tree@V?$_Tmap_traits@V?$basic_string@DU?$char_traits@D@std@@V?$allocator@D@2@@std@@PAVYL_CHTTPDownFile@@U?$less@V?$basic_string@DU?$char_traits@D@std@@V?$allocator@D@2@@std@@@2@V?$allocator@U?$pair@$$CBV?$basic_string@DU?$char_traits@D@std@@V?$allocator@D@2@@std@@PAVYL_CHTTPDownFile@@@std@@@2@$0A@@std@@@1@AB_N@Z 00457270 f i HttpDownCtrl.obj
 0001:00056270       ??0?$pair@Viterator@?$_Tree@V?$_Tmap_traits@V?$basic_string@DU?$char_traits@D@std@@V?$allocator@D@2@@std@@HU?$less@V?$basic_string@DU?$char_traits@D@std@@V?$allocator@D@2@@std@@@2@V?$allocator@U?$pair@$$CBV?$basic_string@DU?$char_traits@D@std@@V?$allocator@D@2@@std@@H@std@@@2@$0A@@std@@@std@@_N@std@@QAE@ABViterator@?$_Tree@V?$_Tmap_traits@V?$basic_string@DU?$char_traits@D@std@@V?$allocator@D@2@@std@@HU?$less@V?$basic_string@DU?$char_traits@D@std@@V?$allocator@D@2@@std@@@2@V?$allocator@U?$pair@$$CBV?$basic_string@DU?$char_traits@D@std@@V?$allocator@D@2@@std@@H@std@@@2@$0A@@std@@@1@AB_N@Z 00457270 f i MyTreeCtrl.obj
 0001:00056270       ??0?$pair@Viterator@?$_Tree@V?$_Tmap_traits@KV?$list@PAUMESSAGE_OBSERVER@@V?$allocator@PAUMESSAGE_OBSERVER@@@std@@@std@@U?$less@K@2@V?$allocator@U?$pair@$$CBKV?$list@PAUMESSAGE_OBSERVER@@V?$allocator@PAUMESSAGE_OBSERVER@@@std@@@std@@@std@@@2@$0A@@std@@@std@@_N@std@@QAE@ABViterator@?$_Tree@V?$_Tmap_traits@KV?$list@PAUMESSAGE_OBSERVER@@V?$allocator@PAUMESSAGE_OBSERVER@@@std@@@std@@U?$less@K@2@V?$allocator@U?$pair@$$CBKV?$list@PAUMESSAGE_OBSERVER@@V?$allocator@PAUMESSAGE_OBSERVER@@@std@@@std@@@std@@@2@$0A@@std@@@1@AB_N@Z 00457270 f i CMessageManager.obj
 0001:00056270       ??0?$pair@Viterator@?$_Tree@V?$_Tmap_traits@V?$basic_string@DU?$char_traits@D@std@@V?$allocator@D@2@@std@@V?$list@PAVAfxUserConfig_Observer@@V?$allocator@PAVAfxUserConfig_Observer@@@std@@@2@U?$less@V?$basic_string@DU?$char_traits@D@std@@V?$allocator@D@2@@std@@@2@V?$allocator@U?$pair@$$CBV?$basic_string@DU?$char_traits@D@std@@V?$allocator@D@2@@std@@V?$list@PAVAfxUserConfig_Observer@@V?$allocator@PAVAfxUserConfig_Observer@@@std@@@2@@std@@@2@$0A@@std@@@std@@_N@std@@QAE@ABViterator@?$_Tree@V?$_Tmap_traits@V?$basic_string@DU?$char_traits@D@std@@V?$allocator@D@2@@std@@V?$list@PAVAfxUserConfig_Observer@@V?$allocator@PAVAfxUserConfig_Observer@@@std@@@2@U?$less@V?$basic_string@DU?$char_traits@D@std@@V?$allocator@D@2@@std@@@2@V?$allocator@U?$pair@$$CBV?$basic_string@DU?$char_traits@D@std@@V?$allocator@D@2@@std@@V?$list@PAVAfxUserConfig_Observer@@V?$allocator@PAVAfxUserConfig_Observer@@@std@@@2@@std@@@2@$0A@@std@@@1@AB_N@Z 00457270 f i AfxUserConfig.obj
 0001:00056270       ??0?$pair@Viterator@?$_Tree@V?$_Tmap_traits@V?$basic_string@DU?$char_traits@D@std@@V?$allocator@D@2@@std@@_NU?$less@V?$basic_string@DU?$char_traits@D@std@@V?$allocator@D@2@@std@@@2@V?$allocator@U?$pair@$$CBV?$basic_string@DU?$char_traits@D@std@@V?$allocator@D@2@@std@@_N@std@@@2@$0A@@std@@@std@@_N@std@@QAE@ABViterator@?$_Tree@V?$_Tmap_traits@V?$basic_string@DU?$char_traits@D@std@@V?$allocator@D@2@@std@@_NU?$less@V?$basic_string@DU?$char_traits@D@std@@V?$allocator@D@2@@std@@@2@V?$allocator@U?$pair@$$CBV?$basic_string@DU?$char_traits@D@std@@V?$allocator@D@2@@std@@_N@std@@@2@$0A@@std@@@1@AB_N@Z 00457270 f i AfxUserConfig.obj
 0001:000562a0       ?_Buynode@?$list@PAVCSkinButton@@V?$allocator@PAVCSkinButton@@@std@@@std@@IAEPAU_Node@?$_List_nod@PAVCSkinButton@@V?$allocator@PAVCSkinButton@@@std@@@2@PAU342@0ABQAVCSkinButton@@@Z 004572a0 f i SkinWnd.obj
 0001:00056360       ?_Incsize@?$list@PAVCSkinButton@@V?$allocator@PAVCSkinButton@@@std@@@std@@IAEXI@Z 00457360 f i SkinWnd.obj
 0001:000563e0       ?allocate@?$allocator@U_Node@?$_List_nod@PAVAfxUserConfig_Observer@@V?$allocator@PAVAfxUserConfig_Observer@@@std@@@std@@@std@@QAEPAU_Node@?$_List_nod@PAVAfxUserConfig_Observer@@V?$allocator@PAVAfxUserConfig_Observer@@@std@@@2@I@Z 004573e0 f i AfxUserConfig.obj
 0001:000563e0       ?allocate@?$allocator@U_Node@?$_List_nod@PAVIMessageObserver@@V?$allocator@PAVIMessageObserver@@@std@@@std@@@std@@QAEPAU_Node@?$_List_nod@PAVIMessageObserver@@V?$allocator@PAVIMessageObserver@@@std@@@2@I@Z 004573e0 f i PlayBoxDlg.obj
 0001:000563e0       ?allocate@?$allocator@U_Node@?$_List_nod@PAVCSubLabel@@V?$allocator@PAVCSubLabel@@@std@@@std@@@std@@QAEPAU_Node@?$_List_nod@PAVCSubLabel@@V?$allocator@PAVCSubLabel@@@std@@@2@I@Z 004573e0 f i SubjectChildWnd.obj
 0001:000563e0       ?allocate@?$allocator@U_Node@?$_List_nod@PAVCSkinButton@@V?$allocator@PAVCSkinButton@@@std@@@std@@@std@@QAEPAU_Node@?$_List_nod@PAVCSkinButton@@V?$allocator@PAVCSkinButton@@@std@@@2@I@Z 004573e0 f i SkinWnd.obj
 0001:000563e0       ?allocate@?$allocator@U_Node@?$_List_nod@PAUMESSAGE_OBSERVER@@V?$allocator@PAUMESSAGE_OBSERVER@@@std@@@std@@@std@@QAEPAU_Node@?$_List_nod@PAUMESSAGE_OBSERVER@@V?$allocator@PAUMESSAGE_OBSERVER@@@std@@@2@I@Z 004573e0 f i CMessageManager.obj
 0001:00056400       ??Dconst_iterator@?$vector@UMYLIST_COLUMN_INFO@@V?$allocator@UMYLIST_COLUMN_INFO@@@std@@@std@@QBEABUMYLIST_COLUMN_INFO@@XZ 00457400 f i MyListCtrl.obj
 0001:00056400       ??Dconst_iterator@?$vector@UTFrame@CPictureEx@@V?$allocator@UTFrame@CPictureEx@@@std@@@std@@QBEABUTFrame@CPictureEx@@XZ 00457400 f i PictureEx.obj
 0001:00056400       ??Dconst_iterator@?$vector@USepWindowData@@V?$allocator@USepWindowData@@@std@@@std@@QBEABUSepWindowData@@XZ 00457400 f i HostWndMgr.obj
 0001:00056400       ?_Mynode@const_iterator@?$_Tree@V?$_Tmap_traits@V?$basic_string@DU?$char_traits@D@std@@V?$allocator@D@2@@std@@V?$list@PAVAfxUserConfig_Observer@@V?$allocator@PAVAfxUserConfig_Observer@@@std@@@2@U?$less@V?$basic_string@DU?$char_traits@D@std@@V?$allocator@D@2@@std@@@2@V?$allocator@U?$pair@$$CBV?$basic_string@DU?$char_traits@D@std@@V?$allocator@D@2@@std@@V?$list@PAVAfxUserConfig_Observer@@V?$allocator@PAVAfxUserConfig_Observer@@@std@@@2@@std@@@2@$0A@@std@@@std@@QBEPAU_Node@?$_Tree_nod@V?$_Tmap_traits@V?$basic_string@DU?$char_traits@D@std@@V?$allocator@D@2@@std@@V?$list@PAVAfxUserConfig_Observer@@V?$allocator@PAVAfxUserConfig_Observer@@@std@@@2@U?$less@V?$basic_string@DU?$char_traits@D@std@@V?$allocator@D@2@@std@@@2@V?$allocator@U?$pair@$$CBV?$basic_string@DU?$char_traits@D@std@@V?$allocator@D@2@@std@@V?$list@PAVAfxUserConfig_Observer@@V?$allocator@PAVAfxUserConfig_Observer@@@std@@@2@@std@@@2@$0A@@std@@@3@XZ 00457400 f i AfxUserConfig.obj
 0001:00056400       ?_Mynode@const_iterator@?$_Tree@V?$_Tmap_traits@V?$CStringT@DV?$StrTraitMFC_DLL@DV?$ChTraitsCRT@D@ATL@@@@@ATL@@KU?$less@V?$CStringT@DV?$StrTraitMFC_DLL@DV?$ChTraitsCRT@D@ATL@@@@@ATL@@@std@@V?$allocator@U?$pair@$$CBV?$CStringT@DV?$StrTraitMFC_DLL@DV?$ChTraitsCRT@D@ATL@@@@@ATL@@K@std@@@4@$0A@@std@@@std@@QBEPAU_Node@?$_Tree_nod@V?$_Tmap_traits@V?$CStringT@DV?$StrTraitMFC_DLL@DV?$ChTraitsCRT@D@ATL@@@@@ATL@@KU?$less@V?$CStringT@DV?$StrTraitMFC_DLL@DV?$ChTraitsCRT@D@ATL@@@@@ATL@@@std@@V?$allocator@U?$pair@$$CBV?$CStringT@DV?$StrTraitMFC_DLL@DV?$ChTraitsCRT@D@ATL@@@@@ATL@@K@std@@@4@$0A@@std@@@3@XZ 00457400 f i SkinMgr.obj
 0001:00056400       ?_Mynode@const_iterator@?$_Tree@V?$_Tmap_traits@V?$CStringT@DV?$StrTraitMFC_DLL@DV?$ChTraitsCRT@D@ATL@@@@@ATL@@PAVCDibBitmap@@U?$less@V?$CStringT@DV?$StrTraitMFC_DLL@DV?$ChTraitsCRT@D@ATL@@@@@ATL@@@std@@V?$allocator@U?$pair@$$CBV?$CStringT@DV?$StrTraitMFC_DLL@DV?$ChTraitsCRT@D@ATL@@@@@ATL@@PAVCDibBitmap@@@std@@@5@$0A@@std@@@std@@QBEPAU_Node@?$_Tree_nod@V?$_Tmap_traits@V?$CStringT@DV?$StrTraitMFC_DLL@DV?$ChTraitsCRT@D@ATL@@@@@ATL@@PAVCDibBitmap@@U?$less@V?$CStringT@DV?$StrTraitMFC_DLL@DV?$ChTraitsCRT@D@ATL@@@@@ATL@@@std@@V?$allocator@U?$pair@$$CBV?$CStringT@DV?$StrTraitMFC_DLL@DV?$ChTraitsCRT@D@ATL@@@@@ATL@@PAVCDibBitmap@@@std@@@5@$0A@@std@@@3@XZ 00457400 f i SkinMgr.obj
 0001:00056400       ?_Mynode@const_iterator@?$_Tree@V?$_Tmap_traits@HUMYLIST_COLUMN_INFO@@U?$less@H@std@@V?$allocator@U?$pair@$$CBHUMYLIST_COLUMN_INFO@@@std@@@3@$0A@@std@@@std@@QBEPAU_Node@?$_Tree_nod@V?$_Tmap_traits@HUMYLIST_COLUMN_INFO@@U?$less@H@std@@V?$allocator@U?$pair@$$CBHUMYLIST_COLUMN_INFO@@@std@@@3@$0A@@std@@@3@XZ 00457400 f i MyListCtrl.obj
 0001:00056400       ?_Mynode@const_iterator@?$_Tree@V?$_Tmap_traits@V?$basic_string@DU?$char_traits@D@std@@V?$allocator@D@2@@std@@PAVYL_CHTTPDownFile@@U?$less@V?$basic_string@DU?$char_traits@D@std@@V?$allocator@D@2@@std@@@2@V?$allocator@U?$pair@$$CBV?$basic_string@DU?$char_traits@D@std@@V?$allocator@D@2@@std@@PAVYL_CHTTPDownFile@@@std@@@2@$0A@@std@@@std@@QBEPAU_Node@?$_Tree_nod@V?$_Tmap_traits@V?$basic_string@DU?$char_traits@D@std@@V?$allocator@D@2@@std@@PAVYL_CHTTPDownFile@@U?$less@V?$basic_string@DU?$char_traits@D@std@@V?$allocator@D@2@@std@@@2@V?$allocator@U?$pair@$$CBV?$basic_string@DU?$char_traits@D@std@@V?$allocator@D@2@@std@@PAVYL_CHTTPDownFile@@@std@@@2@$0A@@std@@@3@XZ 00457400 f i HttpDownCtrl.obj
 0001:00056400       ??Dconst_iterator@?$vector@U?$pair@UTAB_ITEM@@PAVCWnd@@@std@@V?$allocator@U?$pair@UTAB_ITEM@@PAVCWnd@@@std@@@2@@std@@QBEABU?$pair@UTAB_ITEM@@PAVCWnd@@@2@XZ 00457400 f i TabPageControl.obj
 0001:00056400       ?_Mynode@const_iterator@?$_Tree@V?$_Tmap_traits@PAUHWND__@@UCWndData@@U?$less@PAUHWND__@@@std@@V?$allocator@U?$pair@QAUHWND__@@UCWndData@@@std@@@4@$0A@@std@@@std@@QBEPAU_Node@?$_Tree_nod@V?$_Tmap_traits@PAUHWND__@@UCWndData@@U?$less@PAUHWND__@@@std@@V?$allocator@U?$pair@QAUHWND__@@UCWndData@@@std@@@4@$0A@@std@@@3@XZ 00457400 f i HostWndMgr.obj
 0001:00056400       ??Dconst_iterator@?$vector@PAVCBasicSkinWnd@@V?$allocator@PAVCBasicSkinWnd@@@std@@@std@@QBEABQAVCBasicSkinWnd@@XZ 00457400 f i SkinMgr.obj
 0001:00056400       ??Dconst_iterator@?$vector@PAVCWnd@@V?$allocator@PAVCWnd@@@std@@@std@@QBEABQAVCWnd@@XZ 00457400 f i TabWndFactory.obj
 0001:00056400       ?_Mynode@const_iterator@?$_Tree@V?$_Tmap_traits@V?$basic_string@DU?$char_traits@D@std@@V?$allocator@D@2@@std@@_NU?$less@V?$basic_string@DU?$char_traits@D@std@@V?$allocator@D@2@@std@@@2@V?$allocator@U?$pair@$$CBV?$basic_string@DU?$char_traits@D@std@@V?$allocator@D@2@@std@@_N@std@@@2@$0A@@std@@@std@@QBEPAU_Node@?$_Tree_nod@V?$_Tmap_traits@V?$basic_string@DU?$char_traits@D@std@@V?$allocator@D@2@@std@@_NU?$less@V?$basic_string@DU?$char_traits@D@std@@V?$allocator@D@2@@std@@@2@V?$allocator@U?$pair@$$CBV?$basic_string@DU?$char_traits@D@std@@V?$allocator@D@2@@std@@_N@std@@@2@$0A@@std@@@3@XZ 00457400 f i AfxUserConfig.obj
 0001:00056400       ?_Mynode@const_iterator@?$_Tree@V?$_Tmap_traits@V?$basic_string@DU?$char_traits@D@std@@V?$allocator@D@2@@std@@PAVCConfigObject@@U?$less@V?$basic_string@DU?$char_traits@D@std@@V?$allocator@D@2@@std@@@2@V?$allocator@U?$pair@$$CBV?$basic_string@DU?$char_traits@D@std@@V?$allocator@D@2@@std@@PAVCConfigObject@@@std@@@2@$0A@@std@@@std@@QBEPAU_Node@?$_Tree_nod@V?$_Tmap_traits@V?$basic_string@DU?$char_traits@D@std@@V?$allocator@D@2@@std@@PAVCConfigObject@@U?$less@V?$basic_string@DU?$char_traits@D@std@@V?$allocator@D@2@@std@@@2@V?$allocator@U?$pair@$$CBV?$basic_string@DU?$char_traits@D@std@@V?$allocator@D@2@@std@@PAVCConfigObject@@@std@@@2@$0A@@std@@@3@XZ 00457400 f i AfxUserConfig.obj
 0001:00056400       ??B?$CA2WEX@$0IA@@ATL@@QBEPA_WXZ 00457400 f i GamePanelWnd.obj
 0001:00056400       ?GetValue@Color@Gdiplus@@QBEKXZ 00457400 f i SkinBotton.obj
 0001:00056400       ??C?$CComPtrBase@UIDispatch@@@ATL@@QBEPAV?$_NoAddRefReleaseOnCComPtr@UIDispatch@@@1@XZ 00457400 f i WebPage.obj
 0001:00056400       ?_Mynode@const_iterator@?$list@PAVAfxUserConfig_Observer@@V?$allocator@PAVAfxUserConfig_Observer@@@std@@@std@@QBEPAU_Node@?$_List_nod@PAVAfxUserConfig_Observer@@V?$allocator@PAVAfxUserConfig_Observer@@@std@@@3@XZ 00457400 f i AfxUserConfig.obj
 0001:00056400       ??Dconst_iterator@?$vector@PAVIChangeSkinEventListener@@V?$allocator@PAVIChangeSkinEventListener@@@std@@@std@@QBEABQAVIChangeSkinEventListener@@XZ 00457400 f i IChangeColorMgr.obj
 0001:00056400       ??Dconst_iterator@?$vector@UOneSubject@@V?$allocator@UOneSubject@@@std@@@std@@QBEABUOneSubject@@XZ 00457400 f i PanesMgr.obj
 0001:00056400       ?_Mynode@const_iterator@?$_Tree@V?$_Tmap_traits@PAUHWND__@@UWndMoveData@@U?$less@PAUHWND__@@@std@@V?$allocator@U?$pair@QAUHWND__@@UWndMoveData@@@std@@@4@$0A@@std@@@std@@QBEPAU_Node@?$_Tree_nod@V?$_Tmap_traits@PAUHWND__@@UWndMoveData@@U?$less@PAUHWND__@@@std@@V?$allocator@U?$pair@QAUHWND__@@UWndMoveData@@@std@@@4@$0A@@std@@@3@XZ 00457400 f i WindowsMover.obj
 0001:00056400       ??B?$CComPtrBase@UIDispatch@@@ATL@@QBEPAUIDispatch@@XZ 00457400 f i ie_explorer.obj
 0001:00056400       ?_Mynode@const_iterator@?$list@PAVCSubLabel@@V?$allocator@PAVCSubLabel@@@std@@@std@@QBEPAU_Node@?$_List_nod@PAVCSubLabel@@V?$allocator@PAVCSubLabel@@@std@@@3@XZ 00457400 f i SubjectChildWnd.obj
 0001:00056400       ??Dconst_iterator@?$vector@V?$basic_string@DU?$char_traits@D@std@@V?$allocator@D@2@@std@@V?$allocator@V?$basic_string@DU?$char_traits@D@std@@V?$allocator@D@2@@std@@@2@@std@@QBEABV?$basic_string@DU?$char_traits@D@std@@V?$allocator@D@2@@2@XZ 00457400 f i PanesMgr.obj
 0001:00056400       ?_Mynode@const_iterator@?$_Tree@V?$_Tmap_traits@KPAVIData@@U?$less@K@std@@V?$allocator@U?$pair@$$CBKPAVIData@@@std@@@3@$0A@@std@@@std@@QBEPAU_Node@?$_Tree_nod@V?$_Tmap_traits@KPAVIData@@U?$less@K@std@@V?$allocator@U?$pair@$$CBKPAVIData@@@std@@@3@$0A@@std@@@3@XZ 00457400 f i CDataManager.obj
 0001:00056400       ?_Mynode@const_iterator@?$_Tree@V?$_Tmap_traits@V?$basic_string@DU?$char_traits@D@std@@V?$allocator@D@2@@std@@V12@U?$less@V?$basic_string@DU?$char_traits@D@std@@V?$allocator@D@2@@std@@@2@V?$allocator@U?$pair@$$CBV?$basic_string@DU?$char_traits@D@std@@V?$allocator@D@2@@std@@V12@@std@@@2@$0A@@std@@@std@@QBEPAU_Node@?$_Tree_nod@V?$_Tmap_traits@V?$basic_string@DU?$char_traits@D@std@@V?$allocator@D@2@@std@@V12@U?$less@V?$basic_string@DU?$char_traits@D@std@@V?$allocator@D@2@@std@@@2@V?$allocator@U?$pair@$$CBV?$basic_string@DU?$char_traits@D@std@@V?$allocator@D@2@@std@@V12@@std@@@2@$0A@@std@@@3@XZ 00457400 f i AfxUserConfig.obj
 0001:00056400       ??Dconst_iterator@?$vector@VCRect@@V?$allocator@VCRect@@@std@@@std@@QBEABVCRect@@XZ 00457400 f i TabBarWnd.obj
 0001:00056400       ??Dconst_iterator@?$vector@PAVCHostWnd@@V?$allocator@PAVCHostWnd@@@std@@@std@@QBEABQAVCHostWnd@@XZ 00457400 f i HostWndMgr.obj
 0001:00056400       ??Dconst_iterator@?$vector@PAVCBitmap@@V?$allocator@PAVCBitmap@@@std@@@std@@QBEABQAVCBitmap@@XZ 00457400 f i MyTreeCtrl.obj
 0001:00056400       ?_Mynode@const_iterator@?$list@PAVIMessageObserver@@V?$allocator@PAVIMessageObserver@@@std@@@std@@QBEPAU_Node@?$_List_nod@PAVIMessageObserver@@V?$allocator@PAVIMessageObserver@@@std@@@3@XZ 00457400 f i CMessageManager.obj
 0001:00056400       ?_Mynode@const_iterator@?$_Tree@V?$_Tmap_traits@V?$CStringT@DV?$StrTraitMFC_DLL@DV?$ChTraitsCRT@D@ATL@@@@@ATL@@PAVCSkinButton@@U?$less@V?$CStringT@DV?$StrTraitMFC_DLL@DV?$ChTraitsCRT@D@ATL@@@@@ATL@@@std@@V?$allocator@U?$pair@$$CBV?$CStringT@DV?$StrTraitMFC_DLL@DV?$ChTraitsCRT@D@ATL@@@@@ATL@@PAVCSkinButton@@@std@@@5@$0A@@std@@@std@@QBEPAU_Node@?$_Tree_nod@V?$_Tmap_traits@V?$CStringT@DV?$StrTraitMFC_DLL@DV?$ChTraitsCRT@D@ATL@@@@@ATL@@PAVCSkinButton@@U?$less@V?$CStringT@DV?$StrTraitMFC_DLL@DV?$ChTraitsCRT@D@ATL@@@@@ATL@@@std@@V?$allocator@U?$pair@$$CBV?$CStringT@DV?$StrTraitMFC_DLL@DV?$ChTraitsCRT@D@ATL@@@@@ATL@@PAVCSkinButton@@@std@@@5@$0A@@std@@@3@XZ 00457400 f i SkinWnd.obj
 0001:00056400       ??Dconst_iterator@?$vector@UOneLocalGame@@V?$allocator@UOneLocalGame@@@std@@@std@@QBEABUOneLocalGame@@XZ 00457400 f i LocalGameData.obj
 0001:00056400       ?GetString@?$CSimpleStringT@D$0A@@ATL@@QBEPBDXZ 00457400 f i tools.obj
 0001:00056400       ?_Mynode@const_iterator@?$_Tree@V?$_Tmap_traits@V?$basic_string@DU?$char_traits@D@std@@V?$allocator@D@2@@std@@HU?$less@V?$basic_string@DU?$char_traits@D@std@@V?$allocator@D@2@@std@@@2@V?$allocator@U?$pair@$$CBV?$basic_string@DU?$char_traits@D@std@@V?$allocator@D@2@@std@@H@std@@@2@$0A@@std@@@std@@QBEPAU_Node@?$_Tree_nod@V?$_Tmap_traits@V?$basic_string@DU?$char_traits@D@std@@V?$allocator@D@2@@std@@HU?$less@V?$basic_string@DU?$char_traits@D@std@@V?$allocator@D@2@@std@@@2@V?$allocator@U?$pair@$$CBV?$basic_string@DU?$char_traits@D@std@@V?$allocator@D@2@@std@@H@std@@@2@$0A@@std@@@3@XZ 00457400 f i MyTreeCtrl.obj
 0001:00056400       ??Dconst_iterator@?$vector@PAVCSkinButton2@@V?$allocator@PAVCSkinButton2@@@std@@@std@@QBEABQAVCSkinButton2@@XZ 00457400 f i MainSkinWnd.obj
 0001:00056400       ??C?$CComPtrBase@UIWebBrowser2@@@ATL@@QBEPAV?$_NoAddRefReleaseOnCComPtr@UIWebBrowser2@@@1@XZ 00457400 f i WebSubWnd.obj
 0001:00056400       ??Dconst_iterator@?$vector@UAD_STRUCT@@V?$allocator@UAD_STRUCT@@@std@@@std@@QBEABUAD_STRUCT@@XZ 00457400 f i DownAD.obj
 0001:00056400       ?_Mynode@const_iterator@?$list@PAUMESSAGE_OBSERVER@@V?$allocator@PAUMESSAGE_OBSERVER@@@std@@@std@@QBEPAU_Node@?$_List_nod@PAUMESSAGE_OBSERVER@@V?$allocator@PAUMESSAGE_OBSERVER@@@std@@@3@XZ 00457400 f i CMessageManager.obj
 0001:00056400       ??Dconst_iterator@?$vector@U_tagLMCItemInfo@@V?$allocator@U_tagLMCItemInfo@@@std@@@std@@QBEABU_tagLMCItemInfo@@XZ 00457400 f i LMCDataMgr.obj
 0001:00056400       ??Dconst_iterator@?$vector@HV?$allocator@H@std@@@std@@QBEABHXZ 00457400 f i MyListCtrl.obj
 0001:00056400       ?_Mynode@const_iterator@?$_Tree@V?$_Tmap_traits@HPAVBaseDialog@@U?$less@H@std@@V?$allocator@U?$pair@$$CBHPAVBaseDialog@@@std@@@3@$0A@@std@@@std@@QBEPAU_Node@?$_Tree_nod@V?$_Tmap_traits@HPAVBaseDialog@@U?$less@H@std@@V?$allocator@U?$pair@$$CBHPAVBaseDialog@@@std@@@3@$0A@@std@@@3@XZ 00457400 f i DlgConfig.obj
 0001:00056400       ??Dconst_iterator@?$basic_string@_WU?$char_traits@_W@std@@V?$allocator@_W@2@@std@@QBEAB_WXZ 00457400 f i xStaticText.obj
 0001:00056400       ??Dconst_iterator@?$vector@KV?$allocator@K@std@@@std@@QBEABKXZ 00457400 f i CUIManager.obj
 0001:00056400       ??Dconst_iterator@?$vector@UTAB_ITEM@@V?$allocator@UTAB_ITEM@@@std@@@std@@QBEABUTAB_ITEM@@XZ 00457400 f i TabBarData.obj
 0001:00056400       ??C?$CComPtrBase@UIHTMLDocument2@@@ATL@@QBEPAV?$_NoAddRefReleaseOnCComPtr@UIHTMLDocument2@@@1@XZ 00457400 f i ie_explorer.obj
 0001:00056400       ??B?$CSimpleStringT@D$0A@@ATL@@QBEPBDXZ 00457400 f i tools.obj
 0001:00056400       ??C?$CComPtrBase@UIHTMLElement@@@ATL@@QBEPAV?$_NoAddRefReleaseOnCComPtr@UIHTMLElement@@@1@XZ 00457400 f i ie_explorer.obj
 0001:00056400       ?_Mynode@const_iterator@?$_Tree@V?$_Tmap_traits@KV?$list@PAUMESSAGE_OBSERVER@@V?$allocator@PAUMESSAGE_OBSERVER@@@std@@@std@@U?$less@K@2@V?$allocator@U?$pair@$$CBKV?$list@PAUMESSAGE_OBSERVER@@V?$allocator@PAUMESSAGE_OBSERVER@@@std@@@std@@@std@@@2@$0A@@std@@@std@@QBEPAU_Node@?$_Tree_nod@V?$_Tmap_traits@KV?$list@PAUMESSAGE_OBSERVER@@V?$allocator@PAUMESSAGE_OBSERVER@@@std@@@std@@U?$less@K@2@V?$allocator@U?$pair@$$CBKV?$list@PAUMESSAGE_OBSERVER@@V?$allocator@PAUMESSAGE_OBSERVER@@@std@@@std@@@std@@@2@$0A@@std@@@3@XZ 00457400 f i CMessageManager.obj
 0001:00056400       ?_Mynode@const_iterator@?$list@PAVCSkinButton@@V?$allocator@PAVCSkinButton@@@std@@@std@@QBEPAU_Node@?$_List_nod@PAVCSkinButton@@V?$allocator@PAVCSkinButton@@@std@@@3@XZ 00457400 f i SkinWnd.obj
 0001:00056400       ?GetWideString@BCMenuData@@QAEPB_WXZ 00457400 f i BCMenu.obj
 0001:00056400       ??C?$CComPtrBase@UIHTMLStyle@@@ATL@@QBEPAV?$_NoAddRefReleaseOnCComPtr@UIHTMLStyle@@@1@XZ 00457400 f i ie_explorer.obj
 0001:00056410       ?erase@?$_Tree@V?$_Tmap_traits@V?$CStringT@DV?$StrTraitMFC_DLL@DV?$ChTraitsCRT@D@ATL@@@@@ATL@@PAVCSkinButton@@U?$less@V?$CStringT@DV?$StrTraitMFC_DLL@DV?$ChTraitsCRT@D@ATL@@@@@ATL@@@std@@V?$allocator@U?$pair@$$CBV?$CStringT@DV?$StrTraitMFC_DLL@DV?$ChTraitsCRT@D@ATL@@@@@ATL@@PAVCSkinButton@@@std@@@5@$0A@@std@@@std@@QAE?AViterator@12@V312@0@Z 00457410 f i SkinWnd.obj
 0001:000564b0       ?_Init@?$_Tree@V?$_Tmap_traits@V?$CStringT@DV?$StrTraitMFC_DLL@DV?$ChTraitsCRT@D@ATL@@@@@ATL@@PAVCSkinButton@@U?$less@V?$CStringT@DV?$StrTraitMFC_DLL@DV?$ChTraitsCRT@D@ATL@@@@@ATL@@@std@@V?$allocator@U?$pair@$$CBV?$CStringT@DV?$StrTraitMFC_DLL@DV?$ChTraitsCRT@D@ATL@@@@@ATL@@PAVCSkinButton@@@std@@@5@$0A@@std@@@std@@IAEXXZ 004574b0 f i SkinWnd.obj
 0001:00056520       ?_Buynode@?$_Tree@V?$_Tmap_traits@V?$CStringT@DV?$StrTraitMFC_DLL@DV?$ChTraitsCRT@D@ATL@@@@@ATL@@PAVCSkinButton@@U?$less@V?$CStringT@DV?$StrTraitMFC_DLL@DV?$ChTraitsCRT@D@ATL@@@@@ATL@@@std@@V?$allocator@U?$pair@$$CBV?$CStringT@DV?$StrTraitMFC_DLL@DV?$ChTraitsCRT@D@ATL@@@@@ATL@@PAVCSkinButton@@@std@@@5@$0A@@std@@@std@@IAEPAU_Node@?$_Tree_nod@V?$_Tmap_traits@V?$CStringT@DV?$StrTraitMFC_DLL@DV?$ChTraitsCRT@D@ATL@@@@@ATL@@PAVCSkinButton@@U?$less@V?$CStringT@DV?$StrTraitMFC_DLL@DV?$ChTraitsCRT@D@ATL@@@@@ATL@@@std@@V?$allocator@U?$pair@$$CBV?$CStringT@DV?$StrTraitMFC_DLL@DV?$ChTraitsCRT@D@ATL@@@@@ATL@@PAVCSkinButton@@@std@@@5@$0A@@std@@@2@PAU342@00ABU?$pair@$$CBV?$CStringT@DV?$StrTraitMFC_DLL@DV?$ChTraitsCRT@D@ATL@@@@@ATL@@PAVCSkinButton@@@2@D@Z 00457520 f i SkinWnd.obj
 0001:000565f0       ?_Buynode@?$_Tree@V?$_Tmap_traits@V?$CStringT@DV?$StrTraitMFC_DLL@DV?$ChTraitsCRT@D@ATL@@@@@ATL@@PAVCSkinButton@@U?$less@V?$CStringT@DV?$StrTraitMFC_DLL@DV?$ChTraitsCRT@D@ATL@@@@@ATL@@@std@@V?$allocator@U?$pair@$$CBV?$CStringT@DV?$StrTraitMFC_DLL@DV?$ChTraitsCRT@D@ATL@@@@@ATL@@PAVCSkinButton@@@std@@@5@$0A@@std@@@std@@IAEPAU_Node@?$_Tree_nod@V?$_Tmap_traits@V?$CStringT@DV?$StrTraitMFC_DLL@DV?$ChTraitsCRT@D@ATL@@@@@ATL@@PAVCSkinButton@@U?$less@V?$CStringT@DV?$StrTraitMFC_DLL@DV?$ChTraitsCRT@D@ATL@@@@@ATL@@@std@@V?$allocator@U?$pair@$$CBV?$CStringT@DV?$StrTraitMFC_DLL@DV?$ChTraitsCRT@D@ATL@@@@@ATL@@PAVCSkinButton@@@std@@@5@$0A@@std@@@2@XZ 004575f0 f i SkinWnd.obj
 0001:00056760       ??Eiterator@?$_Tree@V?$_Tmap_traits@KPAVIData@@U?$less@K@std@@V?$allocator@U?$pair@$$CBKPAVIData@@@std@@@3@$0A@@std@@@std@@QAE?AV012@H@Z 00457760 f i CDataManager.obj
 0001:00056760       ??Eiterator@?$_Tree@V?$_Tmap_traits@HPAVBaseDialog@@U?$less@H@std@@V?$allocator@U?$pair@$$CBHPAVBaseDialog@@@std@@@3@$0A@@std@@@std@@QAE?AV012@H@Z 00457760 f i DlgConfig.obj
 0001:00056760       ??Eiterator@?$_Tree@V?$_Tmap_traits@V?$CStringT@DV?$StrTraitMFC_DLL@DV?$ChTraitsCRT@D@ATL@@@@@ATL@@KU?$less@V?$CStringT@DV?$StrTraitMFC_DLL@DV?$ChTraitsCRT@D@ATL@@@@@ATL@@@std@@V?$allocator@U?$pair@$$CBV?$CStringT@DV?$StrTraitMFC_DLL@DV?$ChTraitsCRT@D@ATL@@@@@ATL@@K@std@@@4@$0A@@std@@@std@@QAE?AV012@H@Z 00457760 f i SkinMgr.obj
 0001:00056760       ??Eiterator@?$_Tree@V?$_Tmap_traits@V?$CStringT@DV?$StrTraitMFC_DLL@DV?$ChTraitsCRT@D@ATL@@@@@ATL@@PAVCDibBitmap@@U?$less@V?$CStringT@DV?$StrTraitMFC_DLL@DV?$ChTraitsCRT@D@ATL@@@@@ATL@@@std@@V?$allocator@U?$pair@$$CBV?$CStringT@DV?$StrTraitMFC_DLL@DV?$ChTraitsCRT@D@ATL@@@@@ATL@@PAVCDibBitmap@@@std@@@5@$0A@@std@@@std@@QAE?AV012@H@Z 00457760 f i SkinMgr.obj
 0001:00056760       ??Eiterator@?$_Tree@V?$_Tmap_traits@V?$CStringT@DV?$StrTraitMFC_DLL@DV?$ChTraitsCRT@D@ATL@@@@@ATL@@PAVCSkinButton@@U?$less@V?$CStringT@DV?$StrTraitMFC_DLL@DV?$ChTraitsCRT@D@ATL@@@@@ATL@@@std@@V?$allocator@U?$pair@$$CBV?$CStringT@DV?$StrTraitMFC_DLL@DV?$ChTraitsCRT@D@ATL@@@@@ATL@@PAVCSkinButton@@@std@@@5@$0A@@std@@@std@@QAE?AV012@H@Z 00457760 f i SkinWnd.obj
 0001:00056790       ?CreateFontA@CFont@@QAEHHHHHHEEEEEEEEPBD@Z 00457790 f i SkinWnd.obj
 0001:000567f0       ?SetBitmapDimension@CBitmap@@QAE?AVCSize@@HH@Z 004577f0 f i SkinWnd.obj
 0001:00056830       ?GetBitmap@CBitmap@@QAEHPAUtagBITMAP@@@Z 00457830 f i SkinWnd.obj
 0001:00056850       ?DrawTextA@CDC@@QAEHABV?$CStringT@DV?$StrTraitMFC_DLL@DV?$ChTraitsCRT@D@ATL@@@@@ATL@@PAUtagRECT@@I@Z 00457850 f i SkinWnd.obj
 0001:00056890       ??0CStaticText@@QAE@XZ     00457890 f   StaticTextEx.obj
 0001:000569c0       ??1CStaticText@@UAE@XZ     004579c0 f   StaticTextEx.obj
 0001:00056a20       ?GetThisMessageMap@CStaticText@@KGPBUAFX_MSGMAP@@XZ 00457a20 f   StaticTextEx.obj
 0001:00056a30       ?GetMessageMap@CStaticText@@MBEPBUAFX_MSGMAP@@XZ 00457a30 f   StaticTextEx.obj
 0001:00056a40       ?CtlColor@CStaticText@@IAEPAUHBRUSH__@@PAVCDC@@I@Z 00457a40 f   StaticTextEx.obj
 0001:00056a90       ?SetLinkAddress@CStaticText@@QAEHV?$CStringT@DV?$StrTraitMFC_DLL@DV?$ChTraitsCRT@D@ATL@@@@@ATL@@@Z 00457a90 f   StaticTextEx.obj
 0001:00056ba0       ?OnSetText@CStaticText@@QAEJIJ@Z 00457ba0 f   StaticTextEx.obj
 0001:00056c90       ?InvalidateBack@CStaticText@@AAEXXZ 00457c90 f   StaticTextEx.obj
 0001:00056cb0       ?SetGradient@CStaticText@@QAEXKK@Z 00457cb0 f   StaticTextEx.obj
 0001:00056cf0       ?SetVerticalGradient@CStaticText@@QAEXKK@Z 00457cf0 f   StaticTextEx.obj
 0001:00056d30       ?SetOpaque@CStaticText@@QAEXK@Z 00457d30 f   StaticTextEx.obj
 0001:00056d60       ?SetToolBarBK@CStaticText@@QAEXK@Z 00457d60 f   StaticTextEx.obj
 0001:00056d90       ?SetNormal@CStaticText@@QAEXXZ 00457d90 f   StaticTextEx.obj
 0001:00056db0       ?SetInfoHeader@CStaticText@@QAEXXZ 00457db0 f   StaticTextEx.obj
 0001:00056dd0       ?SetTextColor@CStaticText@@QAEXK@Z 00457dd0 f   StaticTextEx.obj
 0001:00056df0       ?SetTextSize@CStaticText@@QAEXH@Z 00457df0 f   StaticTextEx.obj
 0001:00056e20       ?SetTextSet@CStaticText@@QAEXI@Z 00457e20 f   StaticTextEx.obj
 0001:00056e40       ?SetFontBold@CStaticText@@QAEXJ@Z 00457e40 f   StaticTextEx.obj
 0001:00056e70       ?SelfProc@CStaticText@@KGJPAUHWND__@@IIJ@Z 00457e70 f   StaticTextEx.obj
 0001:00056f40       ?PreSubclassWindow@CStaticText@@MAEXXZ 00457f40 f   StaticTextEx.obj
 0001:00056f80       ?DrawFace@CStaticText@@IAEXPAUHWND__@@PAUHDC__@@@Z 00457f80 f   StaticTextEx.obj
 0001:00057670       ?EnableWindow@CStaticText@@QAEHH@Z 00458670 f   StaticTextEx.obj
 0001:000576a0       ?OnEraseBkgnd@CStaticText@@IAEHPAVCDC@@@Z 004586a0 f   StaticTextEx.obj
 0001:000576c0       ?SetTextTop@CStaticText@@QAEXH@Z 004586c0 f   StaticTextEx.obj
 0001:000576f0       ?OnMouseMove@CStaticText@@IAEXIVCPoint@@@Z 004586f0 f   StaticTextEx.obj
 0001:000577b0       ?MouseLeave@CStaticText@@AAEXXZ 004587b0 f   StaticTextEx.obj
 0001:000577d0       ?MouseEnter@CStaticText@@AAEXXZ 004587d0 f   StaticTextEx.obj
 0001:000577f0       ?OnLButtonDown@CStaticText@@IAEXIVCPoint@@@Z 004587f0 f   StaticTextEx.obj
 0001:00057890       ?OnLButtonUp@CStaticText@@IAEXIVCPoint@@@Z 00458890 f   StaticTextEx.obj
 0001:000578f0       ?SetTextFormat@CStaticText@@QAEXI@Z 004588f0 f   StaticTextEx.obj
 0001:00057910       ?SetTextWidth@CStaticText@@QAEXI@Z 00458910 f   StaticTextEx.obj
 0001:00057930       ??_ECStaticText@@UAEPAXI@Z 00458930 f i StaticTextEx.obj
 0001:00057930       ??_GCStaticText@@UAEPAXI@Z 00458930 f i StaticTextEx.obj
 0001:00057960       ?PtInRect@CRect@@QBEHUtagPOINT@@@Z 00458960 f i StaticTextEx.obj
 0001:00057980       ?CreateObject@CSubjectChildWnd@@SGPAVCObject@@XZ 00458980 f   SubjectChildWnd.obj
 0001:000579f0       ?GetThisClass@CSubjectChildWnd@@SGPAUCRuntimeClass@@XZ 004589f0 f   SubjectChildWnd.obj
 0001:00057a00       ?GetRuntimeClass@CSubjectChildWnd@@UBEPAUCRuntimeClass@@XZ 00458a00 f   SubjectChildWnd.obj
 0001:00057a10       ??0CSubjectChildWnd@@QAE@XZ 00458a10 f   SubjectChildWnd.obj
 0001:00057b30       ??1CSubjectChildWnd@@UAE@XZ 00458b30 f   SubjectChildWnd.obj
 0001:00057be0       ?GetThisMessageMap@CSubjectChildWnd@@KGPBUAFX_MSGMAP@@XZ 00458be0 f   SubjectChildWnd.obj
 0001:00057bf0       ?GetMessageMap@CSubjectChildWnd@@MBEPBUAFX_MSGMAP@@XZ 00458bf0 f   SubjectChildWnd.obj
 0001:00057c00       ?OnCreate@CSubjectChildWnd@@QAEHPAUtagCREATESTRUCTA@@@Z 00458c00 f   SubjectChildWnd.obj
 0001:00057c40       ?CreateSubBtn@CSubjectChildWnd@@AAEXXZ 00458c40 f   SubjectChildWnd.obj
 0001:00058530       ?MoveSubjectBtn@CSubjectChildWnd@@IAEXXZ 00459530 f   SubjectChildWnd.obj
 0001:000587c0       ?IsSubExist@CSubjectChildWnd@@QAEHV?$basic_string@DU?$char_traits@D@std@@V?$allocator@D@2@@std@@@Z 004597c0 f   SubjectChildWnd.obj
 0001:000588d0       ?InsertSubjectBtn@CSubjectChildWnd@@QAEXAAV?$basic_string@DU?$char_traits@D@std@@V?$allocator@D@2@@std@@PAVCBitmap@@V23@_N@Z 004598d0 f   SubjectChildWnd.obj
 0001:00059090       ?ResetScroll@CSubjectChildWnd@@QAEXXZ 0045a090 f   SubjectChildWnd.obj
 0001:00059170       ?OnPaint@CSubjectChildWnd@@QAEXXZ 0045a170 f   SubjectChildWnd.obj
 0001:00059290       ?OnVScroll@CSubjectChildWnd@@QAEXIIPAVCScrollBar@@@Z 0045a290 f   SubjectChildWnd.obj
 0001:00059700       ?OnSize@CSubjectChildWnd@@QAEXIHH@Z 0045a700 f   SubjectChildWnd.obj
 0001:000597a0       ?OnMouseWheel@CSubjectChildWnd@@QAEHIFVCPoint@@@Z 0045a7a0 f   SubjectChildWnd.obj
 0001:000597e0       ?OnNcPaint@CSubjectChildWnd@@QAEXXZ 0045a7e0 f   SubjectChildWnd.obj
 0001:000597f0       ?PreCreateWindow@CSubjectChildWnd@@MAEHAAUtagCREATESTRUCTA@@@Z 0045a7f0 f   SubjectChildWnd.obj
 0001:000598e0       ?UpdateScrollBar@CSubjectChildWnd@@AAEXXZ 0045a8e0 f   SubjectChildWnd.obj
 0001:00059910       ?UpdateScrollBarPosition@CSubjectChildWnd@@AAEXXZ 0045a910 f   SubjectChildWnd.obj
 0001:00059940       ?UpdateControlsEnable@CSubjectChildWnd@@QAEXH@Z 0045a940 f   SubjectChildWnd.obj
 0001:000599c0       ?InitScrollBar@CSubjectChildWnd@@QAEXXZ 0045a9c0 f   SubjectChildWnd.obj
 0001:00059c50       ?InsertSmallObjectBmp@CSubjectChildWnd@@QAEXAAV?$basic_string@DU?$char_traits@D@std@@V?$allocator@D@2@@std@@PAVCBitmap@@V23@_N@Z 0045ac50 f   SubjectChildWnd.obj
 0001:00059e10       ?OnDestroy@CSubjectChildWnd@@QAEXXZ 0045ae10 f   SubjectChildWnd.obj
 0001:00059e30       ?OnCliekButton@CSubjectChildWnd@@UAEXABV?$CStringT@DV?$StrTraitMFC_DLL@DV?$ChTraitsCRT@D@ATL@@@@@ATL@@@Z 0045ae30 f   SubjectChildWnd.obj
 0001:0005a3a0       ?OnCliekButton@CSubjectChildWnd@@UAEXPAVCButton@@@Z 0045b3a0 f   SubjectChildWnd.obj
 0001:0005aa00       ?ClickSubBtn@CSubjectChildWnd@@QAEXABV?$CStringT@DV?$StrTraitMFC_DLL@DV?$ChTraitsCRT@D@ATL@@@@@ATL@@0@Z 0045ba00 f   SubjectChildWnd.obj
 0001:0005b0c0       ?DelAllSubjectBtn@CSubjectChildWnd@@IAEXXZ 0045c0c0 f   SubjectChildWnd.obj
 0001:0005b240       ?DelSubjectBtn@CSubjectChildWnd@@IAEXPAVCButton@@@Z 0045c240 f   SubjectChildWnd.obj
 0001:0005b690       ?OnEraseBkgnd@CSubjectChildWnd@@QAEHPAVCDC@@@Z 0045c690 f   SubjectChildWnd.obj
 0001:0005b6b0       ?ShowWindow@CSubjectChildWnd@@QAEXH@Z 0045c6b0 f   SubjectChildWnd.obj
 0001:0005b750       ?OnSendChangeSkin@CSubjectChildWnd@@UAEXV?$CStringT@DV?$StrTraitMFC_DLL@DV?$ChTraitsCRT@D@ATL@@@@@ATL@@@Z 0045c750 f   SubjectChildWnd.obj
 0001:0005b8a0       ?EnableSkinBtn@CSubjectChildWnd@@QAEXH@Z 0045c8a0 f   SubjectChildWnd.obj
 0001:0005b940       ?SetTipText@CSubjectChildWnd@@QAEXV?$CStringT@DV?$StrTraitMFC_DLL@DV?$ChTraitsCRT@D@ATL@@@@@ATL@@00@Z 0045c940 f   SubjectChildWnd.obj
 0001:0005bb10       ??_ECSubjectChildWnd@@UAEPAXI@Z 0045cb10 f i SubjectChildWnd.obj
 0001:0005bb10       ??_GCSubjectChildWnd@@UAEPAXI@Z 0045cb10 f i SubjectChildWnd.obj
 0001:0005bb40       ?SetErase@CSkinButton@@QAEX_N@Z 0045cb40 f i SubjectChildWnd.obj
 0001:0005bb60       ?insert@?$list@PAVCSkinButton@@V?$allocator@PAVCSkinButton@@@std@@@std@@QAE?AViterator@12@V312@ABQAVCSkinButton@@@Z 0045cb60 f i SubjectChildWnd.obj
 0001:0005bb90       ??0?$list@PAVCSubLabel@@V?$allocator@PAVCSubLabel@@@std@@@std@@QAE@XZ 0045cb90 f i SubjectChildWnd.obj
 0001:0005bbd0       ?push_back@?$list@PAVCSubLabel@@V?$allocator@PAVCSubLabel@@@std@@@std@@QAEXABQAVCSubLabel@@@Z 0045cbd0 f i SubjectChildWnd.obj
 0001:0005bc00       ?insert@?$list@PAVCSubLabel@@V?$allocator@PAVCSubLabel@@@std@@@std@@QAE?AViterator@12@V312@ABQAVCSubLabel@@@Z 0045cc00 f i SubjectChildWnd.obj
 0001:0005bc30       ?erase@?$list@PAUMESSAGE_OBSERVER@@V?$allocator@PAUMESSAGE_OBSERVER@@@std@@@std@@QAE?AViterator@12@V312@@Z 0045cc30 f i CMessageManager.obj
 0001:0005bc30       ?erase@?$list@PAVCSkinButton@@V?$allocator@PAVCSkinButton@@@std@@@std@@QAE?AViterator@12@V312@@Z 0045cc30 f i SubjectChildWnd.obj
 0001:0005bc30       ?erase@?$list@PAVCSubLabel@@V?$allocator@PAVCSubLabel@@@std@@@std@@QAE?AViterator@12@V312@@Z 0045cc30 f i SubjectChildWnd.obj
 0001:0005bc30       ?erase@?$list@PAVAfxUserConfig_Observer@@V?$allocator@PAVAfxUserConfig_Observer@@@std@@@std@@QAE?AViterator@12@V312@@Z 0045cc30 f i AfxUserConfig.obj
 0001:0005bcf0       ??Eiterator@?$list@PAUMESSAGE_OBSERVER@@V?$allocator@PAUMESSAGE_OBSERVER@@@std@@@std@@QAEAAV012@XZ 0045ccf0 f i CMessageManager.obj
 0001:0005bcf0       ??Eiterator@?$list@PAVIMessageObserver@@V?$allocator@PAVIMessageObserver@@@std@@@std@@QAEAAV012@XZ 0045ccf0 f i PlayBoxDlg.obj
 0001:0005bcf0       ??Eiterator@?$list@PAVAfxUserConfig_Observer@@V?$allocator@PAVAfxUserConfig_Observer@@@std@@@std@@QAEAAV012@XZ 0045ccf0 f i AfxUserConfig.obj
 0001:0005bcf0       ??Eiterator@?$list@PAVCSkinButton@@V?$allocator@PAVCSkinButton@@@std@@@std@@QAEAAV012@XZ 0045ccf0 f i SkinWnd.obj
 0001:0005bcf0       ??Eiterator@?$list@PAVCSubLabel@@V?$allocator@PAVCSubLabel@@@std@@@std@@QAEAAV012@XZ 0045ccf0 f i SubjectChildWnd.obj
 0001:0005bd10       ??Fiterator@?$list@PAUMESSAGE_OBSERVER@@V?$allocator@PAUMESSAGE_OBSERVER@@@std@@@std@@QAEAAV012@XZ 0045cd10 f i CMessageManager.obj
 0001:0005bd10       ??Fiterator@?$list@PAVCSubLabel@@V?$allocator@PAVCSubLabel@@@std@@@std@@QAEAAV012@XZ 0045cd10 f i SubjectChildWnd.obj
 0001:0005bd10       ??Fiterator@?$list@PAVAfxUserConfig_Observer@@V?$allocator@PAVAfxUserConfig_Observer@@@std@@@std@@QAEAAV012@XZ 0045cd10 f i AfxUserConfig.obj
 0001:0005bd10       ??Fiterator@?$list@PAVCSkinButton@@V?$allocator@PAVCSkinButton@@@std@@@std@@QAEAAV012@XZ 0045cd10 f i SubjectChildWnd.obj
 0001:0005bd30       ?_Insert@?$list@PAVCSubLabel@@V?$allocator@PAVCSubLabel@@@std@@@std@@QAEXViterator@12@ABQAVCSubLabel@@@Z 0045cd30 f i SubjectChildWnd.obj
 0001:0005bdb0       ?_Buynode@?$list@PAVCSubLabel@@V?$allocator@PAVCSubLabel@@@std@@@std@@IAEPAU_Node@?$_List_nod@PAVCSubLabel@@V?$allocator@PAVCSubLabel@@@std@@@2@XZ 0045cdb0 f i SubjectChildWnd.obj
 0001:0005be90       ?_Tidy@?$list@PAVCSkinButton@@V?$allocator@PAVCSkinButton@@@std@@@std@@IAEXXZ 0045ce90 f i SkinWnd.obj
 0001:0005be90       ?_Tidy@?$list@PAVCSubLabel@@V?$allocator@PAVCSubLabel@@@std@@@std@@IAEXXZ 0045ce90 f i SubjectChildWnd.obj
 0001:0005be90       ?_Tidy@?$list@PAVAfxUserConfig_Observer@@V?$allocator@PAVAfxUserConfig_Observer@@@std@@@std@@IAEXXZ 0045ce90 f i AfxUserConfig.obj
 0001:0005be90       ?_Tidy@?$list@PAUMESSAGE_OBSERVER@@V?$allocator@PAUMESSAGE_OBSERVER@@@std@@@std@@IAEXXZ 0045ce90 f i CMessageManager.obj
 0001:0005be90       ?_Tidy@?$list@PAVIMessageObserver@@V?$allocator@PAVIMessageObserver@@@std@@@std@@IAEXXZ 0045ce90 f i PlayBoxDlg.obj
 0001:0005bf00       ??Econst_iterator@?$list@PAVAfxUserConfig_Observer@@V?$allocator@PAVAfxUserConfig_Observer@@@std@@@std@@QAEAAV012@XZ 0045cf00 f i AfxUserConfig.obj
 0001:0005bf00       ??Econst_iterator@?$list@PAVIMessageObserver@@V?$allocator@PAVIMessageObserver@@@std@@@std@@QAEAAV012@XZ 0045cf00 f i PlayBoxDlg.obj
 0001:0005bf00       ??Econst_iterator@?$list@PAUMESSAGE_OBSERVER@@V?$allocator@PAUMESSAGE_OBSERVER@@@std@@@std@@QAEAAV012@XZ 0045cf00 f i CMessageManager.obj
 0001:0005bf00       ??Econst_iterator@?$list@PAVCSkinButton@@V?$allocator@PAVCSkinButton@@@std@@@std@@QAEAAV012@XZ 0045cf00 f i SkinWnd.obj
 0001:0005bf00       ??Econst_iterator@?$list@PAVCSubLabel@@V?$allocator@PAVCSubLabel@@@std@@@std@@QAEAAV012@XZ 0045cf00 f i SubjectChildWnd.obj
 0001:0005bf30       ??Fconst_iterator@?$list@PAVCSubLabel@@V?$allocator@PAVCSubLabel@@@std@@@std@@QAEAAV012@XZ 0045cf30 f i SubjectChildWnd.obj
 0001:0005bf30       ??Fconst_iterator@?$list@PAVAfxUserConfig_Observer@@V?$allocator@PAVAfxUserConfig_Observer@@@std@@@std@@QAEAAV012@XZ 0045cf30 f i AfxUserConfig.obj
 0001:0005bf30       ??Fconst_iterator@?$list@PAVCSkinButton@@V?$allocator@PAVCSkinButton@@@std@@@std@@QAEAAV012@XZ 0045cf30 f i SubjectChildWnd.obj
 0001:0005bf30       ??Fconst_iterator@?$list@PAUMESSAGE_OBSERVER@@V?$allocator@PAUMESSAGE_OBSERVER@@@std@@@std@@QAEAAV012@XZ 0045cf30 f i CMessageManager.obj
 0001:0005bf60       ?clear@?$list@PAVCSubLabel@@V?$allocator@PAVCSubLabel@@@std@@@std@@QAEXXZ 0045cf60 f i SubjectChildWnd.obj
 0001:0005bf60       ?clear@?$list@PAVCSkinButton@@V?$allocator@PAVCSkinButton@@@std@@@std@@QAEXXZ 0045cf60 f i SkinWnd.obj
 0001:0005bf60       ?clear@?$list@PAUMESSAGE_OBSERVER@@V?$allocator@PAUMESSAGE_OBSERVER@@@std@@@std@@QAEXXZ 0045cf60 f i CMessageManager.obj
 0001:0005bf60       ?clear@?$list@PAVIMessageObserver@@V?$allocator@PAVIMessageObserver@@@std@@@std@@QAEXXZ 0045cf60 f i PlayBoxDlg.obj
 0001:0005bf60       ?clear@?$list@PAVAfxUserConfig_Observer@@V?$allocator@PAVAfxUserConfig_Observer@@@std@@@std@@QAEXXZ 0045cf60 f i AfxUserConfig.obj
 0001:0005c000       ?_Buynode@?$list@PAVCSubLabel@@V?$allocator@PAVCSubLabel@@@std@@@std@@IAEPAU_Node@?$_List_nod@PAVCSubLabel@@V?$allocator@PAVCSubLabel@@@std@@@2@PAU342@0ABQAVCSubLabel@@@Z 0045d000 f i SubjectChildWnd.obj
 0001:0005c0c0       ?_Incsize@?$list@PAVCSubLabel@@V?$allocator@PAVCSubLabel@@@std@@@std@@IAEXI@Z 0045d0c0 f i SubjectChildWnd.obj
 0001:0005c140       ?max_size@?$list@PAVCSkinButton@@V?$allocator@PAVCSkinButton@@@std@@@std@@QBEIXZ 0045d140 f i SkinWnd.obj
 0001:0005c140       ?max_size@?$list@PAVIMessageObserver@@V?$allocator@PAVIMessageObserver@@@std@@@std@@QBEIXZ 0045d140 f i CMessageManager.obj
 0001:0005c140       ?max_size@?$list@PAUMESSAGE_OBSERVER@@V?$allocator@PAUMESSAGE_OBSERVER@@@std@@@std@@QBEIXZ 0045d140 f i CMessageManager.obj
 0001:0005c140       ?max_size@?$list@PAVAfxUserConfig_Observer@@V?$allocator@PAVAfxUserConfig_Observer@@@std@@@std@@QBEIXZ 0045d140 f i AfxUserConfig.obj
 0001:0005c140       ?max_size@?$list@PAVCSubLabel@@V?$allocator@PAVCSubLabel@@@std@@@std@@QBEIXZ 0045d140 f i SubjectChildWnd.obj
 0001:0005c160       ??0_Node@?$_List_nod@PAVCSubLabel@@V?$allocator@PAVCSubLabel@@@std@@@std@@QAE@PAU012@0ABQAVCSubLabel@@@Z 0045d160 f i SubjectChildWnd.obj
 0001:0005c160       ??0_Node@?$_List_nod@PAVAfxUserConfig_Observer@@V?$allocator@PAVAfxUserConfig_Observer@@@std@@@std@@QAE@PAU012@0ABQAVAfxUserConfig_Observer@@@Z 0045d160 f i AfxUserConfig.obj
 0001:0005c160       ??0_Node@?$_List_nod@PAVCSkinButton@@V?$allocator@PAVCSkinButton@@@std@@@std@@QAE@PAU012@0ABQAVCSkinButton@@@Z 0045d160 f i SkinWnd.obj
 0001:0005c160       ??0_Node@?$_List_nod@PAVIMessageObserver@@V?$allocator@PAVIMessageObserver@@@std@@@std@@QAE@PAU012@0ABQAVIMessageObserver@@@Z 0045d160 f i CMessageManager.obj
 0001:0005c160       ??0_Node@?$_List_nod@PAUMESSAGE_OBSERVER@@V?$allocator@PAUMESSAGE_OBSERVER@@@std@@@std@@QAE@PAU012@0ABQAUMESSAGE_OBSERVER@@@Z 0045d160 f i CMessageManager.obj
 0001:0005c190       ??0CSubLabel@@QAE@XZ       0045d190 f   SubLabel.obj
 0001:0005c250       ??1CSubLabel@@UAE@XZ       0045d250 f   SubLabel.obj
 0001:0005c2f0       ?GetThisMessageMap@CSubLabel@@KGPBUAFX_MSGMAP@@XZ 0045d2f0 f   SubLabel.obj
 0001:0005c300       ?GetMessageMap@CSubLabel@@MBEPBUAFX_MSGMAP@@XZ 0045d300 f   SubLabel.obj
 0001:0005c310       ?OnCreate@CSubLabel@@QAEHPAUtagCREATESTRUCTA@@@Z 0045d310 f   SubLabel.obj
 0001:0005c350       ?OnPaint@CSubLabel@@QAEXXZ 0045d350 f   SubLabel.obj
 0001:0005c4c0       ?SetText@CSubLabel@@QAEXV?$CStringT@DV?$StrTraitMFC_DLL@DV?$ChTraitsCRT@D@ATL@@@@@ATL@@@Z 0045d4c0 f   SubLabel.obj
 0001:0005c520       ?SetSelect@CSubLabel@@QAEXH@Z 0045d520 f   SubLabel.obj
 0001:0005c540       ??_GCSubLabel@@UAEPAXI@Z   0045d540 f i SubLabel.obj
 0001:0005c540       ??_ECSubLabel@@UAEPAXI@Z   0045d540 f i SubLabel.obj
 0001:0005c570       ?GetThisMessageMap@CSubSkinButton@@KGPBUAFX_MSGMAP@@XZ 0045d570 f   SubSkinButton.obj
 0001:0005c580       ?GetMessageMap@CSubSkinButton@@MBEPBUAFX_MSGMAP@@XZ 0045d580 f   SubSkinButton.obj
 0001:0005c590       ??0CSubSkinButton@@QAE@XZ  0045d590 f   SubSkinButton.obj
 0001:0005c610       ??1CSubSkinButton@@UAE@XZ  0045d610 f   SubSkinButton.obj
 0001:0005c760       ?OnLButtonDown@CSubSkinButton@@QAEXIVCPoint@@@Z 0045d760 f   SubSkinButton.obj
 0001:0005c910       ?DrawItem@CSubSkinButton@@MAEXPAUtagDRAWITEMSTRUCT@@@Z 0045d910 f   SubSkinButton.obj
 0001:0005cbc0       ?SetPngFrame@CSubSkinButton@@UAEHV?$CStringT@DV?$StrTraitMFC_DLL@DV?$ChTraitsCRT@D@ATL@@@@@ATL@@@Z 0045dbc0 f   SubSkinButton.obj
 0001:0005cd40       ?CreatePngBitmap@CSubSkinButton@@AAEPAVCGdiPlusBitmap@CSkinButton@@V?$CStringT@DV?$StrTraitMFC_DLL@DV?$ChTraitsCRT@D@ATL@@@@@ATL@@@Z 0045dd40 f   SubSkinButton.obj
 0001:0005cec0       ?SetPngHoverSkin@CSubSkinButton@@UAEHV?$CStringT@DV?$StrTraitMFC_DLL@DV?$ChTraitsCRT@D@ATL@@@@@ATL@@@Z 0045dec0 f   SubSkinButton.obj
 0001:0005d1b0       ?DrawBtnFrame@CSubSkinButton@@IAEXAAVGraphics@Gdiplus@@@Z 0045e1b0 f   SubSkinButton.obj
 0001:0005d2b0       ?IsMouseInDeleteButton@CSubSkinButton@@AAEHXZ 0045e2b0 f   SubSkinButton.obj
 0001:0005d390       ?DrawHoverImage@CSubSkinButton@@IAEXAAVGraphics@Gdiplus@@@Z 0045e390 f   SubSkinButton.obj
 0001:0005d4a0       ?IsClickPng@CSubSkinButton@@UAEHXZ 0045e4a0 f   SubSkinButton.obj
 0001:0005d4c0       ?SetClickPng@CSubSkinButton@@UAEXH@Z 0045e4c0 f   SubSkinButton.obj
 0001:0005d4e0       ?OnMouseMove@CSubSkinButton@@QAEXIVCPoint@@@Z 0045e4e0 f   SubSkinButton.obj
 0001:0005d630       ?OnTimer@CSubSkinButton@@QAEXI@Z 0045e630 f   SubSkinButton.obj
 0001:0005d660       ?OnMouseLeave@CSubSkinButton@@QAEJIJ@Z 0045e660 f   SubSkinButton.obj
 0001:0005d6a0       ?OnRButtonDown@CSubSkinButton@@IAEXIVCPoint@@@Z 0045e6a0 f   SubSkinButton.obj
 0001:0005d6d0       ?OnApplySkin@CSubSkinButton@@IAEXXZ 0045e6d0 f   SubSkinButton.obj
 0001:0005d700       ?OnDeleteSkin@CSubSkinButton@@IAEXXZ 0045e700 f   SubSkinButton.obj
 0001:0005d7f0       ?OnMoreSkin@CSubSkinButton@@IAEXXZ 0045e7f0 f   SubSkinButton.obj
 0001:0005d890       ??_ECSubSkinButton@@UAEPAXI@Z 0045e890 f i SubSkinButton.obj
 0001:0005d890       ??_GCSubSkinButton@@UAEPAXI@Z 0045e890 f i SubSkinButton.obj
 0001:0005d8c0       ?ReleaseHDC@Graphics@Gdiplus@@QAEXPAUHDC__@@@Z 0045e8c0 f i SubSkinButton.obj
 0001:0005d8f0       ?DrawImage@Graphics@Gdiplus@@QAE?AW4Status@2@PAVImage@2@ABVRect@2@HHHHW4Unit@2@PBVImageAttributes@2@P6GHPAX@Z4@Z 0045e8f0 f i SubSkinButton.obj
 0001:0005d990       ??0CWebSubWnd@@QAE@XZ      0045e990 f   WebSubWnd.obj
 0001:0005da60       ??1CWebSubWnd@@UAE@XZ      0045ea60 f   WebSubWnd.obj
 0001:0005db40       ?GetThisClass@CWebSubWnd@@SGPAUCRuntimeClass@@XZ 0045eb40 f   WebSubWnd.obj
 0001:0005db50       ?GetRuntimeClass@CWebSubWnd@@UBEPAUCRuntimeClass@@XZ 0045eb50 f   WebSubWnd.obj
 0001:0005db60       ?GetThisMessageMap@CWebSubWnd@@KGPBUAFX_MSGMAP@@XZ 0045eb60 f   WebSubWnd.obj
 0001:0005db70       ?GetMessageMap@CWebSubWnd@@MBEPBUAFX_MSGMAP@@XZ 0045eb70 f   WebSubWnd.obj
 0001:0005db80       ?OnCreate@CWebSubWnd@@QAEHPAUtagCREATESTRUCTA@@@Z 0045eb80 f   WebSubWnd.obj
 0001:0005dc00       ?OnNavigateError@CWebSubWnd@@UAEXPBD0KPAH@Z 0045ec00 f   WebSubWnd.obj
 0001:0005dda0       ?OnGetHostInfo@CWebSubWnd@@UAEJPAU_DOCHOSTUIINFO@@@Z 0045eda0 f   WebSubWnd.obj
 0001:0005ddd0       ?OnNavigateComplete2@CWebSubWnd@@UAEXPBD@Z 0045edd0 f   WebSubWnd.obj
 0001:0005dee0       ?Navigate@CWebSubWnd@@QAEXXZ 0045eee0 f   WebSubWnd.obj
 0001:0005df70       ?IWebRefreshOb_Refresh@CWebSubWnd@@UAEXPBD@Z 0045ef70 f   WebSubWnd.obj
 0001:0005e060       ?OnSize@CWebSubWnd@@QAEXIHH@Z 0045f060 f   WebSubWnd.obj
 0001:0005e0a0       ?OnDocumentComplete@CWebSubWnd@@UAEXPBD@Z 0045f0a0 f   WebSubWnd.obj
 0001:0005e0d0       ??_ECWebSubWnd@@UAEPAXI@Z  0045f0d0 f i WebSubWnd.obj
 0001:0005e0d0       ??_GCWebSubWnd@@UAEPAXI@Z  0045f0d0 f i WebSubWnd.obj
 0001:0005e100       ??0IWebRefreshObserver@@QAE@XZ 0045f100 f i WebSubWnd.obj
 0001:0005e120       ??_GIHttpDownObserver@@UAEPAXI@Z 0045f120 f i GamePanelWnd.obj
 0001:0005e120       ??_EIQQItemCountChangeObserver@@UAEPAXI@Z 0045f120 f i PlayedGameWnd.obj
 0001:0005e120       ??_GITabBarObserver@@UAEPAXI@Z 0045f120 f i TabBarWnd.obj
 0001:0005e120       ??_GIPanelChangeObserver@@UAEPAXI@Z 0045f120 f i PlayBoxDlg.obj
 0001:0005e120       ??_EIWebRefreshObserver@@UAEPAXI@Z 0045f120 f i WebSubWnd.obj
 0001:0005e120       ??_GIQQItemCountChangeObserver@@UAEPAXI@Z 0045f120 f i PlayedGameWnd.obj
 0001:0005e120       ??_EIPanelChangeObserver@@UAEPAXI@Z 0045f120 f i PlayBoxDlg.obj
 0001:0005e120       ??_GILayoutChangeObserver@@UAEPAXI@Z 0045f120 f i PlayBoxDlg.obj
 0001:0005e120       ??_EIHttpDownObserver@@UAEPAXI@Z 0045f120 f i GamePanelWnd.obj
 0001:0005e120       ??_EILayoutChangeObserver@@UAEPAXI@Z 0045f120 f i PlayBoxDlg.obj
 0001:0005e120       ??_EITabBarObserver@@UAEPAXI@Z 0045f120 f i TabBarWnd.obj
 0001:0005e120       ??_GIWebRefreshObserver@@UAEPAXI@Z 0045f120 f i WebSubWnd.obj
 0001:0005e150       ??_ECWebSubWnd@@WPA@AEPAXI@Z 0045f150 f i WebSubWnd.obj
 0001:0005e160       ?Refresh2@CHtmlView@@QAEXH@Z 0045f160 f i WebSubWnd.obj
 0001:0005e1f0       ??0CWndColorMgr@@QAE@XZ    0045f1f0 f   WndColorMgr.obj
 0001:0005e290       ??1CWndColorMgr@@QAE@XZ    0045f290 f   WndColorMgr.obj
 0001:0005e2e0       ?getColor@CWndColorMgr@@QAEPAUCtrColBase@@I@Z 0045f2e0 f   WndColorMgr.obj
 0001:0005e300       ?setColor@CWndColorMgr@@QAEHI@Z 0045f300 f   WndColorMgr.obj
 0001:0005e320       ?inIt@CWndColorMgr@@AAEXXZ 0045f320 f   WndColorMgr.obj
 0001:0005e550       ??0CtrColBase@@QAE@XZ      0045f550 f i WndColorMgr.obj
 0001:0005e5d0       ??1CtrColBase@@QAE@XZ      0045f5d0 f i WndColorMgr.obj
 0001:0005e610       ??_GBaseColor@@QAEPAXI@Z   0045f610 f i WndColorMgr.obj
 0001:0005e640       ??_ECtrColBase@@QAEPAXI@Z  0045f640 f i WndColorMgr.obj
 0001:0005e6b0       ?GetHomePath@CLhcImg@@SA_NQADH@Z 0045f6b0 f   LhcImg.obj
 0001:0005e840       ?GetConfigPath@CLhcImg@@SA_NQADH@Z 0045f840 f   LhcImg.obj
 0001:0005e8d0       ?GetAdPath@CLhcImg@@SA_NQADH@Z 0045f8d0 f   LhcImg.obj
 0001:0005e930       ?GetAdConfigPath@CLhcImg@@SA_NQADH@Z 0045f930 f   LhcImg.obj
 0001:0005e990       ?GetTempConfigPath@CLhcImg@@SA_NQADH@Z 0045f990 f   LhcImg.obj
 0001:0005ea10       ?GetRegServer@CLhcImg@@SA_NQADH@Z 0045fa10 f   LhcImg.obj
 0001:0005ea40       ?GetUpdateServer@CLhcImg@@SA_NQADH@Z 0045fa40 f   LhcImg.obj
 0001:0005ea70       ?GetLogServer@CLhcImg@@SA_NQADH@Z 0045fa70 f   LhcImg.obj
 0001:0005eaa0       ?GetUpLogServer@CLhcImg@@SA_NQADH@Z 0045faa0 f   LhcImg.obj
 0001:0005ead0       ?GetConfigServer@CLhcImg@@SA_NQADH@Z 0045fad0 f   LhcImg.obj
 0001:0005eb00       ?GetSoftwareVersion@CLhcImg@@SA_NQADH@Z 0045fb00 f   LhcImg.obj
 0001:0005eb30       ?GetLogFilePath@CLhcImg@@SA_NQADH@Z 0045fb30 f   LhcImg.obj
 0001:0005ebb0       ?GetUserID@CLhcImg@@SA_NQADH@Z 0045fbb0 f   LhcImg.obj
 0001:0005ebd0       ?GetInstallSRC@CLhcImg@@SA_NQADH@Z 0045fbd0 f   LhcImg.obj
 0001:0005ebf0       ?GetAdDataServer@CLhcImg@@SA_NAAV?$basic_string@DU?$char_traits@D@std@@V?$allocator@D@2@@std@@@Z 0045fbf0 f   LhcImg.obj
 0001:0005ec60       ?CheckUpdateADData@CLhcImg@@SA_NXZ 0045fc60 f   LhcImg.obj
 0001:0005ecf0       ?SetUpdateADData@CLhcImg@@SA_NXZ 0045fcf0 f   LhcImg.obj
 0001:0005ed70       ?GetUpdateTipsDelay@CLhcImg@@SAHXZ 0045fd70 f   LhcImg.obj
 0001:0005ede0       ?GetTickCount@CTime@ATL@@SG?AV12@XZ 0045fde0 f i LhcImg.obj
 0001:0005ee00       ??0CTime@ATL@@QAE@XZ       0045fe00 f i LhcImg.obj
 0001:0005ee20       ?GetYear@CTime@ATL@@QBEHXZ 0045fe20 f i LhcImg.obj
 0001:0005ee60       ?GetLocalTm@CTime@ATL@@QBEPAUtm@@PAU3@@Z 0045fe60 f i LhcImg.obj
 0001:0005eec0       ?GetMonth@CTime@ATL@@QBEHXZ 0045fec0 f i LhcImg.obj
 0001:0005ef00       ?GetDay@CTime@ATL@@QBEHXZ  0045ff00 f i LhcImg.obj
 0001:0005ef40       ?MoveFileDelayAbPath@@YAXAAV?$CStringT@DV?$StrTraitATL@DV?$ChTraitsCRT@D@ATL@@@ATL@@@ATL@@@Z 0045ff40 f   tools.obj
 0001:0005f320       ?ConvertGB2312ToUnicode@@YAXPADPA_WH@Z 00460320 f   tools.obj
 0001:0005f390       ?win32exec@@YAPAXPBD0_N@Z  00460390 f   tools.obj
 0001:0005f520       ?win32Showexec@@YAPAXPBD0_N@Z 00460520 f   tools.obj
 0001:0005f6c0       ?BringWindowToTop@@YAXPAUHWND__@@K@Z 004606c0 f   tools.obj
 0001:0005f740       ?RunExplorer@@YAXV?$CStringT@DV?$StrTraitATL@DV?$ChTraitsCRT@D@ATL@@@ATL@@@ATL@@00@Z 00460740 f   tools.obj
 0001:0005f890       ?ulong2str@@YA?AV?$basic_string@DU?$char_traits@D@std@@V?$allocator@D@2@@std@@K@Z 00460890 f   tools.obj
 0001:0005f920       ?long2str@@YA?AV?$basic_string@DU?$char_traits@D@std@@V?$allocator@D@2@@std@@J@Z 00460920 f   tools.obj
 0001:0005f9b0       ?uint2str@@YA?AV?$basic_string@DU?$char_traits@D@std@@V?$allocator@D@2@@std@@I@Z 004609b0 f   tools.obj
 0001:0005fa40       ?int2str@@YA?AV?$basic_string@DU?$char_traits@D@std@@V?$allocator@D@2@@std@@H@Z 00460a40 f   tools.obj
 0001:0005fad0       ?str2ulong@@YAKABV?$basic_string@DU?$char_traits@D@std@@V?$allocator@D@2@@std@@@Z 00460ad0 f   tools.obj
 0001:0005fb70       ?str2long@@YAJABV?$basic_string@DU?$char_traits@D@std@@V?$allocator@D@2@@std@@@Z 00460b70 f   tools.obj
 0001:0005fc10       ?str2double@@YANABV?$basic_string@DU?$char_traits@D@std@@V?$allocator@D@2@@std@@@Z 00460c10 f   tools.obj
 0001:0005fcb0       ?str2uint@@YAIABV?$basic_string@DU?$char_traits@D@std@@V?$allocator@D@2@@std@@@Z 00460cb0 f   tools.obj
 0001:0005fd50       ?str2int@@YAHABV?$basic_string@DU?$char_traits@D@std@@V?$allocator@D@2@@std@@@Z 00460d50 f   tools.obj
 0001:0005fdf0       ?GetFileNameFromUrl@@YA?AV?$basic_string@DU?$char_traits@D@std@@V?$allocator@D@2@@std@@V12@@Z 00460df0 f   tools.obj
 0001:0005fec0       ?ParsePath@@YA_NV?$basic_string@DU?$char_traits@D@std@@V?$allocator@D@2@@std@@AAV12@11@Z 00460ec0 f   tools.obj
 0001:000600c0       ?GetExePath@@YA?AV?$basic_string@DU?$char_traits@D@std@@V?$allocator@D@2@@std@@XZ 004610c0 f   tools.obj
 0001:00060210       ?CutLogFile@@YA_NV?$basic_string@DU?$char_traits@D@std@@V?$allocator@D@2@@std@@H@Z 00461210 f   tools.obj
 0001:000603b0       ?FormatTime@@YA?AV?$basic_string@DU?$char_traits@D@std@@V?$allocator@D@2@@std@@ABU_SYSTEMTIME@@@Z 004613b0 f   tools.obj
 0001:00060720       ?GetKeyValueStrUnescape@@YA?AV?$basic_string@DU?$char_traits@D@std@@V?$allocator@D@2@@std@@ABV12@0@Z 00461720 f   tools.obj
 0001:00060920       ?GetKeyValueStr1@@YA?AV?$basic_string@DU?$char_traits@D@std@@V?$allocator@D@2@@std@@ABV12@0@Z 00461920 f   tools.obj
 0001:00060a40       ?GetKeyValueStr@@YA?AV?$basic_string@DU?$char_traits@D@std@@V?$allocator@D@2@@std@@ABV12@0@Z 00461a40 f   tools.obj
 0001:00060b70       ?str2rgb@@YAKV?$basic_string@DU?$char_traits@D@std@@V?$allocator@D@2@@std@@@Z 00461b70 f   tools.obj
 0001:00060e30       ?RandomIntValue@@YAXHPAH@Z 00461e30 f   tools.obj
 0001:00060ee0       ?GetCurrentDate@@YAIXZ     00461ee0 f   tools.obj
 0001:00060f00       ?RSHash@@YAJPBD@Z          00461f00 f   tools.obj
 0001:00060f60       ?IsVista@@YA_NXZ           00461f60 f   tools.obj
 0001:00061030       ?ReplaceInvalidPlaylist@@YAXABV?$basic_string@DU?$char_traits@D@std@@V?$allocator@D@2@@std@@AAV12@@Z 00462030 f   tools.obj
 0001:00061180       ?ShowNoActiveTopWindow@@YAXPAUHWND__@@@Z 00462180 f   tools.obj
 0001:00061240       ?GetDisksProperty@@YAHPAXPAU_STORAGE_DEVICE_DESCRIPTOR@@@Z 00462240 f   tools.obj
 0001:000612a0       ?chFirstDriveFromMask@@YADK@Z 004622a0 f   tools.obj
 0001:000612e0       ?ReInitUSB_Disk_Letter@@YAXPAD@Z 004622e0 f   tools.obj
 0001:000615b0       ?LoadAnImage@@YAPAUHBITMAP__@@PBD@Z 004625b0 f   tools.obj
 0001:00061710       ?IsNetAlive@@YA_NXZ        00462710 f   tools.obj
 0001:00061730       ?GBToUTF8@@YA?AV?$basic_string@DU?$char_traits@D@std@@V?$allocator@D@2@@std@@PBD@Z 00462730 f   tools.obj
 0001:00061880       ?UTF8ToGB@@YA?AV?$basic_string@DU?$char_traits@D@std@@V?$allocator@D@2@@std@@PBD@Z 00462880 f   tools.obj
 0001:000619d0       ?IsNumber@@YA_NV?$basic_string@DU?$char_traits@D@std@@V?$allocator@D@2@@std@@@Z 004629d0 f   tools.obj
 0001:00061a80       ??0?$CStringT@DV?$StrTraitATL@DV?$ChTraitsCRT@D@ATL@@@ATL@@@ATL@@QAE@XZ 00462a80 f i tools.obj
 0001:00061aa0       ??0?$CStringT@DV?$StrTraitATL@DV?$ChTraitsCRT@D@ATL@@@ATL@@@ATL@@QAE@ABV01@@Z 00462aa0 f i tools.obj
 0001:00061ac0       ??0?$CStringT@DV?$StrTraitATL@DV?$ChTraitsCRT@D@ATL@@@ATL@@@ATL@@QAE@PBD@Z 00462ac0 f i tools.obj
 0001:00061b30       ??1?$CStringT@DV?$StrTraitATL@DV?$ChTraitsCRT@D@ATL@@@ATL@@@ATL@@QAE@XZ 00462b30 f i tools.obj
 0001:00061b50       ??4?$CStringT@DV?$StrTraitATL@DV?$ChTraitsCRT@D@ATL@@@ATL@@@ATL@@QAEAAV01@ABV01@@Z 00462b50 f i tools.obj
 0001:00061b70       ??4?$CStringT@DV?$StrTraitATL@DV?$ChTraitsCRT@D@ATL@@@ATL@@@ATL@@QAEAAV01@PBD@Z 00462b70 f i tools.obj
 0001:00061b90       ?Find@?$CStringT@DV?$StrTraitATL@DV?$ChTraitsCRT@D@ATL@@@ATL@@@ATL@@QBEHDH@Z 00462b90 f i tools.obj
 0001:00061c00       ?ReverseFind@?$CStringT@DV?$StrTraitATL@DV?$ChTraitsCRT@D@ATL@@@ATL@@@ATL@@QBEHD@Z 00462c00 f i tools.obj
 0001:00061c50       ?Right@?$CStringT@DV?$StrTraitATL@DV?$ChTraitsCRT@D@ATL@@@ATL@@@ATL@@QBE?AV12@H@Z 00462c50 f i tools.obj
 0001:00061cd0       ?Left@?$CStringT@DV?$StrTraitATL@DV?$ChTraitsCRT@D@ATL@@@ATL@@@ATL@@QBE?AV12@H@Z 00462cd0 f i tools.obj
 0001:00061d50       ?Format@?$CStringT@DV?$StrTraitATL@DV?$ChTraitsCRT@D@ATL@@@ATL@@@ATL@@QAAXPBDZZ 00462d50 f i tools.obj
 0001:00061d80       ??HATL@@YA?AV?$CStringT@DV?$StrTraitATL@DV?$ChTraitsCRT@D@ATL@@@ATL@@@0@ABV10@0@Z 00462d80 f i tools.obj
 0001:00061e20       ?GetBuffer@?$CSimpleStringT@D$0A@@ATL@@QAEPADXZ 00462e20 f i tools.obj
 0001:00061e60       ?IsShared@CStringData@ATL@@QBE_NXZ 00462e60 f i tools.obj
 0001:00061e80       ?GetLength@?$CSimpleStringT@D$0A@@ATL@@QBEHXZ 00462e80 f i tools.obj
 0001:00061ea0       ??Eiterator@?$vector@UTFrame@CPictureEx@@V?$allocator@UTFrame@CPictureEx@@@std@@@std@@QAE?AV012@H@Z 00462ea0 f i PictureEx.obj
 0001:00061ea0       ??Eiterator@?$vector@V?$basic_string@DU?$char_traits@D@std@@V?$allocator@D@2@@std@@V?$allocator@V?$basic_string@DU?$char_traits@D@std@@V?$allocator@D@2@@std@@@2@@std@@QAE?AV012@H@Z 00462ea0 f i tools.obj
 0001:00061ed0       ??0?$CStringT@DV?$StrTraitATL@DV?$ChTraitsCRT@D@ATL@@@ATL@@@ATL@@QAE@PAUIAtlStringMgr@1@@Z 00462ed0 f i tools.obj
 0001:00061ef0       ??0?$CStringT@DV?$StrTraitATL@DV?$ChTraitsCRT@D@ATL@@@ATL@@@ATL@@QAE@PBDHPAUIAtlStringMgr@1@@Z 00462ef0 f i tools.obj
 0001:00061f20       ?FormatV@?$CStringT@DV?$StrTraitATL@DV?$ChTraitsCRT@D@ATL@@@ATL@@@ATL@@QAEXPBDPAD@Z 00462f20 f i tools.obj
 0001:00061f90       ?CheckImplicitLoad@?$CStringT@DV?$StrTraitATL@DV?$ChTraitsCRT@D@ATL@@@ATL@@@ATL@@AAE_NPBX@Z 00462f90 f i tools.obj
 0001:00061fe0       ??0?$CSimpleStringT@D$0A@@ATL@@QAE@PAUIAtlStringMgr@1@@Z 00462fe0 f i tools.obj
 0001:00062010       ??0?$CSimpleStringT@D$0A@@ATL@@QAE@ABV01@@Z 00463010 f i tools.obj
 0001:00062050       ??1?$CSimpleStringT@D$0A@@ATL@@QAE@XZ 00463050 f i tools.obj
 0001:00062070       ?Release@CStringData@ATL@@QAEXXZ 00463070 f i tools.obj
 0001:000620b0       ??4?$CSimpleStringT@D$0A@@ATL@@QAEAAV01@ABV01@@Z 004630b0 f i tools.obj
 0001:00062140       ?IsLocked@CStringData@ATL@@QBE_NXZ 00463140 f i tools.obj
 0001:00062160       ??4?$CSimpleStringT@D$0A@@ATL@@QAEAAV01@PBD@Z 00463160 f i tools.obj
 0001:00062180       ?GetManager@?$CSimpleStringT@D$0A@@ATL@@QBEPAUIAtlStringMgr@2@XZ 00463180 f i tools.obj
 0001:000621b0       ?Concatenate@?$CSimpleStringT@D$0A@@ATL@@KAXAAV12@PBDH1H@Z 004631b0 f i tools.obj
 0001:00062210       ?Fork@?$CSimpleStringT@D$0A@@ATL@@AAEXH@Z 00463210 f i tools.obj
 0001:000622c0       ?data@CStringData@ATL@@QAEPAXXZ 004632c0 f i tools.obj
 0001:000622e0       ?GetData@?$CSimpleStringT@D$0A@@ATL@@ABEPAUCStringData@2@XZ 004632e0 f i tools.obj
 0001:00062300       ?GetDefaultManager@?$StrTraitATL@DV?$ChTraitsCRT@D@ATL@@@ATL@@SAPAUIAtlStringMgr@2@XZ 00463300 f i tools.obj
 0001:00062310       ?StringFindChar@?$ChTraitsCRT@D@ATL@@SAPBDPBDD@Z 00463310 f i tools.obj
 0001:00062330       ?StringFindCharRev@?$ChTraitsCRT@D@ATL@@SAPBDPBDD@Z 00463330 f i tools.obj
 0001:00062350       ?LoadStringA@?$CStringT@DV?$StrTraitATL@DV?$ChTraitsCRT@D@ATL@@@ATL@@@ATL@@QAEHI@Z 00463350 f i tools.obj
 0001:00062390       ??0?$CSimpleStringT@D$0A@@ATL@@QAE@PBDHPAUIAtlStringMgr@1@@Z 00463390 f i tools.obj
 0001:00062410       ?GetBuffer@?$CSimpleStringT@D$0A@@ATL@@QAEPADH@Z 00463410 f i tools.obj
 0001:00062430       ?ReleaseBufferSetLength@?$CSimpleStringT@D$0A@@ATL@@QAEXH@Z 00463430 f i tools.obj
 0001:00062450       ?SetString@?$CSimpleStringT@D$0A@@ATL@@QAEXPBD@Z 00463450 f i tools.obj
 0001:00062480       ?SetString@?$CSimpleStringT@D$0A@@ATL@@QAEXPBDH@Z 00463480 f i tools.obj
 0001:00062520       ?CopyChars@?$CSimpleStringT@D$0A@@ATL@@SAXPADPBDH@Z 00463520 f i tools.obj
 0001:00062540       ?ThrowMemoryException@?$CSimpleStringT@D$0A@@ATL@@KAXXZ 00463540 f i tools.obj
 0001:00062550       ?Attach@?$CSimpleStringT@D$0A@@ATL@@AAEXPAUCStringData@2@@Z 00463550 f i tools.obj
 0001:00062570       ?CloneData@?$CSimpleStringT@D$0A@@ATL@@CAPAUCStringData@2@PAU32@@Z 00463570 f i tools.obj
 0001:00062620       ?AddRef@CStringData@ATL@@QAEXXZ 00463620 f i tools.obj
 0001:00062640       ?GetFormattedLength@?$ChTraitsCRT@D@ATL@@SAHPBDPAD@Z 00463640 f i tools.obj
 0001:00062660       ?Format@?$ChTraitsCRT@D@ATL@@SAHPADPBD0@Z 00463660 f i tools.obj
 0001:00062680       ?LoadStringA@?$CStringT@DV?$StrTraitATL@DV?$ChTraitsCRT@D@ATL@@@ATL@@@ATL@@QAEHPAUHINSTANCE__@@I@Z 00463680 f i tools.obj
 0001:00062710       ?AtlGetStringResourceImage@ATL@@YAPBUATLSTRINGRESOURCEIMAGE@1@PAUHINSTANCE__@@I@Z 00463710 f i tools.obj
 0001:00062760       ?_AtlGetStringResourceImage@ATL@@YAPBUATLSTRINGRESOURCEIMAGE@1@PAUHINSTANCE__@@PAUHRSRC__@@I@Z 00463760 f i tools.obj
 0001:00062810       ?Empty@?$CSimpleStringT@D$0A@@ATL@@QAEXXZ 00463810 f i tools.obj
 0001:00062880       ?CopyCharsOverlapped@?$CSimpleStringT@D$0A@@ATL@@SAXPADPBDH@Z 00463880 f i tools.obj
 0001:000628a0       ?StringLength@?$CSimpleStringT@D$0A@@ATL@@SAHPBD@Z 004638a0 f i tools.obj
 0001:000628c0       ?PrepareWrite@?$CSimpleStringT@D$0A@@ATL@@AAEPADH@Z 004638c0 f i tools.obj
 0001:00062910       ?SetLength@?$CSimpleStringT@D$0A@@ATL@@AAEXH@Z 00463910 f i tools.obj
 0001:00062960       ?FindStringResourceInstance@?$StrTraitATL@DV?$ChTraitsCRT@D@ATL@@@ATL@@SAPAUHINSTANCE__@@I@Z 00463960 f i tools.obj
 0001:00062980       ?AtlFindStringResourceInstance@ATL@@YAPAUHINSTANCE__@@IG@Z 00463980 f i tools.obj
 0001:00062a00       ?AtlGetStringResourceImage@ATL@@YAPBUATLSTRINGRESOURCEIMAGE@1@PAUHINSTANCE__@@IG@Z 00463a00 f i tools.obj
 0001:00062a50       ?PrepareWrite2@?$CSimpleStringT@D$0A@@ATL@@AAEXH@Z 00463a50 f i tools.obj
 0001:00062af0       ?GetBaseTypeLength@?$ChTraitsCRT@D@ATL@@SAHPB_WH@Z 00463af0 f i tools.obj
 0001:00062b20       ?ConvertToBaseType@?$ChTraitsCRT@D@ATL@@SAXPADHPB_WH@Z 00463b20 f i tools.obj
 0001:00062b50       ?Reallocate@?$CSimpleStringT@D$0A@@ATL@@AAEXH@Z 00463b50 f i tools.obj
 0001:00062bb0       ??$?6DU?$char_traits@D@std@@H@std@@YAAAV?$basic_ostream@DU?$char_traits@D@std@@@0@AAV10@ABU?$_Smanip@H@0@@Z 00463bb0 f i tools.obj
 0001:00062bf0       ?YL_Base64Encode@@YAHPADPBDH@Z 00463bf0 f   YL_Base64.obj
 0001:00062dd0       ?YL_Base64Decode@@YAHPADPBD@Z 00463dd0 f   YL_Base64.obj
 0001:00063060       ?YL_Base64Encode@@YAHPADPBDH1@Z 00464060 f   YL_Base64.obj
 0001:00063130       ?YL_Base64Decode@@YAHPADPBD1@Z 00464130 f   YL_Base64.obj
 0001:000631d0       ?GetWindowsDir@YL_DirInfo@@SA_NQADI@Z 004641d0 f   YL_DirInfo.obj
 0001:00063290       ?GetWindowsDir@YL_DirInfo@@SA_NAAV?$basic_string@DU?$char_traits@D@std@@V?$allocator@D@2@@std@@@Z 00464290 f   YL_DirInfo.obj
 0001:000632e0       ?GetSystemDir@YL_DirInfo@@SA_NQADI@Z 004642e0 f   YL_DirInfo.obj
 0001:000633a0       ?GetSystemDir@YL_DirInfo@@SA_NAAV?$basic_string@DU?$char_traits@D@std@@V?$allocator@D@2@@std@@@Z 004643a0 f   YL_DirInfo.obj
 0001:000633f0       ?GetTempDir@YL_DirInfo@@SA_NQADI@Z 004643f0 f   YL_DirInfo.obj
 0001:000634b0       ?GetTempDir@YL_DirInfo@@SA_NAAV?$basic_string@DU?$char_traits@D@std@@V?$allocator@D@2@@std@@@Z 004644b0 f   YL_DirInfo.obj
 0001:000636b0       ?GetProgramFilesDir@YL_DirInfo@@SA_NQADI@Z 004646b0 f   YL_DirInfo.obj
 0001:00063770       ?GetProgramFilesDir@YL_DirInfo@@SA_NAAV?$basic_string@DU?$char_traits@D@std@@V?$allocator@D@2@@std@@@Z 00464770 f   YL_DirInfo.obj
 0001:000637c0       ?MakeDir@YL_DirInfo@@SA_NPBD@Z 004647c0 f   YL_DirInfo.obj
 0001:00063840       ?MakeDir@YL_DirInfo@@SA_NABV?$basic_string@DU?$char_traits@D@std@@V?$allocator@D@2@@std@@@Z 00464840 f   YL_DirInfo.obj
 0001:00063b20       ?DeleteDir@YL_DirInfo@@SA_NPBD@Z 00464b20 f   YL_DirInfo.obj
 0001:00063ba0       ?DeleteDir@YL_DirInfo@@SA_NABV?$basic_string@DU?$char_traits@D@std@@V?$allocator@D@2@@std@@@Z 00464ba0 f   YL_DirInfo.obj
 0001:00063cf0       ?ClearDir@YL_DirInfo@@SA_NPBD0@Z 00464cf0 f   YL_DirInfo.obj
 0001:00063e30       ?ClearDir@YL_DirInfo@@SA_NABV?$basic_string@DU?$char_traits@D@std@@V?$allocator@D@2@@std@@0@Z 00464e30 f   YL_DirInfo.obj
 0001:000641d0       ?FindFileAndDir@YL_DirInfo@@SA_NABV?$basic_string@DU?$char_traits@D@std@@V?$allocator@D@2@@std@@PAV?$vector@V?$basic_string@DU?$char_traits@D@std@@V?$allocator@D@2@@std@@V?$allocator@V?$basic_string@DU?$char_traits@D@std@@V?$allocator@D@2@@std@@@2@@3@1_NPBV43@@Z 004651d0 f   YL_DirInfo.obj
 0001:00064780       ?GetSubDirNames@YL_DirInfo@@SAXABV?$basic_string@DU?$char_traits@D@std@@V?$allocator@D@2@@std@@AAV?$vector@V?$basic_string@DU?$char_traits@D@std@@V?$allocator@D@2@@std@@V?$allocator@V?$basic_string@DU?$char_traits@D@std@@V?$allocator@D@2@@std@@@2@@3@@Z 00465780 f   YL_DirInfo.obj
 0001:000648e0       ?GetDiskNames@YL_DirInfo@@SA_NAAV?$vector@V?$basic_string@DU?$char_traits@D@std@@V?$allocator@D@2@@std@@V?$allocator@V?$basic_string@DU?$char_traits@D@std@@V?$allocator@D@2@@std@@@2@@std@@@Z 004658e0 f   YL_DirInfo.obj
 0001:000649f0       ?GetLargestFreeBytesDisk@YL_DirInfo@@SA_NAAV?$basic_string@DU?$char_traits@D@std@@V?$allocator@D@2@@std@@@Z 004659f0 f   YL_DirInfo.obj
 0001:00064b40       ??A?$vector@V?$basic_string@DU?$char_traits@D@std@@V?$allocator@D@2@@std@@V?$allocator@V?$basic_string@DU?$char_traits@D@std@@V?$allocator@D@2@@std@@@2@@std@@QBEABV?$basic_string@DU?$char_traits@D@std@@V?$allocator@D@2@@1@I@Z 00465b40 f i YL_DirInfo.obj
 0001:00064b80       ?StrHash@YL_EncFileReg@@SA?AV?$basic_string@DU?$char_traits@D@std@@V?$allocator@D@2@@std@@V23@@Z 00465b80 f   YL_EncFileReg.obj
 0001:00064c60       ?Enc@YL_EncFileReg@@SA?AV?$basic_string@DU?$char_traits@D@std@@V?$allocator@D@2@@std@@I@Z 00465c60 f   YL_EncFileReg.obj
 0001:00064cb0       ?Enc@YL_EncFileReg@@SA?AV?$basic_string@DU?$char_traits@D@std@@V?$allocator@D@2@@std@@V23@@Z 00465cb0 f   YL_EncFileReg.obj
 0001:00064da0       ?Dec2Str@YL_EncFileReg@@SA?AV?$basic_string@DU?$char_traits@D@std@@V?$allocator@D@2@@std@@V23@@Z 00465da0 f   YL_EncFileReg.obj
 0001:00064e50       ?Dec2Int@YL_EncFileReg@@SAIV?$basic_string@DU?$char_traits@D@std@@V?$allocator@D@2@@std@@@Z 00465e50 f   YL_EncFileReg.obj
 0001:00064ef0       ?GetEncFilePath@YL_EncFileReg@@SA_NAAV?$basic_string@DU?$char_traits@D@std@@V?$allocator@D@2@@std@@@Z 00465ef0 f   YL_EncFileReg.obj
 0001:000650b0       ?DeleteValue@YL_EncFileReg@@SAJPAUHKEY__@@ABV?$basic_string@DU?$char_traits@D@std@@V?$allocator@D@2@@std@@1@Z 004660b0 f   YL_EncFileReg.obj
 0001:000651b0       ?WriteString@YL_EncFileReg@@SA_NPAUHKEY__@@ABV?$basic_string@DU?$char_traits@D@std@@V?$allocator@D@2@@std@@11@Z 004661b0 f   YL_EncFileReg.obj
 0001:00065310       ?WriteString@YL_EncFileReg@@SA_NPAUHKEY__@@PBD11@Z 00466310 f   YL_EncFileReg.obj
 0001:000653f0       ?ReadString@YL_EncFileReg@@SA_NPAUHKEY__@@ABV?$basic_string@DU?$char_traits@D@std@@V?$allocator@D@2@@std@@1AAV34@@Z 004663f0 f   YL_EncFileReg.obj
 0001:00065600       ?ReadString@YL_EncFileReg@@SA_NPAUHKEY__@@PBD1QADI@Z 00466600 f   YL_EncFileReg.obj
 0001:00065790       ?WriteDWORD@YL_EncFileReg@@SA_NPAUHKEY__@@ABV?$basic_string@DU?$char_traits@D@std@@V?$allocator@D@2@@std@@1ABI@Z 00466790 f   YL_EncFileReg.obj
 0001:000658e0       ?WriteDWORD@YL_EncFileReg@@SA_NPAUHKEY__@@PBD1ABI@Z 004668e0 f   YL_EncFileReg.obj
 0001:00065990       ?ReadDWORD@YL_EncFileReg@@SA_NPAUHKEY__@@ABV?$basic_string@DU?$char_traits@D@std@@V?$allocator@D@2@@std@@1AAI@Z 00466990 f   YL_EncFileReg.obj
 0001:00065b70       ?ReadDWORD@YL_EncFileReg@@SA_NPAUHKEY__@@PBD1AAI@Z 00466b70 f   YL_EncFileReg.obj
 0001:00065c20       ?GetString@YL_EncFileReg@@SAKPBD0PADK0@Z 00466c20 f   YL_EncFileReg.obj
 0001:00065c80       ?WriteString@YL_EncFileReg@@SAHPBD00@Z 00466c80 f   YL_EncFileReg.obj
 0001:00065cb0       ?GetInt@YL_EncFileReg@@SAHPBD0H@Z 00466cb0 f   YL_EncFileReg.obj
 0001:00065cf0       ?WriteInt@YL_EncFileReg@@SAHPBD0H@Z 00466cf0 f   YL_EncFileReg.obj
 0001:00065d20       ?GetBool@YL_EncFileReg@@SAHPBD0H@Z 00466d20 f   YL_EncFileReg.obj
 0001:00065d50       ?WriteBool@YL_EncFileReg@@SAHPBD0H@Z 00466d50 f   YL_EncFileReg.obj
 0001:00065d70       ?XOR@@YAXPAD0HH@Z          00466d70 f   YL_Encrypter.obj
 0001:00065dc0       ?MOVE@@YAXPADHH@Z          00466dc0 f   YL_Encrypter.obj
 0001:00065f00       ?Encrypt@YL_Encrypter@@SAXPADHH@Z 00466f00 f   YL_Encrypter.obj
 0001:00065fb0       ?Decrypt@YL_Encrypter@@SAXPADHH@Z 00466fb0 f   YL_Encrypter.obj
 0001:00066060       ?IsValid@YL_FileInfo@@SA_NPBD@Z 00467060 f   YL_FileInfo.obj
 0001:000660e0       ?IsValid@YL_FileInfo@@SA_NABV?$basic_string@DU?$char_traits@D@std@@V?$allocator@D@2@@std@@@Z 004670e0 f   YL_FileInfo.obj
 0001:00066110       ?IsDirectory@YL_FileInfo@@SA_NPBD@Z 00467110 f   YL_FileInfo.obj
 0001:00066190       ?IsDirectory@YL_FileInfo@@SA_NABV?$basic_string@DU?$char_traits@D@std@@V?$allocator@D@2@@std@@@Z 00467190 f   YL_FileInfo.obj
 0001:000661d0       ?IsAttrSystem@YL_FileInfo@@SA_NPBD@Z 004671d0 f   YL_FileInfo.obj
 0001:00066250       ?IsAttrSystem@YL_FileInfo@@SA_NABV?$basic_string@DU?$char_traits@D@std@@V?$allocator@D@2@@std@@@Z 00467250 f   YL_FileInfo.obj
 0001:00066290       ?IsAttrReadOnly@YL_FileInfo@@SA_NPBD@Z 00467290 f   YL_FileInfo.obj
 0001:00066310       ?IsAttrReadOnly@YL_FileInfo@@SA_NABV?$basic_string@DU?$char_traits@D@std@@V?$allocator@D@2@@std@@@Z 00467310 f   YL_FileInfo.obj
 0001:00066350       ?IsAttrHidden@YL_FileInfo@@SA_NPBD@Z 00467350 f   YL_FileInfo.obj
 0001:000663d0       ?IsAttrHidden@YL_FileInfo@@SA_NABV?$basic_string@DU?$char_traits@D@std@@V?$allocator@D@2@@std@@@Z 004673d0 f   YL_FileInfo.obj
 0001:00066410       ?GetFileSize@YL_FileInfo@@SA_NPBDPAI1@Z 00467410 f   YL_FileInfo.obj
 0001:00066490       ?GetFileSize@YL_FileInfo@@SA_NABV?$basic_string@DU?$char_traits@D@std@@V?$allocator@D@2@@std@@PAI1@Z 00467490 f   YL_FileInfo.obj
 0001:00066500       ?GetFileName@YL_FileInfo@@SA_NPBDQADI@Z 00467500 f   YL_FileInfo.obj
 0001:00066630       ?GetFileName@YL_FileInfo@@SA_NABV?$basic_string@DU?$char_traits@D@std@@V?$allocator@D@2@@std@@AAV23@@Z 00467630 f   YL_FileInfo.obj
 0001:000666e0       ?GetFileNamePrefix@YL_FileInfo@@SA_NPBDQADI@Z 004676e0 f   YL_FileInfo.obj
 0001:00066810       ?GetFileNamePrefix@YL_FileInfo@@SA_NABV?$basic_string@DU?$char_traits@D@std@@V?$allocator@D@2@@std@@AAV23@@Z 00467810 f   YL_FileInfo.obj
 0001:000668f0       ?GetFileNameSuffix@YL_FileInfo@@SA_NPBDQADI@Z 004678f0 f   YL_FileInfo.obj
 0001:00066a20       ?GetFileNameSuffix@YL_FileInfo@@SA_NABV?$basic_string@DU?$char_traits@D@std@@V?$allocator@D@2@@std@@AAV23@@Z 00467a20 f   YL_FileInfo.obj
 0001:00066b00       ?GetFileDirPath@YL_FileInfo@@SA_NPBDQADI@Z 00467b00 f   YL_FileInfo.obj
 0001:00066b70       ?GetFileDirPath@YL_FileInfo@@SA_NABV?$basic_string@DU?$char_traits@D@std@@V?$allocator@D@2@@std@@AAV23@@Z 00467b70 f   YL_FileInfo.obj
 0001:00066c10       ?GetFileContent@YL_FileInfo@@SA?AV?$basic_string@DU?$char_traits@D@std@@V?$allocator@D@2@@std@@ABV23@@Z 00467c10 f   YL_FileInfo.obj
 0001:00066d30       ?SetFileContent@YL_FileInfo@@SA_NABV?$basic_string@DU?$char_traits@D@std@@V?$allocator@D@2@@std@@0@Z 00467d30 f   YL_FileInfo.obj
 0001:00066d90       ??0YL_Ini@@QAE@XZ          00467d90 f   YL_Ini.obj
 0001:00066dc0       ??0YL_Ini@@QAE@PBD@Z       00467dc0 f   YL_Ini.obj
 0001:00066df0       ??1YL_Ini@@UAE@XZ          00467df0 f   YL_Ini.obj
 0001:00066e30       ?SetPathName@YL_Ini@@QAEXPBD@Z 00467e30 f   YL_Ini.obj
 0001:00066e90       ?GetString@YL_Ini@@QBEKPBD0PADK0@Z 00467e90 f   YL_Ini.obj
 0001:00066f20       ?WriteString@YL_Ini@@QBEHPBD00@Z 00467f20 f   YL_Ini.obj
 0001:00066f70       ?GetInt@YL_Ini@@QBEHPBD0HH@Z 00467f70 f   YL_Ini.obj
 0001:00066ff0       ?GetUInt@YL_Ini@@QBEIPBD0IH@Z 00467ff0 f   YL_Ini.obj
 0001:00067070       ?GetBool@YL_Ini@@QBEHPBD0H@Z 00468070 f   YL_Ini.obj
 0001:000670d0       ?GetDouble@YL_Ini@@QBENPBD0N@Z 004680d0 f   YL_Ini.obj
 0001:00067150       ?WriteInt@YL_Ini@@QBEHPBD0HH@Z 00468150 f   YL_Ini.obj
 0001:000671b0       ?WriteUInt@YL_Ini@@QBEHPBD0IH@Z 004681b0 f   YL_Ini.obj
 0001:00067210       ?WriteDouble@YL_Ini@@QBEHPBD0NH@Z 00468210 f   YL_Ini.obj
 0001:000672c0       ?WriteBool@YL_Ini@@QBEHPBD0H@Z 004682c0 f   YL_Ini.obj
 0001:000672f0       ?GetChar@YL_Ini@@QBEDPBD0D@Z 004682f0 f   YL_Ini.obj
 0001:00067340       ?WriteChar@YL_Ini@@QBEHPBD0D@Z 00468340 f   YL_Ini.obj
 0001:00067370       ?GetDataBlock@YL_Ini@@QBEKPBD0PAXKK@Z 00468370 f   YL_Ini.obj
 0001:00067510       ?WriteDataBlock@YL_Ini@@QBEHPBD0PBXK@Z 00468510 f   YL_Ini.obj
 0001:000675d0       ?GetPoint@YL_Ini@@QBE?AUtagPOINT@@PBD0U2@@Z 004685d0 f   YL_Ini.obj
 0001:00067620       ?GetRect@YL_Ini@@QBE?AUtagRECT@@PBD0U2@@Z 00468620 f   YL_Ini.obj
 0001:00067690       ?WritePoint@YL_Ini@@QBEHPBD0UtagPOINT@@@Z 00468690 f   YL_Ini.obj
 0001:000676c0       ?WriteRect@YL_Ini@@QBEHPBD0UtagRECT@@@Z 004686c0 f   YL_Ini.obj
 0001:000676f0       ?DeleteSection@YL_Ini@@QBEHPBD@Z 004686f0 f   YL_Ini.obj
 0001:00067720       ?DeleteValue@YL_Ini@@QBEHPBD0@Z 00468720 f   YL_Ini.obj
 0001:00067750       ?__GetStringDynamic@YL_Ini@@IBEPADPBD00@Z 00468750 f   YL_Ini.obj
 0001:000678b0       ?__ToBinaryString@YL_Ini@@KAXIPADK@Z 004688b0 f   YL_Ini.obj
 0001:00067920       ?__ValidateBase@YL_Ini@@KAHH@Z 00468920 f   YL_Ini.obj
 0001:00067950       ?__IntToString@YL_Ini@@KAXHPADH@Z 00468950 f   YL_Ini.obj
 0001:000679a0       ?__UIntToString@YL_Ini@@KAXIPADH@Z 004689a0 f   YL_Ini.obj
 0001:00067a20       ?StringToBool@YL_Ini@@SAHPBDH@Z 00468a20 f   YL_Ini.obj
 0001:00067a90       ?__TrimString@YL_Ini@@KAHPAD@Z 00468a90 f   YL_Ini.obj
 0001:00067ba0       ?__StrDupEx@YL_Ini@@KAPADPBD0@Z 00468ba0 f   YL_Ini.obj
 0001:00067bf0       ??_EYL_Ini@@UAEPAXI@Z      00468bf0 f i YL_Ini.obj
 0001:00067bf0       ??_GYL_Ini@@UAEPAXI@Z      00468bf0 f i YL_Ini.obj
 0001:00067c20       __tcsncpy                  00468c20 f i YL_Ini.obj
 0001:00067c40       __tcsrev                   00468c40 f i YL_Ini.obj
 0001:00067c60       __tcsicmp                  00468c60 f i YL_Ini.obj
 0001:00067c80       ?CreateKey@YL_RegInfo@@SA_NPAUHKEY__@@ABV?$basic_string@DU?$char_traits@D@std@@V?$allocator@D@2@@std@@@Z 00468c80 f   YL_RegInfo.obj
 0001:00067cd0       ?CreateKey@YL_RegInfo@@SA_NPAUHKEY__@@PBD@Z 00468cd0 f   YL_RegInfo.obj
